(dp0
Vlimited
p1
F0.0021204254073704794
sVgt
p2
F0.0
sVpartial
p3
F0.004240850814740959
sVantipsychotics
p4
F0.0
sVresults
p5
F0.001300132885997763
sVmonth
p6
F0.0004798403646250466
sV______________
p7
F0.0
sVgpcrs
p8
F0.0
sVcomments
p9
F0.0021204254073704794
sVgo
p10
F0.0
sVmeditation
p11
F0.0
sVdecisions
p12
F0.0
sVconsider
p13
F0.0004798403646250466
sVcontent
p14
F0.004240850814740959
sVfeeding
p15
F0.001300132885997763
sVdepend
p16
F0.0021204254073704794
sVpenile
p17
F0.0
sVside_effects
p18
F0.0
sV0
p19
F0.002600265771995526
sVhelps
p20
F0.002600265771995526
sVworth
p21
F0.0008202925213727163
sVworse
p22
F0.0004798403646250466
sVbenzodiazepines
p23
F0.0
sVfar
p24
F0.00021576515596917703
sVtrouble
p25
F0.00021576515596917703
sVdifference
p26
F0.001300132885997763
sVresponders
p27
F0.0
sVexclusives
p28
F0.0
sVdin
p29
F0.0
sVmagic
p30
F0.001300132885997763
sVcompanies
p31
F0.0
sVtry
p32
F0.00021576515596917703
sVantagonize
p33
F0.0
sVregret
p34
F0.001300132885997763
sVplexus
p35
F0.0
sVjapanese
p36
F0.006361276222111438
sVpregaba
p37
F0.0
sVorgasm
p38
F0.004240850814740959
sVsecond
p39
F0.00043153031193835406
sVagonists
p40
F0.0
sVpatient
p41
F0.0021204254073704794
sVeven
p42
F0.0006472954679075311
sVappear
p43
F0.001300132885997763
sVcaffeine
p44
F0.0021204254073704794
sV25mg
p45
F0.0
sVnew
p46
F0.0
sVnever
p47
F0.0
sVprescribe
p48
F0.0021204254073704794
sVht7
p49
F0.0
sVdesired
p50
F0.0
sVselective
p51
F0.0
sVht2
p52
F0.0
sVothers
p53
F0.0004798403646250466
sVstrong
p54
F0.0008202925213727163
sVinvolved
p55
F0.001300132885997763
sVleaves
p56
F0.0004798403646250466
sVleaving
p57
F0.0004798403646250466
sVexams
p58
F0.0
sVsmoke
p59
F0.001300132885997763
sVsocial
p60
F0.0004798403646250466
sVaction
p61
F0.001300132885997763
sVoptions
p62
F0.002600265771995526
sVinvolves
p63
F0.0
sVuseful
p64
F0.0021204254073704794
sVagomelatine
p65
F0.0
sVimpulsivity
p66
F0.0
sVpsychological
p67
F0.0021204254073704794
sVmicrodosing
p68
F0.0
sVmoran
p69
F0.0
sVcocaine
p70
F0.0021204254073704794
sVuse
p71
F0.00021576515596917703
sVwould
p72
F0.0
sVtwo
p73
F0.0
sVmediate
p74
F0.0
sVcalm
p75
F0.004240850814740959
sVmemory
p76
F0.0008202925213727163
sVpregabalin
p77
F0.0
sVtype
p78
F0.0008202925213727163
sVneverending
p79
F0.0
sVentrance
p80
F0.0008202925213727163
sVtardive
p81
F0.0
sVbrings
p82
F0.001300132885997763
sVopiates
p83
F0.0021204254073704794
sVmescaline
p84
F0.0
sVdosing
p85
F0.0
sVkeeping
p86
F0.0008202925213727163
sVwork
p87
F0.0
sVsucks
p88
F0.001300132885997763
sVlongitude
p89
F0.0
sVobvious
p90
F0.0008202925213727163
sVstabilizer
p91
F0.0
sVdosage
p92
F0.004240850814740959
sVmirtazapine
p93
F0.0
sVcontrol
p94
F0.002600265771995526
sVantagonists
p95
F0.0
sVstated
p96
F0.0021204254073704794
sVorbit1
p97
F0.0
sVhigh
p98
F0.0
sVheard
p99
F0.0004798403646250466
sVminimum
p100
F0.001300132885997763
sVnumbers
p101
F0.001300132885997763
sVwant
p102
F0.0
sVsense
p103
F0.00021576515596917703
sVsharp
p104
F0.0021204254073704794
sVkeep
p105
F0.00021576515596917703
sVguarantee
p106
F0.0021204254073704794
sVdiscussion
p107
F0.001300132885997763
sVnuts
p108
F0.001300132885997763
sVtried
p109
F0.0024608775641181487
sVmay
p110
F0.00043153031193835406
sVmax
p111
F0.0021204254073704794
sVwrong
p112
F0.0004798403646250466
sVplane
p113
F0.004240850814740959
sVht1a
p114
F0.0
sVresponse
p115
F0.010602127036852396
sVreappeared
p116
F0.0021204254073704794
sVmorphine
p117
F0.006361276222111438
sVbind
p118
F0.0
sVtetracyclic
p119
F0.0
sVswitch
p120
F0.002600265771995526
sVbeating_depression_w_memantine_and_lsd
p121
F0.0
sVpleasure
p122
F0.0016405850427454326
sVaddiction
p123
F0.0
sVfirst
p124
F0.00043153031193835406
sVtalk
p125
F0.0008202925213727163
sVrestriction
p126
F0.0
sVlsd
p127
F0.0
sVcourse
p128
F0.0004798403646250466
sVincluding
p129
F0.0008202925213727163
sVlooks
p130
F0.00021576515596917703
sVjapan
p131
F0.0
sVstill
p132
F0.0
sVinsted
p133
F0.0
sV25
p134
F0.0008202925213727163
sVantipsychotic
p135
F0.0
sVclashed
p136
F0.0
sVinteresting
p137
F0.0014395210938751397
sVll
p138
F0.00021576515596917703
sVbetter
p139
F0.0006472954679075311
sVabsence
p140
F0.0
sV2014
p141
F0.0
sVmain
p142
F0.00021576515596917703
sVmight
p143
F0.00043153031193835406
sVeasier
p144
F0.0008202925213727163
sV2013
p145
F0.0
sVwouldn
p146
F0.0004798403646250466
sVnon
p147
F0.00043153031193835406
sVgood
p148
F0.0
sV3
p149
F0.0019193614585001865
sVnod
p150
F0.0021204254073704794
sVpractice
p151
F0.0
sVtherapy
p152
F0.0021204254073704794
sVeffects
p153
F0.002600265771995526
sVhalf
p154
F0.00021576515596917703
sVpossess
p155
F0.0021204254073704794
sVeasily
p156
F0.0004798403646250466
sVterm
p157
F0.0016405850427454326
sVerection
p158
F0.0021204254073704794
sVchronic
p159
F0.006361276222111438
sVedit
p160
F0.004240850814740959
sVcognition
p161
F0.0021204254073704794
sVdidn
p162
F0.0008630606238767081
sVevade
p163
F0.0021204254073704794
sVstopped
p164
F0.0008202925213727163
sVuploads
p165
F0.0
sVreasonable
p166
F0.001300132885997763
sVaddicted
p167
F0.006361276222111438
sVfound
p168
F0.00043153031193835406
sVwent
p169
F0.00021576515596917703
sVmean
p170
F0.0004798403646250466
sVnicotine
p171
F0.0
sVweight
p172
F0.0004798403646250466
sVidea
p173
F0.00021576515596917703
sVsober
p174
F0.004240850814740959
sVyear
p175
F0.00021576515596917703
sVdisinhibition
p176
F0.0
sVhypeprolactinemia
p177
F0.0
sVhappen
p178
F0.0004798403646250466
sVsexual
p179
F0.004240850814740959
sVagoraphobia
p180
F0.0
sVsince
p181
F0.0006472954679075311
sVincrease
p182
F0.002600265771995526
sVgot
p183
F0.00043153031193835406
sVmechanisms
p184
F0.0
sVcommercially
p185
F0.0
sVunwanted
p186
F0.0021204254073704794
sVmusing
p187
F0.0
sVask
p188
F0.00021576515596917703
sVorg
p189
F0.008481701629481917
sVinteraction
p190
F0.0021204254073704794
sVcould
p191
F0.0
sVterrible
p192
F0.0016405850427454326
sVtimes
p193
F0.0
sVthing
p194
F0.00043153031193835406
sVisn
p195
F0.00043153031193835406
sVthink
p196
F0.0008630606238767081
sVbupropion
p197
F0.0
sVstaggered
p198
F0.0
sVcomparatives
p199
F0.0
sVfeel
p200
F0.0006472954679075311
sVspecifically
p201
F0.0
sVanother
p202
F0.00021576515596917703
sVbland
p203
F0.0
sVsounds
p204
F0.001300132885997763
sVmiss
p205
F0.00021576515596917703
sV1p
p206
F0.0
sVguess
p207
F0.003281170085490865
sVscript
p208
F0.0021204254073704794
sVleast
p209
F0.0
sVeuphoria
p210
F0.0
sVanyone
p211
F0.0004798403646250466
sV2
p212
F0.00043153031193835406
sVdownregulate
p213
F0.0
sVcondasending
p214
F0.0
sVmostly
p215
F0.0008202925213727163
sVbehind
p216
F0.00021576515596917703
sVtook
p217
F0.00043153031193835406
sVchemicals
p218
F0.0
sVpart
p219
F0.0009596807292500932
sVdoctors
p220
F0.0021204254073704794
sV11
p221
F0.00021576515596917703
sV10
p222
F0.00043153031193835406
sVkind
p223
F0.0
sVanxiety
p224
F0.016963403258963835
sV15
p225
F0.00021576515596917703
sVcounteract
p226
F0.0
sV5ht2a
p227
F0.0
sVbinds
p228
F0.0
sVsupposed
p229
F0.0008202925213727163
sVcountry
p230
F0.0004798403646250466
sVran
p231
F0.0008202925213727163
sVmind
p232
F0.003281170085490865
sVssris
p233
F0.0
sVsay
p234
F0.00021576515596917703
sVlogitude
p235
F0.0
sVseen
p236
F0.0004798403646250466
sVaffinities
p237
F0.0
sVoccupied
p238
F0.0
sVoption
p239
F0.006361276222111438
sVgabaergics
p240
F0.0
sVstrength
p241
F0.0008202925213727163
sVangle
p242
F0.0021204254073704794
sVlatter
p243
F0.0021204254073704794
sVcitrulline
p244
F0.0
sV3mfw31
p245
F0.0
sVexperienced
p246
F0.0021204254073704794
sVunless
p247
F0.0008202925213727163
sVnormal
p248
F0.0008202925213727163
sVknew
p249
F0.0008202925213727163
sVclearer
p250
F0.0
sVsignificant
p251
F0.004240850814740959
sVapproved
p252
F0.0
sVsub
p253
F0.0008202925213727163
sVequatorial
p254
F0.0
sVespecially
p255
F0.0004798403646250466
sVki
p256
F0.0
sVatypical
p257
F0.004240850814740959
sVsporadically
p258
F0.0021204254073704794
sVworsens
p259
F0.0
sVshot
p260
F0.0004798403646250466
sVanyway
p261
F0.0016405850427454326
sVbring
p262
F0.00021576515596917703
sVsubtle
p263
F0.006361276222111438
sVfear
p264
F0.0008202925213727163
sVd2
p265
F0.0
sVd3
p266
F0.0
sVurouge
p267
F0.0
sVbased
p268
F0.0008202925213727163
sVless
p269
F0.00043153031193835406
sVocd
p270
F0.0
sVreceptors
p271
F0.010602127036852396
sVgoing
p272
F0.0
sVcombo
p273
F0.0021204254073704794
sVextracellular
p274
F0.0
sVhit
p275
F0.0004798403646250466
sVantagonism
p276
F0.0
sVstop
p277
F0.00021576515596917703
sV13
p278
F0.0008202925213727163
sVones
p279
F0.0016405850427454326
sVbromocriptine
p280
F0.0
sVantagonist
p281
F0.0
sVregarding
p282
F0.001300132885997763
sVht2c
p283
F0.0
sVht2a
p284
F0.0
sVstupid
p285
F0.0008202925213727163
sVactivity
p286
F0.004240850814740959
sVrelease
p287
F0.003281170085490865
sVwrote
p288
F0.001300132885997763
sVgabapentin
p289
F0.0
sVwiki
p290
F0.0
sVbtw
p291
F0.0
sVdecides
p292
F0.0021204254073704794
sVhabit
p293
F0.0
sVphysically
p294
F0.0021204254073704794
sVht2c_receptor
p295
F0.0
sVsubject
p296
F0.0021204254073704794
sVsaid
p297
F0.00021576515596917703
sV04
p298
F0.002600265771995526
sVaway
p299
F0.0
sVwikipedia
p300
F0.0
sVlabel
p301
F0.0016405850427454326
sVstate
p302
F0.0008202925213727163
sVprobably
p303
F0.0009596807292500932
sVneither
p304
F0.001300132885997763
sVdiscovery
p305
F0.0
sVavailable
p306
F0.0016405850427454326
sVdisthymia
p307
F0.0
sVreddit
p308
F0.0
sVloose
p309
F0.0008202925213727163
sVchoroid
p310
F0.0
sVhowever
p311
F0.001300132885997763
sVselectively
p312
F0.0
sVwp
p313
F0.0
sVarticle
p314
F0.0008202925213727163
sVc
p315
F0.0012945909358150621
sVlast
p316
F0.00043153031193835406
sVagonist
p317
F0.0
sVmany
p318
F0.0
sVtaking
p319
F0.00021576515596917703
sVpiracetam
p320
F0.0
sVgames
p321
F0.005200531543991052
sVupregulate
p322
F0.0
sVpdf
p323
F0.004240850814740959
sVexpression
p324
F0.0016405850427454326
sVexperimental
p325
F0.0
sVagonism
p326
F0.0
sVamong
p327
F0.001300132885997763
sVafaik
p328
F0.0
sVsky
p329
F0.002600265771995526
sVregulated
p330
F0.0
sVlikes
p331
F0.0008202925213727163
sVthroughout
p332
F0.0008202925213727163
sVavc_datasending_2014_en
p333
F0.0
sVconsidering
p334
F0.001300132885997763
sVps
p335
F0.0021204254073704794
sVlorcaserin
p336
F0.0
sVdecent
p337
F0.0008202925213727163
sVpc
p338
F0.0021204254073704794
sVinterest
p339
F0.001300132885997763
sV4
p340
F0.00043153031193835406
sVlived
p341
F0.001300132885997763
sVefficacy
p342
F0.0
sVformed
p343
F0.001300132885997763
sVunderstand
p344
F0.00021576515596917703
sVcovered
p345
F0.0004798403646250466
sVcatch
p346
F0.001300132885997763
sVworked
p347
F0.0019193614585001865
sVlamotrigine
p348
F0.0
sVhonest
p349
F0.0008202925213727163
sVcase
p350
F0.0014395210938751397
sVphysician
p351
F0.0
sVlook
p352
F0.00021576515596917703
sVtricyclics
p353
F0.0
sV2011
p354
F0.0
sVdepressionregimens
p355
F0.0
sVapplies
p356
F0.0
sVstudy
p357
F0.001300132885997763
sVamisulpride
p358
F0.0
sVexclude
p359
F0.0021204254073704794
sValmost
p360
F0.00043153031193835406
sVbinding
p361
F0.002600265771995526
sVsurface
p362
F0.001300132885997763
sVhelped
p363
F0.002600265771995526
sVanhedonia
p364
F0.0
sVritanserin
p365
F0.0
sVverticaly
p366
F0.0
sVdevelop
p367
F0.001300132885997763
sVetc
p368
F0.00021576515596917703
sVmedia
p369
F0.001300132885997763
sVmake
p370
F0.0006472954679075311
sVcheck
p371
F0.001300132885997763
sVstrange
p372
F0.0014395210938751397
sVdownregulation
p373
F0.0
sVhigher
p374
F0.0004798403646250466
sVweek
p375
F0.0008202925213727163
sVused
p376
F0.0009596807292500932
sVeffect
p377
F0.0006472954679075311
sVmoment
p378
F0.00021576515596917703
sVkaido
p379
F0.0
sVfrequently
p380
F0.004240850814740959
sVstack
p381
F0.004240850814740959
sVkid
p382
F0.004240850814740959
sVprescribed
p383
F0.0021204254073704794
sVlower
p384
F0.0009596807292500932
sVmemantine
p385
F0.0
sVstimuli
p386
F0.0
sVthought
p387
F0.0004798403646250466
sVcosts
p388
F0.0021204254073704794
sVotherwise
p389
F0.0008202925213727163
sVusual
p390
F0.0021204254073704794
sVopinions
p391
F0.004240850814740959
sVbenzo
p392
F0.0
sVyea
p393
F0.0
sVdose
p394
F0.010602127036852396
sVdopamine
p395
F0.0
sVyes
p396
F0.00043153031193835406
sVadding
p397
F0.004240850814740959
sVconsole
p398
F0.0021204254073704794
sVthinking
p399
F0.0008202925213727163
sVdopaminergic
p400
F0.0
sVpoint
p401
F0.00043153031193835406
sVseems
p402
F0.00021576515596917703
sVexcept
p403
F0.0004798403646250466
sVaffinity
p404
F0.0
sVtreatment
p405
F0.008481701629481917
sVgave
p406
F0.001300132885997763
sVincreased
p407
F0.0021204254073704794
sVread
p408
F0.0014395210938751397
sVbig
p409
F0.00021576515596917703
sVpossible
p410
F0.0019193614585001865
sVshitty
p411
F0.0021204254073704794
sVincreases
p412
F0.0021204254073704794
sVinhibition
p413
F0.0
sVknow
p414
F0.00043153031193835406
sVbackground
p415
F0.00021576515596917703
sVamp
p416
F0.002600265771995526
sVintersection
p417
F0.0
sVformal
p418
F0.0021204254073704794
sVlike
p419
F0.0
sVlost
p420
F0.0
sVreduces
p421
F0.0
sValways
p422
F0.0
sVbecome
p423
F0.00021576515596917703
sVtherapeutic
p424
F0.0
sVopioid
p425
F0.0
sVwww
p426
F0.003900398657993289
sVright
p427
F0.00043153031193835406
sVdeal
p428
F0.0009596807292500932
sVfucking
p429
F0.0021204254073704794
sVback
p430
F0.00021576515596917703
sVselectivity
p431
F0.0
sVpaxil
p432
F0.0
sVadded
p433
F0.001300132885997763
sVcabergoline
p434
F0.0
sVpain
p435
F0.0008202925213727163
sVintact
p436
F0.001300132885997763
sVmood
p437
F0.001300132885997763
sVavoid
p438
F0.0004798403646250466
sVpsychologically
p439
F0.0
sVper
p440
F0.001300132885997763
sVresponder
p441
F0.0
sVcannabis
p442
F0.0
sVasking
p443
F0.0016405850427454326
sVprovider
p444
F0.0
sVquitting
p445
F0.0
sVrun
p446
F0.00021576515596917703
sVschedule
p447
F0.0021204254073704794
sVnight
p448
F0.00021576515596917703
sVwithdrawals
p449
F0.0
sVblip
p450
F0.0
sV1snri
p451
F0.0
sVdyskensia
p452
F0.0
sVanything
p453
F0.00043153031193835406
sVgetting
p454
F0.00021576515596917703
sVisland
p455
F0.002600265771995526
sVmonths
p456
F0.0008202925213727163
sVaco
p457
F0.0
sVreinforcing
p458
F0.0
sVcarries
p459
F0.0004798403646250466
sVbenzos
p460
F0.0
sVplus
p461
F0.0008202925213727163
sValliance
p462
F0.0
sVpresence
p463
F0.0004798403646250466
sVnortriptyline
p464
F0.0
sVmushrooms
p465
F0.001300132885997763
sVd
p466
F0.0
sVoverkill
p467
F0.0
sVen
p468
F0.002600265771995526
sVreceptor
p469
F0.0
sVrisk
p470
F0.0008202925213727163
sVlong
p471
F0.0
sVstrict
p472
F0.0021204254073704794
sVlow
p473
F0.0019193614585001865
sVway
p474
F0.00043153031193835406
sVmetabolism
p475
F0.0021204254073704794
sVrevamped
p476
F0.0
sVelsewhere
p477
F0.0021204254073704794
sVform
p478
F0.0004798403646250466
sVenough
p479
F0.0
sVsomething
p480
F0.00021576515596917703
sVrelaxed
p481
F0.001300132885997763
sVrecommend
p482
F0.0021204254073704794
sVht
p483
F0.0
sVasending
p484
F0.0
sVgain
p485
F0.001300132885997763
sVline
p486
F0.0009596807292500932
sVinverse
p487
F0.0021204254073704794
sVplaces
p488
F0.001300132885997763
sVmalate
p489
F0.0
sVcool
p490
F0.0021204254073704794
sVpsychosis
p491
F0.0
sVoriginaly
p492
F0.0
sVplanet
p493
F0.0021204254073704794
sVetifoxine
p494
F0.0
sVdmt
p495
F0.0
sVnootropic
p496
F0.0
sVfaded
p497
F0.0021204254073704794
sVproblem
p498
F0.0009596807292500932
sVsimilar
p499
F0.0009596807292500932
sVclear
p500
F0.00021576515596917703
sVlongitude_of_the_ascending_node
p501
F0.0
sVlongjack
p502
F0.0
sVtricyclic
p503
F0.0
sVilegally
p504
F0.0
sVssri
p505
F0.0
sVdoses
p506
F0.0
sVdoesn
p507
F0.00021576515596917703
sVgeneral
p508
F0.0
sVfile
p509
F0.0021204254073704794
sVav
p510
F0.0
sVdealer
p511
F0.0021204254073704794
sVregime
p512
F0.0
sVus
p513
F0.00021576515596917703
sVimage
p514
F0.001300132885997763
sVpeace
p515
F0.0021204254073704794
sV5
p516
F0.005394128899229426
sVsick
p517
F0.0021204254073704794
sVbecomes
p518
F0.0008202925213727163
sVinclined
p519
F0.0
sVnode
p520
F0.0
sVdependence
p521
F0.0
sVwelcome
p522
F0.00021576515596917703
sVproblems
p523
F0.0009596807292500932
sVamphetamine
p524
F0.0
sVago
p525
F0.001300132885997763
sVusing
p526
F0.0004798403646250466
sVpractically
p527
F0.0021204254073704794
sVsvg
p528
F0.0
sVlot
p529
F0.0
sVorbit
p530
F0.0
sVdaily
p531
F0.004240850814740959
sVtime
p532
F0.0
sVserious
p533
F0.0008202925213727163
sV12
p534
F0.00021576515596917703
sVrefused
p535
F0.0021204254073704794
s.