(dp0
Vgt
p1
F0.0
sVconsider
p2
F0.0002683422290590102
sVcaused
p3
F0.0007270762995818066
sVresults
p4
F0.0007270762995818066
sVmonth
p5
F0.0002683422290590102
sVfour
p6
F0.00036198853102704416
sVmild
p7
F0.0
sVantagonize
p8
F0.0
sVgo
p9
F0.0
sVappetite
p10
F0.0011858103701046028
sVreasoning
p11
F0.0
sVcauses
p12
F0.0014541525991636133
sVantipsychotics
p13
F0.0
sVdisorders
p14
F0.0011858103701046028
sVside_effects
p15
F0.0
sVextraneous
p16
F0.0011858103701046028
sVselegiline
p17
F0.0
sVmonoamine
p18
F0.0
sVinclude
p19
F0.003635381497909033
sVworse
p20
F0.0002683422290590102
sVbenzodiazepines
p21
F0.0
sVfar
p22
F0.00036198853102704416
sVconfounding
p23
F0.0
sVfocus
p24
F0.0035574311103138087
sVfall
p25
F0.0007270762995818066
sVtrouble
p26
F0.0001206628436756814
sVenfp
p27
F0.0
sVexact
p28
F0.00045873407052279635
sVcategories
p29
F0.0
sVnausea
p30
F0.0
sVtreating
p31
F0.0011858103701046028
sVleads
p32
F0.00045873407052279635
sVgov
p33
F0.0011858103701046028
sVlevel
p34
F0.0002413256873513628
sVissue
p35
F0.00045873407052279635
sVaccidentally
p36
F0.00045873407052279635
sVtry
p37
F0.00036198853102704416
sVsedation
p38
F0.0
sVbiological
p39
F0.0
sVspeculation
p40
F0.0
sVnoted
p41
F0.0011858103701046028
sVwellbutrin
p42
F0.0
sVanesthetic
p43
F0.0
sVprevent
p44
F0.0007270762995818066
sVsays
p45
F0.0002413256873513628
sVremeron
p46
F0.0
sVpulse
p47
F0.0
sVjump
p48
F0.00045873407052279635
sVlikely
p49
F0.0035574311103138087
sVpmc
p50
F0.0
sVeven
p51
F0.0002413256873513628
sVestablished
p52
F0.00045873407052279635
sVrelieving
p53
F0.0
sVsection
p54
F0.0007270762995818066
sVstool
p55
F0.0011858103701046028
sVbrief
p56
F0.0011858103701046028
sVfind
p57
F0.0
sValprazolam
p58
F0.0
sVbipolar
p59
F0.0011858103701046028
sVgoes
p60
F0.0001206628436756814
sVimproperly
p61
F0.0011858103701046028
sVever
p62
F0.0001206628436756814
sValertness
p63
F0.0
sVmovement
p64
F0.00045873407052279635
sVbody
p65
F0.00036198853102704416
sVhasn
p66
F0.0002683422290590102
sVpresynaptic
p67
F0.0
sVloose
p68
F0.00045873407052279635
sVhours
p69
F0.0002683422290590102
sVreported
p70
F0.0011858103701046028
sVseizure
p71
F0.0
sVselective
p72
F0.0
sVlet
p73
F0.0002413256873513628
sVunbinds
p74
F0.0
sVstrong
p75
F0.00045873407052279635
sVfifteen
p76
F0.0011858103701046028
sVextreme
p77
F0.0009174681410455927
sVdry
p78
F0.0014541525991636133
sVantagonizing
p79
F0.0
sVphenelzine
p80
F0.0
sVstudy
p81
F0.003635381497909033
sVadjusts
p82
F0.0
sVreason
p83
F0.0005366844581180204
sVcommonly
p84
F0.0
sVdosage
p85
F0.0023716207402092056
sVtrial
p86
F0.0007270762995818066
sVamount
p87
F0.0009174681410455927
sVneuroleptics
p88
F0.0
sVusually
p89
F0.0032111384936595743
sVchanges
p90
F0.00045873407052279635
sVregardless
p91
F0.0011858103701046028
sVproblematic
p92
F0.0011858103701046028
sVmanage
p93
F0.001376202211568389
sVfeelings
p94
F0.0007270762995818066
sVpsychological
p95
F0.0011858103701046028
sVput
p96
F0.0001206628436756814
sVcausal
p97
F0.0
sVeldepryl
p98
F0.0
sVsweating
p99
F0.0011858103701046028
sVuse
p100
F0.0002413256873513628
sVtcas
p101
F0.0
sVviibryd
p102
F0.0
sVtakes
p103
F0.0002683422290590102
sVworking
p104
F0.0
sVsnri
p105
F0.0
sVpositive
p106
F0.00045873407052279635
sVcontains
p107
F0.0007270762995818066
sVtwo
p108
F0.0
sVprocess
p109
F0.0014541525991636133
sVtaken
p110
F0.0001206628436756814
sVsharpen
p111
F0.0
sVcare
p112
F0.0007270762995818066
sVtype
p113
F0.00045873407052279635
sVtell
p114
F0.0008050266871770305
sVminor
p115
F0.00045873407052279635
sVsort
p116
F0.0001206628436756814
sVchlorpromazine
p117
F0.0
sVsubstances
p118
F0.0023716207402092056
sVthus
p119
F0.0014541525991636133
sVaware
p120
F0.0
sVexcellent
p121
F0.0023716207402092056
sVknown
p122
F0.0010733689162360407
sVcases
p123
F0.0035574311103138087
sVblocking
p124
F0.0029083051983272265
sVmust
p125
F0.0
sVfatal
p126
F0.0007270762995818066
sVscience
p127
F0.0014541525991636133
sVwork
p128
F0.0
sVanywhere
p129
F0.0002683422290590102
sVmaking
p130
F0.0002413256873513628
sVinhibitor
p131
F0.0
sVexample
p132
F0.0005366844581180204
sVstimulating
p133
F0.0
sVmirtazapine
p134
F0.0
sVcontrol
p135
F0.0029083051983272265
sVacetylcholine
p136
F0.0
sVgive
p137
F0.0001206628436756814
sVhypersomnia
p138
F0.0
sVhigh
p139
F0.0
sVeffectively
p140
F0.0
sVfoods
p141
F0.0011858103701046028
sVassumptions
p142
F0.0
sVsomething
p143
F0.0001206628436756814
sVwant
p144
F0.0
sVexclude
p145
F0.0011858103701046028
sVoccur
p146
F0.0011858103701046028
sVlexapro
p147
F0.0
sVlooses
p148
F0.0011858103701046028
sVrather
p149
F0.0002683422290590102
sVsix
p150
F0.0007270762995818066
sV1
p151
F0.0001206628436756814
sVhypertensive
p152
F0.0
sVaurorix
p153
F0.0
sVndris
p154
F0.0
sVpossibly
p155
F0.0002683422290590102
sVtoxic
p156
F0.0
sVpanic
p157
F0.0
sVnonstop
p158
F0.0011858103701046028
sVmassive
p159
F0.0
sVprofile
p160
F0.0007270762995818066
sVokay
p161
F0.0007270762995818066
sVmay
p162
F0.0020512683424865836
sVadvice
p163
F0.0011858103701046028
sVearlier
p164
F0.0002683422290590102
sVscoff
p165
F0.0011858103701046028
sVreuptake
p166
F0.0
sVcollection
p167
F0.0007270762995818066
sVquestioning
p168
F0.0
sVblood
p169
F0.0009174681410455927
sVcoming
p170
F0.0001206628436756814
sVritalin
p171
F0.0
sVdata
p172
F0.0011858103701046028
sVresponse
p173
F0.0023716207402092056
sVlifting
p174
F0.0007270762995818066
sVbaseline
p175
F0.0011858103701046028
sVremember
p176
F0.0001206628436756814
sVeffective
p177
F0.011858103701046029
sVenzymes
p178
F0.0
sVbind
p179
F0.0
sVtetracyclic
p180
F0.0
sVgap
p181
F0.0035574311103138087
sVcannot
p182
F0.0008050266871770305
sVupside
p183
F0.0007270762995818066
sVcorrelation
p184
F0.0
sVpleasure
p185
F0.00045873407052279635
sVaddiction
p186
F0.0
sVbupropion
p187
F0.0
sVse
p188
F0.0007270762995818066
sVserotonergic
p189
F0.0
sVpredisposes
p190
F0.0
sVhelp
p191
F0.00036198853102704416
sVproduces
p192
F0.0011858103701046028
sVsertraline
p193
F0.0
sVslouch
p194
F0.0
sVtyramine
p195
F0.0
sVmidnight
p196
F0.0007270762995818066
sVyears
p197
F0.0002683422290590102
sVbrain
p198
F0.002752404423136778
sVemsam
p199
F0.0
sVincluding
p200
F0.00045873407052279635
sVmentioned
p201
F0.0023716207402092056
sVstill
p202
F0.0
sVdifference
p203
F0.0007270762995818066
sVrapidly
p204
F0.00045873407052279635
sVncbi
p205
F0.0
sVll
p206
F0.0009653027494054512
sVdecreases
p207
F0.0
sVactually
p208
F0.0001206628436756814
sVsymptoms
p209
F0.0
sVresort
p210
F0.0
sVoffers
p211
F0.0002683422290590102
sVchoose
p212
F0.00045873407052279635
sVfade
p213
F0.0014541525991636133
sVpersist
p214
F0.0011858103701046028
sVamitriptyline
p215
F0.0
sVprecipitate
p216
F0.0
sVbout
p217
F0.0011858103701046028
sVmain
p218
F0.0001206628436756814
sVmight
p219
F0.0008446399057297697
sVnon
p220
F0.0002413256873513628
sVgood
p221
F0.0
sVstabilizers
p222
F0.0
sVcombination
p223
F0.00045873407052279635
sVfood
p224
F0.0005366844581180204
sVsafe
p225
F0.0009174681410455927
sVinsomnia
p226
F0.0
sVprimary
p227
F0.0014541525991636133
sVbreak
p228
F0.0007270762995818066
sVmention
p229
F0.00045873407052279635
sVadrenaline
p230
F0.0
sVtherapy
p231
F0.0023716207402092056
sVeffects
p232
F0.005816610396654453
sVsynaptic
p233
F0.0
sVsusceptibility
p234
F0.0
sVterm
p235
F0.00045873407052279635
sVlithium
p236
F0.0
sVlater
p237
F0.0009174681410455927
sVedit
p238
F0.0011858103701046028
sVfully
p239
F0.0005366844581180204
sVconcerta
p240
F0.0
sVexplode
p241
F0.0
sVcourses
p242
F0.0
sVlamictal
p243
F0.0
sVentirely
p244
F0.0002683422290590102
sVhigher
p245
F0.0002683422290590102
sVside
p246
F0.0001206628436756814
sVcharacterized
p247
F0.0
sVmean
p248
F0.0002683422290590102
sVpreceded
p249
F0.0
sVsignificantly
p250
F0.0
sVweight
p251
F0.0010733689162360407
sVgeneration
p252
F0.0
sVhard
p253
F0.0002683422290590102
sVreduce
p254
F0.003635381497909033
sVchallenges
p255
F0.0
sVdeficiency
p256
F0.0
sVcombining
p257
F0.0011858103701046028
sVsexual
p258
F0.005929051850523014
sVer
p259
F0.00045873407052279635
sVirritability
p260
F0.0
sVlarge
p261
F0.0
sVmedications
p262
F0.0
sVfactors
p263
F0.0023716207402092056
sVsince
p264
F0.0002413256873513628
sVincrease
p265
F0.0029083051983272265
sVparticipants
p266
F0.0
sVmedicine
p267
F0.0011858103701046028
sVreceiving
p268
F0.0011858103701046028
sVcause
p269
F0.0010859655930811325
sVinteractions
p270
F0.0
sVactivity
p271
F0.0035574311103138087
sVmechanisms
p272
F0.0
sVlittle
p273
F0.0
sVpossibility
p274
F0.0007270762995818066
sVquite
p275
F0.0001206628436756814
sVantihistamines
p276
F0.0
sVcompletely
p277
F0.0002683422290590102
sVect
p278
F0.0
sVsurely
p279
F0.0011858103701046028
sVstruggle
p280
F0.0007270762995818066
sVacute
p281
F0.0
sVask
p282
F0.0001206628436756814
sVescitralopram
p283
F0.0
sVinadequately
p284
F0.0
sVfret
p285
F0.0
sVdrowsiness
p286
F0.0
sVbenefits
p287
F0.0011858103701046028
sVcould
p288
F0.0
sVdays
p289
F0.0002683422290590102
sVisn
p290
F0.0002413256873513628
sVsignature
p291
F0.0011858103701046028
sVroutes
p292
F0.0
sVfrequent
p293
F0.0023716207402092056
sVfirst
p294
F0.0004826513747027256
sVmajor
p295
F0.0005366844581180204
sVprobability
p296
F0.0
sVfeel
p297
F0.0002413256873513628
sVpowerful
p298
F0.0011858103701046028
sVnumber
p299
F0.00045873407052279635
sVhey
p300
F0.0007270762995818066
sVimprovements
p301
F0.0011858103701046028
sVinhibits
p302
F0.0
sVdownside
p303
F0.0
sVanother
p304
F0.000603314218378407
sVcarry
p305
F0.0001206628436756814
sVimpossible
p306
F0.0007270762995818066
sVtomorrow
p307
F0.0011858103701046028
sVdysfunction
p308
F0.0
sVseizures
p309
F0.0035574311103138087
sVgiven
p310
F0.0001206628436756814
sVdump
p311
F0.0007270762995818066
sVstart
p312
F0.0002683422290590102
sVinteract
p313
F0.0023716207402092056
sVleast
p314
F0.0
sVpsychotic
p315
F0.0011858103701046028
sVattack
p316
F0.0008050266871770305
sVtypes
p317
F0.0009174681410455927
sVneurotransmitter
p318
F0.0
sVlol
p319
F0.0011858103701046028
sVflatulence
p320
F0.0
sVheadache
p321
F0.004743241480418411
sVway
p322
F0.0001206628436756814
sVrelationship
p323
F0.00045873407052279635
sVexactly
p324
F0.0005366844581180204
sVlower
p325
F0.0002683422290590102
sVserotonin
p326
F0.0
sVenvironmental
p327
F0.0
sVchemicals
p328
F0.0
sVpart
p329
F0.0010733689162360407
sVtrasodone
p330
F0.0
sVauthors
p331
F0.0
sVamphetamines
p332
F0.0
sV10
p333
F0.00036198853102704416
sVanxiety
p334
F0.03320269036292888
sVshowed
p335
F0.0007270762995818066
sVconstipation
p336
F0.0011858103701046028
sVlargely
p337
F0.0
sVdrift
p338
F0.0
sVschizophrenia
p339
F0.0011858103701046028
sVpatients
p340
F0.0
sVdetermined
p341
F0.0011858103701046028
sVsedate
p342
F0.0007270762995818066
sVtreated
p343
F0.0009174681410455927
sVtofranil
p344
F0.0
sVmotivation
p345
F0.0
sVmras
p346
F0.0
sVexert
p347
F0.0
sVcymbalta
p348
F0.0
sVmind
p349
F0.00045873407052279635
sVssris
p350
F0.0
sVsay
p351
F0.0001206628436756814
sVscoffs
p352
F0.0
sVcategorized
p353
F0.0
sVneed
p354
F0.0001206628436756814
sVinhibiting
p355
F0.0
sVseem
p356
F0.00036198853102704416
sVunaffected
p357
F0.0
sVsurgery
p358
F0.0011858103701046028
sVafraid
p359
F0.0002683422290590102
sVenhancing
p360
F0.0011858103701046028
sVlatter
p361
F0.0023716207402092056
sVmechanism
p362
F0.0
sVnote
p363
F0.0008050266871770305
sVsubjects
p364
F0.0
sVtransmit
p365
F0.0
sVcleft
p366
F0.0
sVeffexor
p367
F0.0
sVeffectiveness
p368
F0.0
sVconvulsive
p369
F0.0
sVaggravate
p370
F0.0
sVbegin
p371
F0.0009174681410455927
sVsure
p372
F0.0008050266871770305
sVnormal
p373
F0.0009174681410455927
sVclonazepam
p374
F0.0
sVquote
p375
F0.0007270762995818066
sVmethylphenidate
p376
F0.0
sVreach
p377
F0.00045873407052279635
sVelectro
p378
F0.0
sVreact
p379
F0.0007270762995818066
sVnorepinephrine
p380
F0.0
sVeight
p381
F0.00045873407052279635
sVsignificant
p382
F0.0011858103701046028
sVextremely
p383
F0.0014541525991636133
sVclass
p384
F0.0010733689162360407
sVreleased
p385
F0.0011858103701046028
sVconsidered
p386
F0.0007270762995818066
sVaverage
p387
F0.0007270762995818066
sVatypical
p388
F0.0035574311103138087
sVcover
p389
F0.0005366844581180204
sVways
p390
F0.0002683422290590102
sVdigress
p391
F0.0
sVmonotherapy
p392
F0.0
sVtypically
p393
F0.005929051850523014
sVgaba
p394
F0.0
sVshot
p395
F0.0002683422290590102
sVchances
p396
F0.0007270762995818066
sVrandom
p397
F0.0029083051983272265
sVdegrades
p398
F0.0
sVvistaril
p399
F0.0
sVelevate
p400
F0.0
sVtiredness
p401
F0.0
sVfluoxetine
p402
F0.0
sVinhibitors
p403
F0.0
sVnlm
p404
F0.0
sVpostsynaptic
p405
F0.0
sVslow
p406
F0.0002683422290590102
sVbased
p407
F0.0009174681410455927
sVproposed
p408
F0.0
sVnegligible
p409
F0.0
sVreceptors
p410
F0.004743241480418411
sVpretty
p411
F0.001376202211568389
sVindeed
p412
F0.0009174681410455927
sV8
p413
F0.0001206628436756814
sVadequate
p414
F0.0
sVregularly
p415
F0.0011858103701046028
sVinfo
p416
F0.0011858103701046028
sVmeans
p417
F0.0021812288987454196
sVstop
p418
F0.0002413256873513628
sVfeels
p419
F0.0007270762995818066
sVredditor
p420
F0.0
sVlisted
p421
F0.0007270762995818066
sVanxiolytic
p422
F0.0
sVnasty
p423
F0.0007270762995818066
sVtecas
p424
F0.0
sVincreasing
p425
F0.0035574311103138087
sVboost
p426
F0.0
sVpatch
p427
F0.0007270762995818066
sVbad
p428
F0.0002413256873513628
sVcommon
p429
F0.001376202211568389
sVwithdrawal
p430
F0.0
sVkill
p431
F0.0002683422290590102
sVdizziness
p432
F0.005929051850523014
sVsurgeries
p433
F0.0
sVgabapentin
p434
F0.0
sVrespond
p435
F0.0021812288987454196
sVset
p436
F0.0001206628436756814
sVtransdermal
p437
F0.0
sVexists
p438
F0.0007270762995818066
sVexpel
p439
F0.0
sVsensitivity
p440
F0.0
sVpotent
p441
F0.0
sVintensity
p442
F0.0023716207402092056
sVresult
p443
F0.0007270762995818066
sVfail
p444
F0.0002683422290590102
sVdepressive
p445
F0.0
sVbest
p446
F0.0002413256873513628
sVfails
p447
F0.0023716207402092056
sVsaid
p448
F0.0001206628436756814
sVinhibitory
p449
F0.0
sVmanaging
p450
F0.0011858103701046028
sVarguably
p451
F0.0
sVhorribly
p452
F0.0
sVplease
p453
F0.0001206628436756814
sVimipramine
p454
F0.0
sVtend
p455
F0.005929051850523014
sVwon
p456
F0.0002413256873513628
sVvarious
p457
F0.00045873407052279635
sVaction
p458
F0.0007270762995818066
sVhorrible
p459
F0.0007270762995818066
sVprobably
p460
F0.0010733689162360407
sVneither
p461
F0.0007270762995818066
sVtolerance
p462
F0.0011858103701046028
sVacross
p463
F0.00045873407052279635
sVavailable
p464
F0.0009174681410455927
sVcomparable
p465
F0.0
sVhowever
p466
F0.004362457797490839
sVhypothesis
p467
F0.0011858103701046028
sVvenlafaxine
p468
F0.0
sVarticle
p469
F0.00045873407052279635
sVoxidase
p470
F0.0
sVreceived
p471
F0.0007270762995818066
sVessentially
p472
F0.0
sVlast
p473
F0.0001206628436756814
sVreverse
p474
F0.00045873407052279635
sVmany
p475
F0.0
sVtaking
p476
F0.0002413256873513628
sVvilazodone
p477
F0.0
sVmildly
p478
F0.0
sVlogic
p479
F0.0011858103701046028
sVargue
p480
F0.0011858103701046028
sVinherant
p481
F0.0
sVcomes
p482
F0.00045873407052279635
sVpoint
p483
F0.0001206628436756814
sVseems
p484
F0.000603314218378407
sVanxiolytics
p485
F0.0
sVagents
p486
F0.005929051850523014
sVlaugh
p487
F0.00045873407052279635
sVrespect
p488
F0.00045873407052279635
sVbetter
p489
F0.0002413256873513628
sVbasis
p490
F0.0005366844581180204
sVaddition
p491
F0.007114862220627617
sVcome
p492
F0.0001206628436756814
sVdue
p493
F0.0007270762995818066
sVreduction
p494
F0.0011858103701046028
sVtreat
p495
F0.0032111384936595743
sVdangers
p496
F0.0011858103701046028
sVliving
p497
F0.0001206628436756814
sVgenerating
p498
F0.0007270762995818066
sValongside
p499
F0.0007270762995818066
sVrestrictions
p500
F0.0011858103701046028
sVreleasing
p501
F0.0011858103701046028
sVelse
p502
F0.00036198853102704416
sVcontroller
p503
F0.0
sVgamble
p504
F0.0011858103701046028
sVoverdose
p505
F0.0035574311103138087
sVworked
p506
F0.0002683422290590102
sVlamotrigine
p507
F0.0
sVcase
p508
F0.0008050266871770305
sVinhibit
p509
F0.0
sVlook
p510
F0.0001206628436756814
sVunlike
p511
F0.001376202211568389
sVtalking
p512
F0.0011858103701046028
sVvalue
p513
F0.0002683422290590102
sVsometimes
p514
F0.0002683422290590102
sVhealthy
p515
F0.00045873407052279635
sVnear
p516
F0.0001206628436756814
sVerror
p517
F0.0011858103701046028
sVwild
p518
F0.00045873407052279635
sVsituation
p519
F0.0007270762995818066
sVforce
p520
F0.00045873407052279635
sVlarger
p521
F0.00045873407052279635
sValmost
p522
F0.0001206628436756814
sVneuron
p523
F0.0
sVside_effect
p524
F0.0
sVsleeping
p525
F0.0007270762995818066
sVarousal
p526
F0.0
sVexperience
p527
F0.0007270762995818066
sVconcentration
p528
F0.0014541525991636133
sVdisappear
p529
F0.0014541525991636133
sVdifferent
p530
F0.0002683422290590102
sVdevelop
p531
F0.0029083051983272265
sVseverity
p532
F0.0
sVprior
p533
F0.0011858103701046028
sVsuggest
p534
F0.0023716207402092056
sVmake
p535
F0.00036198853102704416
sVelevated
p536
F0.0
sVnardil
p537
F0.0
sVpotentially
p538
F0.0011858103701046028
sVagitated
p539
F0.0
sVseveral
p540
F0.0007270762995818066
sVdifficult
p541
F0.0009174681410455927
sVdevelopment
p542
F0.0007270762995818066
sVnih
p543
F0.0
sVused
p544
F0.002683422290590102
sVtemporary
p545
F0.0035574311103138087
sVsee
p546
F0.000603314218378407
sVhydroxyzine
p547
F0.0
sVeffect
p548
F0.0004826513747027256
sVpossible
p549
F0.0002683422290590102
sVblockers
p550
F0.0011858103701046028
sVlevels
p551
F0.0011858103701046028
sVfrequently
p552
F0.0023716207402092056
sVprescribed
p553
F0.005929051850523014
sVscarcely
p554
F0.0
sVabnormality
p555
F0.0
sVscenario
p556
F0.0
sVolder
p557
F0.0002683422290590102
sVantihistamine
p558
F0.0
sVwell
p559
F0.0
sVincreases
p560
F0.0023716207402092056
sVasked
p561
F0.00045873407052279635
sVperson
p562
F0.001341711145295051
sVsevere
p563
F0.003635381497909033
sVwithout
p564
F0.0
sVreward
p565
F0.0007270762995818066
sVexcessive
p566
F0.00045873407052279635
sVsourced
p567
F0.0
sVless
p568
F0.0002413256873513628
sVdose
p569
F0.0023716207402092056
sVpsych
p570
F0.0
sVquestions
p571
F0.00045873407052279635
sVdopamine
p572
F0.0
sVfacts
p573
F0.0
sVdeath
p574
F0.00045873407052279635
sVconclusions
p575
F0.0035574311103138087
sVguaranteed
p576
F0.0
sVimprovement
p577
F0.0007270762995818066
sVsignals
p578
F0.0011858103701046028
sVpotential
p579
F0.0011858103701046028
sVtreatment
p580
F0.0035574311103138087
sVelectrical
p581
F0.0023716207402092056
sVaround
p582
F0.0002413256873513628
sVarticles
p583
F0.0011858103701046028
sVbig
p584
F0.0001206628436756814
sVvital
p585
F0.0011858103701046028
sVbuspirone
p586
F0.0
sVfinding
p587
F0.0002683422290590102
sVsuffering
p588
F0.00045873407052279635
sVelavil
p589
F0.0
sVknow
p590
F0.001206628436756814
sVperformance
p591
F0.00045873407052279635
sVatrophy
p592
F0.0
sVusing
p593
F0.0008050266871770305
sVbit
p594
F0.00036198853102704416
sVdecomposes
p595
F0.0
sVlike
p596
F0.0
sVdesire
p597
F0.0023716207402092056
sVloss
p598
F0.0021812288987454196
sVforcing
p599
F0.0011858103701046028
sVd
p600
F0.0
sVsignal
p601
F0.0007270762995818066
sVhonestly
p602
F0.0007270762995818066
sVmanifest
p603
F0.0011858103701046028
sVspecific
p604
F0.00045873407052279635
sVzoloft
p605
F0.0
sVindividuals
p606
F0.0
sVbuspar
p607
F0.0
sVbecome
p608
F0.0001206628436756814
sVworks
p609
F0.00045873407052279635
sVdisorder
p610
F0.0035574311103138087
sVreduces
p611
F0.0
sVtherapeutic
p612
F0.0
sVwww
p613
F0.0007270762995818066
sVright
p614
F0.0004826513747027256
sVlearning
p615
F0.0007270762995818066
sVnamely
p616
F0.0
sVabsolutely
p617
F0.0002683422290590102
sVback
p618
F0.0001206628436756814
sVcertain
p619
F0.00036198853102704416
sVpaxil
p620
F0.0
sVexamples
p621
F0.013043914071150632
sVduration
p622
F0.0
sVclasses
p623
F0.0002683422290590102
sVlethargy
p624
F0.0
sVhappens
p625
F0.0002683422290590102
sVgradually
p626
F0.0
sVmood
p627
F0.003635381497909033
sVlead
p628
F0.0002683422290590102
sVbenzodiazepine
p629
F0.0
sVavoid
p630
F0.0002683422290590102
sVrecorded
p631
F0.0
sVbenefit
p632
F0.0035574311103138087
sVper
p633
F0.0007270762995818066
sVcrisis
p634
F0.0
sVeverything
p635
F0.0002413256873513628
sVcritical
p636
F0.0007270762995818066
sVpmc39458
p637
F0.0
sVmaoi
p638
F0.0
sVmoderate
p639
F0.0011858103701046028
sVeither
p640
F0.00036198853102704416
sVpatient
p641
F0.0011858103701046028
sVslight
p642
F0.0007270762995818066
sVmaois
p643
F0.0
sVmiscellaneous
p644
F0.0011858103701046028
sVpressure
p645
F0.0023716207402092056
sValthough
p646
F0.001610053374354061
sVsixty
p647
F0.0
sVintense
p648
F0.0007270762995818066
sVcomorbid
p649
F0.0
sVmimics
p650
F0.0
sVpassionate
p651
F0.00045873407052279635
sVlifestyle
p652
F0.0011858103701046028
sVwould
p653
F0.0
sVanything
p654
F0.0001206628436756814
sVattacks
p655
F0.0011858103701046028
sVmonths
p656
F0.0009174681410455927
sVbeta
p657
F0.0011858103701046028
sVreduced
p658
F0.0023716207402092056
sVdependency
p659
F0.0023716207402092056
sVsnris
p660
F0.0
sVgreatly
p661
F0.0011858103701046028
sVmouth
p662
F0.0009174681410455927
sVwonders
p663
F0.0
sVslightly
p664
F0.0005366844581180204
sVblock
p665
F0.0021812288987454196
sVduloxetine
p666
F0.0
sVpreviously
p667
F0.0011858103701046028
sVwithin
p668
F0.0002683422290590102
sVklonopin
p669
F0.0
sVthree
p670
F0.000603314218378407
sVappropriate
p671
F0.0023716207402092056
sVreducing
p672
F0.0
sVreabsorbed
p673
F0.0
sVndri
p674
F0.0
sVprozac
p675
F0.0
sVaren
p676
F0.0001206628436756814
sVsupport
p677
F0.0014541525991636133
sVgenetic
p678
F0.0
sVlong
p679
F0.0
sVfucking
p680
F0.0011858103701046028
sVlow
p681
F0.0005366844581180204
sVlot
p682
F0.0
sVbiggest
p683
F0.0007270762995818066
sVmoclobemide
p684
F0.0
sVcombined
p685
F0.0014541525991636133
sVfunction
p686
F0.0011858103701046028
sVguess
p687
F0.00045873407052279635
sVlorazepam
p688
F0.0
sVvolume
p689
F0.005929051850523014
sVgain
p690
F0.0014541525991636133
sVphenelzineu
p691
F0.0
sVeat
p692
F0.0002683422290590102
sVcount
p693
F0.0007270762995818066
sVwhether
p694
F0.0001206628436756814
sVinside
p695
F0.0001206628436756814
sVmaximum
p696
F0.0011858103701046028
sVpaired
p697
F0.0
sVtoday
p698
F0.0005366844581180204
sVminutes
p699
F0.0002683422290590102
sVcalled
p700
F0.0005366844581180204
sVparoxetine
p701
F0.0
sVhaloperidol
p702
F0.0
sVtricyclic
p703
F0.0
sVassociated
p704
F0.010672293330941426
sVwhatever
p705
F0.0005366844581180204
sVssri
p706
F0.0
sVforgot
p707
F0.0011858103701046028
sVunsafe
p708
F0.0011858103701046028
sVlife
p709
F0.0001206628436756814
sVdoesn
p710
F0.0002413256873513628
sVevidence
p711
F0.0007270762995818066
sVcure
p712
F0.0011858103701046028
sVfloating
p713
F0.0007270762995818066
sVannoying
p714
F0.00045873407052279635
sVneurotransmitters
p715
F0.0
sVphysical
p716
F0.0
sVcompared
p717
F0.0005366844581180204
sVstimulants
p718
F0.0
sVdiarrhea
p719
F0.0023716207402092056
sVrole
p720
F0.0011858103701046028
sVincredibly
p721
F0.0007270762995818066
sVtic
p722
F0.0
sVxanax
p723
F0.0
sVproblems
p724
F0.0010733689162360407
sVativan
p725
F0.0
sVhelpful
p726
F0.0011858103701046028
sVchance
p727
F0.0002683422290590102
sVimportant
p728
F0.0007270762995818066
sVatarax
p729
F0.0
sVtricky
p730
F0.0011858103701046028
sVhippocampal
p731
F0.0
sVassume
p732
F0.0011858103701046028
sVresolving
p733
F0.0011858103701046028
sVdaily
p734
F0.004743241480418411
sVdisagreeing
p735
F0.0
sVcorrelates
p736
F0.0
sV2007
p737
F0.0
sVtime
p738
F0.0
sVserious
p739
F0.001376202211568389
s.