(dp0
Vsecondly
p1
F0.0
sVsuicidal
p2
F0.0003443704534361051
sVpardon
p3
F0.00010557488839785794
sVhats
p4
F0.00010557488839785794
sVpersonally
p5
F0.00023378730046597987
sVnarcotic
p6
F0.0
sVfour
p7
F5.256243228732114e-05
sVsleep
p8
F0.0019316998112856442
sVappetite
p9
F0.0018940374938985782
sVhate
p10
F0.0003443704534361051
sVforget
p11
F6.661033832019463e-05
sVlooking
p12
F0.0
sVplavix
p13
F0.0
sVtremors
p14
F0.0
sVdisability
p15
F0.00017218522671805255
sVbike
p16
F0.00021114977679571588
sVnaprelan
p17
F0.0
sVsorry
p18
F0.00019482275038831655
sVrestock
p19
F0.0
sVworth
p20
F0.0005994930448817516
sVtumblr_nib0q6q9lx1s150rho1_1280
p21
F0.0
sVhormone
p22
F0.0
sVrisk
p23
F0.0002664413532807785
sVdownstream
p24
F0.0
sVcitalopram
p25
F0.0
sVblanket
p26
F0.00021114977679571588
sVglimepiride
p27
F0.0
sVmania
p28
F0.0
sVevery
p29
F0.0003328954044863672
sVupdates
p30
F0.00017218522671805255
sVaffect
p31
F0.0008609261335902628
sVschool
p32
F0.0006887409068722102
sVconceive
p33
F0.00017218522671805255
sVsolution
p34
F0.0
sVrelentlessly
p35
F0.0
sVunrelated
p36
F0.00017218522671805255
sVprotriptyline
p37
F0.0
sVcholesterol
p38
F0.00017218522671805255
sVreliable
p39
F0.00021114977679571588
sVchew
p40
F0.0003443704534361051
sVtired
p41
F0.0003330516916009731
sVawake
p42
F0.00017218522671805255
sVphones
p43
F0.00017218522671805255
sVconsistent
p44
F0.00017218522671805255
sVdirect
p45
F0.00017218522671805255
sVpulse
p46
F0.0
sV10x
p47
F0.0
sVstreet
p48
F0.00017218522671805255
sValmotriptan
p49
F0.0
sVkratom
p50
F0.0
sVcytoxan
p51
F0.0
sVeven
p52
F0.0005606659443980921
sVchrist
p53
F0.0
sVworsen
p54
F0.0
sVselected
p55
F0.00017218522671805255
sVcontributed
p56
F0.0
sVfingers
p57
F0.00010557488839785794
sVmalleable
p58
F0.0
sVscrolling
p59
F0.00017218522671805255
sVbipolar
p60
F0.001549667040462473
sVtoll
p61
F0.0
sVnew
p62
F0.0
sVdatabank
p63
F0.0
sVincreasing
p64
F0.0005165556801541577
sVever
p65
F0.00022777053991172492
sVseeks
p66
F0.00017218522671805255
sVtold
p67
F0.0006661033832019462
sVinjections
p68
F0.0
sVspecialist
p69
F0.0
sVmec
p70
F0.0
sVmechanisms
p71
F0.0
sVnever
p72
F0.0
sVresidual
p73
F0.00017218522671805255
sVmet
p74
F6.661033832019463e-05
sVaid
p75
F0.0
sVactive
p76
F6.661033832019463e-05
sVpath
p77
F3.8964550077663305e-05
sV100
p78
F0.0005994930448817516
sVdiagnostic
p79
F0.0
sVeliciting
p80
F0.0
sVdry
p81
F0.00042229955359143176
sVkids
p82
F0.00010557488839785794
sVforum
p83
F0.00017218522671805255
sVtaper
p84
F0.0
sVphenelzine
p85
F0.0
sVstudy
p86
F0.00042229955359143176
sVchanged
p87
F0.0001998310149605839
sVlorazepam
p88
F0.0
sVsjw
p89
F0.0
sVreports
p90
F0.00010557488839785794
sVamitryptaline
p91
F0.0
sVjogging
p92
F0.0003443704534361051
sVprocedure
p93
F0.00017218522671805255
sVneurologist
p94
F0.0
sVrelpax
p95
F0.0
sVchanges
p96
F6.661033832019463e-05
sVclonidine
p97
F0.0
sVangrily
p98
F0.00017218522671805255
sVhighly
p99
F0.00021114977679571588
sVpsychological
p100
F0.0003443704534361051
sVcarb
p101
F0.0003167246651935739
sVorg
p102
F0.0008609261335902628
sVzocor
p103
F0.0
sVtotal
p104
F0.0002664413532807785
sVtrazodone
p105
F0.0
sVswings
p106
F0.0003443704534361051
sVdna
p107
F0.0
sVwould
p108
F0.0
sVsnri
p109
F0.0
sV42
p110
F0.0005165556801541577
sVarms
p111
F0.00013322067664038926
sVcall
p112
F7.008324304976151e-05
sVcalm
p113
F0.00017218522671805255
sVdepakote
p114
F0.0
sVfainting
p115
F0.0
sVtype
p116
F0.0003996620299211678
sVtell
p117
F0.0004286100508542964
sVbreathe
p118
F0.00017218522671805255
sVtolerated
p119
F0.0
sVpaperwork
p120
F0.0
sVposting
p121
F0.00017218522671805255
sVwary
p122
F0.0
sVsuccessful
p123
F6.661033832019463e-05
sVbrings
p124
F0.00010557488839785794
sVaware
p125
F0.0
sVglucophage
p126
F0.0
sVwarm
p127
F0.00011689365023298994
sVtying
p128
F0.0
sVprescription
p129
F0.0
sV90
p130
F0.00010557488839785794
sVward
p131
F0.0003443704534361051
sVhold
p132
F3.8964550077663305e-05
sVblocking
p133
F0.00010557488839785794
sVmust
p134
F0.0
sVmg
p135
F0.0
sVword
p136
F1.7520810762440377e-05
sVpursue
p137
F0.0
sVwork
p138
F0.0
sVroof
p139
F0.00010557488839785794
sVtheories
p140
F0.0
sVwort
p141
F0.00017218522671805255
sVinstall
p142
F0.00017218522671805255
sVroot
p143
F0.00010557488839785794
sVexample
p144
F0.00019482275038831655
sVaddictive
p145
F0.0
sVacetylcholine
p146
F0.0
sVgive
p147
F0.0001752081076244038
sVimpair
p148
F0.0
sVquetiapine
p149
F0.0
sVcaution
p150
F0.0003443704534361051
sVwant
p151
F0.0
sVappointment
p152
F0.0003443704534361051
sVstory
p153
F0.00042229955359143176
sVlexapro
p154
F0.0
sVabsolute
p155
F0.00010557488839785794
sVend
p156
F0.00012264567533708267
sVrecovery
p157
F0.00010557488839785794
sVdosages
p158
F0.0
sVprovide
p159
F0.0005165556801541577
sVagony
p160
F0.0
sVdrying
p161
F0.00017218522671805255
sVfeature
p162
F0.00021114977679571588
sVhot
p163
F0.0001998310149605839
sVtoxin
p164
F0.0
sVanswer
p165
F0.00011689365023298994
sVclassify
p166
F0.0
sVgaming
p167
F0.0
sVfever
p168
F0.0
sVbothersome
p169
F0.0
sVhaven
p170
F0.0007013619013979395
sVmess
p171
F0.00010557488839785794
sVtribenzor
p172
F0.0
sVarthritis
p173
F0.0
sVsynthroid
p174
F0.0
sVdemanding
p175
F0.00017218522671805255
sVwrong
p176
F0.00015585820031065322
sVjumping
p177
F0.00021114977679571588
sVfat
p178
F0.00021114977679571588
sVcuriosity
p179
F0.00010557488839785794
sV130bpm
p180
F0.0
sVgravol
p181
F0.0
sVlaw
p182
F0.00017218522671805255
sVlap
p183
F0.0003443704534361051
sVtypes
p184
F6.661033832019463e-05
sV2tcxk3
p185
F0.0
sVwinz
p186
F0.0
sVeffective
p187
F0.0012052965870263679
sVappreciate
p188
F0.00010557488839785794
sVdiscontinued
p189
F0.0
sVkeeps
p190
F6.661033832019463e-05
sVtrileptal
p191
F0.0
sVcoumadin
p192
F0.0
sVaxert
p193
F0.0
sVorder
p194
F7.008324304976151e-05
sVtriggering
p195
F0.0
sVtranquilizing
p196
F0.0
sVfeedback
p197
F0.0006887409068722102
sVoffice
p198
F6.661033832019463e-05
sVconsent
p199
F0.00017218522671805255
sVvary
p200
F0.00021114977679571588
sV108318188160
p201
F0.0
sVnebivolol
p202
F0.0
sVpharma
p203
F0.0
sVfit
p204
F3.8964550077663305e-05
sVlifeline
p205
F0.0
sVfix
p206
F0.00010557488839785794
sVimo
p207
F0.0
sVwriting
p208
F0.00013322067664038926
sVbetter
p209
F0.000508103512110771
sVedits
p210
F0.0
sVproduction
p211
F0.0003443704534361051
sVdifferently
p212
F0.00021114977679571588
sVfade
p213
F0.00010557488839785794
sVpharms
p214
F0.0
sVacupuncture
p215
F0.0
sVanidepressants
p216
F0.0
sVeventually
p217
F0.0006887409068722102
sVdiseases
p218
F0.00017218522671805255
sVremission
p219
F0.0
sVweakness
p220
F0.0
sVsafe
p221
F0.0003330516916009731
sVbouts
p222
F0.0
sVsleepiness
p223
F0.0
sVbreak
p224
F0.0005278744419892897
sVtherapy
p225
F0.0005165556801541577
sVeffects
p226
F0.002217072656355017
sVbystolic
p227
F0.0
sVsmoking
p228
F0.00010557488839785794
sVelavil
p229
F0.0
sVsearchbyimage
p230
F0.0
sVregularly
p231
F0.0006887409068722102
sVlosartan
p232
F0.0
sVs40
p233
F0.0
sVreasonable
p234
F0.00010557488839785794
sVdebug
p235
F0.0003443704534361051
sVwent
p236
F0.0002628121614366057
sVinterfering
p237
F0.0
sVside
p238
F0.00012264567533708267
sVmean
p239
F7.792910015532661e-05
sVcetirizine
p240
F0.0
sVlogs
p241
F0.0
sVmdd
p242
F0.0
sVxr
p243
F0.0
sVforgot
p244
F0.0003443704534361051
sVsounds
p245
F0.0007390242187850056
sVdriving
p246
F0.00021114977679571588
sVgod
p247
F0.00010557488839785794
sVvessels
p248
F0.0
sVcounselors
p249
F0.0
sVcontent
p250
F0.0005165556801541577
sVmedicine
p251
F0.0018940374938985782
sVgot
p252
F0.000367937026011248
sVgov
p253
F0.00017218522671805255
sVcn9d8g4
p254
F0.0
sVionsys
p255
F0.0
sVhang
p256
F3.8964550077663305e-05
sVlittle
p257
F0.0
sVfree
p258
F0.00019482275038831655
sVstandard
p259
F6.661033832019463e-05
sVsensory
p260
F0.00017218522671805255
sVstruggle
p261
F0.0003167246651935739
sVhoodie
p262
F0.00017218522671805255
sVinjectable
p263
F0.0
sVsheet
p264
F0.0001998310149605839
sVwanted
p265
F0.0006334493303871478
sVheat
p266
F0.0003167246651935739
sVzaps
p267
F0.0
sVchiari
p268
F0.0
sVate
p269
F0.0003167246651935739
sVstarts
p270
F3.8964550077663305e-05
sVdays
p271
F0.0010520428520969093
sVlocal
p272
F0.00021114977679571588
sVfilter
p273
F0.00010557488839785794
sVheck
p274
F0.0003443704534361051
sVisn
p275
F0.0002628121614366057
sVuppers
p276
F0.0
sVonto
p277
F6.661033832019463e-05
sVbite
p278
F3.8964550077663305e-05
sValready
p279
F5.256243228732114e-05
sVsteroids
p280
F0.00017218522671805255
sVgrade
p281
F0.00017218522671805255
sVprimary
p282
F0.00010557488839785794
sVhearing
p283
F0.00010557488839785794
sVrestrict
p284
F0.0
sVanother
p285
F0.0001752081076244038
sVwasn
p286
F0.00031537459372392684
sVcalorie
p287
F0.00017218522671805255
sVresearched
p288
F0.0
sVpristiq
p289
F0.0
sVseizures
p290
F0.0008609261335902628
sVstimulation
p291
F0.00017218522671805255
sVindicate
p292
F0.00017218522671805255
sVfluvoxamine
p293
F0.0
sVeuphoric
p294
F0.0
sVvinorelbine
p295
F0.0
sVneeded
p296
F0.0006661033832019462
sVton
p297
F0.0006887409068722102
sVlisted
p298
F0.0003167246651935739
sVjohn
p299
F0.0
sVglucose
p300
F0.0
sVorinase
p301
F0.0
sVantihypertensive
p302
F0.0
sVgym
p303
F0.0003167246651935739
sVrisperidone
p304
F0.0
sVserve
p305
F0.00010557488839785794
sVtook
p306
F0.000367937026011248
sVnoradrenergics
p307
F0.0
sVsomewhat
p308
F0.0008609261335902628
sVpeculiar
p309
F0.0
sVsymptom
p310
F0.0
sVbegins
p311
F0.00010557488839785794
sVanxiety
p312
F0.001549667040462473
sVtarget
p313
F0.00017218522671805255
sV5ht2a
p314
F0.0
sVbloated
p315
F0.0
sVenabled
p316
F0.00017218522671805255
sVlikely
p317
F0.0010331113603083155
sV7217
p318
F0.0
sV28http
p319
F0.0
sVmatter
p320
F0.00011689365023298994
sV5mg
p321
F0.0
sVclasses
p322
F0.00011689365023298994
sVfriend
p323
F5.256243228732114e-05
sVexforge
p324
F0.0
sVfeeling
p325
F0.000506539151009623
sVdiuretic
p326
F0.0
sVfashion
p327
F0.00017218522671805255
sVsees
p328
F3.8964550077663305e-05
sVran
p329
F0.00013322067664038926
sVmind
p330
F0.0005994930448817516
sVeyes
p331
F7.792910015532661e-05
sVginger
p332
F0.00021114977679571588
sVtalking
p333
F0.0006887409068722102
sVcorny
p334
F0.00017218522671805255
sVadhd
p335
F0.0
sVseen
p336
F0.00023378730046597987
sVseem
p337
F0.00010512486457464228
sVsounding
p338
F0.0003443704534361051
sVseek
p339
F3.8964550077663305e-05
sVvfend
p340
F0.0
sVrelatively
p341
F0.0003443704534361051
sVforced
p342
F0.00010557488839785794
sVescalator
p343
F0.00017218522671805255
sVresponsible
p344
F0.00010557488839785794
sVrecommended
p345
F0.0006887409068722102
sVcausing
p346
F0.00042229955359143176
sVblue
p347
F0.0001998310149605839
sVexactly
p348
F7.792910015532661e-05
sVlion
p349
F0.00017218522671805255
sVpsychologically
p350
F0.0
sVprescriber
p351
F0.0
sVnorepinephrine
p352
F0.0
sVregular
p353
F0.0006887409068722102
sVmouth
p354
F0.0001998310149605839
sVletter
p355
F6.661033832019463e-05
sVphase
p356
F0.0003443704534361051
sVassessed
p357
F0.0
sV23andme
p358
F0.0
sVopted
p359
F0.0
sVzelapar
p360
F0.0
sV800
p361
F0.00010557488839785794
sVlifesaver
p362
F0.0
sVdom
p363
F0.0012052965870263679
sValupent
p364
F0.0
sVdoc
p365
F0.0005278744419892897
sVmedical
p366
F6.661033832019463e-05
sVdog
p367
F6.661033832019463e-05
sVdefinitely
p368
F0.0007993240598423356
sVcelebrex
p369
F0.0
sVsun
p370
F7.792910015532661e-05
sVcambia
p371
F0.0
sVcame
p372
F0.0005994930448817516
sVvincasar
p373
F0.0
sVsaying
p374
F0.00019482275038831655
sVsetraline
p375
F0.0
sVrandom
p376
F0.00010557488839785794
sVending
p377
F0.00010557488839785794
sVlyrica
p378
F0.0
sVlethal
p379
F0.0
sVtoast
p380
F6.661033832019463e-05
sVbusy
p381
F3.8964550077663305e-05
sVclicked
p382
F0.0005165556801541577
sVcrystodigin
p383
F0.0
sVhrt
p384
F0.0
sVexplain
p385
F0.00013322067664038926
sVacne
p386
F0.0
sVlayman
p387
F0.0
sVkinase
p388
F0.0
sVhrs
p389
F0.0
sVsugar
p390
F0.0005278744419892897
sVnaratriptan
p391
F0.0
sVbliss
p392
F0.0
sVconstant
p393
F0.0005278744419892897
sVboyfriend
p394
F0.0003443704534361051
sVrosuvastatin
p395
F0.0
sVpersonality
p396
F0.00010557488839785794
sVwearing
p397
F0.00021114977679571588
sVsunglasses
p398
F0.00017218522671805255
sVprofessionals
p399
F0.0
sVbruise
p400
F0.0
sVstop
p401
F0.00015768729686196342
sVfluid
p402
F0.0003443704534361051
sVterrors
p403
F0.0
sVdegradation
p404
F0.0
sVdespite
p405
F3.8964550077663305e-05
sVreport
p406
F0.00021114977679571588
sVnasty
p407
F0.00010557488839785794
sVdr
p408
F0.0005165556801541577
sVunfortunately
p409
F0.0010331113603083155
sVbar
p410
F6.661033832019463e-05
sVvincristine
p411
F0.0
sVpatch
p412
F0.0006334493303871478
sVbag
p413
F0.00010557488839785794
sVbad
p414
F0.0003854578367736884
sVsedatives
p415
F0.0
sVfuroxone
p416
F0.0
sVrelease
p417
F0.0001998310149605839
sVidentify
p418
F0.00010557488839785794
sVrespond
p419
F0.0003167246651935739
sVdecides
p420
F0.00017218522671805255
sVfair
p421
F3.5041621524880755e-05
sVmed
p422
F0.0006334493303871478
sVsensitivity
p423
F0.0
sVtesting
p424
F0.00017218522671805255
sVhasn
p425
F3.8964550077663305e-05
sVvalsartan
p426
F0.0
sVbled
p427
F0.0
sVdepends
p428
F0.00021114977679571588
sVdecided
p429
F0.0002664413532807785
sVresult
p430
F0.0003167246651935739
sVmotivated
p431
F0.0003443704534361051
sVmiserable
p432
F0.00021114977679571588
sVdepressive
p433
F0.0
sVbest
p434
F0.00022777053991172492
sVsubject
p435
F0.0003443704534361051
sVsaid
p436
F0.0003504162152488076
sVcapacity
p437
F0.0
sVavandia
p438
F0.0
sVpressured
p439
F0.0003443704534361051
sV05
p440
F0.00010557488839785794
sVlots
p441
F0.0003996620299211678
sVaway
p442
F0.0
sViirc
p443
F0.0
sV108215869015
p444
F0.0
sVimipramine
p445
F0.0
sVmodulate
p446
F0.0
sVhopefully
p447
F0.0
sVsorts
p448
F0.00010557488839785794
sVapproach
p449
F0.00021114977679571588
sVlethargic
p450
F0.0
sVhah
p451
F0.0
sVreddit
p452
F0.0
sVmen
p453
F6.661033832019463e-05
sVterms
p454
F0.0003996620299211678
sVinsurances
p455
F0.0
sVdeltasone
p456
F0.0
sVconfusion
p457
F0.0005165556801541577
sVhowever
p458
F0.0005278744419892897
sVboss
p459
F0.00017218522671805255
sVnightmares
p460
F0.0
sVwear
p461
F0.0007390242187850056
sVwtf
p462
F0.0
sVwp
p463
F0.0
sVnews
p464
F0.00013322067664038926
sVdrowsy
p465
F0.0
sVimprove
p466
F0.00010557488839785794
sVsuggested
p467
F0.0003443704534361051
sVbehaviour
p468
F0.00010557488839785794
sVmyoclonic
p469
F0.0
sVaccident
p470
F0.0003443704534361051
sVagonist
p471
F0.0
sVtriggers
p472
F0.0012052965870263679
sVresistant
p473
F0.0
sVcountry
p474
F3.8964550077663305e-05
sVdemanded
p475
F0.0
sVelse
p476
F0.00014016648609952302
sVgames
p477
F0.00010557488839785794
sVmildly
p478
F0.0
sVadapted
p479
F0.0
sVease
p480
F0.00010557488839785794
sVmortified
p481
F0.00017218522671805255
sVfentanyl
p482
F0.0
sVchlorpropamide
p483
F0.0
sVseizure
p484
F0.0
sVabilify
p485
F0.0
sVgap
p486
F0.00017218522671805255
sVtons
p487
F0.00021114977679571588
sV250
p488
F0.00017218522671805255
sVtrust
p489
F0.00010557488839785794
sVspeak
p490
F0.0003167246651935739
sVbathroom
p491
F0.00017218522671805255
sVtargeting
p492
F0.00017218522671805255
sVnadaol
p493
F0.0
sVputs
p494
F3.8964550077663305e-05
sVbasis
p495
F3.8964550077663305e-05
sVthree
p496
F0.00014016648609952302
sVtiny
p497
F7.792910015532661e-05
sVquickly
p498
F0.00015585820031065322
sVbeer
p499
F0.00017218522671805255
sVtrigger
p500
F0.0012052965870263679
sVbasic
p501
F6.661033832019463e-05
sVexpected
p502
F6.661033832019463e-05
sVprocardia
p503
F0.0
sVnorvasc
p504
F0.0
sVthrew
p505
F0.00010557488839785794
sVphenytoin
p506
F0.0
sVlife
p507
F0.000367937026011248
sVhospitalization
p508
F0.0
sVpimozide
p509
F0.0
sVmcg
p510
F0.0
sVquantities
p511
F0.0
sVconcerning
p512
F0.0
sVuncommon
p513
F0.00010557488839785794
sVcarbamazepine
p514
F0.0
sVonsolis
p515
F0.0
sVhepc
p516
F0.0
sVlift
p517
F0.00010557488839785794
sVabnormally
p518
F0.0
sVneurontin
p519
F0.0
sVcatch
p520
F0.00010557488839785794
sVworked
p521
F0.0007792910015532662
sVspin
p522
F0.0
sVchill
p523
F0.00017218522671805255
sVphysician
p524
F0.0
sVserax
p525
F0.0
sVtastes
p526
F6.661033832019463e-05
sVbuproprion
p527
F0.0
sVn
p528
F1.7520810762440377e-05
sVlesser
p529
F0.00017218522671805255
sVcalcium
p530
F0.0
sVnear
p531
F5.256243228732114e-05
sVabrupt
p532
F0.0
sVfinder
p533
F0.0003443704534361051
sVstopping
p534
F0.0003167246651935739
sVsle
p535
F0.0
sVbalance
p536
F0.0006887409068722102
sVleaves
p537
F3.8964550077663305e-05
sVamisulpride
p538
F0.0
sVremembering
p539
F0.00017218522671805255
sVseven
p540
F0.00010557488839785794
sVcane
p541
F0.0005165556801541577
sVcarbatrol
p542
F0.0
sVir
p543
F0.0
sVlotrel
p544
F0.0
sVeeeet
p545
F0.0
sVcholinergics
p546
F0.0
sVii
p547
F0.0
sVshame
p548
F0.00010557488839785794
sVcant
p549
F0.00017218522671805255
sVdizzy
p550
F0.0
sVim
p551
F0.0003443704534361051
sVbrutal
p552
F0.0
sVkarmadecay
p553
F0.0
sVmotivating
p554
F0.0
sVtrusted
p555
F0.0
sVtheconversation
p556
F0.0
sVseverity
p557
F0.0
sVsuggest
p558
F0.0003443704534361051
sVmake
p559
F0.0003854578367736884
sVdhb
p560
F0.0
sVclearly
p561
F0.00013322067664038926
sVnardil
p562
F0.0
sVcomplex
p563
F6.661033832019463e-05
sVpotentially
p564
F0.00017218522671805255
sVunfortunate
p565
F0.00013322067664038926
sVsuccess
p566
F0.00021114977679571588
sVseveral
p567
F0.0006334493303871478
sVharming
p568
F0.0
sVwheel
p569
F6.661033832019463e-05
sVfairly
p570
F0.0003167246651935739
sVpeaks
p571
F0.0
sVomg
p572
F0.00017218522671805255
sVdiazepam
p573
F0.0
sVverapamil
p574
F0.0
sVsocial
p575
F0.00011689365023298994
sVtops
p576
F0.00010557488839785794
sVhand
p577
F0.0
sVamturnide
p578
F0.0
sVpharmacological
p579
F0.0
sVopportunity
p580
F0.00010557488839785794
sVthoughts
p581
F0.00042229955359143176
sVcycle
p582
F0.00010557488839785794
sVprescribed
p583
F0.0025827784007707885
sVkept
p584
F0.00013322067664038926
sVneurologists
p585
F0.0
sVmirtazipine
p586
F0.0
sVfailing
p587
F0.00017218522671805255
sVsmoker
p588
F0.00010557488839785794
sVoptions
p589
F0.0005278744419892897
sVmother
p590
F3.5041621524880755e-05
sVsmoked
p591
F0.00017218522671805255
sVthc
p592
F0.0
sVleft
p593
F8.76040538122019e-05
sVisradipine
p594
F0.0
sVconsciousness
p595
F0.00017218522671805255
sVversed
p596
F0.0
sVlaptop
p597
F0.00010557488839785794
sVsleepy
p598
F0.0005165556801541577
sVfinancially
p599
F0.00017218522671805255
sVpsych
p600
F0.0
sVthanks
p601
F0.000532882706561557
sVhuman
p602
F6.661033832019463e-05
sVdopamine
p603
F0.0
sVyes
p604
F0.0001752081076244038
sVyet
p605
F0.00014016648609952302
sVthyroid
p606
F0.0
sVcandidate
p607
F0.00021114977679571588
sV1_meetingabstracts
p608
F0.0
sVpharmacy
p609
F0.0006887409068722102
sVaffinity
p610
F0.0
sVadvanced
p611
F6.661033832019463e-05
sVeasy
p612
F0.0
sVtolerable
p613
F0.0
sVgave
p614
F0.0010557488839785794
sVnoticeable
p615
F0.0003443704534361051
sVsubmissive
p616
F0.0
sVonline
p617
F0.00021114977679571588
sVpossible
p618
F0.00046757460093195974
sVpossibly
p619
F7.792910015532661e-05
sVbirth
p620
F0.0003443704534361051
sVdestroy
p621
F0.00017218522671805255
sVjudge
p622
F0.00010557488839785794
sVfeelings
p623
F0.00010557488839785794
sVdreams
p624
F0.00017218522671805255
sVd
p625
F0.0
sVshoulder
p626
F6.661033832019463e-05
sVnevermind
p627
F0.0
sVbpd
p628
F0.0
sVtapering
p629
F0.0
sVnueralgia
p630
F0.0
sV50
p631
F0.00011689365023298994
sV10km
p632
F0.0
sVspecific
p633
F0.00013322067664038926
sVlipitor
p634
F0.0
sVsteps
p635
F6.661033832019463e-05
sVzombies
p636
F0.0
sVnight
p637
F0.00029785378296148644
sVnotorious
p638
F0.00017218522671805255
sVcaduet
p639
F0.0
sVwww
p640
F0.002217072656355017
sVright
p641
F0.00021024972914928457
sVold
p642
F0.0
sVdeal
p643
F0.00027275185054364317
sVdepakene
p644
F0.0
sVsomehow
p645
F6.661033832019463e-05
sVdead
p646
F7.792910015532661e-05
sVunnecessary
p647
F0.00017218522671805255
sVselectivity
p648
F0.0
sVmarplan
p649
F0.0
sVmultiple
p650
F0.00021114977679571588
sVantihypertensives
p651
F0.0
sVtripped
p652
F0.00017218522671805255
sVbottom
p653
F1.7520810762440377e-05
sVdropping
p654
F0.00010557488839785794
sVcomments
p655
F0.0005165556801541577
sVeverything
p656
F0.0001752081076244038
sVicy
p657
F0.00010557488839785794
sVfog
p658
F0.0
sVatenolol
p659
F0.0
sVbeating
p660
F0.00010557488839785794
sVhindu
p661
F0.0
sVdiltiazem
p662
F0.0
sVmarketing
p663
F0.00010557488839785794
sVjantoven
p664
F0.0
sVdisappeared
p665
F0.00013322067664038926
sVpeer
p666
F0.00010557488839785794
sVpost
p667
F0.0005278744419892897
sVsuper
p668
F0.00042229955359143176
sVproperties
p669
F6.661033832019463e-05
sVvalium
p670
F0.0
sVdynacirc
p671
F0.0
sVattacks
p672
F0.0005165556801541577
sVrheumatoid
p673
F0.0
sVinderal
p674
F0.0
sVmonths
p675
F0.0013322067664038924
sVsnris
p676
F0.0
sVdigestive
p677
F0.00017218522671805255
sVplus
p678
F0.0001998310149605839
sVafternoon
p679
F0.0003443704534361051
sVcommit
p680
F0.00010557488839785794
sVslightly
p681
F0.00011689365023298994
sVfunctions
p682
F0.00017218522671805255
sVbalaclavas
p683
F0.0
sVnerve
p684
F0.0005165556801541577
sVdigestion
p685
F0.0
sVpresence
p686
F3.8964550077663305e-05
sVpays
p687
F0.00017218522671805255
sVnegative
p688
F0.0003167246651935739
sVthankful
p689
F0.0
sVmetaproterenol
p690
F0.0
sVreducing
p691
F0.0
sVrounds
p692
F0.0
sVfabric
p693
F0.0
sVadvair
p694
F0.0
sVamazingly
p695
F0.00017218522671805255
sVsupport
p696
F0.0006334493303871478
sVconstantly
p697
F0.0001998310149605839
sVsunlight
p698
F0.0
sVfight
p699
F6.661033832019463e-05
sVstuck
p700
F0.00010557488839785794
sVclinical
p701
F0.0
sVhumalog
p702
F0.0
sVway
p703
F0.00042049945829856914
sVextremism
p704
F0.0
sVresulted
p705
F0.00017218522671805255
sVoverhead
p706
F0.00010557488839785794
sVahajournals
p707
F0.0
sVnicotinic
p708
F0.0
sVhead
p709
F0.00014016648609952302
sVform
p710
F0.00015585820031065322
sVhangover
p711
F0.00017218522671805255
sVforming
p712
F0.0
sVbecoming
p713
F0.00042229955359143176
sVdifferences
p714
F0.0003443704534361051
sVamerge
p715
F0.0
sVrobert
p716
F0.0
sVfailure
p717
F0.00021114977679571588
sVdesipramine
p718
F0.0
sVneedles
p719
F0.0
sVhear
p720
F7.792910015532661e-05
sVpatient
p721
F0.0012052965870263679
sVtrue
p722
F7.792910015532661e-05
sVtraits
p723
F0.0
sVhavoc_bot
p724
F0.0
sVprevents
p725
F0.00017218522671805255
sVinside
p726
F3.5041621524880755e-05
sVmilligrams
p727
F0.0
sVmaximum
p728
F0.0003443704534361051
sVdevices
p729
F0.0
sVemotional
p730
F0.0003443704534361051
sVhorrifying
p731
F0.0
sVemit
p732
F0.00017218522671805255
sVlatuda
p733
F0.0
sVdiagnose
p734
F0.00017218522671805255
sV150
p735
F0.0
sVlater
p736
F0.0001998310149605839
sVsticks
p737
F0.00010557488839785794
sVexerting
p738
F0.0
sVstronger
p739
F0.0005165556801541577
sVmuscular
p740
F0.00010557488839785794
sVhungry
p741
F0.00010557488839785794
sVgland
p742
F0.0
sVtca
p743
F0.0
sVawhile
p744
F0.0005165556801541577
sVannoying
p745
F0.0001998310149605839
sVcheck
p746
F0.0005278744419892897
sVshit
p747
F0.0003167246651935739
sVphysical
p748
F0.0
sVcrutches
p749
F0.0
sVderealization
p750
F0.0
sV200mg
p751
F0.0
sVwhee
p752
F0.0
sVwhereas
p753
F0.00017218522671805255
sVexcel
p754
F0.0
sVne
p755
F0.00021114977679571588
sVactos
p756
F0.0
sVinterested
p757
F3.8964550077663305e-05
sVdetected
p758
F0.00017218522671805255
sVvicodin
p759
F0.0
sVacetaminophen
p760
F0.0
sVtest
p761
F0.0002664413532807785
sVrealize
p762
F0.0003443704534361051
sVunbalanced
p763
F0.00017218522671805255
sVpicture
p764
F6.661033832019463e-05
sVfelt
p765
F0.0007993240598423356
sVdiet
p766
F0.00017218522671805255
sVbrief
p767
F0.00017218522671805255
sVfell
p768
F0.00013322067664038926
sVglucocorticoids
p769
F0.0
sVhurt
p770
F0.0005165556801541577
sVdied
p771
F0.00010557488839785794
sVjacked
p772
F0.0
sVyounger
p773
F0.00013322067664038926
sVhappening
p774
F6.661033832019463e-05
sVassume
p775
F0.0005165556801541577
sVeletriptan
p776
F0.0
sVdaily
p777
F0.003615889761079104
sVfst
p778
F0.0
sVmuscarinic
p779
F0.0
sVtime
p780
F0.0
sVpush
p781
F6.661033832019463e-05
sVserious
p782
F0.0003996620299211678
sVstick
p783
F0.00021114977679571588
sVmaxing
p784
F0.0
sVcoach
p785
F0.00017218522671805255
sVmanaged
p786
F0.00010557488839785794
sVantipsychotics
p787
F0.0
sVchain
p788
F0.00010557488839785794
sVswitched
p789
F0.00021114977679571588
sVskip
p790
F0.00010557488839785794
sVkeep
p791
F0.00029785378296148644
sValternatives
p792
F0.00017218522671805255
sVfocus
p793
F0.0005165556801541577
sVleads
p794
F0.00013322067664038926
sVmanager
p795
F0.00010557488839785794
sVsupplement
p796
F0.0
sVice
p797
F0.00010557488839785794
sVmodafinil
p798
F0.0
sVskin
p799
F5.256243228732114e-05
sVretention
p800
F0.00017218522671805255
sVdevoted
p801
F0.00017218522671805255
sVcertainly
p802
F0.00015585820031065322
sVsuicide
p803
F0.00017218522671805255
sVdisorders
p804
F0.0012052965870263679
sVtranylcypromine
p805
F0.0
sVgraph
p806
F0.00017218522671805255
sVsufferer
p807
F0.0
sVdisgusting
p808
F0.00017218522671805255
sV0
p809
F0.00010557488839785794
sVfinally
p810
F0.0005278744419892897
sVasking
p811
F0.0003330516916009731
sVpermanently
p812
F0.00017218522671805255
sV50lbs
p813
F0.0
sVrhythm
p814
F0.00017218522671805255
sVsuffered
p815
F0.00013322067664038926
sVprotective
p816
F0.00017218522671805255
sVtoprol
p817
F0.0
sVadvantage
p818
F0.00010557488839785794
sVintake
p819
F0.0
sVsaquinavir
p820
F0.0
sVemergencies
p821
F0.00017218522671805255
sVadditional
p822
F0.00010557488839785794
sVmasturbate
p823
F0.00017218522671805255
sVadvised
p824
F0.00017218522671805255
sVtrouble
p825
F5.256243228732114e-05
sVexact
p826
F6.661033832019463e-05
sVminute
p827
F6.661033832019463e-05
sVcool
p828
F0.00017218522671805255
sVlevel
p829
F7.008324304976151e-05
sVdie
p830
F7.792910015532661e-05
sVposts
p831
F0.00017218522671805255
sVaccidentally
p832
F6.661033832019463e-05
sVcloudy
p833
F0.00021114977679571588
sVisocarboxazid
p834
F0.0
sVleave
p835
F3.8964550077663305e-05
sVp
p836
F6.661033832019463e-05
sVsettle
p837
F6.661033832019463e-05
sVquick
p838
F1.7520810762440377e-05
sVsidewalk
p839
F0.00017218522671805255
sVround
p840
F3.8964550077663305e-05
sVwellbutrin
p841
F0.0
sVtremendously
p842
F0.0
sVsays
p843
F1.7520810762440377e-05
sVregret
p844
F0.00010557488839785794
sVporn
p845
F0.0003443704534361051
sVsigh
p846
F0.00010557488839785794
sVmeasurable
p847
F0.0
sVsign
p848
F1.7520810762440377e-05
sVslowed
p849
F0.0
sVcost
p850
F0.0001998310149605839
sVhtp
p851
F0.0
sVagonists
p852
F0.0
sVrun
p853
F8.76040538122019e-05
sVmigraines
p854
F0.0
sVfear
p855
F6.661033832019463e-05
sVdrinks
p856
F0.0006887409068722102
sVstressful
p857
F0.0003443704534361051
sV75mgs
p858
F0.0
sVfluphenazine
p859
F0.0
sVheres
p860
F0.0
sVrifater
p861
F0.0
sV25mg
p862
F0.0
sVcurrent
p863
F0.0002664413532807785
sVremembered
p864
F6.661033832019463e-05
sVtineye
p865
F0.0
sVsuspect
p866
F0.00021114977679571588
sVgoes
p867
F7.008324304976151e-05
sVreply
p868
F0.0003167246651935739
sVfalling
p869
F0.00021114977679571588
sVboost
p870
F0.0
sVfilled
p871
F3.8964550077663305e-05
sVsupporting
p872
F0.00010557488839785794
sVsimcor
p873
F0.0
sVunderstanding
p874
F0.0001998310149605839
sVwater
p875
F0.0002664413532807785
sVtopiramate
p876
F0.0
sVgroups
p877
F0.0003443704534361051
sVaddress
p878
F0.0003167246651935739
sValone
p879
F6.661033832019463e-05
sValong
p880
F5.256243228732114e-05
sVhoops
p881
F0.00017218522671805255
sVappears
p882
F7.792910015532661e-05
sVchange
p883
F0.000532882706561557
sVwait
p884
F0.00011689365023298994
sVbox
p885
F3.8964550077663305e-05
sVboy
p886
F6.661033832019463e-05
sVdiagnoses
p887
F0.0
sVthirty
p888
F0.00010557488839785794
sVhealthy
p889
F6.661033832019463e-05
sVfunded
p890
F0.0
sVcommonly
p891
F0.0
sVsterapred
p892
F0.0
sVtrial
p893
F0.00010557488839785794
sVineffective
p894
F0.00017218522671805255
sVdiagnosed
p895
F0.0
sVsuggestion
p896
F0.00021114977679571588
sVusually
p897
F0.0008659343981625301
sVcyst
p898
F0.0
sVweird
p899
F0.0002664413532807785
sVstudies
p900
F0.0006887409068722102
sV20mg
p901
F0.0
sVpancreatitis
p902
F0.0
sVlove
p903
F0.00011689365023298994
sVextra
p904
F6.661033832019463e-05
sVinducing
p905
F0.0
sVprefer
p906
F6.661033832019463e-05
sVbloody
p907
F6.661033832019463e-05
sVmobic
p908
F0.0
sVrash
p909
F6.661033832019463e-05
sVsufferers
p910
F0.0
sVrarely
p911
F0.0
sVmarket
p912
F0.00010557488839785794
sVsledgehammer
p913
F0.00017218522671805255
sVsensitise
p914
F0.0
sVvivid
p915
F0.0
sVworking
p916
F0.0
sVpositive
p917
F0.00013322067664038926
sVangry
p918
F0.00021114977679571588
sVvisit
p919
F0.00013322067664038926
sVsports
p920
F0.00010557488839785794
sVlive
p921
F7.008324304976151e-05
sViphone
p922
F0.0
sVwondering
p923
F0.00017218522671805255
sVmemory
p924
F0.0002664413532807785
sVtachycardia
p925
F0.0
sVtoday
p926
F0.00015585820031065322
sVaspirin
p927
F0.0
sVsharing
p928
F0.0
sVlawns
p929
F0.0
sVafford
p930
F0.00017218522671805255
sVshare
p931
F3.8964550077663305e-05
sVpsychiatric
p932
F0.0
sVvalidity
p933
F0.0
sVclue
p934
F0.00010557488839785794
sVappendix
p935
F0.0
sVcases
p936
F0.0003443704534361051
sVbehalf
p937
F0.00017218522671805255
sVductape
p938
F0.0
sVfly
p939
F6.661033832019463e-05
sVdosing
p940
F0.0
sVanything
p941
F0.000508103512110771
sVcontradicts
p942
F0.00017218522671805255
sVirritable
p943
F0.0005165556801541577
sVcar
p944
F6.661033832019463e-05
sVdepressants
p945
F0.0
sVibd
p946
F0.0
sVbeliever
p947
F0.0
sVreviews
p948
F0.00017218522671805255
sVhardest
p949
F0.00017218522671805255
sVincidents
p950
F0.0
sVachieve
p951
F0.0003443704534361051
sVaripiprazole
p952
F0.0
sVgrowing
p953
F0.00010557488839785794
sVmetoprolol
p954
F0.0
sVibs
p955
F0.0
sVdosage
p956
F0.002066222720616631
sVstreak
p957
F6.661033832019463e-05
sVheart
p958
F0.00046627236824136237
sVcrazy
p959
F0.00010557488839785794
sVfigure
p960
F0.0003167246651935739
sVdecember
p961
F0.0
sVawesome
p962
F0.0003443704534361051
sVcimetidine
p963
F0.0
sVfuck
p964
F0.0003443704534361051
sVtopic
p965
F0.00010557488839785794
sVheard
p966
F0.00027275185054364317
sVstroke
p967
F0.00017218522671805255
sVpalpitations
p968
F0.0
sVallowed
p969
F0.00015585820031065322
sVatorvastatin
p970
F0.0
sVbalaclava
p971
F0.0
sVcounting
p972
F0.00010557488839785794
sVclothing
p973
F0.00017218522671805255
sVpainkillers
p974
F0.0005165556801541577
sVmonitoring
p975
F0.0
sVwinter
p976
F0.00010557488839785794
sVdilantin
p977
F0.0
sVdivided
p978
F0.0
sVwarfarin
p979
F0.0
sVdinner
p980
F6.661033832019463e-05
sV1
p981
F0.00022777053991172492
sVactual
p982
F0.00017218522671805255
sVpure
p983
F3.8964550077663305e-05
sVpins
p984
F0.0
sVgenocide
p985
F0.0
sVpathway
p986
F0.0
sVbronchodilators
p987
F0.0
sVstaying
p988
F0.00021114977679571588
sVlaundry
p989
F0.0
sVirrational
p990
F0.0
sVcocktail
p991
F0.0005165556801541577
sVhuge
p992
F5.256243228732114e-05
sVmay
p993
F0.0008409989165971383
sVcranky
p994
F0.0
sVtheochron
p995
F0.0
sVmembership
p996
F0.0
sVrasagiline
p997
F0.0
sVdata
p998
F0.0006887409068722102
sVshockingly
p999
F0.0
sVmao
p1000
F0.0
sVman
p1001
F7.008324304976151e-05
sVvomited
p1002
F0.00017218522671805255
sVstress
p1003
F0.00042229955359143176
sVnatural
p1004
F0.00010557488839785794
sVneck
p1005
F0.0003167246651935739
sVchiropractic
p1006
F0.0
sVstupidly
p1007
F0.0
sVsr
p1008
F0.0
sVst
p1009
F0.0
sVcascade
p1010
F0.0
sVswitch
p1011
F0.00010557488839785794
sVswollen
p1012
F0.0
sVsa
p1013
F0.00017218522671805255
sVpollution
p1014
F0.0
sVtalk
p1015
F0.0007993240598423356
sVtypical
p1016
F0.00010557488839785794
sVimagining
p1017
F0.00017218522671805255
sVtagged
p1018
F0.0012052965870263679
sVexplaind
p1019
F0.0
sVoxyneow
p1020
F0.0
sVshoes
p1021
F0.00010557488839785794
sVnsi
p1022
F0.0
sVfood
p1023
F3.8964550077663305e-05
sVdutoprol
p1024
F0.0
sVepilepsy
p1025
F0.0
sVmainly
p1026
F0.00010557488839785794
sVymmv
p1027
F0.0
sVbrain
p1028
F0.001998310149605839
sVepisodes
p1029
F0.0
sVthinner
p1030
F0.00021114977679571588
sVtonic
p1031
F0.0
sVnbsp
p1032
F0.0012052965870263679
sVcuts
p1033
F0.00017218522671805255
sVcold
p1034
F0.0006661033832019462
sVstill
p1035
F0.0
sVamatriptyline
p1036
F0.0
sVsinus
p1037
F0.0
sVpolice
p1038
F0.00021114977679571588
sVmonitor
p1039
F0.0005165556801541577
sVinteresting
p1040
F3.8964550077663305e-05
sVtorn
p1041
F0.0
sVtroubles
p1042
F0.0
sVamazing
p1043
F0.00021114977679571588
sVideation
p1044
F0.0
sVwindow
p1045
F3.8964550077663305e-05
sV46222
p1046
F0.0
sVdreadfully
p1047
F0.0
sVpolicy
p1048
F0.0005165556801541577
sVmain
p1049
F8.76040538122019e-05
sVdecades
p1050
F0.0005165556801541577
sVhappened
p1051
F0.00015585820031065322
sVnon
p1052
F3.5041621524880755e-05
sVundiagnosed
p1053
F0.0
sVstabilizers
p1054
F0.0
sVlightheadedness
p1055
F0.0
sVdevastated
p1056
F0.0
sVkiller
p1057
F0.00013322067664038926
sVinsomnia
p1058
F0.0
sVlunch
p1059
F6.661033832019463e-05
sVadrenaline
p1060
F0.0
sVhalf
p1061
F0.0001752081076244038
sVthus
p1062
F0.00021114977679571588
sVtwilight
p1063
F0.00017218522671805255
sVkilled
p1064
F6.661033832019463e-05
sVcliff
p1065
F0.00010557488839785794
sVwont
p1066
F0.00017218522671805255
sVterm
p1067
F0.00013322067664038926
sVname
p1068
F0.00014016648609952302
sVteri
p1069
F0.0
sVprophylaxis
p1070
F0.0
sVdidn
p1071
F0.00042049945829856914
sVlithobid
p1072
F0.0
sVconcerta
p1073
F0.0
sVrealise
p1074
F0.0
sVnoticeably
p1075
F0.0
sVpharmacies
p1076
F0.0
sVentirely
p1077
F3.8964550077663305e-05
sVen
p1078
F0.00010557488839785794
sVsignificantly
p1079
F0.0
sVsimplicity
p1080
F0.0
sVeg
p1081
F0.0005165556801541577
sVyeah
p1082
F0.00042229955359143176
sVbreakthrough
p1083
F0.0
sVex
p1084
F0.0006334493303871478
sVyear
p1085
F0.00022777053991172492
sVfluvastatin
p1086
F0.0
sVhappen
p1087
F7.792910015532661e-05
sVworried
p1088
F0.00013322067664038926
sVpills
p1089
F0.0013774818137444204
sVer
p1090
F0.0001998310149605839
sVcanada
p1091
F0.0
sVliving
p1092
F7.008324304976151e-05
sVshown
p1093
F6.661033832019463e-05
sVmedications
p1094
F0.0
sVstitch
p1095
F0.00017218522671805255
sVprofit
p1096
F0.00017218522671805255
sVsitagliptin
p1097
F0.0
sVpravastatin
p1098
F0.0
sVincrease
p1099
F0.0005278744419892897
sVseriously
p1100
F0.0003330516916009731
sVmiles
p1101
F0.00010557488839785794
sVcorrect
p1102
F0.00010557488839785794
sVcomplimented
p1103
F0.0
sVtheory
p1104
F0.0003443704534361051
sVmillion
p1105
F0.00017218522671805255
sVinhaled
p1106
F0.0
sVpossibility
p1107
F0.00010557488839785794
sVquite
p1108
F0.00015768729686196342
sVantihistamines
p1109
F0.0
sVcomplicated
p1110
F0.0003443704534361051
sVbesides
p1111
F0.00021114977679571588
sVclozaril
p1112
F0.0
sVquits
p1113
F0.00017218522671805255
sVcough
p1114
F6.661033832019463e-05
sVcare
p1115
F0.0005278744419892897
sVcouldn
p1116
F0.00046757460093195974
sVlanguage
p1117
F6.661033832019463e-05
sVflare
p1118
F0.0
sVcalories
p1119
F0.00017218522671805255
sV10mg
p1120
F0.0
sVthing
p1121
F0.00024529135067416534
sVsteroidal
p1122
F0.0
sVplace
p1123
F3.5041621524880755e-05
sVmassive
p1124
F0.0
sVrifadin
p1125
F0.0
sVthink
p1126
F0.0006833116197351748
sVfrequent
p1127
F0.0003443704534361051
sVfirst
p1128
F0.0004380202690610095
sVtenoretic
p1129
F0.0
sVinitial
p1130
F6.661033832019463e-05
sVsurviving
p1131
F0.0
sVlong
p1132
F0.0
sVdirectly
p1133
F6.661033832019463e-05
sVcarry
p1134
F3.5041621524880755e-05
sVimpossible
p1135
F0.0003167246651935739
sVmessage
p1136
F0.0003330516916009731
sVdrove
p1137
F0.00017218522671805255
sVtomorrow
p1138
F0.00017218522671805255
sVtingling
p1139
F0.0
sVcity
p1140
F6.661033832019463e-05
sVgiven
p1141
F0.00010512486457464228
sVnecessarily
p1142
F0.00021114977679571588
sVchecked
p1143
F0.00021114977679571588
sVgif
p1144
F0.0008609261335902628
sVcaught
p1145
F6.661033832019463e-05
sVslept
p1146
F0.00017218522671805255
sVuric
p1147
F0.0
sVfm
p1148
F0.0
sVanyone
p1149
F7.792910015532661e-05
sV10lbs
p1150
F0.0
sV2
p1151
F0.00045554107982344983
sVterrifying
p1152
F0.0
sVmilage
p1153
F0.0
sVamphetamines
p1154
F0.0
sVraventyler2sv_loungeoflust_having_raven_practice
p1155
F0.0
sVreaaaally
p1156
F0.0
sVspeaking
p1157
F0.00010557488839785794
sVgives
p1158
F0.00011689365023298994
sVfexofenadine
p1159
F0.0
sVdiabinese
p1160
F0.0
sVmostly
p1161
F0.0003330516916009731
sVcope
p1162
F0.00017218522671805255
sVseason
p1163
F0.00017218522671805255
sVissues
p1164
F0.0017947731027635851
sVadrenergic
p1165
F0.0
sVaccurately
p1166
F0.00010557488839785794
sV175mg
p1167
F0.0
sVnifedical
p1168
F0.0
sVridiculous
p1169
F0.0003443704534361051
sVtriptylines
p1170
F0.0
sVx2
p1171
F0.0
sVspecialists
p1172
F0.0
sVeliminated
p1173
F0.0
sVcopy
p1174
F6.661033832019463e-05
sVpopulation
p1175
F0.00010557488839785794
sV11
p1176
F3.5041621524880755e-05
sV10
p1177
F0.00014016648609952302
sVsert
p1178
F0.0
sV12
p1179
F8.76040538122019e-05
sV15
p1180
F3.5041621524880755e-05
sV14
p1181
F0.0003996620299211678
sV16
p1182
F6.661033832019463e-05
sV18
p1183
F0.00013322067664038926
sVrequire
p1184
F0.0005165556801541577
sVoptimism
p1185
F0.0
sVfuture
p1186
F3.8964550077663305e-05
sVmagnesium
p1187
F0.0
sVasleep
p1188
F0.0003167246651935739
sVcrixus
p1189
F0.0
sVhappy
p1190
F7.792910015532661e-05
sVproactive
p1191
F0.0
sVpublished
p1192
F0.00017218522671805255
sVpre
p1193
F0.00010557488839785794
sVnifedipine
p1194
F0.0
sVillness
p1195
F0.0
sVcymbalta
p1196
F0.0
sVmarijuana
p1197
F0.0003443704534361051
sVdiabeta
p1198
F0.0
sVdash
p1199
F0.00017218522671805255
sVssris
p1200
F0.0
sVsay
p1201
F0.0002628121614366057
sVtylenol
p1202
F0.0
sVsells
p1203
F0.00010557488839785794
sVsaw
p1204
F0.0003330516916009731
sVdryness
p1205
F0.00017218522671805255
sVsat
p1206
F0.00017218522671805255
sVshtml
p1207
F0.0
sVsumatriptan
p1208
F0.0
sVadvil
p1209
F0.0
sVaside
p1210
F0.0001998310149605839
sVnote
p1211
F0.00015585820031065322
sVideal
p1212
F0.00010557488839785794
sVpotential
p1213
F0.0005165556801541577
sVthermometer
p1214
F0.0
sVwanting
p1215
F0.0003443704534361051
sVimpairment
p1216
F0.0
sVswitching
p1217
F0.00021114977679571588
sVchannel
p1218
F0.00010557488839785794
sVbegin
p1219
F6.661033832019463e-05
sVsure
p1220
F0.0009351492018639195
sVpain
p1221
F0.004529503005773235
sVnsaids
p1222
F0.0
sVbotulinum
p1223
F0.0
sVnormal
p1224
F0.0005994930448817516
sVprice
p1225
F6.661033832019463e-05
sVknew
p1226
F0.0001998310149605839
sVpaid
p1227
F0.00010557488839785794
sVfalls
p1228
F3.8964550077663305e-05
sVbeta
p1229
F0.0018940374938985782
sVimportantly
p1230
F0.0
sVcomplaints
p1231
F0.00010557488839785794
sVknee
p1232
F0.0
sVtherapeutic
p1233
F0.0
sVneuro
p1234
F0.0
sVespecially
p1235
F0.0003896455007766331
sVsurprising
p1236
F0.00021114977679571588
sVconsidered
p1237
F0.0003167246651935739
sVcortef
p1238
F0.0
sVdrive
p1239
F0.0006334493303871478
sVvulgaris
p1240
F0.0
sVpdoc
p1241
F0.0
sValarming
p1242
F0.0
sVlink
p1243
F0.00042229955359143176
sVtypically
p1244
F0.00017218522671805255
sVwebmd
p1245
F0.0
sVwalking
p1246
F3.8964550077663305e-05
sVdrastically
p1247
F0.0
sVshot
p1248
F7.792910015532661e-05
sVshow
p1249
F3.5041621524880755e-05
sVcheap
p1250
F0.0005278744419892897
sVlegalization
p1251
F0.0
sVmri
p1252
F0.0
sVvytorin
p1253
F0.0
sVinhibitors
p1254
F0.0
sVline
p1255
F3.8964550077663305e-05
sVinvega
p1256
F0.0
sVslow
p1257
F0.00011689365023298994
sVglucotrol
p1258
F0.0
sVfavor
p1259
F0.00010557488839785794
sVfibro
p1260
F0.0
sVoutside
p1261
F7.008324304976151e-05
sVgoing
p1262
F0.0
sVdeveloped
p1263
F0.0
sVmetaprel
p1264
F0.0
sVtruly
p1265
F0.00010557488839785794
sVherbal
p1266
F0.0008609261335902628
sVcannot
p1267
F3.8964550077663305e-05
sVnearly
p1268
F1.7520810762440377e-05
sVconjunction
p1269
F0.0
sVgen
p1270
F0.00017218522671805255
sVgel
p1271
F0.00017218522671805255
sVregarding
p1272
F0.00021114977679571588
sVfloods
p1273
F0.0
sVmorning
p1274
F0.0006334493303871478
sVbarbaric
p1275
F0.0
sVstupid
p1276
F6.661033832019463e-05
sVtwynsta
p1277
F0.0
sVworries
p1278
F0.00010557488839785794
sVpituitary
p1279
F0.0
sVsurgeries
p1280
F0.0
sVworrying
p1281
F0.0
sVvision
p1282
F0.0
sVwiki
p1283
F0.0
sVmedicated
p1284
F0.0003443704534361051
sVencourages
p1285
F0.0
sVcollege
p1286
F0.0003443704534361051
sVanyways
p1287
F0.00021114977679571588
sVeliminating
p1288
F0.0
sVstigma
p1289
F0.0
sVsurgery
p1290
F0.00017218522671805255
sVconcern
p1291
F0.00017218522671805255
sVglipizide
p1292
F0.0
sVjumped
p1293
F0.00010557488839785794
sVlabel
p1294
F0.00013322067664038926
sVcd
p1295
F0.00017218522671805255
sV3
p1296
F0.0007013619013979395
sV10mins
p1297
F0.0
sVaffecting
p1298
F0.0
sVreading
p1299
F0.00011689365023298994
sVacross
p1300
F0.00013322067664038926
sVtherapies
p1301
F0.0
sVpsychedelics
p1302
F0.0
sVdiskets
p1303
F0.0
sVnotice
p1304
F7.792910015532661e-05
sVjobs
p1305
F0.00021114977679571588
sVaugust
p1306
F0.0
sVscreen
p1307
F0.0003167246651935739
sVkilling
p1308
F0.00017218522671805255
sVblame
p1309
F6.661033832019463e-05
sVmycobutin
p1310
F0.0
sVheal
p1311
F0.0
sVhurts
p1312
F0.00017218522671805255
sVvenlafaxine
p1313
F0.0
sVarticle
p1314
F0.00013322067664038926
sVcome
p1315
F0.00012264567533708267
sVreaction
p1316
F0.0003167246651935739
sVcircumference
p1317
F0.0
sVtopamax
p1318
F0.0
sVmany
p1319
F0.0
sVaccording
p1320
F0.00015585820031065322
sVpersonal
p1321
F0.00015585820031065322
sVmane
p1322
F0.0
sVrapamune
p1323
F0.0
sVnoopept
p1324
F0.0
sVamong
p1325
F0.00021114977679571588
sVafterwards
p1326
F6.661033832019463e-05
sVcancer
p1327
F0.0005165556801541577
sVperiod
p1328
F0.00019482275038831655
sVpop
p1329
F0.00010557488839785794
sVthiazolidinediones
p1330
F0.0
sVmris
p1331
F0.0
sVrhythmol
p1332
F0.0
sV68
p1333
F0.00017218522671805255
sVassociated
p1334
F0.0013774818137444204
sVguesstimate
p1335
F0.0
sVboat
p1336
F0.00017218522671805255
sVconsidering
p1337
F0.00010557488839785794
sVlate
p1338
F3.8964550077663305e-05
sVcycling
p1339
F0.0003443704534361051
sVneurogenesis
p1340
F0.0
sVfrovatriptan
p1341
F0.0
sVcapable
p1342
F0.00017218522671805255
sVe4f05a31a42356da86b89860436c31bc
p1343
F0.0
sVvacation
p1344
F0.00017218522671805255
sVmark
p1345
F6.661033832019463e-05
sVflecainide
p1346
F0.0
sVtonsils
p1347
F0.00017218522671805255
sVcombined
p1348
F0.00021114977679571588
sVhardly
p1349
F0.00021114977679571588
sV500
p1350
F0.00017218522671805255
sVwants
p1351
F0.0
sVpioglitazone
p1352
F0.0
sVbme
p1353
F0.0
sVoffered
p1354
F0.00021114977679571588
sV400
p1355
F0.00010557488839785794
sVwake
p1356
F0.00013322067664038926
sVjobseeker
p1357
F0.0
sVcarvedilol
p1358
F0.0
sVsuspected
p1359
F0.0
sVcareful
p1360
F0.00010557488839785794
sVirrelevant
p1361
F0.00017218522671805255
sV1mg
p1362
F0.0
sVsound
p1363
F0.00011689365023298994
sVoxycodine
p1364
F0.0
sVdisconnected
p1365
F0.00010557488839785794
sVdeveloping
p1366
F0.00017218522671805255
sVsingle
p1367
F3.5041621524880755e-05
sVvoltaren
p1368
F0.0
sVcure
p1369
F0.00017218522671805255
sVongoing
p1370
F0.0
sVpolicies
p1371
F0.0
sVpromising
p1372
F0.00017218522671805255
sVsituation
p1373
F0.00010557488839785794
sV50s
p1374
F0.00017218522671805255
sVterbutaline
p1375
F0.0
sVtheo
p1376
F0.0
sVmicroarrays
p1377
F0.0
sVside_effect
p1378
F0.0
sVsleeping
p1379
F0.0008445991071828635
sVmiddle
p1380
F0.00011689365023298994
sVsudden
p1381
F6.661033832019463e-05
sVimitrex
p1382
F0.0
sVengages
p1383
F0.00017218522671805255
sVeveryday
p1384
F0.0003443704534361051
sVworry
p1385
F7.792910015532661e-05
sVsedating
p1386
F0.0
sVdifferent
p1387
F0.000506539151009623
sVperhaps
p1388
F0.00042229955359143176
sVdevelop
p1389
F0.00010557488839785794
sVcombination
p1390
F0.0003330516916009731
sVtolazamide
p1391
F0.0
sVmedia
p1392
F0.0006334493303871478
sVattribute
p1393
F0.00010557488839785794
sVrelaxant
p1394
F0.0
sVshifts
p1395
F0.00017218522671805255
sVhtml
p1396
F0.00017218522671805255
sVbowels
p1397
F0.0003443704534361051
sVagitated
p1398
F0.0
sVfrequented
p1399
F0.0
sVweek
p1400
F0.0011323757514433088
sVextended
p1401
F0.0003443704534361051
sVstructurally
p1402
F0.0
sVness
p1403
F0.0003443704534361051
sVweed
p1404
F0.0003443704534361051
sVrunning
p1405
F0.0
sVvestibular
p1406
F0.0
sVanecdotal
p1407
F0.0
sVintended
p1408
F0.0
sVchanging
p1409
F0.00013322067664038926
sVtotally
p1410
F3.8964550077663305e-05
sVmentally
p1411
F0.0005165556801541577
sVpsychiatrists
p1412
F0.0
sVcomplained
p1413
F0.00017218522671805255
sVfasting
p1414
F0.0
sVantibodies
p1415
F0.0
sVtreximet
p1416
F0.0
sVantihistamine
p1417
F0.0
sVendep
p1418
F0.0
sVroughly
p1419
F0.0
sVsevere
p1420
F0.0010557488839785794
sVcosts
p1421
F0.0003443704534361051
sVcomes
p1422
F6.661033832019463e-05
sVnewsflash
p1423
F0.0
sVbodies
p1424
F0.00010557488839785794
sVcelecoxib
p1425
F0.0
sVescitalopram
p1426
F0.0
sVbenzo
p1427
F0.0
sVgenerally
p1428
F0.0002664413532807785
sVphysically
p1429
F0.0006887409068722102
sVviolent
p1430
F0.0003443704534361051
sVrelevant
p1431
F0.0
sVkill
p1432
F3.8964550077663305e-05
sVtouch
p1433
F0.00011689365023298994
sVreality
p1434
F0.00017218522671805255
sVspeed
p1435
F3.5041621524880755e-05
sVwifes
p1436
F0.0
sVketamine
p1437
F0.0
sVasthma
p1438
F0.0003443704534361051
sVangiotensin
p1439
F0.0
sVthinking
p1440
F0.0003996620299211678
sVremember
p1441
F0.00015768729686196342
sVseems
p1442
F0.00024529135067416534
sVexcept
p1443
F3.8964550077663305e-05
sVimprovement
p1444
F0.0007390242187850056
sVblog
p1445
F0.00021114977679571588
sVwall
p1446
F0.00010557488839785794
sVsaver
p1447
F0.0
sVsetting
p1448
F3.8964550077663305e-05
sVtreatment
p1449
F0.0025827784007707885
sVfunctionality
p1450
F0.00017218522671805255
sVglyburide
p1451
F0.0
sVpill
p1452
F0.0006887409068722102
sVreal
p1453
F0.0
sVaround
p1454
F0.0001927289183868442
sVkills
p1455
F6.661033832019463e-05
sVrules
p1456
F0.00010557488839785794
sVgonna
p1457
F6.661033832019463e-05
sVindocin
p1458
F0.0
sVdark
p1459
F0.0
sVmom
p1460
F0.0003443704534361051
sVusing
p1461
F0.00027275185054364317
sVaccepted
p1462
F0.00010557488839785794
sVlady
p1463
F3.8964550077663305e-05
sVtegretol
p1464
F0.0
sVacute
p1465
F0.0
sVfibromyalgia
p1466
F0.0
sVpounds
p1467
F0.00010557488839785794
sVcorgard
p1468
F0.0
sVsinemet
p1469
F0.0
sVmiracle
p1470
F0.0
sVsanity
p1471
F0.0
sVphysiotherapy
p1472
F0.0
sVeither
p1473
F0.00012264567533708267
sVfully
p1474
F3.8964550077663305e-05
sVlimbitrol
p1475
F0.0
sVintestinal
p1476
F0.0
sVtrying
p1477
F0.0006234328012426129
sVmaking
p1478
F5.256243228732114e-05
sVdole
p1479
F0.0
sVparnate
p1480
F0.0
sVibuprofen
p1481
F0.0
sVduration
p1482
F0.0
sVbizarre
p1483
F0.0003443704534361051
sVprovided
p1484
F0.00010557488839785794
sVmood
p1485
F0.002322647544752875
sVcourses
p1486
F0.0
sVmemories
p1487
F0.0
sVhighest
p1488
F0.00017218522671805255
sVlegal
p1489
F0.00017218522671805255
sVprovider
p1490
F0.0
sVmaoi
p1491
F0.0
sValtoprev
p1492
F0.0
sVrefer
p1493
F0.0003443704534361051
sVcalmed
p1494
F0.0
sVturkey
p1495
F0.0005165556801541577
sVkilter
p1496
F0.0
sVbentyl
p1497
F0.0
sVpower
p1498
F3.8964550077663305e-05
sVcommunicate
p1499
F0.00017218522671805255
sVunease
p1500
F0.0
sVaddicted
p1501
F0.0005165556801541577
sVfinicky
p1502
F0.0
sVcomparison
p1503
F0.00010557488839785794
sVok
p1504
F0.00013322067664038926
sVoh
p1505
F0.0003167246651935739
sVanticonvulsants
p1506
F0.0
sVindustry
p1507
F0.00017218522671805255
sVod
p1508
F0.0
sVfavorite
p1509
F6.661033832019463e-05
sVmeal
p1510
F6.661033832019463e-05
sVinforming
p1511
F0.0
sVbenzos
p1512
F0.0
sV75mg
p1513
F0.0
sVgreatly
p1514
F0.00017218522671805255
sVact
p1515
F7.792910015532661e-05
sVmixed
p1516
F0.00010557488839785794
sVintent
p1517
F0.0
sVluck
p1518
F0.0005994930448817516
sVroad
p1519
F0.00010557488839785794
sVop
p1520
F0.0003443704534361051
sVndph
p1521
F0.0
sVlantus
p1522
F0.0
sVredshift
p1523
F0.0
sVimage
p1524
F0.0006334493303871478
sVcyclophosphamide
p1525
F0.0
sVspinal
p1526
F0.0
sVtreetop
p1527
F0.0
sVdestroys
p1528
F0.0
sVjanuvia
p1529
F0.0
sVconstipation
p1530
F0.0003443704534361051
sVpharmaceutical
p1531
F0.0
sVlog
p1532
F0.00017218522671805255
sVarea
p1533
F3.5041621524880755e-05
sVaren
p1534
F0.00015768729686196342
sVstrictly
p1535
F0.00010557488839785794
sVhey
p1536
F0.0003167246651935739
sVlol
p1537
F0.0003443704534361051
sVstart
p1538
F0.00046757460093195974
sVlions
p1539
F0.0005165556801541577
sVlow
p1540
F0.0008182555516309295
sVlot
p1541
F0.0
sVdeteriorating
p1542
F0.0
sVallergic
p1543
F0.0006887409068722102
sVcomplete
p1544
F0.00015585820031065322
sVenough
p1545
F0.0
sVstrenuous
p1546
F0.0
sVhappier
p1547
F0.00017218522671805255
sVpromote
p1548
F0.00017218522671805255
sVbuying
p1549
F0.00017218522671805255
sVlonger
p1550
F0.00012264567533708267
sVregimen
p1551
F0.0
sVoctober
p1552
F0.0
sVapplying
p1553
F0.00017218522671805255
sVdefault
p1554
F0.00017218522671805255
sVnadolol
p1555
F0.0
sVmedrol
p1556
F0.0
sVdirty
p1557
F0.00010557488839785794
sVanxiolyitic
p1558
F0.0
sVbeliefs
p1559
F0.0
sVdetailed
p1560
F0.00017218522671805255
sVgone
p1561
F0.00014016648609952302
sVhaloperidol
p1562
F0.0
sVab
p1563
F0.0
sVautoimmune
p1564
F0.0
sVtheophylline
p1565
F0.0
sVexhausted
p1566
F0.00017218522671805255
sVcertain
p1567
F7.008324304976151e-05
sVdivalproex
p1568
F0.0
sVdescribe
p1569
F0.00021114977679571588
sVmoved
p1570
F0.00013322067664038926
sVdeep
p1571
F3.8964550077663305e-05
sVgeneral
p1572
F0.0
sValarm
p1573
F0.00010557488839785794
sVtriptans
p1574
F0.0
sVfile
p1575
F0.0003443704534361051
sVwalks
p1576
F6.661033832019463e-05
sVfurazolidone
p1577
F0.0
sVmelatonin
p1578
F0.0
sVneurotransmitters
p1579
F0.0
sVyoga
p1580
F0.0005165556801541577
sVdeserve
p1581
F0.00017218522671805255
sVnovice
p1582
F0.0
sVinsurance
p1583
F0.0005165556801541577
sVfield
p1584
F0.00017218522671805255
sVvalid
p1585
F0.00010557488839785794
sV5
p1586
F0.00021024972914928457
sVunfiltered
p1587
F0.0
sVbmi
p1588
F0.0
sVregardless
p1589
F0.00017218522671805255
sVxanax
p1590
F0.0
sVrobaxacet
p1591
F0.0
sVdominantaddiction
p1592
F0.0
sVincludes
p1593
F0.0003996620299211678
sVherbs
p1594
F0.00017218522671805255
sV60g
p1595
F0.0
sVimportant
p1596
F0.0003167246651935739
sVpeak
p1597
F0.00010557488839785794
sVbrands
p1598
F0.00017218522671805255
sVabstral
p1599
F0.0
sV13
p1600
F6.661033832019463e-05
sVpool
p1601
F0.00017218522671805255
sValcohol
p1602
F0.00010557488839785794
sVbuilding
p1603
F6.661033832019463e-05
sVcarbs
p1604
F0.00017218522671805255
sVwife
p1605
F0.0006334493303871478
sVsobbing
p1606
F0.00017218522671805255
sVtricks
p1607
F0.0
sVcoreg
p1608
F0.0
sVrestricted
p1609
F0.00017218522671805255
sVoncovin
p1610
F0.0
sVoral
p1611
F0.0013774818137444204
sV4pm
p1612
F0.0
sVcatapres
p1613
F0.0
sVconsider
p1614
F0.00015585820031065322
sVchinese
p1615
F0.0
sVcaused
p1616
F0.0009501739955807215
sVhydrobromide
p1617
F0.0
sVlack
p1618
F0.00015585820031065322
sVmusacarinic
p1619
F0.0
sVmonth
p1620
F0.0006234328012426129
sVsulfonylurea
p1621
F0.0
sVantagonize
p1622
F0.0
sVfrova
p1623
F0.0
sVfairness
p1624
F0.0
sVfollow
p1625
F7.792910015532661e-05
sVmeditation
p1626
F0.0
sVdecisions
p1627
F0.0
sVreasoning
p1628
F0.0
sVcauses
p1629
F0.00021114977679571588
sVsynthetic
p1630
F0.0003443704534361051
sVglitzy
p1631
F0.0
sVhunting
p1632
F0.00010557488839785794
sVty
p1633
F0.0
sVinvestigational
p1634
F0.0
sValfentanil
p1635
F0.0
sVprograf
p1636
F0.0
sVnori
p1637
F0.0
sVactivities
p1638
F0.0
sVwoman
p1639
F3.8964550077663305e-05
sVimuran
p1640
F0.0
sVworse
p1641
F0.0007403264514756028
sVreturning
p1642
F0.00021114977679571588
sVfar
p1643
F0.00031537459372392684
sVhorror
p1644
F0.0003443704534361051
sVpseudoephedrine
p1645
F0.0
sVtenormin
p1646
F0.0
sVrifampin
p1647
F0.0
sVworst
p1648
F0.00042229955359143176
sVdecide
p1649
F0.00010557488839785794
sVfall
p1650
F0.00010557488839785794
sVawful
p1651
F6.661033832019463e-05
sVwinning
p1652
F0.00017218522671805255
sVmanageable
p1653
F0.0
sVcondition
p1654
F0.0003996620299211678
sValfenta
p1655
F0.0
sVneurological
p1656
F0.0
sVambien
p1657
F0.0
sVdrugged
p1658
F0.0
sVt4
p1659
F0.0
sVlist
p1660
F0.0007327137215221409
sVmild
p1661
F0.0
sVclozapine
p1662
F0.0
sVsane
p1663
F0.0003443704534361051
sVsedation
p1664
F0.0
sVsmall
p1665
F0.00022777053991172492
sV20to
p1666
F0.0
sVlevalbuterol
p1667
F0.0
sVcookies
p1668
F0.00010557488839785794
sVremeron
p1669
F0.0
sVten
p1670
F3.8964550077663305e-05
sVrelaxers
p1671
F0.0
sVhyzaar
p1672
F0.0
sVstreets
p1673
F0.00017218522671805255
sVsync
p1674
F0.0003443704534361051
sVpast
p1675
F0.00031171640062130644
sVorgasm
p1676
F0.00017218522671805255
sVrate
p1677
F0.00042229955359143176
sVlawyer
p1678
F0.0003443704534361051
sVpass
p1679
F7.792910015532661e-05
sVfunctioning
p1680
F0.0005165556801541577
sVreturned
p1681
F6.661033832019463e-05
sVcreatures
p1682
F0.00017218522671805255
sV90s
p1683
F0.0
sVhormonal
p1684
F0.0006887409068722102
sVsub
p1685
F0.00013322067664038926
sVpsychosomatic
p1686
F0.0
sVwrecked
p1687
F0.00010557488839785794
sVgengraf
p1688
F0.0
sVcaffeine
p1689
F0.0010331113603083155
sVversion
p1690
F0.00021114977679571588
sVpalemor
p1691
F0.0
sVlearned
p1692
F0.0006887409068722102
sVracing
p1693
F6.661033832019463e-05
sVpublic
p1694
F6.661033832019463e-05
sVmultitude
p1695
F0.0
sVmovement
p1696
F6.661033832019463e-05
sVunsurprisingly
p1697
F0.0
sVfull
p1698
F0.0
sVtags
p1699
F0.00010557488839785794
sVanswers
p1700
F0.00042229955359143176
sVvomiting
p1701
F0.00017218522671805255
sVhours
p1702
F0.0003896455007766331
sVshouldn
p1703
F0.0002664413532807785
sVselective
p1704
F0.0
sVlazanda
p1705
F0.0
sVexcess
p1706
F0.00010557488839785794
sVdissipated
p1707
F0.00017218522671805255
sVbuzzing
p1708
F0.00017218522671805255
sVstrong
p1709
F0.0001998310149605839
sVsearch
p1710
F0.0007993240598423356
sVahead
p1711
F6.661033832019463e-05
sVbullshit
p1712
F0.00017218522671805255
sVhomestasis
p1713
F0.0
sVallows
p1714
F0.0005165556801541577
sVqualify
p1715
F0.0
sVexperience
p1716
F0.001689198214365727
sVamount
p1717
F0.0003330516916009731
sVsupplements
p1718
F0.0
sVpick
p1719
F6.661033832019463e-05
sVcessation
p1720
F0.0
sVmentions
p1721
F0.0003443704534361051
sVnarrow
p1722
F0.00010557488839785794
sVexited
p1723
F0.00017218522671805255
sVvia
p1724
F0.0006887409068722102
sVfollowed
p1725
F6.661033832019463e-05
sVnmda
p1726
F0.0
sVfamily
p1727
F0.0002664413532807785
sVive
p1728
F0.0
sVsuddenly
p1729
F3.8964550077663305e-05
sVagomelatine
p1730
F0.0
sVtransit
p1731
F0.00017218522671805255
sVscreens
p1732
F0.0008609261335902628
sVput
p1733
F0.00015768729686196342
sVseroquel
p1734
F0.0
sVeldepryl
p1735
F0.0
sVmunchies
p1736
F0.00017218522671805255
sVeye
p1737
F0.00042229955359143176
sVtakes
p1738
F0.00019482275038831655
sVwiped
p1739
F0.00017218522671805255
sVretrovir
p1740
F0.0
sVtwo
p1741
F0.0
sVnonsteroidal
p1742
F0.0
sVcomparing
p1743
F0.00017218522671805255
sV6
p1744
F0.00015768729686196342
sVtaken
p1745
F0.00012264567533708267
sVmetformin
p1746
F0.0
sVatrophied
p1747
F0.0
sVlowering
p1748
F0.0
sVdoor
p1749
F3.8964550077663305e-05
sVknows
p1750
F0.00046627236824136237
sVsubstances
p1751
F0.00017218522671805255
sVpravachol
p1752
F0.0
sVlovastatin
p1753
F0.0
sVsite
p1754
F0.0002664413532807785
sVtested
p1755
F0.00017218522671805255
sVlanded
p1756
F0.00010557488839785794
sVbasically
p1757
F0.0008609261335902628
sVbroke
p1758
F0.00013322067664038926
sVparticular
p1759
F3.8964550077663305e-05
sVknown
p1760
F0.00023378730046597987
sVdooo
p1761
F0.0
sVtekamlo
p1762
F0.0
sVglad
p1763
F3.8964550077663305e-05
sVlust
p1764
F0.00017218522671805255
sVnone
p1765
F0.0001998310149605839
sVhour
p1766
F0.0003330516916009731
sVstrain
p1767
F0.0
sVrecall
p1768
F0.0008609261335902628
sVspecializes
p1769
F0.0
sVsucks
p1770
F0.00021114977679571588
sVnovolog
p1771
F0.0
sVcaveat
p1772
F0.0
sVlearn
p1773
F0.00017218522671805255
sVknocked
p1774
F6.661033832019463e-05
sVmale
p1775
F6.661033832019463e-05
sVcomplain
p1776
F0.00010557488839785794
sVmirtazapine
p1777
F0.0
sVallegra
p1778
F0.0
sVcompare
p1779
F0.00021114977679571588
sVneeding
p1780
F0.0003443704534361051
sVantagonists
p1781
F0.0
sVscan
p1782
F0.00010557488839785794
sVjoints
p1783
F0.0003443704534361051
sVsuggestions
p1784
F0.0001998310149605839
sVpushed
p1785
F6.661033832019463e-05
sVnumbers
p1786
F0.00010557488839785794
sVsense
p1787
F5.256243228732114e-05
sVcows
p1788
F0.00017218522671805255
sVexclude
p1789
F0.00017218522671805255
sVaction
p1790
F0.0006334493303871478
sVpresently
p1791
F0.0
sVactx
p1792
F0.0
sVinformation
p1793
F0.00021114977679571588
sVneeds
p1794
F0.0
sVgoal
p1795
F0.00017218522671805255
sVrather
p1796
F0.00019482275038831655
sVhydroxytryptophan
p1797
F0.0
sVplans
p1798
F0.00017218522671805255
sVbreaking
p1799
F3.8964550077663305e-05
sVstayed
p1800
F6.661033832019463e-05
sVoccasionally
p1801
F0.00013322067664038926
sVultracet
p1802
F0.0
sVelixophyllin
p1803
F0.0
sVupto
p1804
F0.0
sVredditer
p1805
F0.0
sVokay
p1806
F0.0008445991071828635
sVtried
p1807
F0.003064075562728953
sVsuppose
p1808
F0.00010557488839785794
sVadvice
p1809
F0.0008609261335902628
sVtreatments
p1810
F0.0
sVbrintellix
p1811
F0.0
sVblood
p1812
F0.002331361841206812
sVnumb
p1813
F0.0
sVresponse
p1814
F0.0008609261335902628
sVshort
p1815
F7.008324304976151e-05
sVbloating
p1816
F0.0
sVcrowded
p1817
F0.00010557488839785794
sVsulfonylureas
p1818
F0.0
sVregister
p1819
F0.00010557488839785794
sVcrippling
p1820
F0.0
sVdiets
p1821
F0.0
sVmethadone
p1822
F0.0
sVpay
p1823
F3.5041621524880755e-05
sVputting
p1824
F3.8964550077663305e-05
sVlasting
p1825
F0.0003443704534361051
sVdream
p1826
F0.0003167246651935739
sVhelp
p1827
F0.0006657908089727344
sVsertraline
p1828
F0.0
sVsoon
p1829
F0.00012264567533708267
sVtramadol
p1830
F0.0
sVdisabled
p1831
F0.00010557488839785794
sVmixing
p1832
F0.00017218522671805255
sVpaper
p1833
F6.661033832019463e-05
sV4
p1834
F0.00021024972914928457
sVhell
p1835
F0.00013322067664038926
sVsuffer
p1836
F0.0009501739955807215
sVsurgeon
p1837
F0.0
sVlisinopril
p1838
F0.0
sV24
p1839
F0.00013322067664038926
sVsirolimus
p1840
F0.0
sV26
p1841
F6.661033832019463e-05
sV27
p1842
F6.661033832019463e-05
sV20
p1843
F8.76040538122019e-05
sV21
p1844
F6.661033832019463e-05
sVmicroarray
p1845
F0.0
sVpcp
p1846
F0.0
sVepileptic
p1847
F0.0
sV29
p1848
F0.00021114977679571588
sVactually
p1849
F0.0004905827013483307
sVsymptoms
p1850
F0.0
sVresort
p1851
F0.0
sVpene
p1852
F0.0
sVovermedicated
p1853
F0.0
sVoxalate
p1854
F0.0
sVamitriptyline
p1855
F0.0
sVbout
p1856
F0.00017218522671805255
sVmight
p1857
F0.00040297864753612874
sValter
p1858
F0.0
sVwouldn
p1859
F0.00019482275038831655
sVhurting
p1860
F0.0
sVgood
p1861
F0.0
sVhysterectomy
p1862
F0.0
sVseeking
p1863
F0.0003443704534361051
sVya
p1864
F0.00010557488839785794
sVlibido
p1865
F0.0
sVsocially
p1866
F0.00017218522671805255
sVvomit
p1867
F0.00017218522671805255
sVdosulepin
p1868
F0.0
sVcounterproductive
p1869
F0.0
sVprejudiced
p1870
F0.0
sVspeculate
p1871
F0.0
sVcrohn
p1872
F0.0
sVbigger
p1873
F6.661033832019463e-05
sVeasily
p1874
F7.792910015532661e-05
sV8months
p1875
F0.0
sVshop
p1876
F0.00017218522671805255
sVcoping
p1877
F0.0
sValways
p1878
F0.0
sVtherapists
p1879
F0.0
sVmicro
p1880
F0.0
sVsomeone
p1881
F0.0
sVstopped
p1882
F0.0007327137215221409
sVuploads
p1883
F0.0
sV2c
p1884
F0.0
sVfound
p1885
F0.00028033297219904604
sVintolerable
p1886
F0.0
sVreferred
p1887
F0.0
sVheavy
p1888
F7.792910015532661e-05
sVreactions
p1889
F0.0
sVharm
p1890
F0.0
sVeveryone
p1891
F0.0003996620299211678
sVmental
p1892
F0.0013774818137444204
sV300mg
p1893
F0.0
sVgeneration
p1894
F0.0
sVenergy
p1895
F0.0006887409068722102
sVhard
p1896
F0.0003896455007766331
sVreduce
p1897
F0.0007390242187850056
sVidea
p1898
F7.008324304976151e-05
sVclockwork
p1899
F0.0
sVnutritionist
p1900
F0.0
sVneurology
p1901
F0.0
sVexpect
p1902
F1.7520810762440377e-05
sVdoses
p1903
F0.0
sVevent
p1904
F6.661033832019463e-05
sVdiamox
p1905
F0.0
sVvertigo
p1906
F0.00017218522671805255
sVfunding
p1907
F0.0
sVmissed
p1908
F0.00021114977679571588
sVdigitoxin
p1909
F0.0
sVadvicor
p1910
F0.0
sVamaryl
p1911
F0.0
sVsince
p1912
F0.00031537459372392684
sVresearch
p1913
F0.0006887409068722102
sVacting
p1914
F0.00010557488839785794
sVhealth
p1915
F0.0017218522671805256
sVhill
p1916
F0.00010557488839785794
sV7
p1917
F0.00023378730046597987
sVmilnacipran
p1918
F0.0
sVtiresome
p1919
F0.00017218522671805255
sVinduced
p1920
F0.0
sVissue
p1921
F0.0009325447364827247
sVwaist
p1922
F0.00010557488839785794
sVfiber
p1923
F0.0
sVdealt
p1924
F0.0
sVpreventatives
p1925
F0.0
sVreason
p1926
F0.00023378730046597987
sVbase
p1927
F3.8964550077663305e-05
sVmembers
p1928
F0.00010557488839785794
sVimagine
p1929
F0.00013322067664038926
sVask
p1930
F0.00029785378296148644
sVhydrocortisone
p1931
F0.0
sVbeginning
p1932
F3.5041621524880755e-05
sVloads
p1933
F0.00010557488839785794
sVbazillion
p1934
F0.0
sVamped
p1935
F0.0
sVthread
p1936
F0.00017218522671805255
sVcomputers
p1937
F0.0003443704534361051
sVterrible
p1938
F0.0003330516916009731
sVsensations
p1939
F0.0
sVw
p1940
F0.00013322067664038926
sVleading
p1941
F6.661033832019463e-05
sVzyprexa
p1942
F0.0
sVbupropion
p1943
F0.0
sVmajor
p1944
F3.8964550077663305e-05
sVunhealthy
p1945
F0.00017218522671805255
sVfeel
p1946
F0.0007884364843098172
sVthereafter
p1947
F0.0
sVknocking
p1948
F0.00017218522671805255
sVnumber
p1949
F0.0003330516916009731
sVfeet
p1950
F0.00011689365023298994
sVsandimmune
p1951
F0.0
sVdone
p1952
F0.00024529135067416534
sV40mg
p1953
F0.0
sVtotalitarianism
p1954
F0.0
sVvisions
p1955
F0.0
sVpropranolol
p1956
F0.0
sVguess
p1957
F0.0003330516916009731
sVhalcion
p1958
F0.0
sVheads
p1959
F6.661033832019463e-05
sVtemperature
p1960
F0.00010557488839785794
sVscript
p1961
F0.00017218522671805255
sVdivorce
p1962
F0.0003443704534361051
sVinteract
p1963
F0.0010331113603083155
sVmoderately
p1964
F0.00010557488839785794
sVleast
p1965
F0.0
sV180
p1966
F0.0
sVunimaginably
p1967
F0.0
sVpassed
p1968
F3.8964550077663305e-05
sVdealing
p1969
F0.00017218522671805255
sVmaster
p1970
F6.661033832019463e-05
sV189
p1971
F0.0
sVstore
p1972
F0.00010557488839785794
sVheadache
p1973
F0.004649001121387419
sVmuscles
p1974
F0.0006887409068722102
sVoption
p1975
F0.0005165556801541577
sVrelationship
p1976
F6.661033832019463e-05
sVbehind
p1977
F3.5041621524880755e-05
sVbowel
p1978
F0.0
sVsensitization
p1979
F0.0
sVpark
p1980
F0.00017218522671805255
sVimmediate
p1981
F0.00010557488839785794
sVserotonin
p1982
F0.0
sVnavelbine
p1983
F0.0
sVluckily
p1984
F0.0
sVpart
p1985
F0.00035068095069896977
sVdoctors
p1986
F0.0024105931740527357
sVinventing
p1987
F0.00017218522671805255
sVbelieve
p1988
F0.00015585820031065322
sVstairs
p1989
F0.00010557488839785794
sVneuropathic
p1990
F0.0
sVkind
p1991
F0.0
sVlegs
p1992
F6.661033832019463e-05
sVrebound
p1993
F0.0
sVgotten
p1994
F0.0005165556801541577
sVgrogginess
p1995
F0.0
sVintensities
p1996
F0.0
sVrisks
p1997
F0.0
sVdang
p1998
F0.0
sVlisten
p1999
F0.00013322067664038926
sVtreated
p2000
F0.00013322067664038926
sVrisky
p2001
F0.0003443704534361051
sVtofranil
p2002
F0.0
sVmotivation
p2003
F0.0
sVphobia
p2004
F0.00017218522671805255
sVpicked
p2005
F0.00017218522671805255
sVwasnt
p2006
F0.0
sValongside
p2007
F0.00010557488839785794
sVvinblastine
p2008
F0.0
sVmistometer
p2009
F0.0
sVultram
p2010
F0.0
sVnights
p2011
F0.0005278744419892897
sVbuilt
p2012
F7.792910015532661e-05
sVzero
p2013
F0.0003167246651935739
sVdepending
p2014
F0.00017218522671805255
sVself
p2015
F5.256243228732114e-05
sVonset
p2016
F0.0
sVmajority
p2017
F0.00021114977679571588
sVwithout
p2018
F0.0
sVnaproxen
p2019
F0.0
sVaggravating
p2020
F0.0
sVeffexor
p2021
F0.0
sVtool
p2022
F0.00017218522671805255
sVrelief
p2023
F0.0
sVplay
p2024
F0.00013322067664038926
sVadded
p2025
F0.00042229955359143176
sVtolbutamide
p2026
F0.0
sVeffecting
p2027
F0.0
sVchart
p2028
F0.00021114977679571588
sVallergy
p2029
F0.0003443704534361051
sV75
p2030
F0.0006887409068722102
sV74
p2031
F0.0
sVexperiences
p2032
F0.00021114977679571588
sVplan
p2033
F0.0001998310149605839
sVsignificant
p2034
F0.0013774818137444204
sV70
p2035
F0.00013322067664038926
sVnothing
p2036
F0.00021024972914928457
sValpha
p2037
F0.00017218522671805255
sVflector
p2038
F0.0
sVextremely
p2039
F0.00010557488839785794
sVadmitted
p2040
F0.00017218522671805255
sVclear
p2041
F3.5041621524880755e-05
sVsometimes
p2042
F0.0005844682511649496
sVcover
p2043
F3.8964550077663305e-05
sVtacrolimus
p2044
F0.0
sVoptical
p2045
F0.00017218522671805255
sVlatest
p2046
F0.00010557488839785794
sVindomethacin
p2047
F0.0
sVziplining
p2048
F0.0
sVstones
p2049
F0.0
sVhyper
p2050
F0.0
sVparticularly
p2051
F0.00042229955359143176
sVgold
p2052
F6.661033832019463e-05
sVswelling
p2053
F0.0
sVconsult
p2054
F0.0
sVscattered
p2055
F0.0
sVshitty
p2056
F0.00017218522671805255
sVfine
p2057
F0.0
sVfind
p2058
F0.0
sVimpact
p2059
F0.0
sVaccess
p2060
F0.00042229955359143176
sVperiodically
p2061
F0.00010557488839785794
sVregulatory
p2062
F0.0
sVmusic
p2063
F1.7520810762440377e-05
sVnervous
p2064
F0.00021114977679571588
sVwrites
p2065
F0.00017218522671805255
sVheavily
p2066
F0.00010557488839785794
sVinvirase
p2067
F0.0
sVnormodyne
p2068
F0.0
sVfiguring
p2069
F0.00017218522671805255
sVenzyme
p2070
F0.0
sVpretty
p2071
F0.0014654274430442819
sVfactor
p2072
F0.00017218522671805255
sV8
p2073
F0.00015768729686196342
sVbernstein
p2074
F0.0
sVcysts
p2075
F0.0
sVtrizivir
p2076
F0.0
sVdominant
p2077
F0.0
sVtherefore
p2078
F0.00017218522671805255
sVhiv
p2079
F0.0
sVdependent
p2080
F0.00017218522671805255
sVwonky
p2081
F0.0
sVraventyler2sv_such_a_good_little_girl_you_are
p2082
F0.0
sVremedy
p2083
F0.0
sVpolarized
p2084
F0.0
sVrest
p2085
F5.256243228732114e-05
sVdigitalis
p2086
F0.0
sVworkouts
p2087
F0.0
sVuntreated
p2088
F0.0
sV5ht2c
p2089
F0.0
sVxopenex
p2090
F0.0
sVenemy
p2091
F0.00017218522671805255
sVblocker
p2092
F0.0013774818137444204
sVconcerned
p2093
F0.00042229955359143176
sVmedicines
p2094
F0.0
sVclonic
p2095
F0.0
sVperfume
p2096
F0.0003443704534361051
sVprescribing
p2097
F0.0
sVcommon
p2098
F0.000532882706561557
sVactivity
p2099
F0.0012052965870263679
sVx
p2100
F0.0003443704534361051
sVdizziness
p2101
F0.00017218522671805255
sVwrote
p2102
F0.00010557488839785794
sVinsane
p2103
F0.0005165556801541577
sVcorticosteroid
p2104
F0.0
sVdump
p2105
F0.00021114977679571588
sVisuprel
p2106
F0.0
sVuses
p2107
F6.661033832019463e-05
sVsex
p2108
F0.00042229955359143176
sVsee
p2109
F0.0005256243228732114
sVdumb
p2110
F0.00021114977679571588
sVclose
p2111
F6.661033832019463e-05
sVbricanyl
p2112
F0.0
sVarm
p2113
F6.661033832019463e-05
sVevaluation
p2114
F0.0
sVvitamins
p2115
F0.00017218522671805255
sVmovie
p2116
F0.00021114977679571588
sVcurrently
p2117
F0.000532882706561557
sVplease
p2118
F5.256243228732114e-05
sVcase
p2119
F0.0003896455007766331
sVpickup
p2120
F0.00017218522671805255
sVwon
p2121
F0.00012264567533708267
sVvarious
p2122
F0.00013322067664038926
sVsinuses
p2123
F0.0
sVprobably
p2124
F0.0005844682511649496
sVburned
p2125
F6.661033832019463e-05
sVhalfway
p2126
F0.00017218522671805255
sVnope
p2127
F0.00017218522671805255
sVsupposed
p2128
F6.661033832019463e-05
sVavailable
p2129
F0.0002664413532807785
sVrefills
p2130
F0.0
sVrecently
p2131
F0.00015585820031065322
sVnotoriously
p2132
F0.0
sVmissing
p2133
F3.8964550077663305e-05
sVtargeted
p2134
F0.00017218522671805255
sVattention
p2135
F3.8964550077663305e-05
sVduragesic
p2136
F0.0
sVsucceed
p2137
F0.0
sVselectively
p2138
F0.0
sV400mg
p2139
F0.0
sVrifamate
p2140
F0.0
sValters
p2141
F0.0
sV4b625cac9253d87b08fd23b4a1d4818a
p2142
F0.0
sVc
p2143
F3.5041621524880755e-05
sVplendil
p2144
F0.0
sVlast
p2145
F0.00028033297219904604
sVmethadose
p2146
F0.0
sVhesitant
p2147
F0.0
sVtumblr_ni8y1kgmha1rkdhugo1_500
p2148
F0.0
sVbarely
p2149
F0.00010557488839785794
sVpiracetam
p2150
F0.0
sVbecame
p2151
F0.00010557488839785794
sV8am
p2152
F0.0
sVforgotten
p2153
F0.00021114977679571588
sVfeverfew
p2154
F0.0
sVondansetron
p2155
F0.0
sVwhole
p2156
F0.0001998310149605839
sVhistamine
p2157
F0.0
sVexperimental
p2158
F0.0
sVload
p2159
F6.661033832019463e-05
sVchildhood
p2160
F0.0
sVconsume
p2161
F0.00021114977679571588
sVpoint
p2162
F0.00022777053991172492
sVsimple
p2163
F3.5041621524880755e-05
sVlogged
p2164
F0.00017218522671805255
sVsubsidised
p2165
F0.0
sVwhatever
p2166
F3.8964550077663305e-05
sViphones
p2167
F0.0
sV100mg
p2168
F0.0
sVserevent
p2169
F0.0
sVreported
p2170
F0.00017218522671805255
sVsimply
p2171
F0.0001998310149605839
sVheadachey
p2172
F0.0
sVaventyle
p2173
F0.0
sVesophagus
p2174
F0.00017218522671805255
sVbudeprion
p2175
F0.0
sVlithium
p2176
F0.0
sVexpensive
p2177
F0.0003330516916009731
sVheadaches
p2178
F0.0
sVps
p2179
F0.00017218522671805255
sVdescribed
p2180
F0.00021114977679571588
sVmonthly
p2181
F0.0
sVdamp
p2182
F0.0
sVdue
p2183
F0.0012668986607742955
sVteacher
p2184
F0.00017218522671805255
sVupdate_on_whats_working_for_me
p2185
F0.0
sVdescribes
p2186
F0.00017218522671805255
sVdamn
p2187
F0.00017218522671805255
sVquirks
p2188
F0.0
sVbrick
p2189
F0.0
sVfogginess
p2190
F0.0
sVwoke
p2191
F0.00017218522671805255
sVpm
p2192
F0.0
sVfirm
p2193
F6.661033832019463e-05
sVuniphyl
p2194
F0.0
sVlived
p2195
F0.00010557488839785794
sVpartly
p2196
F0.00021114977679571588
sVcounselling
p2197
F0.0
sVmine
p2198
F0.00023378730046597987
sVamlodipine
p2199
F0.0
sVpainsomnia
p2200
F0.0
sVaplenzin
p2201
F0.0
sVlives
p2202
F6.661033832019463e-05
sVliver
p2203
F0.00010557488839785794
sVcolonoscopy
p2204
F0.0005165556801541577
sVdepacon
p2205
F0.0
sVlamotrigine
p2206
F0.0
sVsalmeterol
p2207
F0.0
sVtambocor
p2208
F0.0
sVhandling
p2209
F0.00010557488839785794
sVadvocating
p2210
F0.0
sVlook
p2211
F0.00021024972914928457
sVraw
p2212
F6.661033832019463e-05
sVsolid
p2213
F0.00021114977679571588
sVzonegran
p2214
F0.0
sVstraight
p2215
F8.76040538122019e-05
sVnumbness
p2216
F0.0
sVbudget
p2217
F0.00017218522671805255
sVforgetting
p2218
F0.0003443704534361051
sVerror
p2219
F0.00017218522671805255
sVfun
p2220
F3.8964550077663305e-05
sV2qqibv
p2221
F0.0
sVloop
p2222
F0.00017218522671805255
sVswim
p2223
F0.00010557488839785794
sVpound
p2224
F0.00010557488839785794
sVhoping
p2225
F0.0005165556801541577
sVbacking
p2226
F0.0
sVaveraging
p2227
F0.0
sVjpg
p2228
F0.00042229955359143176
sVobstacle
p2229
F0.0
sVrid
p2230
F0.00010557488839785794
sVfunny
p2231
F3.8964550077663305e-05
sVshirt
p2232
F0.00010557488839785794
sVanymore
p2233
F0.00046627236824136237
sVmigraine
p2234
F0.0
sVelevated
p2235
F0.0
sVcholinergic
p2236
F0.0
sVread
p2237
F0.00015585820031065322
sVvirtually
p2238
F0.0
sV9
p2239
F7.792910015532661e-05
sVadvise
p2240
F0.0
sVhigher
p2241
F0.00023378730046597987
sVdevelopment
p2242
F0.00010557488839785794
sVfodmap
p2243
F0.0
sVused
p2244
F0.0009741137519415827
sVsomewhere
p2245
F3.8964550077663305e-05
sVbonus
p2246
F0.00017218522671805255
sVyesterday
p2247
F0.00017218522671805255
sValert
p2248
F0.0003167246651935739
sVtargetting
p2249
F0.0
sVmoment
p2250
F5.256243228732114e-05
sVlevels
p2251
F0.0012052965870263679
sVmoving
p2252
F7.792910015532661e-05
sVadmitting
p2253
F0.00017218522671805255
sV005
p2254
F0.0
sVstack
p2255
F0.00017218522671805255
sVbuspirone
p2256
F0.0
sV60
p2257
F0.00021114977679571588
sVolder
p2258
F0.00027275185054364317
sVcodeine
p2259
F0.0
sVspent
p2260
F0.00042229955359143176
sVanalysis
p2261
F0.00017218522671805255
sVobviously
p2262
F0.0001998310149605839
sVperson
p2263
F3.8964550077663305e-05
sVedge
p2264
F3.8964550077663305e-05
sVflags
p2265
F0.00017218522671805255
sVmassage
p2266
F0.0006887409068722102
sVy
p2267
F3.8964550077663305e-05
sVolanzapine
p2268
F0.0
sVprevention
p2269
F0.0
sVpollen
p2270
F0.0
sVcozaar
p2271
F0.0
sVdevastatingly
p2272
F0.0
sVquestions
p2273
F0.0006661033832019462
sVamp
p2274
F0.0021114977679571587
sVuseful
p2275
F0.0008609261335902628
sValternative
p2276
F0.00042229955359143176
sVsidebar
p2277
F0.0003443704534361051
sVmalformation
p2278
F0.0
sVletting
p2279
F0.00017218522671805255
sVcut
p2280
F3.5041621524880755e-05
sVnortriptyine
p2281
F0.0
sVworkers
p2282
F0.00010557488839785794
sVlutely
p2283
F0.0
sVexercising
p2284
F0.0
sVinternal
p2285
F0.00010557488839785794
sVparents
p2286
F0.0003443704534361051
sVquestioned
p2287
F0.0
sVcrying
p2288
F0.0006334493303871478
sVdepravity
p2289
F0.0
sVsnap
p2290
F6.661033832019463e-05
sVinput
p2291
F0.00017218522671805255
sVexcited
p2292
F0.00010557488839785794
sVhates
p2293
F0.00017218522671805255
sV2thj5f
p2294
F0.0
sVridiculously
p2295
F0.00017218522671805255
sVshove
p2296
F0.00017218522671805255
sVcomplaint
p2297
F0.0
sVapnea
p2298
F0.0
sVlacking
p2299
F0.00017218522671805255
sVbenadryl
p2300
F0.0
sVbig
p2301
F0.00015768729686196342
sVzofran
p2302
F0.0
sVadvocate
p2303
F0.0
sV_____________________________________________________
p2304
F0.0
sVmatters
p2305
F0.00010557488839785794
sVsuffering
p2306
F6.661033832019463e-05
sVhallucinate
p2307
F0.0
sVdamage
p2308
F0.0003167246651935739
sVbit
p2309
F0.0002628121614366057
sVhelpful
p2310
F0.001549667040462473
sVdeactivated
p2311
F0.00017218522671805255
sVcognitive
p2312
F0.0
sVshaped
p2313
F3.8964550077663305e-05
sVspine
p2314
F0.00017218522671805255
sVmanifest
p2315
F0.00017218522671805255
sVignore
p2316
F6.661033832019463e-05
sVzoloft
p2317
F0.0
sVcontinue
p2318
F7.792910015532661e-05
sVunstable
p2319
F0.00017218522671805255
sVpopular
p2320
F0.00017218522671805255
sVfastfoward
p2321
F0.0
sVdisorder
p2322
F0.0018940374938985782
sVterminology
p2323
F0.0
sVbetapace
p2324
F0.0
sVgoogle
p2325
F0.00042229955359143176
sVgardening
p2326
F0.00017218522671805255
sVoften
p2327
F0.0002664413532807785
sVmetabolic
p2328
F0.0
sVfucking
p2329
F0.0006887409068722102
sVspring
p2330
F6.661033832019463e-05
sVarrived
p2331
F0.00010557488839785794
sVback
p2332
F0.0003328954044863672
sVpaxil
p2333
F0.0
sVexperienced
p2334
F0.0006887409068722102
sVdiclofenac
p2335
F0.0
sVexamples
p2336
F0.0006887409068722102
sVcurious
p2337
F0.00015585820031065322
sVmigraineurs
p2338
F0.0
sVpronounced
p2339
F6.661033832019463e-05
sVgradually
p2340
F0.0
sVaffects
p2341
F0.00042229955359143176
sVabsolutely
p2342
F0.00027275185054364317
sVbenefit
p2343
F0.0003443704534361051
sVper
p2344
F0.0005278744419892897
sVpounding
p2345
F0.00017218522671805255
sVeliminate
p2346
F0.0
sVtends
p2347
F0.0
sVvanatrip
p2348
F0.0
sVminimal
p2349
F0.0
sVnose
p2350
F3.8964550077663305e-05
sVcgi
p2351
F0.00017218522671805255
sVeverybody
p2352
F0.00010557488839785794
sVsotalol
p2353
F0.0
sVdepressions
p2354
F0.0
sVbc
p2355
F0.0
sVmaxair
p2356
F0.0
sVreach
p2357
F6.661033832019463e-05
sVlose
p2358
F1.7520810762440377e-05
sVsmiths
p2359
F0.0
sVwithdrawals
p2360
F0.0
sVzombie
p2361
F0.0005165556801541577
sVstep
p2362
F7.792910015532661e-05
sVbp
p2363
F0.0
sVlasts
p2364
F0.0003167246651935739
sVbecome
p2365
F7.008324304976151e-05
sVtolinase
p2366
F0.0
sVcarol
p2367
F0.0
sVcrone
p2368
F0.00017218522671805255
sVoverdose
p2369
F0.0003443704534361051
sVdepths
p2370
F0.00010557488839785794
sVpipeline
p2371
F0.0
sV8pm
p2372
F0.0
sVmicronase
p2373
F0.0
sVreduced
p2374
F0.0003443704534361051
sVfelodipine
p2375
F0.0
sVrange
p2376
F0.00015585820031065322
sVlinezolid
p2377
F0.0
sVbeans
p2378
F0.00010557488839785794
sVidk
p2379
F0.0
sVinhibits
p2380
F0.0
sVtogether
p2381
F0.0
sVcomplimentary
p2382
F0.0
sVwanna
p2383
F0.00010557488839785794
sVblock
p2384
F0.00021114977679571588
sVantihistaminic
p2385
F0.0
sVseeing
p2386
F0.00013322067664038926
sVdavid
p2387
F0.0
sVbaseline
p2388
F0.00017218522671805255
sVwithin
p2389
F3.8964550077663305e-05
sVservices
p2390
F6.661033832019463e-05
sVunbeknownst
p2391
F0.0
sVgouge
p2392
F0.0
sVmotrin
p2393
F0.0
sVquestion
p2394
F0.00011689365023298994
sVspecifically
p2395
F0.0
sVclocks
p2396
F0.00017218522671805255
sVpharmaceuticals
p2397
F0.0
sVplain
p2398
F6.661033832019463e-05
sVblow
p2399
F3.8964550077663305e-05
sVforward
p2400
F0.0
sVneoral
p2401
F0.0
sVlanoxin
p2402
F0.0
sVopposed
p2403
F0.00010557488839785794
sVelsewhere
p2404
F0.0003443704534361051
sV600mg
p2405
F0.0
sVrelaxed
p2406
F0.00010557488839785794
sVcriteria
p2407
F0.0
sVbinges
p2408
F0.0
sVproperly
p2409
F3.8964550077663305e-05
sVgame
p2410
F3.8964550077663305e-05
sVnewer
p2411
F0.0003443704534361051
sVinjection
p2412
F0.0
sVposted
p2413
F0.00010557488839785794
sVinfo
p2414
F0.0003443704534361051
sVcramping
p2415
F0.0
sVpersisting
p2416
F0.0
sVnmom
p2417
F0.0
sVus
p2418
F5.256243228732114e-05
sVaccustomed
p2419
F0.0
sVpineal
p2420
F0.0
sVz
p2421
F0.00017218522671805255
sVsimilar
p2422
F0.00027275185054364317
sVcalled
p2423
F0.00027275185054364317
sVyelled
p2424
F0.00017218522671805255
sVparoxetine
p2425
F0.0
sVtricyclic
p2426
F0.0
sVordered
p2427
F0.00021114977679571588
sVadults
p2428
F0.00017218522671805255
sVmindful
p2429
F0.0
sVsnapping
p2430
F0.0
sVdoesn
p2431
F0.0003504162152488076
sVconsulted
p2432
F0.00017218522671805255
sVwarning
p2433
F6.661033832019463e-05
sVevening
p2434
F0.0003167246651935739
sVrimactane
p2435
F0.0
sVreuptake
p2436
F0.0
sVdragging
p2437
F0.00010557488839785794
sVkidney
p2438
F0.0003443704534361051
sVcotton
p2439
F0.00017218522671805255
sVfogged
p2440
F0.0
sVdecedents
p2441
F0.0
sVamounts
p2442
F0.00010557488839785794
sVthinks
p2443
F6.661033832019463e-05
sVoccasional
p2444
F0.0
sVnap
p2445
F0.0
sVelectrical
p2446
F0.00017218522671805255
sVdepartment
p2447
F0.00017218522671805255
sVbaclofen
p2448
F0.0
sVnice
p2449
F0.0
sVbrushing
p2450
F0.00017218522671805255
sVtecta
p2451
F0.0
sVcheesy
p2452
F0.00017218522671805255
sVusers
p2453
F0.0003443704534361051
sVhives
p2454
F0.0
sVproblems
p2455
F0.00035068095069896977
sVativan
p2456
F0.0
sVhelping
p2457
F0.00013322067664038926
sVmeaning
p2458
F6.661033832019463e-05
sVtagamet
p2459
F0.0
sVposters
p2460
F0.00017218522671805255
sVchocolate
p2461
F0.00010557488839785794
sVrightful
p2462
F0.0
sVago
p2463
F0.0015836233259678692
sVindependently
p2464
F0.0
sVe
p2465
F0.00010512486457464228
sVpractically
p2466
F0.00017218522671805255
sVmetabolize
p2467
F0.0
sVsedative
p2468
F0.0
sVwalked
p2469
F0.00017218522671805255
sVzidovudine
p2470
F0.0
sVweights
p2471
F0.0
sV2007
p2472
F0.0
sVleak
p2473
F0.00017218522671805255
sV2008
p2474
F0.0
sV2009
p2475
F0.0
sVrequires
p2476
F0.00017218522671805255
sValeve
p2477
F0.0
sV4582
p2478
F0.0
sVgt
p2479
F0.0
sVevidence
p2480
F0.00010557488839785794
sVhumira
p2481
F0.0
sVpsychotic
p2482
F0.00017218522671805255
sVresistance
p2483
F0.00017218522671805255
sVneosar
p2484
F0.0
sVgo
p2485
F0.0
sVhumid
p2486
F0.0
sVamplified
p2487
F0.0
sVadjustment
p2488
F0.0
sVgi
p2489
F0.0
sVseemed
p2490
F0.00023378730046597987
sVcompose
p2491
F0.0003443704534361051
sVside_effects
p2492
F0.0
sVstave
p2493
F0.0
sVyoung
p2494
F5.256243228732114e-05
sVselegiline
p2495
F0.0
sVhelps
p2496
F0.002428222433150733
sVstable
p2497
F0.0003443704534361051
sVdislike
p2498
F0.00017218522671805255
sVinclude
p2499
F0.0005278744419892897
sVsent
p2500
F3.5041621524880755e-05
sVagents
p2501
F0.00017218522671805255
sVmurderous
p2502
F0.0
sVtorture
p2503
F0.00017218522671805255
sVfluoxetine
p2504
F0.0
sVnortryptaltine
p2505
F0.0
sVconditions
p2506
F0.00017218522671805255
sVfaq
p2507
F0.0
sVwikipedia
p2508
F0.0
sVfacebook
p2509
F0.0
sVpromise
p2510
F0.00010557488839785794
sVtelling
p2511
F0.00015585820031065322
sVgeodon
p2512
F0.0
sVdrinking
p2513
F0.0003330516916009731
sVcontinued
p2514
F0.0
sVnausea
p2515
F0.0
sVentire
p2516
F0.0001998310149605839
sV20post
p2517
F0.0
sVf
p2518
F0.00010557488839785794
sVcyclosporine
p2519
F0.0
sVfewer
p2520
F0.0008609261335902628
sVvoriconazole
p2521
F0.0
sVtry
p2522
F0.00047306189058589023
sVblurry
p2523
F0.0
sVsocialisation
p2524
F0.0
sVobesity
p2525
F0.0
sVsavella
p2526
F0.0
sVnoted
p2527
F0.0005165556801541577
sVsmaller
p2528
F0.00013322067664038926
sVuei
p2529
F0.0
sVgoodies
p2530
F0.0
sVuncomfortably
p2531
F0.0
sVjump
p2532
F0.0001998310149605839
sVuncomfortable
p2533
F0.00017218522671805255
sVdisturbed
p2534
F0.0
sVhppd
p2535
F0.0
sVacid
p2536
F0.0006334493303871478
sVodd
p2537
F3.8964550077663305e-05
sVdicyclomine
p2538
F0.0
sV3x
p2539
F0.0
sVplays
p2540
F6.661033832019463e-05
sVsweats
p2541
F0.0
sVgiving
p2542
F7.792910015532661e-05
sVexacerbate
p2543
F0.0
sVcell
p2544
F6.661033832019463e-05
sValprazolam
p2545
F0.0
sVwaiting
p2546
F3.8964550077663305e-05
sVexperiment
p2547
F0.00021114977679571588
sVeating
p2548
F0.00021114977679571588
sVcontinously
p2549
F0.00017218522671805255
sVexercise
p2550
F0.0010331113603083155
sVstabilizer
p2551
F0.0
sVbody
p2552
F0.0001927289183868442
sVfocuses
p2553
F0.00017218522671805255
sV9th
p2554
F0.0
sVdegree
p2555
F0.00010557488839785794
sVleg
p2556
F6.661033832019463e-05
sVtopomax
p2557
F0.0
sVpushing
p2558
F7.792910015532661e-05
sVprescribe
p2559
F0.0006887409068722102
sVfollowing
p2560
F3.8964550077663305e-05
sVexplore
p2561
F0.00017218522671805255
sVlet
p2562
F0.00015768729686196342
sVhealing
p2563
F0.0
sVothers
p2564
F0.0005455037010872863
sVsafer
p2565
F0.0
sVtalked
p2566
F0.0003443704534361051
sVextreme
p2567
F0.00013322067664038926
sVgreat
p2568
F0.0
sV38
p2569
F0.0005165556801541577
sVbroken
p2570
F7.792910015532661e-05
sV30
p2571
F7.792910015532661e-05
sV37
p2572
F0.00010557488839785794
sV36
p2573
F0.0003167246651935739
sV35
p2574
F0.00010557488839785794
sVleaving
p2575
F3.8964550077663305e-05
sVproducts
p2576
F0.0005278744419892897
sVinsulin
p2577
F0.0
sVemedexpert
p2578
F0.0
sVopinion
p2579
F0.0003443704534361051
sVdepressant
p2580
F0.0
sVmakes
p2581
F0.00015768729686196342
sVweekends
p2582
F0.00021114977679571588
sVthats
p2583
F0.00021114977679571588
sVgastro
p2584
F0.0
sVapple
p2585
F3.8964550077663305e-05
sVvalproic
p2586
F0.0
sVclaim
p2587
F6.661033832019463e-05
sVapp
p2588
F0.00017218522671805255
sVmanage
p2589
F0.0002664413532807785
sVimpulsivity
p2590
F0.0
sVprivate
p2591
F6.661033832019463e-05
sVocd
p2592
F0.0
sVnames
p2593
F6.661033832019463e-05
sVmotor
p2594
F0.00017218522671805255
sVapply
p2595
F0.00010557488839785794
sVlamcital
p2596
F0.0
sVexenatide
p2597
F0.0
sVstanding
p2598
F3.8964550077663305e-05
sValbuterol
p2599
F0.0
sVuse
p2600
F0.00042049945829856914
sVtcas
p2601
F0.0
sVcrap
p2602
F0.00010557488839785794
sVgerd
p2603
F0.0
sVfailed
p2604
F0.00021114977679571588
sV10k
p2605
F0.0
sVbreakup
p2606
F0.0
sVpainkiller
p2607
F0.0
sVnext
p2608
F0.00014016648609952302
sVdoubt
p2609
F7.792910015532661e-05
sVvehicle
p2610
F0.0003443704534361051
sVotolaryngologist
p2611
F0.0
sVhistorically
p2612
F0.0
sVnimodipine
p2613
F0.0
sVcheeks
p2614
F0.00017218522671805255
sVsort
p2615
F8.76040538122019e-05
sVrheumatologist
p2616
F0.0
sVpfc
p2617
F0.0
sVjournaling
p2618
F0.0
sVstarted
p2619
F0.0010910074021745727
sVopiates
p2620
F0.0005165556801541577
sVincapacitating
p2621
F0.0
sVoccurred
p2622
F0.00017218522671805255
sVsore
p2623
F0.00017218522671805255
sVtrain
p2624
F0.0003443704534361051
sVlifestyle
p2625
F0.00017218522671805255
sVdisabling
p2626
F0.00017218522671805255
sVwomen
p2627
F3.8964550077663305e-05
sVmeeting_abstract
p2628
F0.0
sVaccount
p2629
F0.00021114977679571588
sVpracticing
p2630
F0.00017218522671805255
sVlopressor
p2631
F0.0
sVzyrtec
p2632
F0.0
sVride
p2633
F0.0001998310149605839
sVaveraged
p2634
F0.0
sVcentrophenoxine
p2635
F0.0
sVanywhere
p2636
F3.8964550077663305e-05
sVobvious
p2637
F6.661033832019463e-05
sVthin
p2638
F6.661033832019463e-05
sVmeet
p2639
F0.00010557488839785794
sVinhibitor
p2640
F0.0
sVdidnt
p2641
F0.00017218522671805255
sVrehabilitation
p2642
F0.0
sVavoided
p2643
F0.00017218522671805255
sVcontrol
p2644
F0.0011613237723764375
sVtap
p2645
F0.00017218522671805255
sVlinks
p2646
F0.00017218522671805255
sVmowing
p2647
F0.0
sVprocess
p2648
F0.0003167246651935739
sVhigh
p2649
F0.0
sVreserves
p2650
F0.0
sVsomething
p2651
F0.0004380202690610095
sVtab
p2652
F0.0003167246651935739
sVbones
p2653
F0.00013322067664038926
sVhit
p2654
F0.00015585820031065322
sVarthrotec
p2655
F0.0
sVamoxapine
p2656
F0.0
sVsyndrome
p2657
F0.00042229955359143176
sVsit
p2658
F6.661033832019463e-05
sVdestroying
p2659
F0.0
sVtrazadone
p2660
F0.0
sVsix
p2661
F0.00021114977679571588
sVdelay
p2662
F0.00010557488839785794
sVlocated
p2663
F0.00010557488839785794
sVvaries
p2664
F0.0
sVdigoxin
p2665
F0.0
sVpair
p2666
F0.00010557488839785794
sVinstead
p2667
F0.0002664413532807785
sVpanic
p2668
F0.0
sVstand
p2669
F3.8964550077663305e-05
sVprofile
p2670
F0.00021114977679571588
sVtension
p2671
F0.0
sVblocks
p2672
F6.661033832019463e-05
sVbyetta
p2673
F0.0
sVwatch
p2674
F0.0
sV______________________________________________________
p2675
F0.0
sVconcentrations
p2676
F0.0
sVpigs
p2677
F0.00017218522671805255
sVfatigue
p2678
F0.0
sVtraumatising
p2679
F0.0
sVbutterbur
p2680
F0.0
sVexcedrin
p2681
F0.0
sVlight
p2682
F0.00023378730046597987
sVlame
p2683
F0.00017218522671805255
sVlines
p2684
F6.661033832019463e-05
sVfeels
p2685
F0.00021114977679571588
sVadvocates
p2686
F0.0
sVhonestly
p2687
F0.0005278744419892897
sVhealthcare
p2688
F0.0
sVserotonergic
p2689
F0.0
sVmute
p2690
F0.00017218522671805255
sVwedding
p2691
F6.661033832019463e-05
sVknowledgable
p2692
F0.0
sVemsam
p2693
F0.0
sVincluding
p2694
F0.0002664413532807785
sVlooks
p2695
F1.7520810762440377e-05
sVinnopran
p2696
F0.0
sVmentioned
p2697
F0.0005165556801541577
sVconverting
p2698
F0.0
sVboosts
p2699
F0.00017218522671805255
sVchemistry
p2700
F0.0
sVperfect
p2701
F0.00021114977679571588
sVchemical
p2702
F0.0006887409068722102
sVexclusion
p2703
F0.0
sVlo
p2704
F0.0
sVll
p2705
F0.000367937026011248
sVlabor
p2706
F0.0
sVwilling
p2707
F0.0003167246651935739
sVchoose
p2708
F6.661033832019463e-05
sVcovered
p2709
F3.8964550077663305e-05
sV2011
p2710
F0.0
sV2010
p2711
F0.0
sVphysicians
p2712
F0.0
sVbumbling
p2713
F0.0
sVzomig
p2714
F0.0
sVcrash
p2715
F6.661033832019463e-05
sVgreater
p2716
F0.00010557488839785794
sVdocs
p2717
F0.0008609261335902628
sVrepercussions
p2718
F0.0
sVmaterial
p2719
F0.00010557488839785794
sVmention
p2720
F0.0002664413532807785
sVsonata
p2721
F0.0
sVlabetalol
p2722
F0.0
sVimpaired
p2723
F0.0003443704534361051
sVdocumented
p2724
F0.0
sVday
p2725
F0.0
sVstraddling
p2726
F0.0
sVarticles
p2727
F0.00017218522671805255
sVtoes
p2728
F0.00010557488839785794
sVfreaked
p2729
F0.00017218522671805255
sVedit
p2730
F0.0005165556801541577
sVimmoral
p2731
F0.0
sVuniversity
p2732
F0.00017218522671805255
sVweather
p2733
F0.00013322067664038926
sVlamictal
p2734
F0.0
sVaccompanied
p2735
F0.00017218522671805255
sVeases
p2736
F0.0
sVglasses
p2737
F0.0003167246651935739
sVrecommend
p2738
F0.001549667040462473
sVankles
p2739
F0.00017218522671805255
sVexacerbated
p2740
F0.0
sVcelexa
p2741
F0.0
sVrelated
p2742
F0.0003330516916009731
sVfrequency
p2743
F0.0006887409068722102
sVmeasure
p2744
F6.661033832019463e-05
sV80
p2745
F0.0
sVcorticosteroids
p2746
F0.0
sVwitness
p2747
F0.00010557488839785794
sVpirbuterol
p2748
F0.0
sVimatrex
p2749
F0.0
sVlastly
p2750
F0.0
sVsentiment
p2751
F0.0
sVtwice
p2752
F0.0003330516916009731
sVtriazolam
p2753
F0.0
sVappeals
p2754
F0.0
sVoverstimulated
p2755
F0.0
sVflushing
p2756
F0.0
sV6mg
p2757
F0.0
sVcause
p2758
F0.00024529135067416534
sVred
p2759
F1.7520810762440377e-05
sVfentora
p2760
F0.0
sVshut
p2761
F3.8964550077663305e-05
sVtrandate
p2762
F0.0
sVspectrum
p2763
F0.0
sVwalk
p2764
F0.0003996620299211678
sVtemps
p2765
F0.0
sVattending
p2766
F0.0
sVcompletely
p2767
F0.0003896455007766331
sVect
p2768
F0.0
sVsurely
p2769
F0.00017218522671805255
sVearly
p2770
F7.792910015532661e-05
sVanyhow
p2771
F0.0
sVbleed
p2772
F0.00013322067664038926
sVbetablocker
p2773
F0.0
sVscary
p2774
F0.0005165556801541577
sV50mg
p2775
F0.0
sVinteraction
p2776
F0.00017218522671805255
sVcured
p2777
F0.0003443704534361051
sVg
p2778
F0.0003996620299211678
sVcould
p2779
F0.0
sVtimes
p2780
F0.0
sVconversation
p2781
F3.8964550077663305e-05
sVconsistently
p2782
F0.00017218522671805255
sVretain
p2783
F0.00010557488839785794
sVchills
p2784
F0.0
sVstimulate
p2785
F0.0
sVsadienardini
p2786
F0.0
sVthird
p2787
F3.5041621524880755e-05
sVpowerful
p2788
F0.00017218522671805255
sVhypomania
p2789
F0.0
sVjesus
p2790
F0.0
sVquality
p2791
F0.0001998310149605839
sVmanagement
p2792
F0.00017218522671805255
sVsadly
p2793
F0.0
sVdroop
p2794
F0.0
sVstrict
p2795
F0.0003443704534361051
sVcataflam
p2796
F0.0
sVhabit
p2797
F0.0
sVsystem
p2798
F0.00011689365023298994
sVgrow
p2799
F0.00010557488839785794
sVclomipramine
p2800
F0.0
sVattack
p2801
F3.8964550077663305e-05
sVintermediate
p2802
F0.0
sVankle
p2803
F0.0
sVneurotransmitter
p2804
F0.0
sVmessing
p2805
F0.00017218522671805255
sVliquor
p2806
F6.661033832019463e-05
sVpainful
p2807
F0.0
sVstomach
p2808
F0.0006334493303871478
sVnobody
p2809
F0.00010557488839785794
sVmotorcycle
p2810
F0.0
sVdisheartening
p2811
F0.0
sVlists
p2812
F0.0003443704534361051
sVdepressing
p2813
F0.00010557488839785794
sVenvironmental
p2814
F0.0
sVchemicals
p2815
F0.0
sVunsubscribe
p2816
F0.0
sVadjusts
p2817
F0.0
sVjuly
p2818
F0.00017218522671805255
sVbotox
p2819
F0.0
sVinstitution
p2820
F0.00017218522671805255
sVbodyweight
p2821
F0.0
sV45g
p2822
F0.0
sVipad
p2823
F0.0
sVgradual
p2824
F0.0
sVbloat
p2825
F0.00017218522671805255
sVbreathable
p2826
F0.0
sVbother
p2827
F0.00010557488839785794
sVschizophrenia
p2828
F0.00017218522671805255
sVbed
p2829
F0.00042229955359143176
sVss
p2830
F0.0
sVpatients
p2831
F0.0
sVopiate
p2832
F0.0
sVmaybe
p2833
F0.0
sVbuggers
p2834
F0.0
sVproviding
p2835
F0.0
sVbet
p2836
F3.8964550077663305e-05
sVexhibit
p2837
F0.00017218522671805255
sVenforced
p2838
F0.0
sVcounter
p2839
F0.0005278744419892897
sVfalse
p2840
F6.661033832019463e-05
sVtabs
p2841
F0.00021114977679571588
sVgently
p2842
F0.00017218522671805255
sVcomfortable
p2843
F0.00010557488839785794
sVunlikely
p2844
F0.0
sVthroat
p2845
F3.8964550077663305e-05
sVapparently
p2846
F0.0002664413532807785
sVlinked
p2847
F0.0006887409068722102
sVribs
p2848
F0.00017218522671805255
sVscrew
p2849
F0.00021114977679571588
sVafraid
p2850
F3.8964550077663305e-05
sVminimally
p2851
F0.0
sVmin
p2852
F0.00017218522671805255
sVnortript
p2853
F0.0
sVable
p2854
F0.0005455037010872863
sVmechanism
p2855
F0.0
sVmix
p2856
F0.0001998310149605839
sVpharmacist
p2857
F0.0
sVbrand
p2858
F6.661033832019463e-05
sVblades
p2859
F0.0
sVunless
p2860
F0.0001998310149605839
sVprednisone
p2861
F0.0
sVvelban
p2862
F0.0
sVharmful
p2863
F0.0
sVacupuncturist
p2864
F0.0
sVclass
p2865
F0.00046757460093195974
sVnortripyline
p2866
F0.0
sVpropafenone
p2867
F0.0
sVrefreshing
p2868
F0.00010557488839785794
sVurl
p2869
F0.0003443704534361051
sVnodalol
p2870
F0.0
sVatypical
p2871
F0.0005165556801541577
sVrequest
p2872
F6.661033832019463e-05
sVdisease
p2873
F0.0003167246651935739
sVface
p2874
F0.00019482275038831655
sVlooked
p2875
F0.00042229955359143176
sVhi
p2876
F0.00017218522671805255
sVdesvenlafaxine
p2877
F0.0
sVoccasion
p2878
F0.00010557488839785794
sVnormally
p2879
F0.00042229955359143176
sVnortryptiline
p2880
F0.0
sVfact
p2881
F0.0003330516916009731
sVgoals
p2882
F0.0
sVimpression
p2883
F0.00017218522671805255
sVchances
p2884
F0.00010557488839785794
sVtext
p2885
F0.00010557488839785794
sVtmjd
p2886
F0.0
sVassholes
p2887
F0.00017218522671805255
sVanyway
p2888
F0.0003330516916009731
sVdissociate
p2889
F0.0
sVbring
p2890
F5.256243228732114e-05
sVnaprosyn
p2891
F0.0
sVplanning
p2892
F0.0
sVamatriptylin
p2893
F0.0
sVweekly
p2894
F0.0003443704534361051
sVrough
p2895
F0.00010557488839785794
sVstaff
p2896
F0.00017218522671805255
sVorthostatic
p2897
F0.0
sVbased
p2898
F0.0003330516916009731
sVknowledge
p2899
F0.00021114977679571588
sVmeloxicam
p2900
F0.0
sVhops
p2901
F0.0
sVjaw
p2902
F0.00010557488839785794
sVcontrols
p2903
F0.00010557488839785794
sV800mg
p2904
F0.0
sVcombo
p2905
F0.0005165556801541577
sVriding
p2906
F3.8964550077663305e-05
sVthousands
p2907
F0.00017218522671805255
sVhope
p2908
F0.00028033297219904604
sVmeant
p2909
F6.661033832019463e-05
sVphenylpiracetam
p2910
F0.0
sVovereating
p2911
F0.0
sVhandle
p2912
F3.8964550077663305e-05
sVclopidogrel
p2913
F0.0
sVpharmacology
p2914
F0.0
sVmeans
p2915
F0.00042229955359143176
sVbeat
p2916
F6.661033832019463e-05
sVmichigan
p2917
F0.0
sVvascular
p2918
F0.0
sVoverall
p2919
F0.0006887409068722102
sVlucky
p2920
F6.661033832019463e-05
sV120
p2921
F0.0
sVjoint
p2922
F0.0003443704534361051
sVones
p2923
F0.0003330516916009731
sVwords
p2924
F7.792910015532661e-05
sVtiming
p2925
F0.0
sVyears
p2926
F0.0017144402034171857
sVhydroxizine
p2927
F0.0
sVantagonist
p2928
F0.0
sVareas
p2929
F0.00017218522671805255
sVevolution
p2930
F0.00010557488839785794
sVmetabolite
p2931
F0.0
sVended
p2932
F0.00010557488839785794
sVtolerance
p2933
F0.0005165556801541577
sVcycled
p2934
F0.0
sVeyebrow
p2935
F0.0
sVcalling
p2936
F0.00011689365023298994
sVfinding
p2937
F3.8964550077663305e-05
sVstuff
p2938
F0.000532882706561557
sVimage_url
p2939
F0.0
sVshrunk
p2940
F0.0
sV000km
p2941
F0.0
sVcycles
p2942
F0.00017218522671805255
sVgabapentin
p2943
F0.0
sVguessing
p2944
F0.00021114977679571588
sVluvox
p2945
F0.0
sVgroggy
p2946
F0.0
sVfantastically
p2947
F0.00017218522671805255
sV30mg
p2948
F0.0
sVoperates
p2949
F0.0
sVwd
p2950
F0.0
sVdistract
p2951
F0.0
sVdesperate
p2952
F0.00017218522671805255
sVracket
p2953
F0.0
sVanticholinergic
p2954
F0.0
sVballed
p2955
F0.0
sVdifference
p2956
F0.00021114977679571588
sVinteracting
p2957
F0.0
sVattempting
p2958
F6.661033832019463e-05
sVlux
p2959
F0.0
sVnightmare
p2960
F6.661033832019463e-05
sVpreventives
p2961
F0.0
sVgenius
p2962
F0.00017218522671805255
sVstate
p2963
F0.00046627236824136237
sVdifficulties
p2964
F0.0
sVdoxepin
p2965
F0.0
sVzyvox
p2966
F0.0
sVcorrectly
p2967
F0.00013322067664038926
sVhorrible
p2968
F0.0005278744419892897
sVunderstood
p2969
F0.0005165556801541577
sVfluconazole
p2970
F0.0
sVneither
p2971
F0.00010557488839785794
sVbunch
p2972
F0.0001998310149605839
sVkidneys
p2973
F0.00017218522671805255
sVbought
p2974
F3.8964550077663305e-05
sVcomparable
p2975
F0.0
sVability
p2976
F0.00042229955359143176
sVjoy
p2977
F0.00010557488839785794
sVemitted
p2978
F0.0
sVvitamin
p2979
F0.0
sVjob
p2980
F0.000532882706561557
sVsitting
p2981
F0.00010557488839785794
sVgroup
p2982
F3.8964550077663305e-05
sVavoiding
p2983
F0.0003443704534361051
sVendo
p2984
F0.0
sVbarrett
p2985
F0.0
sVlimits
p2986
F0.00017218522671805255
sVinvited
p2987
F0.00017218522671805255
sVaqua
p2988
F0.00017218522671805255
sVagree
p2989
F3.8964550077663305e-05
sVetc
p2990
F0.0002628121614366057
sVami
p2991
F0.0
sVinspired
p2992
F0.00017218522671805255
sVswallow
p2993
F0.00010557488839785794
sVglorious
p2994
F0.00010557488839785794
sVcomment
p2995
F0.00021114977679571588
sVinflammatory
p2996
F0.0
sVtimolol
p2997
F0.0
sVsarafem
p2998
F0.0
sVmaxalt
p2999
F0.0
sVabortive
p3000
F0.0
sVrarer
p3001
F0.0
sVnsfwfilter
p3002
F0.0
sVmidazolam
p3003
F0.0
sVcxd
p3004
F0.0
sVcousin
p3005
F0.00017218522671805255
sVrosiglitazone
p3006
F0.0
sVct
p3007
F0.0
sVquit
p3008
F0.0007390242187850056
sVsolu
p3009
F0.0
sVzenni
p3010
F0.0
sVsecond
p3011
F5.256243228732114e-05
sVsolareze
p3012
F0.0
sVaddition
p3013
F0.0005165556801541577
sVdecent
p3014
F0.00013322067664038926
sVai
p3015
F0.0
sVdrank
p3016
F0.00010557488839785794
sVslowly
p3017
F0.0005994930448817516
sVtreat
p3018
F0.0005994930448817516
sVssri
p3019
F0.0
sVfreak
p3020
F0.00017218522671805255
sVabruptly
p3021
F0.00017218522671805255
sVrecurring
p3022
F0.0
sVlofstrand
p3023
F0.0
sVpartial
p3024
F0.00017218522671805255
sVshoulders
p3025
F0.0
sVcontrolled
p3026
F0.00017218522671805255
sVroute
p3027
F6.661033832019463e-05
sVotc
p3028
F0.0
sVcrappy
p3029
F0.00010557488839785794
sVosteoarthritis
p3030
F0.0
sVhmm
p3031
F6.661033832019463e-05
sVfinished
p3032
F6.661033832019463e-05
sVlets
p3033
F3.8964550077663305e-05
sVimproved
p3034
F0.00010557488839785794
sVfellow
p3035
F0.00017218522671805255
sVpresent
p3036
F1.7520810762440377e-05
sV150mg
p3037
F0.0
sVcrestor
p3038
F0.0
sVhypotension
p3039
F0.0
sVcouple
p3040
F0.00027275185054364317
sVtricyclics
p3041
F0.0
sVasexual
p3042
F0.00017218522671805255
sVneed
p3043
F0.00029785378296148644
sVharder
p3044
F0.00042229955359143176
sVpromotes
p3045
F0.0
sVfault
p3046
F3.8964550077663305e-05
sVactiq
p3047
F0.0
sVcoincidental
p3048
F0.0
sVrhavocbot
p3049
F0.0
sVdiscontinuation
p3050
F0.0
sVsupply
p3051
F0.00017218522671805255
sVdolophine
p3052
F0.0
sValmost
p3053
F0.0001752081076244038
sVcoating
p3054
F0.0
sVsurprisingly
p3055
F0.00017218522671805255
sVhelped
p3056
F0.002217072656355017
sVvs
p3057
F0.0005165556801541577
sVturns
p3058
F3.8964550077663305e-05
sVazilect
p3059
F0.0
sVscents
p3060
F0.00017218522671805255
sVsensitive
p3061
F0.00011689365023298994
sVgeneric
p3062
F0.0005165556801541577
sVbegan
p3063
F0.00021114977679571588
sVmember
p3064
F0.00017218522671805255
sVadverse
p3065
F0.0
sVparts
p3066
F6.661033832019463e-05
sVunits
p3067
F0.00010557488839785794
sVandroid
p3068
F0.0
sVgets
p3069
F0.00013322067664038926
sVdifficult
p3070
F0.00013322067664038926
sVexperimented
p3071
F0.0
sVpractice
p3072
F0.0
sVdrink
p3073
F5.256243228732114e-05
sVupon
p3074
F7.792910015532661e-05
sVeffect
p3075
F0.00014016648609952302
sVphd
p3076
F0.0
sVnightly
p3077
F0.0008609261335902628
sVblockers
p3078
F0.0008609261335902628
sVfucken
p3079
F0.0
sVtaste
p3080
F6.661033832019463e-05
sVdiscouraged
p3081
F0.0
sVfucked
p3082
F0.0006887409068722102
sVfrequently
p3083
F0.0006887409068722102
sVglynase
p3084
F0.0
sVshitting
p3085
F0.00017218522671805255
sVdiabetes
p3086
F0.0018940374938985782
sVlupus
p3087
F0.0
sVneuropathy
p3088
F0.0
sVama
p3089
F0.0
sVwell
p3090
F0.0
sVbanging
p3091
F0.00010557488839785794
sVfighting
p3092
F0.00010557488839785794
sVthought
p3093
F0.00046757460093195974
sVpatterns
p3094
F0.0
sVqualified
p3095
F0.0003443704534361051
sVtrials
p3096
F0.0
sVfirstly
p3097
F0.0
sVmuscle
p3098
F0.0008609261335902628
sVrealised
p3099
F0.0
sVless
p3100
F0.00029785378296148644
sVmoments
p3101
F0.00017218522671805255
sVdiarrhea
p3102
F0.00017218522671805255
sVhands
p3103
F0.0003167246651935739
sVkeeping
p3104
F6.661033832019463e-05
sVdose
p3105
F0.006198668161849892
sVclinic
p3106
F0.0
sVunderlying
p3107
F0.00021114977679571588
sVnarcotics
p3108
F0.0
sVrescue
p3109
F0.00010557488839785794
sVspells
p3110
F0.00010557488839785794
sVweb
p3111
F6.661033832019463e-05
sVgenerous
p3112
F0.00010557488839785794
sVrapid
p3113
F0.0005165556801541577
sVads
p3114
F0.00017218522671805255
sVwee
p3115
F0.0
sVdrunk
p3116
F6.661033832019463e-05
sVsmith
p3117
F0.0
sVgum
p3118
F0.00017218522671805255
sVergots
p3119
F0.0
sVdiscuss
p3120
F0.00017218522671805255
sVreasons
p3121
F0.0003167246651935739
sVadd
p3122
F0.0005994930448817516
sVmertazapine
p3123
F0.0
sVcombine
p3124
F0.00021114977679571588
sVallodynia
p3125
F0.0
sVkick
p3126
F0.00013322067664038926
sVidentical
p3127
F0.00010557488839785794
sVsonic
p3128
F0.0
sVtests
p3129
F0.0006887409068722102
sVincreased
p3130
F0.0008609261335902628
sVchecking
p3131
F0.00010557488839785794
sVfyi
p3132
F0.0
sVleds
p3133
F0.0
sVlivid
p3134
F0.0
sVzolmitriptan
p3135
F0.0
sVfive
p3136
F3.5041621524880755e-05
sVknow
p3137
F0.0004905827013483307
sVburden
p3138
F0.0
sVdesk
p3139
F0.00010557488839785794
sVsequencing
p3140
F0.0
sVtaking
p3141
F0.0007533948627849364
sVvariants
p3142
F0.0
sVsimvastatin
p3143
F0.0
sVtoe
p3144
F0.00010557488839785794
sVnortrip
p3145
F0.0
sVloss
p3146
F0.00042229955359143176
sVtl
p3147
F0.0
sVnecessary
p3148
F0.00015585820031065322
sVlike
p3149
F0.0
sVlost
p3150
F0.0
sVdrinkneuro
p3151
F0.0
sVcandy
p3152
F0.00017218522671805255
sVkeppra
p3153
F0.0
sVheed
p3154
F0.00017218522671805255
sVmethylprednisolone
p3155
F0.0
sVamitryptiline
p3156
F0.0
sVnerves
p3157
F0.00017218522671805255
sVworks
p3158
F0.0012655964280836977
sVpage
p3159
F0.00042229955359143176
sVwonders
p3160
F0.0
sVklonopin
p3161
F0.0
sVdrop
p3162
F6.661033832019463e-05
sVglare
p3163
F0.0
sVsequence
p3164
F0.0
sVsearching
p3165
F0.00010557488839785794
sV12pm
p3166
F0.0
sVdaylight
p3167
F0.00017218522671805255
sVnuvigil
p3168
F0.0
sVhome
p3169
F0.00011689365023298994
sVemployment
p3170
F0.00017218522671805255
sVdisrupting
p3171
F0.0
sVhappens
p3172
F0.00019482275038831655
sVpinpoint
p3173
F0.0
sVlead
p3174
F0.0003896455007766331
sVliterally
p3175
F0.0007390242187850056
sVavoid
p3176
F0.00023378730046597987
sVthank
p3177
F0.0002664413532807785
sVrifabutin
p3178
F0.0
sVmoderated
p3179
F0.0
sVinflammation
p3180
F0.0
sVassuming
p3181
F0.0
sVscrewed
p3182
F0.00010557488839785794
sVcreep
p3183
F0.00017218522671805255
sVschedule
p3184
F0.0006887409068722102
sVpressure
p3185
F0.004132445441233262
sValthough
p3186
F0.00031171640062130644
sVworthy
p3187
F0.00010557488839785794
sVamy
p3188
F0.0
sVabdominal
p3189
F0.0
sVvalproate
p3190
F0.0
sVpreventative
p3191
F0.0
sVgained
p3192
F0.00021114977679571588
sVsister
p3193
F0.0003167246651935739
sVrare
p3194
F0.0003443704534361051
sVworld
p3195
F0.00035068095069896977
sVexacerbation
p3196
F0.0
sVcolumn
p3197
F0.00017218522671805255
sVfreedom
p3198
F6.661033832019463e-05
sVequetro
p3199
F0.0
sVdilaudid
p3200
F0.0
sVtestimonies
p3201
F0.0
sVrizatriptan
p3202
F0.0
sVcarries
p3203
F3.8964550077663305e-05
sVsweat
p3204
F0.00017218522671805255
sVduloxetine
p3205
F0.0
sVways
p3206
F7.792910015532661e-05
sVcarolyn
p3207
F0.0
sVh1
p3208
F0.0
sVfunctional
p3209
F0.00017218522671805255
sVsocks
p3210
F0.00010557488839785794
sVgetting
p3211
F0.00040297864753612874
sVchronic
p3212
F0.005165556801541577
sVguard
p3213
F6.661033832019463e-05
sVdoesnt
p3214
F0.00010557488839785794
sVreceptor
p3215
F0.0
sVadrenalin
p3216
F0.0
sVprozac
p3217
F0.0
sVbrownies
p3218
F0.0
sVlescol
p3219
F0.0
sVlower
p3220
F0.00035068095069896977
sVapps
p3221
F0.0005165556801541577
sVantipsychotic
p3222
F0.0
sVnoticed
p3223
F0.00011689365023298994
sVrushes
p3224
F0.00010557488839785794
sVdelusions
p3225
F0.00017218522671805255
sVyrs
p3226
F6.661033832019463e-05
sVfunction
p3227
F0.0006887409068722102
sVorap
p3228
F0.0
sVbuy
p3229
F6.661033832019463e-05
sVeskalith
p3230
F0.0
sVtriggered
p3231
F0.00017218522671805255
sVcoke
p3232
F0.00017218522671805255
sVreceptors
p3233
F0.0006887409068722102
sVweight
p3234
F0.0015585820031065324
sVreminds
p3235
F0.00010557488839785794
sVneutral
p3236
F0.0008609261335902628
sVlowered
p3237
F0.00017218522671805255
sVgain
p3238
F0.003272821540333596
sVlarger
p3239
F6.661033832019463e-05
sVear
p3240
F0.00017218522671805255
sVeat
p3241
F0.00011689365023298994
sVpartially
p3242
F0.00010557488839785794
sVmade
p3243
F0.0002628121614366057
sVtactics
p3244
F0.0
sVtemp
p3245
F0.0003443704534361051
sVwhether
p3246
F1.7520810762440377e-05
sVwish
p3247
F0.0002664413532807785
sVofficial
p3248
F0.00021114977679571588
sVantireflective
p3249
F0.0
sVsigned
p3250
F0.00013322067664038926
sVplaced
p3251
F0.00010557488839785794
sVbooks
p3252
F0.00021114977679571588
sVstories
p3253
F0.00010557488839785794
sVbrethine
p3254
F0.0
sV3mg
p3255
F0.0
sVadderall
p3256
F0.0
sVproblem
p3257
F0.00031171640062130644
sVpiece
p3258
F0.0002664413532807785
sVminutes
p3259
F3.8964550077663305e-05
sVslew
p3260
F0.0
sVhorrific
p3261
F0.0
sVrecognize
p3262
F0.00010557488839785794
sVki
p3263
F0.0
sVcontribute
p3264
F0.0003443704534361051
sVdopaminergics
p3265
F0.0
sVtwist
p3266
F0.00017218522671805255
sVperiods
p3267
F0.00017218522671805255
sVeducation
p3268
F0.00017218522671805255
sVcerebrospinal
p3269
F0.0
sVjostle
p3270
F0.0
sVtumblr
p3271
F0.0
sVcompared
p3272
F0.00011689365023298994
sVpennsaid
p3273
F0.0
sVincredible
p3274
F0.00017218522671805255
sVcorporation
p3275
F0.00017218522671805255
sVpercent
p3276
F0.00010557488839785794
sVdetail
p3277
F0.00010557488839785794
sV40
p3278
F6.661033832019463e-05
sVlately
p3279
F0.00010557488839785794
sVsinequan
p3280
F0.0
sVonwards
p3281
F0.0003443704534361051
sVdetails
p3282
F0.00017218522671805255
sVsick
p3283
F0.0003443704534361051
sVziprasidone
p3284
F0.0
sVbehold
p3285
F0.00017218522671805255
sVincredibly
p3286
F0.00021114977679571588
sVverge
p3287
F0.0
sVstimulant
p3288
F0.0
sVconclusion
p3289
F0.00010557488839785794
sVmonitors
p3290
F0.0003443704534361051
sVnsaid
p3291
F0.0
sVjune
p3292
F0.0
sVbundle
p3293
F0.00017218522671805255
sVstay
p3294
F0.00015585820031065322
sVchance
p3295
F0.00015585820031065322
sVaccomplish
p3296
F0.0
sVadditionally
p3297
F0.00017218522671805255
sVwind
p3298
F6.661033832019463e-05
sVgodsend
p3299
F0.0
sVfriends
p3300
F7.792910015532661e-05
sVsilenor
p3301
F0.0
sVexposure
p3302
F0.0
sVisoproterenol
p3303
F0.0
sVreferral
p3304
F0.0
sVrisperdal
p3305
F0.0
sVstarting
p3306
F0.0003330516916009731
sVpersistent
p3307
F0.00010557488839785794
sVrule
p3308
F0.00010557488839785794
sVaetna
p3309
F0.0
sVmevacor
p3310
F0.0
sVriboflavin
p3311
F0.0
sVwrite
p3312
F0.00015585820031065322
sVdiagnosis
p3313
F0.0
sVunderstand
p3314
F5.256243228732114e-05
sVgrocery
p3315
F0.00017218522671805255
s.