(dp0
Vsuicidal
p1
F0.0010945384662358307
sVconsider
p2
F0.0007430637289703685
sVallergy
p3
F0.0010945384662358307
sVunique
p4
F0.0013422263758926204
sVmonth
p5
F0.0007430637289703685
sVgf
p6
F0.0
sVmild
p7
F0.0
sVantagonize
p8
F0.0
sVgo
p9
F0.0
sVadhere
p10
F0.0
sVmidst
p11
F0.0
sVgi
p12
F0.0
sVzyvox
p13
F0.0
sVcertainly
p14
F0.0004953758193135789
sVyoung
p15
F0.00011137541648989285
sVselegiline
p16
F0.0
sVunpleasant
p17
F0.005472692331179154
sVrhythm
p18
F0.0010945384662358307
sVstable
p19
F0.0010945384662358307
sVsituational
p20
F0.0
sVmonoamine
p21
F0.0
sVfatal
p22
F0.0006711131879463102
sVdramatically
p23
F0.0010945384662358307
sVsound
p24
F0.0004953758193135789
sVrisk
p25
F0.0008468505565790413
sVyeast
p26
F0.0006711131879463102
sVhypertensive
p27
F0.0
sVblanket
p28
F0.0020133395638389307
sVmg
p29
F0.0
sVinduce
p30
F0.0
sVchoice
p31
F0.00042342527828952067
sVtoss
p32
F0.0010945384662358307
sVmanic
p33
F0.0010945384662358307
sVpsychologist
p34
F0.0
sVworst
p35
F0.0033555659397315513
sVdecide
p36
F0.0013422263758926204
sVawful
p37
F0.00042342527828952067
sVaffect
p38
F0.0010945384662358307
sVpsychonauts
p39
F0.0
sVdifference
p40
F0.0006711131879463102
sVdie
p41
F0.0004953758193135789
sVlist
p42
F0.0008468505565790413
sVtry
p43
F0.0007796279154292498
sVadjust
p44
F0.0010945384662358307
sVmoclobemide
p45
F0.0
sVquick
p46
F0.00011137541648989285
sVsleep
p47
F0.0016937011131580827
sVwellbutrin
p48
F0.0
sVpsyilocybin
p49
F0.0
sVpast
p50
F0.0012384395482839474
sVsecond
p51
F0.0002227508329797857
sVcost
p52
F0.00042342527828952067
sVuncomfortable
p53
F0.0010945384662358307
sVodd
p54
F0.00024768790965678947
sVeven
p55
F0.0006682524989393571
sVsausage
p56
F0.0010945384662358307
sVworsen
p57
F0.0
sVcaffeine
p58
F0.0010945384662358307
sVcurrent
p59
F0.00042342527828952067
sVconsistently
p60
F0.0032836153987074925
sVvolatile
p61
F0.0010945384662358307
sVreply
p62
F0.0006711131879463102
sVreversable
p63
F0.0
sVever
p64
F0.0002227508329797857
sVexercise
p65
F0.0021890769324716614
sVbody
p66
F0.0005568770824494642
sVfull
p67
F0.0
sVdegree
p68
F0.0006711131879463102
sVnever
p69
F0.0
sVoveractive
p70
F0.0
sVshouldn
p71
F0.0008468505565790413
sVselective
p72
F0.0
sVlet
p73
F0.0002227508329797857
sVothers
p74
F0.0004953758193135789
sV100
p75
F0.0008468505565790413
sVstrong
p76
F0.0008468505565790413
sVshoulda
p77
F0.0010945384662358307
sVgreat
p78
F0.0
sV38
p79
F0.0010945384662358307
sVdifficulty
p80
F0.0010945384662358307
sVphenelzine
p81
F0.0
sVstudy
p82
F0.0013422263758926204
sVvulnerability
p83
F0.0010945384662358307
sVexperience
p84
F0.007382245067409412
sVdri
p85
F0.0
sVtrial
p86
F0.004026679127677861
sVamount
p87
F0.00042342527828952067
sVsocial
p88
F0.0004953758193135789
sVopinion
p89
F0.0010945384662358307
sVnoticeably
p90
F0.0
sVdepressant
p91
F0.0
sVbearable
p92
F0.0010945384662358307
sVharmalas
p93
F0.0
sVproscription
p94
F0.0
sVregardless
p95
F0.0010945384662358307
sVfamily
p96
F0.00042342527828952067
sVwin
p97
F0.00042342527828952067
sVcompare
p98
F0.0006711131879463102
sVhighly
p99
F0.0006711131879463102
sVpsychological
p100
F0.0021890769324716614
sVput
p101
F0.00033412624946967855
sVeldepryl
p102
F0.0
sVuse
p103
F0.0008910033319191428
sVtcas
p104
F0.0
sVfigure
p105
F0.0006711131879463102
sVwould
p106
F0.0
sVprove
p107
F0.0
sVpositive
p108
F0.00042342527828952067
sVhospital
p109
F0.0006711131879463102
sVmoclobimide
p110
F0.0
sVtwo
p111
F0.0
sVadderall
p112
F0.0
sVlive
p113
F0.00033412624946967855
sVdoubt
p114
F0.00024768790965678947
sVcall
p115
F0.0004455016659595714
sV6
p116
F0.0002227508329797857
sVtype
p117
F0.00042342527828952067
sVshiverring
p118
F0.0
sVpaperwork
p119
F0.0
sVwhatsoever
p120
F0.0006711131879463102
sVrelax
p121
F0.0006711131879463102
sVindia
p122
F0.0
sVacceptable
p123
F0.0010945384662358307
sVcombo
p124
F0.0010945384662358307
sVinfusion
p125
F0.0
sVchocolate
p126
F0.0006711131879463102
sVreversible
p127
F0.0
sVbasically
p128
F0.0010945384662358307
sVparticular
p129
F0.0004953758193135789
sV90
p130
F0.0013422263758926204
sVward
p131
F0.0010945384662358307
sVoutdated
p132
F0.0006711131879463102
sVglad
p133
F0.0004953758193135789
sVnone
p134
F0.00042342527828952067
sVinclude
p135
F0.0006711131879463102
sVhour
p136
F0.0033874022263161653
sVf
p137
F0.0006711131879463102
sVscience
p138
F0.0006711131879463102
sVchallenge
p139
F0.0021890769324716614
sVwork
p140
F0.0
sVremain
p141
F0.0006711131879463102
sVminimum
p142
F0.0006711131879463102
sVtitrate
p143
F0.0
sVinhibitor
p144
F0.0
sVpickle
p145
F0.0010945384662358307
sVexample
p146
F0.00024768790965678947
sVaddictive
p147
F0.0
sVhistory
p148
F0.0008468505565790413
sVcontrol
p149
F0.0013422263758926204
sVheart
p150
F0.00042342527828952067
sVcrazy
p151
F0.0006711131879463102
sVtap
p152
F0.0010945384662358307
sVstream
p153
F0.0010945384662358307
sVgive
p154
F0.0011137541648989285
sVclimax
p155
F0.0
sVshare
p156
F0.00024768790965678947
sVagent
p157
F0.00042342527828952067
sVhigh
p158
F0.0
sVcelsius
p159
F0.0
sVsomething
p160
F0.00033412624946967855
sVwant
p161
F0.0
sVsense
p162
F0.00011137541648989285
sVdress
p163
F0.00042342527828952067
sVoccur
p164
F0.0010945384662358307
sVworse
p165
F0.00024768790965678947
sVceremony
p166
F0.0006711131879463102
sVhuge
p167
F0.00011137541648989285
sVend
p168
F0.00033412624946967855
sVsamdorphan
p169
F0.0
sVrather
p170
F0.0007430637289703685
sVverify
p171
F0.0010945384662358307
sVdamage
p172
F0.0006711131879463102
sVwrite
p173
F0.00024768790965678947
sVharmaline
p174
F0.0
sVhot
p175
F0.00042342527828952067
sVaurorix
p176
F0.0
sVworry
p177
F0.0009907516386271579
sVanswer
p178
F0.0004953758193135789
sVpizza
p179
F0.0021890769324716614
sVdoable
p180
F0.0
sVcocktail
p181
F0.0010945384662358307
sVmay
p182
F0.0002227508329797857
sV6mg
p183
F0.0
sV4th
p184
F0.0010945384662358307
sVblood
p185
F0.001270275834868562
sVnumb
p186
F0.0
sVdate
p187
F0.0006711131879463102
sVrasagiline
p188
F0.0
sVdata
p189
F0.004378153864943323
sVresponse
p190
F0.0021890769324716614
sVmao
p191
F0.0
sVstress
p192
F0.0006711131879463102
sVshort
p193
F0.0002227508329797857
sVremember
p194
F0.0002227508329797857
sVthird
p195
F0.00011137541648989285
sVwhenever
p196
F0.0006711131879463102
sVmaybe
p197
F0.0
sVbudge
p198
F0.0
sVswitch
p199
F0.0013422263758926204
sVhonestly
p200
F0.0006711131879463102
sVsouth
p201
F0.00042342527828952067
sVhydroxytryptophan
p202
F0.0
sVevery
p203
F0.0002227508329797857
sVaddiction
p204
F0.0
sVoperate
p205
F0.0010945384662358307
sVorder
p206
F0.00011137541648989285
sVtalk
p207
F0.0008468505565790413
sVwine
p208
F0.0004953758193135789
sVrestriction
p209
F0.0
sVlsd
p210
F0.0
sValkaloid
p211
F0.0
sVhelp
p212
F0.0013365049978787142
sVtyramine
p213
F0.0
sVstability
p214
F0.0
sVthermal
p215
F0.0
sVgoogle
p216
F0.0013422263758926204
sVnbsp
p217
F0.0021890769324716614
sVartery
p218
F0.0
sVcold
p219
F0.001270275834868562
sVsuffer
p220
F0.0013422263758926204
sVdigest
p221
F0.0010945384662358307
sVchemical
p222
F0.0032836153987074925
sV20
p223
F0.00011137541648989285
sVantipsychotic
p224
F0.0
sV22
p225
F0.00042342527828952067
sVsomewhere
p226
F0.00024768790965678947
sVactually
p227
F0.0005568770824494642
sVwindow
p228
F0.00024768790965678947
sVpermanent
p229
F0.00042342527828952067
sVactivate
p230
F0.0006711131879463102
sVchoose
p231
F0.0008468505565790413
sVderivative
p232
F0.0
sVmight
p233
F0.0007796279154292498
sVerowid
p234
F0.0
sVeventually
p235
F0.0010945384662358307
sVnon
p236
F0.0002227508329797857
sVgood
p237
F0.0
sVcrash
p238
F0.00042342527828952067
sVgreater
p239
F0.0020133395638389307
sVremission
p240
F0.0
sV3
p241
F0.0004953758193135789
sVfood
p242
F0.0017338153675975263
sVsafe
p243
F0.00042342527828952067
sVinsomnia
p244
F0.0
sVbat
p245
F0.0006711131879463102
sVnumber
p246
F0.00042342527828952067
sVbreak
p247
F0.0006711131879463102
sVmention
p248
F0.0008468505565790413
sVtherapy
p249
F0.0010945384662358307
sVhalf
p250
F0.00011137541648989285
sVintranasal
p251
F0.0
sVday
p252
F0.0
sVmystery
p253
F0.0
sVterm
p254
F0.0008468505565790413
sVayahuasca
p255
F0.0
sVmeat
p256
F0.0006711131879463102
sVedit
p257
F0.0010945384662358307
sValways
p258
F0.0
sVdrop
p259
F0.00042342527828952067
sV2x
p260
F0.0
sVl
p261
F0.00042342527828952067
sVedit2
p262
F0.0
sVpseduo
p263
F0.0
sVentirely
p264
F0.00024768790965678947
sVharmine
p265
F0.0
sVmeal
p266
F0.00042342527828952067
sVmean
p267
F0.001486127457940737
sVheavy
p268
F0.0004953758193135789
sVrecommend
p269
F0.0010945384662358307
sVen
p270
F0.0006711131879463102
sVmental
p271
F0.0032836153987074925
sVexhaust
p272
F0.0
sVseries
p273
F0.0010945384662358307
sVcelexa
p274
F0.0
sVhard
p275
F0.00024768790965678947
sVreduce
p276
F0.0033555659397315513
sVidea
p277
F0.0002227508329797857
sVmdd
p278
F0.0
sVcircadian
p279
F0.0
sVcarry
p280
F0.00011137541648989285
sVsupplant
p281
F0.0
sVyield
p282
F0.0
sVyear
p283
F0.0005568770824494642
sVhappen
p284
F0.00024768790965678947
sVinsurance
p285
F0.0010945384662358307
sVclothe
p286
F0.0
sValcohol
p287
F0.0006711131879463102
sVborderline
p288
F0.0010945384662358307
sVaurorex
p289
F0.0
sVsince
p290
F0.0002227508329797857
sVpublish
p291
F0.0
sVresearch
p292
F0.0010945384662358307
sVincrease
p293
F0.0026844527517852408
sVmess
p294
F0.0020133395638389307
sVunrelated
p295
F0.0010945384662358307
sVhealth
p296
F0.0010945384662358307
sVreader
p297
F0.0010945384662358307
sVmedicine
p298
F0.0021890769324716614
sVcause
p299
F0.0004455016659595714
sVred
p300
F0.00011137541648989285
sVtheory
p301
F0.0010945384662358307
sVgut
p302
F0.0010945384662358307
sVguess
p303
F0.00042342527828952067
sVquite
p304
F0.00011137541648989285
sVclarify
p305
F0.0
sVreason
p306
F0.0007430637289703685
sVbase
p307
F0.00024768790965678947
sVbesides
p308
F0.0006711131879463102
sVask
p309
F0.0002227508329797857
sVorg
p310
F0.0032836153987074925
sVcough
p311
F0.00042342527828952067
sVafterward
p312
F0.0
sVchlorine
p313
F0.0
sVcare
p314
F0.0006711131879463102
sVunderwear
p315
F0.0006711131879463102
sVinteraction
p316
F0.0021890769324716614
sVcouldn
p317
F0.0007430637289703685
sVcould
p318
F0.0
sVkeep
p319
F0.00033412624946967855
sVthing
p320
F0.00033412624946967855
sVamerican
p321
F0.0
sVpepperoni
p322
F0.0
sVw
p323
F0.00042342527828952067
sVtianeptine
p324
F0.0
sVthink
p325
F0.0006682524989393571
sVscarf
p326
F0.0010945384662358307
sVfirst
p327
F0.0010023787484090356
sVemotion
p328
F0.0010945384662358307
sVcheese
p329
F0.0020133395638389307
sVmajor
p330
F0.0004953758193135789
sValready
p331
F0.00011137541648989285
sVcyclopropylamine
p332
F0.0
sVfeel
p333
F0.0005568770824494642
sVrelate
p334
F0.0
sVhypomania
p335
F0.0
sVdysthymia
p336
F0.0
sVdysthymic
p337
F0.0
sVfast
p338
F0.00024768790965678947
sVanother
p339
F0.00033412624946967855
sVwasn
p340
F0.0002227508329797857
sV40mg
p341
F0.0
sVimpossible
p342
F0.0013422263758926204
sVthick
p343
F0.00042342527828952067
sVmiss
p344
F0.00011137541648989285
sVhood
p345
F0.0010945384662358307
sVcity
p346
F0.00042342527828952067
sVlittle
p347
F0.0
sVnecessarily
p348
F0.0006711131879463102
sVtemperature
p349
F0.0013422263758926204
sVtop
p350
F0.00024768790965678947
sVsystem
p351
F0.0004953758193135789
sVleast
p352
F0.0
sVpsychotic
p353
F0.0010945384662358307
sV2
p354
F0.0002227508329797857
sVton
p355
F0.0010945384662358307
sVpercentage
p356
F0.0010945384662358307
sVcycle
p357
F0.0006711131879463102
sVfriend
p358
F0.00011137541648989285
sVlot
p359
F0.0
sVallegedly
p360
F0.0
sVgym
p361
F0.0006711131879463102
sVexactly
p362
F0.00024768790965678947
sVridiculous
p363
F0.0010945384662358307
sVconsult
p364
F0.0
sVsalami
p365
F0.0010945384662358307
sVbelieve
p366
F0.0007430637289703685
sVsymptom
p367
F0.0
sV10
p368
F0.00011137541648989285
sVkind
p369
F0.0
sVb
p370
F0.00024768790965678947
sV14
p371
F0.00042342527828952067
sVdouble
p372
F0.0006711131879463102
sVimply
p373
F0.0010945384662358307
sVbed
p374
F0.0006711131879463102
sVmatter
p375
F0.00024768790965678947
sVdelay
p376
F0.0006711131879463102
sVstore
p377
F0.0006711131879463102
sVlight
p378
F0.00024768790965678947
sVbet
p379
F0.00024768790965678947
sVillness
p380
F0.0
sVbeforehand
p381
F0.0
sVargument
p382
F0.0006711131879463102
sVrandomly
p383
F0.0010945384662358307
sVsay
p384
F0.0008910033319191428
sVunlikely
p385
F0.0
sVmiserable
p386
F0.0006711131879463102
sVneed
p387
F0.0002227508329797857
sVseem
p388
F0.0005568770824494642
sVturn
p389
F0.0004953758193135789
sVclearly
p390
F0.00042342527828952067
sVdozen
p391
F0.0006711131879463102
sVscrew
p392
F0.0006711131879463102
sVissue
p393
F0.001270275834868562
sVrelationship
p394
F0.0008468505565790413
sVable
p395
F0.00024768790965678947
sVonset
p396
F0.0
sVhoody
p397
F0.0
sVclient
p398
F0.0006711131879463102
sVthermometer
p399
F0.0
sVdestroy
p400
F0.0010945384662358307
sVpharmacist
p401
F0.0
sVblue
p402
F0.00042342527828952067
sVbegin
p403
F0.00042342527828952067
sVrisperidone
p404
F0.0
sVmultiple
p405
F0.0006711131879463102
sVelectric
p406
F0.0006711131879463102
sVpopulate
p407
F0.0010945384662358307
sVopposite
p408
F0.0006711131879463102
sVreach
p409
F0.00042342527828952067
sVlinezolid
p410
F0.0
sVmouth
p411
F0.00042342527828952067
sVharmala
p412
F0.0
sVnothing
p413
F0.0002227508329797857
sVextremely
p414
F0.0013422263758926204
sVpotency
p415
F0.0
sVepisode
p416
F0.0032836153987074925
sVdoc
p417
F0.0013422263758926204
sVclear
p418
F0.0002227508329797857
sVsometimes
p419
F0.0004953758193135789
sVcover
p420
F0.00024768790965678947
sVdisease
p421
F0.0020133395638389307
sVdefinitely
p422
F0.002117126391447603
sVclean
p423
F0.0002227508329797857
sVbrew
p424
F0.0
sVoccasion
p425
F0.0006711131879463102
sVfact
p426
F0.001270275834868562
sVhumid
p427
F0.0
sVgold
p428
F0.00042342527828952067
sVcheap
p429
F0.0006711131879463102
sVsublingual
p430
F0.0
sVsubreddit
p431
F0.0
sVbring
p432
F0.00011137541648989285
sVfine
p433
F0.0
sVfind
p434
F0.0
sVhexobarbital
p435
F0.0
sVindicator
p436
F0.0010945384662358307
sVslow
p437
F0.00024768790965678947
sVlatent
p438
F0.0
sVexplain
p439
F0.00042342527828952067
sVenough
p440
F0.0
sVeat
p441
F0.0004953758193135789
sVfactor
p442
F0.0021890769324716614
sVadequate
p443
F0.0
sVwool
p444
F0.0021890769324716614
sVhope
p445
F0.0002227508329797857
sVpersonality
p446
F0.0006711131879463102
sVhit
p447
F0.00024768790965678947
sVstop
p448
F0.0002227508329797857
sVaccount
p449
F0.0006711131879463102
sVdopa
p450
F0.0
sVtruly
p451
F0.0006711131879463102
sVanxiety
p452
F0.005472692331179154
sVpeganum
p453
F0.0
sVlegitimate
p454
F0.0
sVdespite
p455
F0.0004953758193135789
sVreport
p456
F0.004697792315624171
sVsilk
p457
F0.0010945384662358307
sVdr
p458
F0.0010945384662358307
sVnearly
p459
F0.00011137541648989285
sVunfortunately
p460
F0.0010945384662358307
sVpsychdelicious
p461
F0.0
sVboost
p462
F0.0
sVemsam
p463
F0.0
sVabsurdly
p464
F0.0
sVpatch
p465
F0.0006711131879463102
sVbad
p466
F0.00011137541648989285
sVstuff
p467
F0.0016937011131580827
sVcommon
p468
F0.00042342527828952067
sVcontain
p469
F0.0032836153987074925
sVrelease
p470
F0.00042342527828952067
sVrespond
p471
F0.0006711131879463102
sVdeprenyl
p472
F0.0
sV30mg
p473
F0.0
sVpotent
p474
F0.0
sVfreeze
p475
F0.001270275834868562
sVculture
p476
F0.0010945384662358307
sVschizophrenia
p477
F0.0010945384662358307
sVindividual
p478
F0.0008468505565790413
sVresult
p479
F0.0026844527517852408
sVoverboard
p480
F0.0010945384662358307
sVclose
p481
F0.00042342527828952067
sVbest
p482
F0.0006682524989393571
sVwonder
p483
F0.0008468505565790413
sVstill
p484
F0.0
sVsorta
p485
F0.0010945384662358307
sVaway
p486
F0.0
sVcurrently
p487
F0.0008468505565790413
sVwikipedia
p488
F0.0
sVimipramine
p489
F0.0
sVtend
p490
F0.0032836153987074925
sVoutside
p491
F0.00011137541648989285
sVprobably
p492
F0.0004953758193135789
sVaffordable
p493
F0.0
sVthyroid
p494
F0.0
sVreddit
p495
F0.0
sVsomnolence
p496
F0.0
sVweak
p497
F0.0010945384662358307
sVhowever
p498
F0.0013422263758926204
sVspray
p499
F0.0010945384662358307
sVunusually
p500
F0.0
sVarticle
p501
F0.00042342527828952067
sVmozarella
p502
F0.0
sVcome
p503
F0.00033412624946967855
sVlegit
p504
F0.0010945384662358307
sVimprove
p505
F0.0006711131879463102
sVreaction
p506
F0.0013422263758926204
sVlast
p507
F0.0002227508329797857
sVmany
p508
F0.0
sVpsychedelics
p509
F0.0
sVnauseate
p510
F0.0
sVpersonal
p511
F0.00024768790965678947
sVadmit
p512
F0.0
sVduty
p513
F0.0006711131879463102
sVsimple
p514
F0.00011137541648989285
sVeffective
p515
F0.006567230797414985
sVaddress
p516
F0.0006711131879463102
sV2nd
p517
F0.0006711131879463102
sV100mg
p518
F0.0
sVcontraindication
p519
F0.0
sVbinge
p520
F0.0
sVdue
p521
F0.0013422263758926204
sVquickly
p522
F0.0004953758193135789
sVreduction
p523
F0.0032836153987074925
sVtrigger
p524
F0.0021890769324716614
sVdamn
p525
F0.0021890769324716614
sVfar
p526
F0.0002227508329797857
sVinterest
p527
F0.0006711131879463102
sVssri
p528
F0.0
sV15mg
p529
F0.0
sV4
p530
F0.00011137541648989285
sVnri
p531
F0.0
sVgeneral
p532
F0.0
sVretrospect
p533
F0.0
sVmushroom
p534
F0.0032836153987074925
sVmanerix
p535
F0.0
sVmind
p536
F0.00042342527828952067
sVsearch
p537
F0.00042342527828952067
sVuncommon
p538
F0.0006711131879463102
sVelse
p539
F0.0002227508329797857
sVunderstand
p540
F0.0002227508329797857
sVdeep
p541
F0.00024768790965678947
sVprescription
p542
F0.0
sVpsychotherapy
p543
F0.0
sVcareful
p544
F0.0020133395638389307
sVstandard
p545
F0.00042342527828952067
sVcase
p546
F0.0007430637289703685
sVinhibit
p547
F0.0
sVcrossroad
p548
F0.0
sVsourly
p549
F0.0
sVlook
p550
F0.0008910033319191428
sVlsd_health3
p551
F0.0
sVlessen
p552
F0.0
sVempirical
p553
F0.0
sVtrick
p554
F0.00042342527828952067
sVnear
p555
F0.00011137541648989285
sVsuppose
p556
F0.0006711131879463102
sVcountry
p557
F0.00024768790965678947
sVproperty
p558
F0.00024768790965678947
sVwake
p559
F0.00042342527828952067
sVlayer
p560
F0.0006711131879463102
sV30
p561
F0.00024768790965678947
sVwouldn
p562
F0.00024768790965678947
sValmost
p563
F0.00011137541648989285
sV5th
p564
F0.0010945384662358307
sVside_effect
p565
F0.0
sVcoffee
p566
F0.0006711131879463102
sVmostly
p567
F0.00042342527828952067
sVstrain
p568
F0.0
sVsomeone
p569
F0.0
sVanhedonia
p570
F0.0
sVcommonly
p571
F0.0
sVanhedonic
p572
F0.0
sVreturn
p573
F0.00024768790965678947
sVeveryday
p574
F0.0010945384662358307
sVdisappear
p575
F0.0006711131879463102
sVdifferent
p576
F0.0012384395482839474
sVpas
p577
F0.0006711131879463102
sVdevelop
p578
F0.0006711131879463102
sVcombination
p579
F0.00042342527828952067
sVanymore
p580
F0.00042342527828952067
sVassure
p581
F0.0010945384662358307
sVperhaps
p582
F0.0013422263758926204
sVpay
p583
F0.00011137541648989285
sVunderwhelmed
p584
F0.0
sVcoronary
p585
F0.0
sVnardil
p586
F0.0
sV1
p587
F0.00011137541648989285
sVpad
p588
F0.0006711131879463102
sVincorrectly
p589
F0.0010945384662358307
sV9
p590
F0.00024768790965678947
sVparty
p591
F0.0006711131879463102
sVseveral
p592
F0.0006711131879463102
sVbuprenorphine
p593
F0.0
sVhigher
p594
F0.0004953758193135789
sVweek
p595
F0.00042342527828952067
sVfairly
p596
F0.0020133395638389307
sVspell
p597
F0.0006711131879463102
sVsee
p598
F0.0002227508329797857
sVshtml
p599
F0.0
sVdrink
p600
F0.00011137541648989285
sVstructurally
p601
F0.0
sVeffect
p602
F0.001447880414368607
sVmaoai
p603
F0.0
sVdirector
p604
F0.0010945384662358307
sVanecdotal
p605
F0.0
sVkid
p606
F0.0010945384662358307
sVearly
p607
F0.00024768790965678947
sVlower
p608
F0.00024768790965678947
sValks
p609
F0.0
sVolder
p610
F0.0004953758193135789
sVwell
p611
F0.0
sVperson
p612
F0.0004953758193135789
sVsevere
p613
F0.0013422263758926204
sVwithout
p614
F0.0
sVmachinery
p615
F0.0
sVvomit
p616
F0.0010945384662358307
sVload
p617
F0.0008468505565790413
sVexcessive
p618
F0.00042342527828952067
sVdesyrel
p619
F0.0
sVdose
p620
F0.009850846196122476
sVaspect
p621
F0.0006711131879463102
sVdopamine
p622
F0.0
sVyes
p623
F0.0005568770824494642
sVyet
p624
F0.00011137541648989285
sVtca
p625
F0.0
sVketamine
p626
F0.0
sVdeath
p627
F0.0016937011131580827
sVhint
p628
F0.0006711131879463102
sVexcept
p629
F0.00024768790965678947
sVpharmacy
p630
F0.0010945384662358307
sVsource
p631
F0.0008468505565790413
sVgreatly
p632
F0.0010945384662358307
sVteenager
p633
F0.0010945384662358307
sVextensive
p634
F0.0
sVsave
p635
F0.00042342527828952067
sVpill
p636
F0.0032836153987074925
sVreal
p637
F0.0
sVvendor
p638
F0.0006711131879463102
sVaround
p639
F0.0004455016659595714
sVread
p640
F0.00024768790965678947
sVbig
p641
F0.0002227508329797857
sVonline
p642
F0.0026844527517852408
sVdark
p643
F0.0
sVpossibly
p644
F0.00024768790965678947
sVknow
p645
F0.0012251295813888213
sVcoincidence
p646
F0.0021890769324716614
sVd
p647
F0.0
sVdesire
p648
F0.0010945384662358307
sV60
p649
F0.0013422263758926204
sVirreversable
p650
F0.0
sVlike
p651
F0.0
sVremind
p652
F0.0006711131879463102
sVbenefit
p653
F0.0010945384662358307
sVcontinue
p654
F0.0004953758193135789
sVstimulant
p655
F0.0
sVlose
p656
F0.00011137541648989285
sVpopular
p657
F0.0010945384662358307
sVoutpatient
p658
F0.0
sVadc
p659
F0.0
sVpage
p660
F0.0006711131879463102
sVtherapeutic
p661
F0.0
sVdidn
p662
F0.0012251295813888213
sVagitation
p663
F0.0
sVoften
p664
F0.001270275834868562
sVdeal
p665
F0.00024768790965678947
sVsaphris
p666
F0.0
sVback
p667
F0.00011137541648989285
sVselectivity
p668
F0.0
sVhydrazine
p669
F0.0
sVsure
p670
F0.0007430637289703685
sVmarplan
p671
F0.0
sVescape
p672
F0.00024768790965678947
sVunless
p673
F0.0008468505565790413
sVcreep
p674
F0.0010945384662358307
sVmood
p675
F0.0013422263758926204
sVlead
p676
F0.00024768790965678947
sVconfirm
p677
F0.0006711131879463102
sVliterally
p678
F0.0006711131879463102
sVavoid
p679
F0.00024768790965678947
sVshall
p680
F0.00024768790965678947
sVzoloft
p681
F0.0
sVdaytime
p682
F0.0010945384662358307
sVcoldness
p683
F0.0
sVcontrast
p684
F0.0010945384662358307
sVeverything
p685
F0.0004455016659595714
sVmaoi
p686
F0.0
sVmoderate
p687
F0.0010945384662358307
sVisocarboxazid
p688
F0.0
sVapathetic
p689
F0.0
sVoverly
p690
F0.0010945384662358307
sVpatient
p691
F0.0032836153987074925
sVreasonable
p692
F0.0006711131879463102
sVschedule
p693
F0.0010945384662358307
sVjournal
p694
F0.0
sVnight
p695
F0.00011137541648989285
sVcommunicate
p696
F0.0010945384662358307
sVrue
p697
F0.0
sVzombie
p698
F0.0010945384662358307
sVpressure
p699
F0.0021890769324716614
sVovernights
p700
F0.0
sValthough
p701
F0.00024768790965678947
sVsuper
p702
F0.0020133395638389307
sVceretropic
p703
F0.0
sVcautious
p704
F0.0032836153987074925
sVactual
p705
F0.0010945384662358307
sVanything
p706
F0.0004455016659595714
sVoh
p707
F0.0006711131879463102
sVdisorder
p708
F0.0010945384662358307
sVcertainty
p709
F0.0
sVglaucoma
p710
F0.0
sVingest
p711
F0.0
sVrange
p712
F0.0004953758193135789
sVsweat
p713
F0.0010945384662358307
sVact
p714
F0.00024768790965678947
sVluck
p715
F0.00042342527828952067
sVupdate
p716
F0.0010945384662358307
sVfaint
p717
F0.0010945384662358307
sVhypothermia
p718
F0.0
sVdextro
p719
F0.0
sVwithin
p720
F0.00024768790965678947
sVthree
p721
F0.00011137541648989285
sVoverkill
p722
F0.0
sVweather
p723
F0.00042342527828952067
sVreceptor
p724
F0.0
sVimiprimine
p725
F0.0
sVfemale
p726
F0.00042342527828952067
sVsoy
p727
F0.0010945384662358307
sVold
p728
F0.0
sVmethylene
p729
F0.0
sVmere
p730
F0.0010945384662358307
sVprozac
p731
F0.0
sVaren
p732
F0.0002227508329797857
sVquestion
p733
F0.0007430637289703685
sVbeer
p734
F0.0021890769324716614
sVlong
p735
F0.0
sVfully
p736
F0.00024768790965678947
sVstart
p737
F0.00024768790965678947
sVlow
p738
F0.0009907516386271579
sVway
p739
F0.00033412624946967855
sVreserpine
p740
F0.0
sVenergy
p741
F0.0021890769324716614
sVhappy
p742
F0.0004953758193135789
sVsex
p743
F0.0006711131879463102
sValcoholic
p744
F0.0010945384662358307
sVwiki
p745
F0.0
sVbrand
p746
F0.00042342527828952067
sVbite
p747
F0.0009907516386271579
sVyeah
p748
F0.0013422263758926204
sVheat
p749
F0.0006711131879463102
sVhi
p750
F0.0010945384662358307
sVhear
p751
F0.0004953758193135789
sVinjection
p752
F0.0
sVhighest
p753
F0.0010945384662358307
sVpain
p754
F0.00042342527828952067
sVdull
p755
F0.0006711131879463102
sVfda
p756
F0.0
sVregimen
p757
F0.0
sVmiddle
p758
F0.0004953758193135789
sVpaxil
p759
F0.0
sVwhether
p760
F0.0002227508329797857
sVdangerous
p761
F0.0008468505565790413
sVinside
p762
F0.00011137541648989285
sVconvince
p763
F0.00042342527828952067
sVbehavioral
p764
F0.0
sVemotional
p765
F0.0010945384662358307
sVproblem
p766
F0.001486127457940737
sVpiece
p767
F0.00042342527828952067
sVsimilar
p768
F0.00024768790965678947
sVmedical
p769
F0.0008468505565790413
sVdiagnose
p770
F0.0021890769324716614
sVlater
p771
F0.00042342527828952067
sVflat
p772
F0.00024768790965678947
sVcertain
p773
F0.00033412624946967855
sVmeasure
p774
F0.00042342527828952067
sVlife
p775
F0.00011137541648989285
sVdoesn
p776
F0.0002227508329797857
sVdrive
p777
F0.0013422263758926204
sVcure
p778
F0.0010945384662358307
sVright
p779
F0.00011137541648989285
sVcbt
p780
F0.0
sVpolitics
p781
F0.0
sVawhile
p782
F0.0010945384662358307
sVsyrian
p783
F0.0
sVcheck
p784
F0.0013422263758926204
sVshit
p785
F0.0006711131879463102
sVfill
p786
F0.00042342527828952067
sVupheaval
p787
F0.0
sV48
p788
F0.0006711131879463102
sVinsane
p789
F0.0010945384662358307
sV45
p790
F0.00042342527828952067
sVtreatment
p791
F0.0032836153987074925
sVnap
p792
F0.0
sV5
p793
F0.0002227508329797857
sVnormal
p794
F0.00042342527828952067
sVtest
p795
F0.001270275834868562
sVdiscount
p796
F0.0010945384662358307
sVrealize
p797
F0.0010945384662358307
sVpolar
p798
F0.0010945384662358307
sVintend
p799
F0.0010945384662358307
sVseparate
p800
F0.0006711131879463102
sVfelt
p801
F0.0016937011131580827
sVpolite
p802
F0.0
sVdiet
p803
F0.007661769263650814
sVstay
p804
F0.00024768790965678947
sVintent
p805
F0.0
sVserious
p806
F0.00042342527828952067
sVmoclobomide
p807
F0.0
sVmetabolizer
p808
F0.0
sVaware
p809
F0.0
sVamphetamine
p810
F0.0
sVstructure
p811
F0.0010945384662358307
sVexposure
p812
F0.0
sVlonger
p813
F0.00011137541648989285
sVsock
p814
F0.0010945384662358307
sVassume
p815
F0.0010945384662358307
sVage
p816
F0.0009907516386271579
sVbottom
p817
F0.00011137541648989285
sVpseudo
p818
F0.0021890769324716614
sVingestion
p819
F0.0
sVtime
p820
F0.0
sVpsychiatry
p821
F0.0
sVfresh
p822
F0.00042342527828952067
sV12
p823
F0.00033412624946967855
sVferment
p824
F0.0
sVstick
p825
F0.0006711131879463102
s.