(dp0
Vfoul
p1
F7.62872223226241e-05
sVnarcotic
p2
F0.0
sVfour
p3
F5.0641360126089734e-05
sVhanging
p4
F2.4065939190332104e-05
sVlocalized
p5
F0.0001244191007032883
sVlooking
p6
F0.0
sVwizardry
p7
F0.0
sVprefacing
p8
F0.0
sVhormone
p9
F0.0
sVregional
p10
F6.220955035164415e-05
sVscreaming
p11
F3.814361116131205e-05
sVmedline
p12
F0.0
sVscholar
p13
F0.0001525744446452482
sVprobiotic
p14
F0.0
sVwednesday
p15
F0.0
sVspecialties
p16
F0.0
sVreliable
p17
F3.814361116131205e-05
sVspecially
p18
F6.220955035164415e-05
sVtired
p19
F0.0002887912702839853
sVpreface
p20
F0.0
sVpulse
p21
F0.0
sVsecond
p22
F9.495255023641826e-05
sV278
p23
F0.0
sVsnuggled
p24
F0.0
sVrelieving
p25
F0.0
sVthunder
p26
F3.814361116131205e-05
sVfingers
p27
F0.00011443083348393617
sVnegates
p28
F0.0
sVincreasing
p29
F0.0005598859531647974
sVshocks
p30
F0.0
sVspecialist
p31
F0.0
sVherb
p32
F0.0
sVjasmine
p33
F0.0
sVreported
p34
F0.00018662865105493248
sVates
p35
F0.0
sVbuddy
p36
F6.220955035164415e-05
sVcyclical
p37
F0.0
sVsubstance
p38
F0.0
sVamiloride
p39
F0.0
sVphenelzine
p40
F0.0
sVk
p41
F3.814361116131205e-05
sVreports
p42
F0.0001525744446452482
sVneurologist
p43
F0.0
sVmilitary
p44
F6.220955035164415e-05
sVappropriately
p45
F0.0
sVmagically
p46
F6.220955035164415e-05
sVexplained
p47
F0.0003110477517582208
sVreplace
p48
F3.814361116131205e-05
sVpsychological
p49
F0.0001244191007032883
sVgeinoh
p50
F0.0
sVcocaine
p51
F6.220955035164415e-05
sVunit
p52
F0.0
sVtrazodone
p53
F0.0
sVdna
p54
F0.0
sVmusic
p55
F1.8990510047283654e-05
sVtherefore
p56
F0.0002488382014065766
sVnyquil
p57
F0.0
sVpaperwork
p58
F0.0
sVcomorbid
p59
F0.0
sVholy
p60
F2.4065939190332104e-05
sVrelax
p61
F0.00011443083348393617
sVsuccessful
p62
F2.4065939190332104e-05
sVbrings
p63
F7.62872223226241e-05
sVhurt
p64
F0.00037325730210986495
sV99
p65
F3.814361116131205e-05
sV98
p66
F4.813187838066421e-05
sV91
p67
F3.814361116131205e-05
sV90
p68
F0.0003051488892904964
sV93
p69
F3.814361116131205e-05
sVadnan
p70
F0.0
sV95
p71
F4.223301591293984e-05
sV97
p72
F3.814361116131205e-05
sVcircumstances
p73
F3.814361116131205e-05
sVintake
p74
F0.0
sVpursue
p75
F0.0
sV2c24
p76
F0.0
sVexample
p77
F0.00023932042350665908
sVwant
p78
F0.0
sVcounseling
p79
F0.0
sVabsolute
p80
F0.00011443083348393617
sVpreventives
p81
F0.0
sVtravel
p82
F1.4077671970979944e-05
sVdamage
p83
F0.00026700527812918435
sVmachine
p84
F0.00011443083348393617
sVhot
p85
F4.813187838066421e-05
sVxifaxin
p86
F0.0
sVshrug
p87
F0.0
sVminimized
p88
F6.220955035164415e-05
sVoutlawed
p89
F0.0
sVdiagram
p90
F0.0
sVwrong
p91
F8.446603182587967e-05
sVtypes
p92
F0.0002887912702839853
sVcalves
p93
F0.0
sVeffective
p94
F0.0018662865105493246
sVrevolt
p95
F0.0
sVfictional
p96
F0.0
sVkeeps
p97
F4.813187838066421e-05
sVwine
p98
F2.8155343941959888e-05
sVtranquilizing
p99
F0.0
sVvary
p100
F0.0001525744446452482
sVactivating
p101
F0.00018662865105493248
sVlovingly
p102
F0.0
sVfit
p103
F8.446603182587967e-05
sVbringing
p104
F1.4077671970979944e-05
sVfix
p105
F0.00026700527812918435
sV_r
p106
F0.0
sVfib
p107
F0.0
sVeasier
p108
F0.0002887912702839853
sVanidepressants
p109
F0.0
sVbasics
p110
F0.0
sVeffects
p111
F0.0016783188910977304
sVsilver
p112
F3.814361116131205e-05
sVqueues
p113
F0.0
sVlosartan
p114
F0.0
sVinterfering
p115
F0.0
sVmisspellings
p116
F0.0
sVwhim
p117
F0.0
sVseries
p118
F0.0002488382014065766
sVepidural
p119
F0.0
sVrx
p120
F0.0
sVencourage
p121
F6.220955035164415e-05
sVdsm
p122
F0.0
sVrn
p123
F0.0
sVfoundation
p124
F0.0
sVthreatened
p125
F6.220955035164415e-05
sVsensory
p126
F0.0001244191007032883
sVacamar
p127
F0.0
sVsheet
p128
F0.00014439563514199265
sVate
p129
F3.814361116131205e-05
sVatm
p130
F0.0
sVwalmart
p131
F0.0
sVresetting
p132
F0.0
sVsubtletv
p133
F0.0
sVcarryover
p134
F0.0
sVsteroids
p135
F0.0001244191007032883
sVmeet
p136
F3.814361116131205e-05
sVvitro
p137
F0.0
sVwash
p138
F6.220955035164415e-05
sVkurzgesagt
p139
F0.0
sVwasn
p140
F0.00022788612056740386
sVsutherland
p141
F0.0
sVseizures
p142
F0.0006220955035164416
sVservice
p143
F7.219781757099632e-05
sVkannazuki
p144
F0.0
sVfluvoxamine
p145
F0.0
sVneeded
p146
F0.0006016484797583026
sVlisted
p147
F7.62872223226241e-05
sVlegs
p148
F7.219781757099632e-05
sVrecreationally
p149
F0.0
sVlisten
p150
F0.00016846157433232474
sVanafranil
p151
F0.0
sVfrowned
p152
F0.0
sVwisdom
p153
F0.0
sVtask
p154
F2.4065939190332104e-05
sVpredictable
p155
F0.0
sVcrawl
p156
F7.219781757099632e-05
sVshowed
p157
F0.0001525744446452482
sVmorphed
p158
F0.0
sV10x
p159
F0.0
sVmethocarbamol
p160
F0.0
sVproject
p161
F2.4065939190332104e-05
sVfeeling
p162
F0.0003800971432164585
sVhnpb7fr2780
p163
F0.0
sVarousal
p164
F0.0
sVcephedrine
p165
F0.0
sVdozen
p166
F7.62872223226241e-05
sVperson
p167
F0.0003519417992744986
sVresponsible
p168
F7.62872223226241e-05
sVfailboat
p169
F0.0
sVrecommended
p170
F0.0006843050538680856
sVcausing
p171
F0.0004195797227744326
sVabsorbed
p172
F0.0
sVbrains
p173
F3.814361116131205e-05
sVjbc
p174
F0.0
sVcommitting
p175
F0.0
sVthrilled
p176
F0.0
sVsimplify
p177
F0.0
sVmouth
p178
F0.0003369231486646495
sVaddict
p179
F0.0001244191007032883
sVletter
p180
F7.219781757099632e-05
sVorganization
p181
F6.220955035164415e-05
sVolanzapine
p182
F0.0
sVepisode
p183
F0.0004976764028131532
sVreleased
p184
F6.220955035164415e-05
sVdetectors
p185
F0.0
sVtech
p186
F0.0006220955035164416
sVcelebrex
p187
F0.0
sVcamg
p188
F0.0
sVcame
p189
F0.0005775825405679706
sVsaying
p190
F0.00016893206365175935
sVmeetings
p191
F7.62872223226241e-05
sVulcer
p192
F0.0
sVlethal
p193
F0.0
sVlessons
p194
F0.0
sVbusy
p195
F2.8155343941959888e-05
sVkinase
p196
F0.0
sVtheme
p197
F6.220955035164415e-05
sVtouched
p198
F7.62872223226241e-05
sVpsychiatric
p199
F0.0
sValtogether
p200
F7.62872223226241e-05
sVanxiolytic
p201
F0.0
sVnet
p202
F3.814361116131205e-05
sVpatch
p203
F0.00011443083348393617
sVrelease
p204
F0.00019252751352265683
sVrespond
p205
F0.00026700527812918435
sVdeprenyl
p206
F0.0
sVmandatory
p207
F0.0
sVfair
p208
F1.2660340031522434e-05
sVsensitivity
p209
F0.0
sVpads
p210
F7.62872223226241e-05
sVresult
p211
F0.00022886166696787233
sVetiz
p212
F0.0
sVfail
p213
F5.6310687883919776e-05
sVhammer
p214
F0.0
sVbest
p215
F0.00029751799074077725
sVavandia
p216
F0.0
sVlots
p217
F0.00021659345271298895
sVwikipedia
p218
F0.0
sVoccupational
p219
F0.0
sVmen
p220
F0.00012032969595166052
sVdeltasone
p221
F0.0
sVnature
p222
F2.5320680063044867e-05
sVsmelled
p223
F6.220955035164415e-05
sVextent
p224
F0.00018662865105493248
sVrtgqkzkodaa
p225
F0.0
sVaccident
p226
F0.0001244191007032883
sVtriggers
p227
F0.00037325730210986495
sVcountry
p228
F5.6310687883919776e-05
sVcup
p229
F6.220955035164415e-05
sVheating
p230
F0.0
sVincense
p231
F6.220955035164415e-05
sVlookin
p232
F3.814361116131205e-05
sVargue
p233
F6.220955035164415e-05
sVasked
p234
F0.0004813187838066421
sVschmooze
p235
F0.0
sVvain
p236
F3.814361116131205e-05
sVwaaay
p237
F0.0
sV2nd
p238
F7.62872223226241e-05
sVpregnancy
p239
F0.0003110477517582208
sVbilling
p240
F3.814361116131205e-05
sVchrome
p241
F0.0001244191007032883
sVchucked
p242
F0.0
sVtutorials
p243
F0.0
sVnorvasc
p244
F0.0
sVphenytoin
p245
F0.0
sVlife
p246
F0.0004241213910560016
sVhospitalized
p247
F0.0
sVworker
p248
F6.220955035164415e-05
sVdota
p249
F0.0
sVlift
p250
F3.814361116131205e-05
sVchild
p251
F2.8155343941959888e-05
sVworked
p252
F0.0004504855030713582
sVhaters
p253
F0.0
sVspin
p254
F0.0
sVchill
p255
F6.220955035164415e-05
sVcontemplated
p256
F0.0
sVhospitalizations
p257
F0.0
sVcalcium
p258
F0.0
sVplayed
p259
F3.814361116131205e-05
sV3818135
p260
F0.0
sVtrusted
p261
F0.0
sVdamaged
p262
F0.0
sVtheconversation
p263
F0.0
sVseverity
p264
F0.0
sVtaped
p265
F0.0
sVdhe
p266
F0.0
sV10yrs
p267
F0.0
sVbabies
p268
F6.220955035164415e-05
sVfairly
p269
F0.00026700527812918435
sVtops
p270
F3.814361116131205e-05
sVboiler
p271
F0.0
sVwebstore
p272
F0.0
sVpharmacueticals
p273
F0.0
sVcalpol
p274
F0.0
sVacademic
p275
F6.220955035164415e-05
sVopinions
p276
F6.220955035164415e-05
sVbtng
p277
F0.0
sVsleepy
p278
F0.0005598859531647974
sVfinancially
p279
F0.0001244191007032883
sVportrayed
p280
F0.0
sVsucceeding
p281
F0.0
sVprevious
p282
F2.5320680063044867e-05
sVclassification
p283
F3.814361116131205e-05
sVirradiated
p284
F0.0
sVease
p285
F7.62872223226241e-05
sVemphasis
p286
F0.0
sVtopical
p287
F0.00018662865105493248
sVadvantages
p288
F0.0
sVeasy
p289
F0.0
sVhat
p290
F2.4065939190332104e-05
sVelevation
p291
F0.0
sVpossible
p292
F0.0002815534394195989
sVpossibly
p293
F9.854370379685961e-05
sVlubes
p294
F0.0
sVbirth
p295
F0.0003110477517582208
sVunique
p296
F3.814361116131205e-05
sVclonaz
p297
F0.0
sVoccurring
p298
F0.0
sVdesire
p299
F0.0001244191007032883
sVtapering
p300
F0.0
sVsteps
p301
F2.4065939190332104e-05
sVrhematologist
p302
F0.0
sVbeneficial
p303
F0.0002488382014065766
sVright
p304
F0.0003165085007880609
sVold
p305
F0.0
sVdepakene
p306
F0.0
sVcreep
p307
F6.220955035164415e-05
sVgasps
p308
F6.220955035164415e-05
sVbottom
p309
F5.0641360126089734e-05
sVnearsightedness
p310
F0.0
sVfog
p311
F0.0
sVperiphery
p312
F0.0
sVumm
p313
F0.0
sVdiltiazem
p314
F0.0
sVdental
p315
F0.00018662865105493248
sVbarcode
p316
F0.0
sVlosing
p317
F8.446603182587967e-05
sVvalium
p318
F0.0
sVinderal
p319
F0.0
sVo
p320
F1.2660340031522434e-05
sVdespair
p321
F0.0
sVslightly
p322
F0.0001548543916807794
sVraised
p323
F4.813187838066421e-05
sVfacility
p324
F0.0
sVmoremwrong
p325
F0.0
sVreducing
p326
F0.0
sVamerica
p327
F0.0
sVfrazzled
p328
F6.220955035164415e-05
sVsupport
p329
F0.00011443083348393617
sVconstantly
p330
F0.00012032969595166052
sVnova
p331
F0.0
sVraped
p332
F7.62872223226241e-05
sVfulminant
p333
F0.0
sVmeloxicam
p334
F0.0
sVhappy
p335
F0.00014077671970979944
sVpamelor
p336
F0.0
sVoffer
p337
F0.00012032969595166052
sVforming
p338
F0.0
sVinside
p339
F2.5320680063044867e-05
sVmyopia
p340
F0.0
sVdevices
p341
F0.0
sVmscontin
p342
F0.0
sVcomplications
p343
F6.220955035164415e-05
sVsmashed
p344
F6.220955035164415e-05
sV150
p345
F0.0
sVjuvenile
p346
F0.0
sVlater
p347
F0.0004091209662356458
sVproven
p348
F6.220955035164415e-05
sVmrs
p349
F0.0
sVcarisoprodol
p350
F0.0
sVfloor
p351
F0.00026700527812918435
sVactos
p352
F0.0
sVrole
p353
F6.220955035164415e-05
sVacetaminophen
p354
F0.0
sVointment
p355
F0.0
sVreplacement
p356
F0.00011443083348393617
sVnxt
p357
F0.0
sVglass
p358
F6.330170015761217e-06
sVpethedine
p359
F0.0
sVtrycyclic
p360
F0.0
sVtime
p361
F0.0
sVpush
p362
F0.00012032969595166052
sVquantity
p363
F0.0
sVchikane
p364
F0.0
sVurinary
p365
F0.0
sVchain
p366
F0.00011443083348393617
sVost
p367
F0.0
sVpudendal
p368
F0.0
sVasymptomatic
p369
F0.0
sVquartered
p370
F0.0
sVvet
p371
F0.00018662865105493248
sVhold
p372
F4.223301591293984e-05
sVprolonging
p373
F0.0
sV96
p374
F6.220955035164415e-05
sVchoice
p375
F0.00016846157433232474
sVmourn
p376
F0.0
sVfatigued
p377
F0.0
sVstays
p378
F0.00018662865105493248
sVexact
p379
F0.00016846157433232474
sVminute
p380
F7.219781757099632e-05
sVtear
p381
F1.4077671970979944e-05
sVteas
p382
F0.0
sVzonegran
p383
F0.0
sVsubway
p384
F6.220955035164415e-05
sVteam
p385
F6.220955035164415e-05
sVloads
p386
F3.814361116131205e-05
sVprevent
p387
F0.0003051488892904964
sVmoloxicam
p388
F0.0
sVsign
p389
F3.165085007880609e-05
sV70mg
p390
F0.0
sVpsychotropic
p391
F0.0
sVcurrent
p392
F0.00014439563514199265
sVremembered
p393
F2.4065939190332104e-05
sVfreaks
p394
F3.814361116131205e-05
sVfalling
p395
F0.00019071805580656026
sVboost
p396
F0.0
sVcreepiest
p397
F0.0
sVoldies
p398
F0.0
sVlange
p399
F0.0
sVunderstanding
p400
F0.00014439563514199265
sVexceptions
p401
F0.0001244191007032883
sVnonbinary
p402
F0.0
sVaddress
p403
F0.00019071805580656026
sVdangeous
p404
F0.0
sValong
p405
F6.330170015761218e-05
sVstudied
p406
F0.00037325730210986495
sVfunded
p407
F0.0
sVcommonly
p408
F0.0
sVqueue
p409
F0.0
sVstudies
p410
F0.0009331432552746623
sVbearable
p411
F6.220955035164415e-05
sVrespite
p412
F0.0
sVpepto
p413
F0.0
sVtasks
p414
F0.0
sVlove
p415
F0.00012669904773881952
sVctth
p416
F0.0
sVprefer
p417
F0.00014439563514199265
sVlogical
p418
F0.0
sVfake
p419
F0.0001244191007032883
sVworking
p420
F0.0
sVpositive
p421
F0.00024065939190332105
sVwondering
p422
F0.00018662865105493248
sVscope
p423
F6.220955035164415e-05
sVwicked
p424
F3.814361116131205e-05
sVmarbles
p425
F0.0
sVafford
p426
F0.00018662865105493248
sVatarax
p427
F0.0
sVappendix
p428
F0.0
sVeverywhere
p429
F7.219781757099632e-05
sVeasiest
p430
F0.0
sVbehalf
p431
F6.220955035164415e-05
sVhoney
p432
F3.814361116131205e-05
sVopioids
p433
F0.0
sVoriginally
p434
F0.00022886166696787233
sVoverloaded
p435
F0.0
sVinflamed
p436
F0.0
sVvalues
p437
F3.814361116131205e-05
sVaripiprazole
p438
F0.0
sVfollowing
p439
F7.038835985489972e-05
sVmetoprolol
p440
F0.0
sVdetached
p441
F0.0
sVawesome
p442
F0.00018662865105493248
sVteaspoons
p443
F0.0
sVallowed
p444
F7.038835985489972e-05
sVlistens
p445
F0.0001244191007032883
sVmonitoring
p446
F0.0
sVwinter
p447
F3.814361116131205e-05
sVs2
p448
F0.0
sVwarfarin
p449
F0.0
sValzheimers
p450
F0.0
sVimmune
p451
F0.0002488382014065766
sVsnaps
p452
F0.0001244191007032883
sVbarbiturates
p453
F0.0
sVspot
p454
F2.4065939190332104e-05
sVapplications
p455
F0.0001244191007032883
sVdate
p456
F0.00019071805580656026
sVsuck
p457
F0.0001525744446452482
sVdata
p458
F0.00037325730210986495
sVstress
p459
F0.0008010158343875531
sVnatural
p460
F0.00026700527812918435
sVsp
p461
F6.220955035164415e-05
sVcomplaining
p462
F0.0001244191007032883
sVswollen
p463
F0.0
sVsa
p464
F0.00018662865105493248
sVpulled
p465
F2.4065939190332104e-05
sVunmasked
p466
F0.0
sVse
p467
F3.814361116131205e-05
sVsciencedirect
p468
F0.0
sVepilepsy
p469
F0.0
sVyears
p470
F0.0011262137576783955
sVhiring
p471
F6.220955035164415e-05
sVepisodes
p472
F0.0
sVttc
p473
F0.0
sVtendency
p474
F0.0001244191007032883
sVlimbs
p475
F0.0001244191007032883
sVsysmptoms
p476
F0.0
sVtirzah
p477
F0.0
sVtwitching
p478
F0.0001244191007032883
sVfaves
p479
F0.0
sVdecreased
p480
F0.0
sVtroubled
p481
F0.00018662865105493248
sVdecades
p482
F6.220955035164415e-05
sVwubipdb7xjy
p483
F0.0
sVinstantly
p484
F0.0001244191007032883
sVstabilizers
p485
F0.0
sVhurtiness
p486
F0.0
sVinsomnia
p487
F0.0
sVrecords
p488
F0.0001244191007032883
sVdrilling
p489
F0.0
sVsorted
p490
F6.220955035164415e-05
sVmaintaining
p491
F6.220955035164415e-05
sVheache
p492
F0.0
sVranitidine
p493
F0.0
sVprophylaxis
p494
F0.0
sVdidn
p495
F0.0004557722411348077
sVestablishing
p496
F6.220955035164415e-05
sVinstability
p497
F0.0
sVquarter
p498
F3.814361116131205e-05
sVsuffixes
p499
F6.220955035164415e-05
sVgabaergic
p500
F0.0
sVbreakthrough
p501
F0.0
sVsexually
p502
F0.0001244191007032883
sVseriously
p503
F0.00021659345271298895
sVtrauma
p504
F0.0
sVinternet
p505
F0.0001525744446452482
sVsuggesting
p506
F3.814361116131205e-05
sVhcl
p507
F0.0
sVchemically
p508
F0.0
sVmillion
p509
F0.00018662865105493248
sVinhaled
p510
F0.0
sVpossibility
p511
F0.00019071805580656026
sVmultivitamins
p512
F0.0
sVdruginfo
p513
F0.0
sVcomplicated
p514
F0.00018662865105493248
sVvalporate
p515
F0.0
sVbesides
p516
F0.00019071805580656026
sVquits
p517
F6.220955035164415e-05
sVremainder
p518
F6.220955035164415e-05
sVtraining
p519
F0.00011443083348393617
sVdunno
p520
F0.0001525744446452482
sVmassive
p521
F0.0
sVroutes
p522
F0.0
sVtimelines
p523
F0.0
sVjumbled
p524
F6.220955035164415e-05
sVemotion
p525
F6.220955035164415e-05
sVsaving
p526
F4.813187838066421e-05
sVbargaining
p527
F0.0
sVparkinson
p528
F0.0
sVopen
p529
F0.0
sVfmri
p530
F0.0
sVcity
p531
F4.813187838066421e-05
sVindicate
p532
F6.220955035164415e-05
sVfml
p533
F0.0
sV2
p534
F0.0003988007109929567
sVtyping
p535
F3.814361116131205e-05
sVridiculous
p536
F6.220955035164415e-05
sVspecialists
p537
F0.0
sVinventor
p538
F0.0
sVxrays
p539
F0.0
sVrehab
p540
F6.220955035164415e-05
sVfuture
p541
F2.8155343941959888e-05
sVnewtoxnet
p542
F0.0
sVproactive
p543
F0.0
sVillness
p544
F0.0
sVnicer
p545
F3.814361116131205e-05
sVmindfulness
p546
F0.0
sVturned
p547
F4.4311190110328524e-05
sVlocations
p548
F0.0001244191007032883
sVphenobarbital
p549
F0.0
sVdiabeta
p550
F0.0
sVssris
p551
F0.0
sVsay
p552
F0.0002152257805358814
sVpubmed
p553
F0.0
sVinhibiting
p554
F0.0
sVsaw
p555
F0.00038505502704531367
sVaside
p556
F0.00012032969595166052
sVnote
p557
F0.00014077671970979944
sVflossing
p558
F6.220955035164415e-05
sVevened
p559
F0.0
sVblinding
p560
F0.0
sVointments
p561
F0.0
sVluvox
p562
F0.0
sVprinter
p563
F6.220955035164415e-05
sVopposite
p564
F7.62872223226241e-05
sVknew
p565
F0.00012032969595166052
sVsuspects
p566
F0.0
sVcvoj5a9
p567
F0.0
sVknee
p568
F0.0
sVmicrowaved
p569
F0.0
sVinserted
p570
F6.220955035164415e-05
sVwinters
p571
F0.0
sVthalidomide
p572
F0.0
sVaverage
p573
F3.814361116131205e-05
sVinfections
p574
F0.00018662865105493248
sVdrive
p575
F0.00022886166696787233
sVmanaging
p576
F6.220955035164415e-05
sVjittery
p577
F0.0
sVwalking
p578
F5.6310687883919776e-05
sVbright
p579
F7.219781757099632e-05
sVsurgically
p580
F0.0
sVscarce
p581
F0.0
sVaggressive
p582
F0.0
sVfibre
p583
F0.0
sVslow
p584
F0.00021116507956469918
sVconduction
p585
F0.0
sVfibro
p586
F0.0
sVtrimethoprim
p587
F0.0
sVrelaxes
p588
F0.0
sVtears
p589
F3.814361116131205e-05
sVgoing
p590
F0.0
sVladybit
p591
F0.0
sVblinds
p592
F0.0
sVclotrimazole
p593
F0.0
sVworried
p594
F0.00019252751352265683
sVpriest
p595
F6.220955035164415e-05
sVesophageal
p596
F0.0
sVworries
p597
F3.814361116131205e-05
sVsurgeries
p598
F0.0
sVvision
p599
F0.0
sVhour
p600
F0.00012032969595166052
sVbuuuuut
p601
F0.0
sVanyways
p602
F3.814361116131205e-05
sVsurgery
p603
F0.0011197719063295948
sVrages
p604
F0.0
sVcompounds
p605
F0.0
sVcomorbidity
p606
F0.0
sVharvey
p607
F0.0
sVteeny
p608
F0.0
sVaffecting
p609
F0.0
sVteens
p610
F6.220955035164415e-05
sVverification
p611
F0.00037325730210986495
sVjobs
p612
F3.814361116131205e-05
sVscreen
p613
F0.00026700527812918435
sVsuppresses
p614
F0.0
sVadept
p615
F0.0
sVsteroid
p616
F0.0
sVspare
p617
F7.62872223226241e-05
sVquack
p618
F6.220955035164415e-05
sVcircumference
p619
F0.0
sVmany
p620
F0.0
sV550mg
p621
F0.0
sVbackpack
p622
F6.220955035164415e-05
sVadjudication
p623
F0.0
sVboat
p624
F0.0001244191007032883
sVmath
p625
F0.0002488382014065766
sVcramps
p626
F0.0
sVsprays
p627
F0.0
sVcombines
p628
F0.0
sVcholestatic
p629
F0.0
sVcompanionship
p630
F6.220955035164415e-05
sVstretch
p631
F7.62872223226241e-05
sVwest
p632
F0.0001244191007032883
sVlocally
p633
F6.220955035164415e-05
sVvacation
p634
F6.220955035164415e-05
sVbreath
p635
F2.8155343941959888e-05
sVvials
p636
F0.0
sV15ml
p637
F0.0
sVreflex
p638
F0.0
sV15mg
p639
F0.0
sVwants
p640
F0.0
sVinfluence
p641
F2.4065939190332104e-05
sVthousand
p642
F4.813187838066421e-05
sVobserve
p643
F3.814361116131205e-05
sVpsychotherapy
p644
F0.0
sVformer
p645
F1.4077671970979944e-05
sVdhea
p646
F0.0
sVconsultant
p647
F0.0001244191007032883
sV8388533_f520
p648
F0.0
sVpsychologytoday
p649
F0.0
sVintimately
p650
F0.0
sVpolicies
p651
F0.0
sVsituation
p652
F0.0003432925004518085
sVzonked
p653
F0.0
sVivf
p654
F0.0
sVreviled
p655
F0.0
sVdubious
p656
F0.0
sVblah
p657
F0.00011443083348393617
sVimitrex
p658
F0.0
sVfame
p659
F6.220955035164415e-05
sVbinary
p660
F6.220955035164415e-05
sVdebilitating
p661
F0.0
sVverified
p662
F0.0
sVtheorized
p663
F0.0
sVfatima
p664
F0.0
sVverifies
p665
F0.0
sVunderestimate
p666
F6.220955035164415e-05
sVpreconceptions
p667
F0.0
sVbreakdown
p668
F6.220955035164415e-05
sVsickness
p669
F6.220955035164415e-05
sVdiflucan
p670
F0.0
sVpsychiatrists
p671
F0.0
sVantihistamine
p672
F0.0
sVcosts
p673
F0.0002488382014065766
sVultravision
p674
F0.0
sVsummer
p675
F7.219781757099632e-05
sVbenzo
p676
F0.0
sVrest
p677
F8.229221020489583e-05
sVweekly
p678
F0.0002488382014065766
sVpreventing
p679
F6.220955035164415e-05
sVyamashirogumi
p680
F0.0
sVb12
p681
F0.0
sV0300
p682
F0.0
sVaspects
p683
F6.220955035164415e-05
sVaround
p684
F0.00027852748069349357
sVdiphenhydramine
p685
F0.0
sVdark
p686
F0.0
sVworld
p687
F7.038835985489972e-05
sVlignocaine
p688
F0.0
sVdecomposes
p689
F0.0
sVvague
p690
F0.0
sV60
p691
F0.00022886166696787233
sVamputation
p692
F6.220955035164415e-05
sVssnri
p693
F0.0
sVnocturnes
p694
F0.0
sVbuspar
p695
F0.0
sVglycol
p696
F0.0
sVstationary
p697
F0.0
sVclap
p698
F3.814361116131205e-05
sVexplaining
p699
F6.220955035164415e-05
sV30
p700
F0.0002252427515356791
sVcognitive
p701
F0.0
sVdivine
p702
F6.220955035164415e-05
sVthinks
p703
F0.00014439563514199265
sVgastroenterologists
p704
F0.0
sVcavity
p705
F0.0
sVcannabis
p706
F0.0
sVpropylthiouracil
p707
F0.0
sVrefer
p708
F0.00018662865105493248
sVscientific
p709
F6.220955035164415e-05
sVpower
p710
F2.8155343941959888e-05
sVuterine
p711
F0.0
sVtropicamide
p712
F0.0
sVforgetfulness
p713
F0.0
sVpackage
p714
F4.813187838066421e-05
sVindustry
p715
F0.00018662865105493248
sVfavorite
p716
F2.4065939190332104e-05
sVmeal
p717
F4.813187838066421e-05
sVtumor
p718
F0.0
sV75mg
p719
F0.0
sVneighbor
p720
F3.814361116131205e-05
sVact
p721
F4.223301591293984e-05
sVluck
p722
F0.0006257144189486348
sVa682388
p723
F0.0
sVbraggart
p724
F0.0
sVimage
p725
F7.62872223226241e-05
sVfreaked
p726
F6.220955035164415e-05
sVhomeless
p727
F6.220955035164415e-05
sVapologize
p728
F0.0001244191007032883
sVaccumulated
p729
F0.0
sVhatha
p730
F0.0
sVtechnically
p731
F7.62872223226241e-05
sVhey
p732
F0.0001525744446452482
sVpolyphony
p733
F0.0
sVcomplete
p734
F1.4077671970979944e-05
sVwits
p735
F0.0
sVmdd
p736
F0.0
sVamplify
p737
F0.0
sVcard
p738
F0.0001525744446452482
sVpull
p739
F2.8155343941959888e-05
sVregimen
p740
F0.0
sVoctober
p741
F0.0
sVrage
p742
F0.0001244191007032883
sVbiomesh
p743
F0.0
sVdirty
p744
F3.814361116131205e-05
sVdispensing
p745
F0.0
sVagree
p746
F9.854370379685961e-05
sVaa
p747
F0.0
sVmaxalt
p748
F0.0
sVad
p749
F7.62872223226241e-05
sVexhausted
p750
F0.0001244191007032883
sVcertain
p751
F0.0001076128902679407
sVforgot
p752
F0.00018662865105493248
sVhypertension
p753
F0.0
sVhobbies
p754
F0.0
sVwatched
p755
F6.220955035164415e-05
sVcream
p756
F0.00019071805580656026
sVyoga
p757
F0.0008087241545713741
sVintrospection
p758
F0.0
sVtight
p759
F9.626375676132842e-05
sVnarco
p760
F0.0
sVa1
p761
F0.0
sVherbs
p762
F6.220955035164415e-05
sVtricky
p763
F6.220955035164415e-05
sVtricks
p764
F0.0
sVbehavioral
p765
F0.0
sVcps
p766
F0.0
sVoriginal
p767
F4.223301591293984e-05
sVconsider
p768
F0.00016893206365175935
sVcaused
p769
F0.0011061647236780495
sVpicturebook
p770
F0.0
sVreasoning
p771
F0.0
sVcauses
p772
F0.0004958669450970567
sVimproperly
p773
F6.220955035164415e-05
sVtv
p774
F0.0002488382014065766
sVtn
p775
F0.0
sVtl
p776
F0.0
sVtm
p777
F6.220955035164415e-05
sVti
p778
F0.0
sVendogenous
p779
F0.0
sVappointment
p780
F0.0008709337049230181
sVreturned
p781
F4.813187838066421e-05
sVcandid
p782
F0.0
sVrevolving
p783
F0.0
sVmanageable
p784
F0.0
sVcondition
p785
F0.00024065939190332105
sVneurosurgeons
p786
F0.0
sVsans
p787
F0.0
sVshenanigans
p788
F0.0
sVoverprotective
p789
F0.0
sVlarge
p790
F0.0
sVsane
p791
F0.0001244191007032883
sVsmall
p792
F0.00010128272025217947
sVtoradol
p793
F0.0
sVquicker
p794
F6.220955035164415e-05
sVantibiotic
p795
F0.0
sVpaso
p796
F0.0
sVpast
p797
F0.00012669904773881952
sVpass
p798
F1.4077671970979944e-05
sVsituated
p799
F0.0
sVhormonal
p800
F6.220955035164415e-05
sVclock
p801
F0.00011443083348393617
sVpsychosomatic
p802
F0.0
sVsection
p803
F7.62872223226241e-05
sVscientists
p804
F6.220955035164415e-05
sVnurse
p805
F0.0001244191007032883
sVmethod
p806
F0.00018662865105493248
sVhasn
p807
F0.00011262137576783955
sVfull
p808
F0.0
sVvomiting
p809
F0.0005598859531647974
sVhours
p810
F0.00039417481518743845
sVbuzzing
p811
F6.220955035164415e-05
sVmelancholia
p812
F0.0
sVcompliance
p813
F0.0
sVbrutal
p814
F0.0
sVprior
p815
F0.0001244191007032883
sVhealthier
p816
F0.0
sVsocial
p817
F4.223301591293984e-05
sVcessation
p818
F0.0
sV240
p819
F0.0
sVvia
p820
F0.00018662865105493248
sVfollowed
p821
F4.813187838066421e-05
sVagomelatine
p822
F0.0
sVvit
p823
F0.0
sVtrips
p824
F3.814361116131205e-05
sV6
p825
F0.00016458442040979165
sVmetformin
p826
F0.0
sVballad
p827
F0.0
sVdoor
p828
F5.6310687883919776e-05
sVsubstances
p829
F0.0003110477517582208
sVcompany
p830
F1.8990510047283654e-05
sVtested
p831
F0.00018662865105493248
sVmaryland
p832
F0.0
sVkeeping
p833
F0.00014439563514199265
sVscience
p834
F3.814361116131205e-05
sVnovolog
p835
F0.0
sVresources
p836
F7.62872223226241e-05
sVmorgan
p837
F0.0
sVlearn
p838
F0.0005598859531647974
sVmale
p839
F7.219781757099632e-05
sVpick
p840
F0.00019252751352265683
sVallegra
p841
F0.0
sVdiabetic
p842
F6.220955035164415e-05
sVscan
p843
F0.0003814361116131205
sVsuggestions
p844
F0.00012032969595166052
sVaccept
p845
F4.813187838066421e-05
sVstates
p846
F7.62872223226241e-05
sVcvotcn1
p847
F0.0
sVsense
p848
F3.798102009456731e-05
sVdress
p849
F2.4065939190332104e-05
sVaction
p850
F0.00022886166696787233
sVinformation
p851
F0.00022886166696787233
sVrespective
p852
F0.0
sVupto
p853
F0.0
sVbounceback
p854
F0.0
sVplans
p855
F0.00018662865105493248
sVwiley
p856
F0.0
sVvariant
p857
F0.0
sVtreatments
p858
F0.0
sVsoundtrack
p859
F0.0
sVbrintellix
p860
F0.0
sVplane
p861
F6.220955035164415e-05
sVwaves
p862
F0.0001244191007032883
sVrefuse
p863
F2.4065939190332104e-05
sVchildbearing
p864
F0.0
sVvulvonologist
p865
F0.0
sVreplied
p866
F6.220955035164415e-05
sVrocketed
p867
F0.0
sVincessantly
p868
F6.220955035164415e-05
sVsertraline
p869
F0.0
sVmayoclinic
p870
F0.0
sVtramadol
p871
F0.0
sVtrade
p872
F4.813187838066421e-05
sVattitude
p873
F6.220955035164415e-05
sVpaper
p874
F9.626375676132842e-05
sVsigns
p875
F0.0002887912702839853
sVrapidly
p876
F4.813187838066421e-05
sVdebilitated
p877
F0.0
sVepileptic
p878
F0.0
sVsymptoms
p879
F0.0
sVindividuals
p880
F0.0
sVruining
p881
F0.0
sVtravelling
p882
F6.220955035164415e-05
sVskipped
p883
F6.220955035164415e-05
sVentire
p884
F7.219781757099632e-05
sVsecondarily
p885
F0.0
sVshitless
p886
F0.0
sVmisuse
p887
F0.0
sVspeculate
p888
F0.0
sVsucked
p889
F0.0001244191007032883
sVeverytime
p890
F6.220955035164415e-05
sVcoping
p891
F0.0
sValways
p892
F0.0
sVnauseous
p893
F0.0
sVuploads
p894
F0.0
sVfound
p895
F0.00025953697064620994
sVreactions
p896
F0.0
sVengland
p897
F0.0
sVbends
p898
F6.220955035164415e-05
sV300mg
p899
F0.0
sVreduce
p900
F0.000648441389742305
sVgrossan
p901
F0.0
sVneurology
p902
F0.0
sVdoses
p903
F0.0
sVoperation
p904
F6.220955035164415e-05
sVpenicillin
p905
F0.0
sVtry
p906
F0.0005950359814815545
sVmissed
p907
F0.00022886166696787233
sVrelaxers
p908
F0.0
sVresearch
p909
F0.0010575623559779506
sVoccurs
p910
F0.00011443083348393617
sVtricylic
p911
F0.0
sVqualify
p912
F0.0
sVproxy
p913
F6.220955035164415e-05
sVimagine
p914
F0.00012032969595166052
sVweed
p915
F0.0003110477517582208
sVbumped
p916
F3.814361116131205e-05
sVretained
p917
F3.814361116131205e-05
sVsimilarly
p918
F0.0
sVlingual
p919
F0.0
sVsensations
p920
F0.0
sVanecdote
p921
F0.0
sVbupropion
p922
F0.0
sVviepax
p923
F0.0
sVmajor
p924
F0.0002252427515356791
sVrooted
p925
F0.0
sVslipped
p926
F0.0001244191007032883
sVthereafter
p927
F0.0
sVnumber
p928
F0.00036098908785498157
sVmacrolides
p929
F0.0
sVdinged
p930
F0.0
sVunexplained
p931
F6.220955035164415e-05
sVfuller
p932
F0.0
sVthreatening
p933
F0.00018662865105493248
sVcalculations
p934
F6.220955035164415e-05
sVfrankey
p935
F0.0
sVvag
p936
F6.220955035164415e-05
sVrelationship
p937
F0.00016846157433232474
sVinterviewed
p938
F6.220955035164415e-05
sVimmediate
p939
F7.62872223226241e-05
sVconsult
p940
F0.0
sVfocusing
p941
F6.220955035164415e-05
sVfibromyawesomes
p942
F0.0
sVorganisations
p943
F0.0
sVantagonizes
p944
F0.0
sVself
p945
F5.6971530141850965e-05
sVnondepressed
p946
F0.0
sVgeneralized
p947
F6.220955035164415e-05
sVplay
p948
F0.00021659345271298895
sVrisperidone
p949
F0.0
sValleviate
p950
F0.00018662865105493248
sVfirsthand
p951
F0.0
sVnasal
p952
F0.0
sVplan
p953
F9.626375676132842e-05
sVaccepting
p954
F6.220955035164415e-05
sVsweats
p955
F0.0
sVunderstands
p956
F6.220955035164415e-05
sVincase
p957
F0.0
sVsometimes
p958
F0.0005067961909552781
sVcover
p959
F7.038835985489972e-05
sVbodies
p960
F3.814361116131205e-05
sVgabe
p961
F0.0
sV2900568
p962
F0.0
sVgaba
p963
F0.0
sVugh
p964
F0.0
sVdegrades
p965
F0.0
sVimpact
p966
F0.0
sVwrites
p967
F6.220955035164415e-05
sVfailed
p968
F7.62872223226241e-05
sVenzyme
p969
F0.0
sVprogest
p970
F0.0
sVfactor
p971
F6.220955035164415e-05
sVingram
p972
F0.0
sVdependent
p973
F0.0002488382014065766
sVresent
p974
F0.0
sVvenopuncture
p975
F0.0
sVclosely
p976
F0.0
sVnalaxone
p977
F0.0
sVadapts
p978
F0.0
sValchohol
p979
F0.0
sVtumors
p980
F0.0
sVcry
p981
F3.814361116131205e-05
sVweaved
p982
F0.0
sVcrc
p983
F0.0
sV5hr
p984
F0.0
sVinsane
p985
F6.220955035164415e-05
sVset
p986
F5.0641360126089734e-05
sVpotent
p987
F0.0
sVsex
p988
F0.00026700527812918435
sVnoize
p989
F0.0
sVsee
p990
F0.00048109292119785256
sVbackfire
p991
F0.0
sVshower
p992
F6.220955035164415e-05
sVvitamins
p993
F0.0001244191007032883
sVspeed
p994
F6.330170015761217e-06
sVcurrently
p995
F0.0005294506621873063
sVtenormin
p996
F0.0
sVpickup
p997
F6.220955035164415e-05
sVacidic
p998
F6.220955035164415e-05
sVgelcap
p999
F0.0
sVnope
p1000
F6.220955035164415e-05
sVthrive
p1001
F0.0
sVavailable
p1002
F0.00026472533109365314
sVmilder
p1003
F0.0
sVtargeted
p1004
F6.220955035164415e-05
sVselectively
p1005
F0.0
sVimproved
p1006
F0.00011443083348393617
sVbarely
p1007
F0.0001525744446452482
sVnorcos
p1008
F0.0
sVmedlineplus
p1009
F0.0
sVconnection
p1010
F0.00011443083348393617
sVimproves
p1011
F0.00018662865105493248
sVlet
p1012
F0.00014559391036250802
sVwhole
p1013
F0.00045725284461631
sVpda
p1014
F0.0
sVload
p1015
F9.626375676132842e-05
sVdrunk
p1016
F9.626375676132842e-05
sVinjectors
p1017
F0.0
sVcoincidence
p1018
F6.220955035164415e-05
sVagents
p1019
F0.0004976764028131532
sVcontemporaneous
p1020
F0.0
sVworthless
p1021
F6.220955035164415e-05
sVdevil
p1022
F0.00011443083348393617
sVmonthly
p1023
F0.0
sVintricacies
p1024
F0.0
sVanaesthesiologists
p1025
F0.0
sVinitiation
p1026
F0.0
sVfirm
p1027
F2.4065939190332104e-05
sVsweetheart
p1028
F0.0
sVfire
p1029
F1.4077671970979944e-05
sVawake
p1030
F6.220955035164415e-05
sVlamotrigine
p1031
F0.0
sVhandling
p1032
F0.00011443083348393617
sVstraight
p1033
F5.0641360126089734e-05
sVforgetting
p1034
F0.0001244191007032883
sVdisproportionate
p1035
F0.0
sVerror
p1036
F0.00018662865105493248
sVexperienes
p1037
F0.0
sVreal
p1038
F0.0
sVpound
p1039
F3.814361116131205e-05
sVhoping
p1040
F0.00043546685246150906
sVagitation
p1041
F0.0
sVklonipin
p1042
F0.0
sVaveraging
p1043
F0.0
sVbinding
p1044
F3.814361116131205e-05
sVhydrocodone
p1045
F0.0
sVsolostar
p1046
F0.0
sVhepatotoxic
p1047
F0.0
sVfunny
p1048
F4.223301591293984e-05
sVelevated
p1049
F0.0
sVcholinergic
p1050
F0.0
sVama
p1051
F0.0
sVelevates
p1052
F0.0
sVforgiveness
p1053
F0.0
sVantaganisom
p1054
F0.0
sVupbringing
p1055
F0.0
sValert
p1056
F3.814361116131205e-05
sVrabia
p1057
F0.0
sVlevels
p1058
F0.0013064005573845273
sVmedicaid
p1059
F0.0
sVfocal
p1060
F6.220955035164415e-05
sVrecent
p1061
F0.0001525744446452482
sVearly
p1062
F0.00012669904773881952
sVinfertility
p1063
F0.0
sVconcrete
p1064
F0.0
sVregulating
p1065
F0.0
sVpolitely
p1066
F6.220955035164415e-05
sVhypothesized
p1067
F0.0
sVprestiq
p1068
F0.0
sVsidebar
p1069
F0.0001244191007032883
sVarteritis
p1070
F0.0
sVlady
p1071
F1.4077671970979944e-05
sVsignals
p1072
F0.0001244191007032883
sVgrapefruit
p1073
F0.00011443083348393617
sVparents
p1074
F0.00018662865105493248
sVlocation
p1075
F7.62872223226241e-05
sVcrying
p1076
F0.0003432925004518085
sVinput
p1077
F0.0008087241545713741
sVsurprised
p1078
F4.813187838066421e-05
sVextraintestinal
p1079
F0.0
sVemergency
p1080
F0.00037325730210986495
sVformat
p1081
F0.00018662865105493248
sVcouple
p1082
F0.00021116507956469918
sVshitty
p1083
F0.0003110477517582208
sVsuffering
p1084
F0.00014439563514199265
sVquest
p1085
F6.220955035164415e-05
sVsnore
p1086
F6.220955035164415e-05
sVsorting
p1087
F3.814361116131205e-05
sVrizatriptan
p1088
F0.0
sVspine
p1089
F0.00037325730210986495
sVcontinue
p1090
F4.223301591293984e-05
sVdisorder
p1091
F0.001555238758791104
sVmethods
p1092
F0.0001244191007032883
sVspring
p1093
F4.813187838066421e-05
sVb6
p1094
F0.0
sVoxcarbazepine
p1095
F0.0
sVpalo
p1096
F0.0
sVcurious
p1097
F5.6310687883919776e-05
sVpale
p1098
F6.220955035164415e-05
sVzebras
p1099
F0.0
sVbenefit
p1100
F0.0009331432552746623
sVdating
p1101
F3.814361116131205e-05
sVtemple
p1102
F0.0
sVinclination
p1103
F0.0
sVba
p1104
F0.0
sVbc
p1105
F0.0
sVbm
p1106
F0.0
sVbp
p1107
F0.0
sVnowhere
p1108
F6.220955035164415e-05
sVrelating
p1109
F0.0
sV18096160
p1110
F0.0
sVpatiant
p1111
F0.0
sVanything
p1112
F0.0003291688408195833
sVnetflix
p1113
F0.0
sVrepair
p1114
F0.0
sVfourtracker
p1115
F0.0
sVappropriate
p1116
F0.00037325730210986495
sVmitochondrial
p1117
F0.0
sVcontroversies
p1118
F0.0
sVprimarily
p1119
F0.0
sVsneaky
p1120
F0.0
sVspending
p1121
F6.220955035164415e-05
sVsock
p1122
F6.220955035164415e-05
sVspecifically
p1123
F0.0
sVthirdly
p1124
F0.0
sVpurred
p1125
F0.0
sVconsiderably
p1126
F6.220955035164415e-05
sVcanesten
p1127
F0.0
sVelsewhere
p1128
F6.220955035164415e-05
sVselador
p1129
F0.0
sVlink
p1130
F0.0003814361116131205
sVline
p1131
F0.00016893206365175935
sVrelaxer
p1132
F0.0
sVharangue
p1133
F0.0
sVintestines
p1134
F6.220955035164415e-05
sVwoah
p1135
F6.220955035164415e-05
sVus
p1136
F9.495255023641826e-05
sVur
p1137
F0.0
sVpaired
p1138
F0.0
sVuh
p1139
F2.4065939190332104e-05
sVuk
p1140
F0.00037325730210986495
sVpineal
p1141
F0.0
sVhorner
p1142
F0.0
sVconsumed
p1143
F6.220955035164415e-05
sVdocusate
p1144
F0.0
sVparoxetine
p1145
F0.0
sVdiscolored
p1146
F0.0
sVlikewise
p1147
F0.0
sVunsafe
p1148
F6.220955035164415e-05
sVchat
p1149
F2.4065939190332104e-05
sVpuzzling
p1150
F0.0
sVoccasional
p1151
F0.0
sVdefinitely
p1152
F0.00045725284461631
sVretract
p1153
F6.220955035164415e-05
sVbaclofen
p1154
F0.0
sVelements
p1155
F0.0001244191007032883
sVlucid
p1156
F0.0
sVmaois
p1157
F0.0
sVativan
p1158
F0.0
sVsides
p1159
F3.814361116131205e-05
sVago
p1160
F0.0012205955571619857
sVtailored
p1161
F0.0
sVnapping
p1162
F0.0
sVwalked
p1163
F0.0001244191007032883
sVlevodopa
p1164
F0.0
sVwalker
p1165
F0.0001244191007032883
sVtattooing
p1166
F0.0
sVpartial
p1167
F6.220955035164415e-05
sVlaziness
p1168
F0.0
sVresults
p1169
F0.00045772333393574467
sVexisting
p1170
F6.220955035164415e-05
sVstops
p1171
F1.8990510047283654e-05
sVflashback
p1172
F0.0
sVseemed
p1173
F7.038835985489972e-05
sVconcerned
p1174
F0.00011443083348393617
sVyoung
p1175
F1.8990510047283654e-05
sVsend
p1176
F0.00014077671970979944
sVmonoamine
p1177
F0.0
sVsent
p1178
F3.798102009456731e-05
sVsw8wjfwisc8
p1179
F0.0
sVgarden
p1180
F3.814361116131205e-05
sVtorture
p1181
F0.0001244191007032883
sVcontinues
p1182
F7.62872223226241e-05
sVmixing
p1183
F6.220955035164415e-05
sVenfp
p1184
F0.0
sVcontinued
p1185
F0.0
sVcategories
p1186
F0.0
sVtri
p1187
F0.0001244191007032883
sVtrk
p1188
F0.0
sVmagic
p1189
F0.0001525744446452482
sVexperiencing
p1190
F0.0
sVeve
p1191
F0.0
sVfewer
p1192
F0.00043546685246150906
sVanxious
p1193
F0.0006220955035164416
sVs0022395608000733
p1194
F0.0
sVobesity
p1195
F0.0
sVuei
p1196
F0.0
sVexten
p1197
F0.0
sVvideo
p1198
F0.0001525744446452482
sVlicenses
p1199
F0.0
sVodd
p1200
F1.4077671970979944e-05
sVindex
p1201
F6.220955035164415e-05
sVbusiness
p1202
F6.330170015761217e-06
sVexpressed
p1203
F0.0
sVconsistently
p1204
F0.0001244191007032883
sVindian
p1205
F0.0
sVbismol
p1206
F0.0
sVproliferation
p1207
F0.0
sVled
p1208
F0.0
sVleg
p1209
F0.00024065939190332105
sVrespectively
p1210
F0.0
sVpoverty
p1211
F6.220955035164415e-05
sVconsideration
p1212
F0.0
sVfifteen
p1213
F0.00018662865105493248
sVgreat
p1214
F0.0
sVoleptro
p1215
F0.0
sVreceive
p1216
F0.00018662865105493248
sVinvolved
p1217
F0.00019071805580656026
sVbendroflumethiazide
p1218
F0.0
sVrda
p1219
F0.0
sVinsulin
p1220
F0.0
sVdefeat
p1221
F0.0001244191007032883
sVopinion
p1222
F0.0007465146042197299
sVmakes
p1223
F0.00023421629058316504
sVmaker
p1224
F0.0
sVthats
p1225
F7.62872223226241e-05
sVpanicked
p1226
F0.0
sVvalproic
p1227
F0.0
sVoutcomes
p1228
F0.0
sVtools
p1229
F0.00019071805580656026
sVexenatide
p1230
F0.0
sVstanding
p1231
F2.8155343941959888e-05
sVillegal
p1232
F6.220955035164415e-05
sVdruggies
p1233
F6.220955035164415e-05
sVnext
p1234
F0.00020256544050435894
sVdoubt
p1235
F5.6310687883919776e-05
sVbinges
p1236
F0.0
sVchloride
p1237
F0.0
sVchloroquine
p1238
F0.0
sVoccurred
p1239
F6.220955035164415e-05
sVlabelled
p1240
F6.220955035164415e-05
sVbaby
p1241
F0.00011443083348393617
sVdozy
p1242
F0.0
sVcustomer
p1243
F0.0001244191007032883
sVhigh
p1244
F0.0
sVballs
p1245
F0.0001244191007032883
sVouj7ejwyue8
p1246
F0.0
sVchallenge
p1247
F6.220955035164415e-05
sVinsists
p1248
F6.220955035164415e-05
sVpour
p1249
F6.220955035164415e-05
sVdrill
p1250
F0.0
sVparalysis
p1251
F0.0
sVprocess
p1252
F0.0005340105562583687
sVpelvic
p1253
F0.00037325730210986495
sVimigran
p1254
F0.0
sVpurposes
p1255
F0.0
sVmeeting_abstract
p1256
F0.0
sVflours
p1257
F0.0
sVcoenzyme
p1258
F0.0
sVpaleo
p1259
F0.0
sVdestroying
p1260
F0.0
sVoccipital
p1261
F0.0
sVamtriptyline
p1262
F0.0
sVanimal
p1263
F2.8155343941959888e-05
sVhormones
p1264
F0.00018662865105493248
sVcomedy
p1265
F6.220955035164415e-05
sVsucess
p1266
F0.0
sVblocks
p1267
F9.626375676132842e-05
sVvolunteers59
p1268
F0.0
sV80mg
p1269
F0.0
sVtied
p1270
F3.814361116131205e-05
sVterrors
p1271
F0.0
sVatrovent
p1272
F0.0
sVfits
p1273
F6.220955035164415e-05
sVhawk
p1274
F6.220955035164415e-05
sVnpp
p1275
F0.0
sVrealized
p1276
F0.0002488382014065766
sVantibody
p1277
F0.0
sVcounter
p1278
F0.0004195797227744326
sVproducer
p1279
F3.814361116131205e-05
sVproduces
p1280
F0.0001244191007032883
sVmove
p1281
F0.00026472533109365314
sVresearching
p1282
F0.0
sVergotamines
p1283
F0.0
sVperfect
p1284
F0.00011443083348393617
sVdecay
p1285
F0.0
sVsurgeons
p1286
F0.0
sVmeantime
p1287
F0.0003110477517582208
sVthieves
p1288
F0.0001244191007032883
sVdegrees
p1289
F6.220955035164415e-05
sV2014
p1290
F0.0
sV2010
p1291
F0.0
sV2013
p1292
F0.0
sVphysicians
p1293
F0.0
sVdocs
p1294
F0.00043546685246150906
sVnada
p1295
F6.220955035164415e-05
sVplaquenil
p1296
F0.0
sVbothering
p1297
F0.0
sVrotation
p1298
F0.0
sVrealize
p1299
F6.220955035164415e-05
sVintelligent
p1300
F3.814361116131205e-05
sVtruth
p1301
F0.00011443083348393617
sVaccounts
p1302
F4.813187838066421e-05
sVglasses
p1303
F3.814361116131205e-05
sVexacerbated
p1304
F0.0
sVlgqrp3v00xy
p1305
F0.0
sVbump
p1306
F0.0
sVsociety
p1307
F3.814361116131205e-05
sVfrequency
p1308
F0.00043546685246150906
sVexacerbates
p1309
F0.0
sVdiffer
p1310
F0.0001244191007032883
sVagoraphobia
p1311
F0.0
sVlastly
p1312
F0.0
sVfeminisation
p1313
F0.0
sVshut
p1314
F4.223301591293984e-05
sVinteractions
p1315
F0.0
sVjackasses
p1316
F0.0
sVsurely
p1317
F0.0001244191007032883
sVcraving
p1318
F6.220955035164415e-05
sVscary
p1319
F0.0002488382014065766
sVspill
p1320
F2.4065939190332104e-05
sVcould
p1321
F0.0
sVsleeplessness
p1322
F0.0
sVassumed
p1323
F0.0
sVchills
p1324
F0.0
sVstimulate
p1325
F0.0
sVblown
p1326
F0.0002488382014065766
sVstraining
p1327
F0.0
sVregrow
p1328
F0.0
sVbehaves
p1329
F6.220955035164415e-05
sVsystem
p1330
F0.0003097087833615588
sVpainful
p1331
F0.0
sVvigorous
p1332
F0.0
sVdepressing
p1333
F3.814361116131205e-05
sVvouch
p1334
F0.0
sVanyones
p1335
F0.0
sVbotox
p1336
F0.0
sVhaven
p1337
F0.00039417481518743845
sVbodyweight
p1338
F0.0
sVsteel
p1339
F3.814361116131205e-05
sVroulette
p1340
F0.0
sVbother
p1341
F0.00011443083348393617
sVmalpractice
p1342
F0.0
sVaccusing
p1343
F0.0
sVfalse
p1344
F7.219781757099632e-05
sVgabopentin
p1345
F0.0
sVpartnership
p1346
F0.0
sVtonight
p1347
F7.62872223226241e-05
sVgentle
p1348
F7.219781757099632e-05
sVclearly
p1349
F4.813187838066421e-05
sVhypnagogic
p1350
F0.0
sVfemoral
p1351
F0.0
sVstudying
p1352
F6.220955035164415e-05
sVprobly
p1353
F0.0
sVmechanism
p1354
F0.0
sVaccuracy
p1355
F0.0
sVpebbles
p1356
F0.0
sVmanor
p1357
F0.0
sV01
p1358
F6.220955035164415e-05
sVamongst
p1359
F2.4065939190332104e-05
sVlunesta
p1360
F0.0
sVdevice
p1361
F2.4065939190332104e-05
sVvultures
p1362
F0.0
sVhyperthyroidism
p1363
F0.0
sVstronger
p1364
F0.00018662865105493248
sVface
p1365
F0.0001830097356227393
sVdesvenlafaxine
p1366
F0.0
sVfact
p1367
F0.0004091209662356458
sVrings
p1368
F3.814361116131205e-05
sVdependant
p1369
F0.0
sVbring
p1370
F5.0641360126089734e-05
sVbedroom
p1371
F6.220955035164415e-05
sVrough
p1372
F7.62872223226241e-05
sVintracardiac
p1373
F0.0
sVtrivial
p1374
F0.0
sVdecade
p1375
F7.62872223226241e-05
sVpodcast
p1376
F0.0
sVjaw
p1377
F0.00011443083348393617
sVmute
p1378
F6.220955035164415e-05
sVmalabsorption
p1379
F0.0
sVmolecules
p1380
F0.0
sV7fkc1uny
p1381
F0.0
sVriding
p1382
F1.4077671970979944e-05
sVhope
p1383
F0.00026586714066197115
sVmeant
p1384
F0.00014439563514199265
sVinsight
p1385
F6.220955035164415e-05
sVhandle
p1386
F4.223301591293984e-05
sVquartering
p1387
F0.0
sVantagonism
p1388
F0.0
sVfamiliar
p1389
F0.0003051488892904964
sVlucky
p1390
F0.00016846157433232474
sVpathophysiology
p1391
F0.0
sVsinus
p1392
F0.0
sVantagonist
p1393
F0.0
sVmetabolite
p1394
F0.0
sVundergrad
p1395
F0.0
sVstuff
p1396
F0.0006016484797583026
sVohio
p1397
F0.0
sVguessing
p1398
F3.814361116131205e-05
sVbtw
p1399
F0.0
sVtemporarily
p1400
F0.00018662865105493248
sVcatastrophic
p1401
F0.0
sVheartburn
p1402
F6.220955035164415e-05
sVlazy
p1403
F0.0001525744446452482
sVedition
p1404
F6.220955035164415e-05
sV9654
p1405
F0.0
sVinsurances
p1406
F0.0
sVextend
p1407
F7.62872223226241e-05
sVnuclear
p1408
F6.220955035164415e-05
sVfluconazole
p1409
F0.0
sVemail
p1410
F3.814361116131205e-05
sVinterchangeable
p1411
F0.0
sVendo
p1412
F0.0
sVrestrictions
p1413
F6.220955035164415e-05
sVfigured
p1414
F0.0001525744446452482
sVetc
p1415
F0.00023421629058316504
sVco
p1416
F0.0001525744446452482
sVconclude
p1417
F0.0
sVca
p1418
F6.220955035164415e-05
sVseuil
p1419
F0.0
sV2807
p1420
F0.0
sVct
p1421
F0.0
sVnaltrexone
p1422
F0.0
sVgenetic
p1423
F0.0
sVdrank
p1424
F3.814361116131205e-05
sVhottest
p1425
F6.220955035164415e-05
sVwaste
p1426
F0.00012032969595166052
sVrecurring
p1427
F0.0
sVventolin
p1428
F0.0
sVlgb
p1429
F0.0
sVanorgasmia
p1430
F0.0
sV250mg
p1431
F0.0
sVoceanographer
p1432
F0.0
sVc7
p1433
F0.0
sVc5
p1434
F0.0
sVlaser
p1435
F6.220955035164415e-05
sVtricyclics
p1436
F0.0
sVcvs
p1437
F0.0009953528056263065
sVmiddle
p1438
F7.038835985489972e-05
sVdeductible
p1439
F0.0
sVgroin
p1440
F0.0002488382014065766
sVcbt
p1441
F0.0
sVinsanely
p1442
F0.0
sVsite
p1443
F9.626375676132842e-05
sVvs
p1444
F0.0005598859531647974
sVdemanded
p1445
F0.0
sVmatthew
p1446
F0.0
sVcope
p1447
F0.00018662865105493248
sVdigging
p1448
F7.62872223226241e-05
sVandroid
p1449
F0.0
sVrepercussions
p1450
F0.0
sVemotionally
p1451
F0.0001244191007032883
sVdrink
p1452
F4.4311190110328524e-05
sVupon
p1453
F7.038835985489972e-05
sVphd
p1454
F0.0
sVpotasssium
p1455
F0.0
sVdiabetes
p1456
F0.0007465146042197299
sVlupus
p1457
F0.0
sVhydralazine
p1458
F0.0
sVindonesia
p1459
F0.0
sVdaw
p1460
F0.0
sVdrawing
p1461
F2.4065939190332104e-05
sVsubgroup
p1462
F0.0
sVakira
p1463
F0.0
sVpresumably
p1464
F6.220955035164415e-05
sVrooms
p1465
F0.00018662865105493248
sVrambley
p1466
F0.0
sVwee
p1467
F0.0
sVoutlines
p1468
F0.0
sVscript
p1469
F0.0007465146042197299
sVwet
p1470
F3.814361116131205e-05
sVtics
p1471
F0.0
sVincreased
p1472
F0.0009331432552746623
sVgovernment
p1473
F3.814361116131205e-05
sVchecking
p1474
F3.814361116131205e-05
sVoverdoses
p1475
F0.0
sVincreases
p1476
F0.00018662865105493248
sVfive
p1477
F4.4311190110328524e-05
sVgoings
p1478
F0.0
sVbelgium
p1479
F0.0
sVbenadryl
p1480
F0.0
sVefficiency
p1481
F0.0
sVgarage
p1482
F0.0001244191007032883
sVnerves
p1483
F0.0003110477517582208
sVtherapeutic
p1484
F0.0
sVopioid
p1485
F0.0
sVpoor
p1486
F4.4311190110328524e-05
sVklonopin
p1487
F0.0
sVfootage
p1488
F0.0001244191007032883
sVdaylight
p1489
F6.220955035164415e-05
sVtciiylkv5je
p1490
F0.0
sVliterally
p1491
F0.00022886166696787233
sVavoid
p1492
F0.00011262137576783955
sVprophalaxis
p1493
F0.0
sVpassion
p1494
F2.4065939190332104e-05
sVtherapists
p1495
F0.0
sVbiology
p1496
F0.0
sVschedule
p1497
F0.00018662865105493248
sVpressure
p1498
F0.002052915161604257
sVaccompanied
p1499
F6.220955035164415e-05
sVstage
p1500
F0.00012032969595166052
sVgained
p1501
F0.00026700527812918435
sVsister
p1502
F3.814361116131205e-05
sVlifestyle
p1503
F0.0002488382014065766
sVrecur
p1504
F0.0
sVdilaudid
p1505
F0.0
sVingest
p1506
F0.0
sVswimming
p1507
F0.00011443083348393617
sVcoverage
p1508
F0.0
sVcyclobenzaprine
p1509
F0.0
sVlung
p1510
F6.220955035164415e-05
sV00459
p1511
F0.0
sVyrs
p1512
F2.4065939190332104e-05
sVfunction
p1513
F0.0009331432552746623
sVdelivery
p1514
F0.0001244191007032883
sVlowered
p1515
F0.00018662865105493248
sVrectum
p1516
F0.0
sVcount
p1517
F0.0001525744446452482
sVplaces
p1518
F0.0001525744446452482
sVdeficiency
p1519
F0.0
sVofficial
p1520
F0.0001525744446452482
sVsmooth
p1521
F2.4065939190332104e-05
sVimbalances
p1522
F0.0
sVexcitement
p1523
F6.220955035164415e-05
sVplaced
p1524
F0.00022886166696787233
sVmeta
p1525
F7.62872223226241e-05
sV3mg
p1526
F0.0
sVadderall
p1527
F0.0
sVproblem
p1528
F0.00032378645533253877
sVrecognize
p1529
F3.814361116131205e-05
sVcontribute
p1530
F0.0002488382014065766
sVkowton
p1531
F0.0
sVcompared
p1532
F0.00014077671970979944
sVefficacy
p1533
F0.0
sVvariety
p1534
F0.00011443083348393617
sVtrials
p1535
F0.0
sVscholarly
p1536
F0.0
sVlately
p1537
F3.814361116131205e-05
sV900mg
p1538
F0.0
sVdetails
p1539
F0.00018662865105493248
sVziprasidone
p1540
F0.0
sVbehold
p1541
F6.220955035164415e-05
sVrepeat
p1542
F0.0001244191007032883
sVmonday
p1543
F0.0
sVchance
p1544
F9.854370379685961e-05
sVexposure
p1545
F0.0
sVrisperdal
p1546
F0.0
sVhepc
p1547
F0.0
sVrule
p1548
F7.62872223226241e-05
sVaetna
p1549
F0.0
sV1365
p1550
F0.0
sVstatus
p1551
F2.4065939190332104e-05
sVsuicidal
p1552
F0.0006220955035164416
sVsaver
p1553
F0.0
sVdesirable
p1554
F0.0
sVcontroversial
p1555
F6.220955035164415e-05
sVmansion
p1556
F0.0
sVacetylserotonin
p1557
F0.0
sVsaved
p1558
F4.813187838066421e-05
sVrelationships
p1559
F6.220955035164415e-05
sVphysiological
p1560
F0.0
sVdisfit
p1561
F0.0
sVbike
p1562
F3.814361116131205e-05
sVwalks
p1563
F0.00012032969595166052
sVvoted
p1564
F0.0
sVrestock
p1565
F0.0
sVworth
p1566
F0.0005053847229969741
sVblanket
p1567
F7.62872223226241e-05
sVglimepiride
p1568
F0.0
sVreplication
p1569
F0.0
sVmania
p1570
F0.0
sVcipralex
p1571
F0.0
sVaffirming
p1572
F0.0
sVphones
p1573
F6.220955035164415e-05
sVflurazepam
p1574
F0.0
sVbipolar
p1575
F0.00043546685246150906
sVofficially
p1576
F0.0
sVtold
p1577
F0.000673846297329299
sVsimultaneously
p1578
F6.220955035164415e-05
sVresidual
p1579
F6.220955035164415e-05
sVstresses
p1580
F0.0
sVbalance
p1581
F0.00043546685246150906
sVdaughter
p1582
F1.4077671970979944e-05
sVitems
p1583
F3.814361116131205e-05
sVemployees
p1584
F0.0
sVsmoke
p1585
F3.814361116131205e-05
sVstressed
p1586
F6.220955035164415e-05
sVaka
p1587
F0.0
sVangrily
p1588
F6.220955035164415e-05
sVhighly
p1589
F0.0003051488892904964
sVextraneous
p1590
F6.220955035164415e-05
sVtotal
p1591
F9.626375676132842e-05
sV4ddkx7j9fps0
p1592
F0.0
sVexperimentation
p1593
F0.0
sVnegative
p1594
F0.0003814361116131205
sVsweated
p1595
F0.0
sVabusing
p1596
F0.0
sVtolerated
p1597
F0.0
sVantispasmodics
p1598
F0.0
sVhaha
p1599
F0.0002488382014065766
sVaware
p1600
F0.0
sVpierces
p1601
F6.220955035164415e-05
sVblocking
p1602
F0.0003051488892904964
sVrifampicin
p1603
F0.0
sV1993
p1604
F0.0
sVclonazapam
p1605
F0.0
sVwore
p1606
F0.0001244191007032883
sVdivorced
p1607
F6.220955035164415e-05
sVwork
p1608
F0.0
sVrefusing
p1609
F0.0
sVworn
p1610
F0.0001244191007032883
sVtheories
p1611
F0.0
sVoxide
p1612
F0.0
sVcuddle
p1613
F6.220955035164415e-05
sVanhedonia
p1614
F0.0
sVacetylcholine
p1615
F0.0
sVindicated
p1616
F0.0001244191007032883
sVcited
p1617
F0.0
sVimpair
p1618
F0.0
sVchaudry
p1619
F0.0
sVhyphenated
p1620
F0.0
sVtriptin
p1621
F0.0
sVflairs
p1622
F0.0
sVrecovery
p1623
F0.00011443083348393617
sVprovide
p1624
F0.0004976764028131532
sVagony
p1625
F0.0
sVbarbruteral
p1626
F0.0
sVinterview
p1627
F0.0001244191007032883
sVordinary
p1628
F1.4077671970979944e-05
sVmemorization
p1629
F6.220955035164415e-05
sVgamble
p1630
F6.220955035164415e-05
sVfever
p1631
F0.0
sVearlier
p1632
F5.6310687883919776e-05
sVlab
p1633
F0.0
sVfat
p1634
F0.00011443083348393617
sVlaw
p1635
F0.0001244191007032883
sVlap
p1636
F6.220955035164415e-05
sVretail
p1637
F0.0
sVoccurence
p1638
F0.0
sVhomeowners
p1639
F0.0
sVappreciate
p1640
F0.0001525744446452482
sVscare
p1641
F6.220955035164415e-05
sVgreen
p1642
F6.330170015761217e-06
sVambulance
p1643
F0.0
sVworst
p1644
F0.0005721541674196807
sVorder
p1645
F8.229221020489583e-05
sVpdoc
p1646
F0.0
sVoffice
p1647
F0.00014439563514199265
sVconsent
p1648
F0.00018662865105493248
sVchronically
p1649
F0.0
sVpriming
p1650
F0.0
sVjotting
p1651
F0.0
sVsomewhere
p1652
F4.223301591293984e-05
sVrecreational
p1653
F6.220955035164415e-05
sV2341111
p1654
F0.0
sV60lbs
p1655
F0.0
sVproduction
p1656
F0.0003110477517582208
sVacupuncture
p1657
F0.0
sVprecipitate
p1658
F0.0
sVversus
p1659
F3.814361116131205e-05
sVeventually
p1660
F0.00043546685246150906
sVcoffee
p1661
F3.814361116131205e-05
sVaffected
p1662
F0.0001244191007032883
sVwoken
p1663
F0.0
sVremission
p1664
F0.0
sVsafe
p1665
F0.00024065939190332105
sVsleepiness
p1666
F0.0
sVbreak
p1667
F0.0001525744446452482
sVband
p1668
F3.814361116131205e-05
sVbang
p1669
F7.62872223226241e-05
sVbank
p1670
F7.62872223226241e-05
sVoxygen
p1671
F0.00043546685246150906
sVreasonably
p1672
F6.220955035164415e-05
sVroutines
p1673
F6.220955035164415e-05
sVl
p1674
F2.4065939190332104e-05
sVs40
p1675
F0.0
sVreasonable
p1676
F0.0001525744446452482
sV375
p1677
F0.0
sVfiimkmdalmgffhibfdjnhljpnigcmohf
p1678
F0.0
sVcetirizine
p1679
F0.0
sVlogs
p1680
F0.0
sVnetwork
p1681
F6.220955035164415e-05
sVcameras
p1682
F6.220955035164415e-05
sVhooked
p1683
F0.00018662865105493248
sVvessels
p1684
F0.0
sVmedicine
p1685
F0.0017418674098460363
sVmetoclopramide
p1686
F0.0
sVmetamucil
p1687
F0.0
sVrecoving
p1688
F0.0
sVstandard
p1689
F2.4065939190332104e-05
sVnti
p1690
F0.0
sVappointments
p1691
F0.0
sVvets
p1692
F0.0
sVnmda
p1693
F0.0
sVdetecting
p1694
F3.814361116131205e-05
sVdammit
p1695
F6.220955035164415e-05
sVclouding
p1696
F0.0
sVtestost
p1697
F0.0
sVanother
p1698
F0.00027219731067773236
sVimplicated
p1699
F0.0
sVelectronic
p1700
F0.0
sVrejects
p1701
F0.0
sVapproximately
p1702
F0.0
sVrates
p1703
F0.0
sVpurposefully
p1704
F6.220955035164415e-05
sVjohn
p1705
F0.0
sVdogs
p1706
F4.813187838066421e-05
sVdamaging
p1707
F0.0
sVvicoprofen
p1708
F0.0
sVenhancing
p1709
F0.0001244191007032883
sVwaster
p1710
F0.0
sViyengar
p1711
F0.0
sVwasted
p1712
F7.62872223226241e-05
sVtarget
p1713
F0.0001244191007032883
sVseated
p1714
F6.220955035164415e-05
sVbinds
p1715
F0.0
sV5mg
p1716
F0.0
sVsolely
p1717
F0.0001244191007032883
sVminus
p1718
F6.220955035164415e-05
sVnavigate
p1719
F6.220955035164415e-05
sVmanner
p1720
F2.4065939190332104e-05
sVstomach
p1721
F0.0003051488892904964
sVforced
p1722
F0.0003051488892904964
sVstrength
p1723
F7.219781757099632e-05
sVcardiac
p1724
F0.0
sVfaab
p1725
F0.0
sVlatter
p1726
F0.00043546685246150906
sVbrand_names
p1727
F0.0
sVluxury
p1728
F0.0
sVtransmit
p1729
F0.0
sVsolidified
p1730
F0.0
sVmethylphenidate
p1731
F0.0
sVramblings
p1732
F0.0
sVinvolving
p1733
F7.62872223226241e-05
sVscripts
p1734
F0.0003110477517582208
sVphase
p1735
F0.00037325730210986495
sVassessed
p1736
F0.0
sVautopsy
p1737
F6.220955035164415e-05
sVabuseof
p1738
F0.0
sVjudgmental
p1739
F6.220955035164415e-05
sVresponded
p1740
F0.0
sVreserve
p1741
F6.220955035164415e-05
sVcoudenberg
p1742
F0.0
sVsubtle
p1743
F6.220955035164415e-05
sVenjoyed
p1744
F3.814361116131205e-05
sVlatent
p1745
F0.0
sVsummarizing
p1746
F0.0
sVadequate
p1747
F0.0
sVpersonality
p1748
F7.62872223226241e-05
sVdj
p1749
F0.0
sVde
p1750
F1.2660340031522434e-05
sVpreferred
p1751
F0.00018662865105493248
sVdx
p1752
F0.0
sVnasty
p1753
F0.00022886166696787233
sVdr
p1754
F0.0005598859531647974
sVinfrequent
p1755
F0.0
sVcovering
p1756
F3.814361116131205e-05
sVb6eec4hcam
p1757
F0.0
sVidentify
p1758
F3.814361116131205e-05
sVnortryptaline
p1759
F0.0
sVfacts
p1760
F0.0
sVdepends
p1761
F0.00011443083348393617
sVhorrendous
p1762
F6.220955035164415e-05
sVmiserable
p1763
F0.00011443083348393617
sVtechniques
p1764
F0.0
sVdraws
p1765
F3.814361116131205e-05
sValtmed
p1766
F0.0
sVaway
p1767
F0.0
sVcaved
p1768
F0.0
sVimipramine
p1769
F0.0
sVunable
p1770
F0.00011443083348393617
sVdrawn
p1771
F2.4065939190332104e-05
sVaccord
p1772
F0.0
sVwd
p1773
F0.0
sVterms
p1774
F0.00016846157433232474
sVwp
p1775
F0.0
sVreceived
p1776
F0.00019071805580656026
sVessentially
p1777
F0.0
sVill
p1778
F4.813187838066421e-05
sVrequests
p1779
F0.00011443083348393617
sVdisappears
p1780
F3.814361116131205e-05
sVregarded
p1781
F7.62872223226241e-05
sVtough
p1782
F4.813187838066421e-05
sVtoni
p1783
F0.0
sVseizure
p1784
F0.0
sVabilify
p1785
F0.0
sVtons
p1786
F0.00019071805580656026
sVinterrelations
p1787
F0.0
sVrefill
p1788
F0.00043546685246150906
sVspeak
p1789
F0.0001525744446452482
sVaminotransferase
p1790
F0.0
sVdozens
p1791
F0.0
sVacuity
p1792
F0.0
sVrelaxing
p1793
F0.0001244191007032883
sVcarbamazepine
p1794
F0.0
sVbuprenorphine
p1795
F0.0
sVapplied
p1796
F3.814361116131205e-05
sVphysician
p1797
F0.0
sVinhibit
p1798
F0.0
sVsave
p1799
F7.219781757099632e-05
sVair
p1800
F4.223301591293984e-05
sVaim
p1801
F3.814361116131205e-05
sVabrupt
p1802
F0.0
sVaid
p1803
F0.0
sVproperty
p1804
F1.4077671970979944e-05
sVmistake
p1805
F1.4077671970979944e-05
sVazathioprine
p1806
F0.0
sVcons
p1807
F6.220955035164415e-05
sVflorida
p1808
F0.0
sVthursdays
p1809
F0.0
sVweaning
p1810
F0.0
sVdizzy
p1811
F0.0
sVcravings
p1812
F6.220955035164415e-05
sVconfirmed
p1813
F0.00011443083348393617
sVperform
p1814
F4.813187838066421e-05
sVrecurrent
p1815
F0.0
sVincorrectly
p1816
F6.220955035164415e-05
sVlithium
p1817
F0.0
sVwheel
p1818
F2.4065939190332104e-05
sVnih
p1819
F0.0
sV_all_
p1820
F6.220955035164415e-05
sVswell
p1821
F0.0
sV8cwybywmqwc
p1822
F0.0
sVhand
p1823
F0.0
sVcatheter
p1824
F6.220955035164415e-05
sVleafly
p1825
F0.0
sVprescribed
p1826
F0.0038569921218019375
sVkept
p1827
F9.626375676132842e-05
sVscenario
p1828
F0.0
sVmirtazipine
p1829
F0.0
sV1600
p1830
F0.0
sVeps
p1831
F0.0
sVexited
p1832
F6.220955035164415e-05
sVorgasms
p1833
F6.220955035164415e-05
sVcontact
p1834
F7.219781757099632e-05
sVnorco
p1835
F0.0
sVprescriber
p1836
F0.0
sVendometriosis
p1837
F0.0
sVthanks
p1838
F0.00038505502704531367
sVvictim
p1839
F6.220955035164415e-05
sVelectronically
p1840
F0.0
sVthyroid
p1841
F0.0
sVadding
p1842
F0.00018662865105493248
sVposes
p1843
F0.0
sVyamaha
p1844
F0.0
sVsubutex
p1845
F0.0
sVbp1
p1846
F0.0
sVhydroxozine
p1847
F0.0
sVbp2
p1848
F0.0
sVboard
p1849
F4.813187838066421e-05
sVplasma
p1850
F0.0001244191007032883
sVinsensitive
p1851
F3.814361116131205e-05
sVmayo
p1852
F0.0
sVfusion
p1853
F0.0
sVbpd
p1854
F0.0
sVsparse
p1855
F0.0
sVnight
p1856
F0.0003291688408195833
sVlapses
p1857
F0.0
sVsecurity
p1858
F4.813187838066421e-05
sVoxia
p1859
F0.0
sVborn
p1860
F3.814361116131205e-05
sVantihypertensives
p1861
F0.0
sVconfusing
p1862
F7.62872223226241e-05
sVelmiron
p1863
F0.0
sVcomments
p1864
F0.0003110477517582208
sVasking
p1865
F0.00014439563514199265
sVimodium
p1866
F0.0
sVdenied
p1867
F3.814361116131205e-05
sVbeating
p1868
F3.814361116131205e-05
sVrhtdcvahy5k
p1869
F0.0
sVpeer
p1870
F3.814361116131205e-05
sVpost
p1871
F0.0003814361116131205
sVproperties
p1872
F9.626375676132842e-05
sVmonths
p1873
F0.0014680222906102583
sVanime
p1874
F0.0
sVhorizon
p1875
F6.220955035164415e-05
sVpays
p1876
F6.220955035164415e-05
sVbalanced
p1877
F4.813187838066421e-05
sVstrangely
p1878
F6.220955035164415e-05
sVfamiliarize
p1879
F0.0
sVadvair
p1880
F0.0
sVfight
p1881
F4.813187838066421e-05
sVclinical
p1882
F0.0
sVway
p1883
F0.00037981020094567304
sVwar
p1884
F0.00011443083348393617
sVlowest
p1885
F0.00018662865105493248
sVbecoming
p1886
F0.00011443083348393617
sVdesipramine
p1887
F0.0
sVneedles
p1888
F0.0
sVanaesthetic
p1889
F0.0
sVtrue
p1890
F0.00012669904773881952
sVreset
p1891
F6.220955035164415e-05
sVabsent
p1892
F2.4065939190332104e-05
sVmtx
p1893
F0.0
sVresponding
p1894
F0.00018662865105493248
sVreproductive
p1895
F0.0
sVmaximum
p1896
F0.0002488382014065766
sVfaking
p1897
F6.220955035164415e-05
sVemotional
p1898
F0.00018662865105493248
sVlatuda
p1899
F0.0
sVabstract
p1900
F0.0001244191007032883
sVmuscular
p1901
F0.0001525744446452482
sVevidence
p1902
F0.00026700527812918435
sVpromised
p1903
F6.220955035164415e-05
sVprayer
p1904
F0.0
sVphysical
p1905
F0.0
sVweaned
p1906
F0.0
sVreality
p1907
F0.0001244191007032883
sVinterested
p1908
F7.038835985489972e-05
sVtest
p1909
F0.00012032969595166052
sVupdate
p1910
F6.220955035164415e-05
sVinterval
p1911
F0.0
sVtogether
p1912
F0.0
sVsongs
p1913
F7.62872223226241e-05
sVswitched
p1914
F0.00045772333393574467
sVdance
p1915
F2.4065939190332104e-05
sVadhesions
p1916
F0.0
sVsupplement
p1917
F0.0
sVgrateful
p1918
F0.0
sVcertainly
p1919
F5.6310687883919776e-05
sVzone
p1920
F4.813187838066421e-05
sVhump
p1921
F0.0001244191007032883
sVflash
p1922
F3.814361116131205e-05
sVcompensate
p1923
F0.0
sVpermanently
p1924
F6.220955035164415e-05
sVrhythm
p1925
F0.0001244191007032883
sVprotective
p1926
F6.220955035164415e-05
sVbenzodiazepines
p1927
F0.0
sVvegan
p1928
F0.0001244191007032883
sVnitrate
p1929
F0.0
sVanonymous
p1930
F3.814361116131205e-05
sVtrouble
p1931
F1.2660340031522434e-05
sVblast
p1932
F7.62872223226241e-05
sVperceived
p1933
F6.220955035164415e-05
sVrespiratory
p1934
F0.0
sVprophylactic
p1935
F0.0
sVpresented
p1936
F3.814361116131205e-05
sValtering
p1937
F6.220955035164415e-05
sVturns
p1938
F5.6310687883919776e-05
sVp
p1939
F4.813187838066421e-05
sVgut
p1940
F0.00037325730210986495
sVguy
p1941
F9.626375676132842e-05
sVupper
p1942
F0.0001244191007032883
sVregret
p1943
F0.00011443083348393617
sVhtm
p1944
F0.0001244191007032883
sVdiscover
p1945
F3.814361116131205e-05
sVd
p1946
F0.0
sVcost
p1947
F0.00014439563514199265
sVpulmonologist
p1948
F0.0
sVupped
p1949
F0.0
sVmigraines
p1950
F0.0
sVappear
p1951
F7.62872223226241e-05
sValertness
p1952
F0.0
sVpeeled
p1953
F0.0
sVht7
p1954
F0.0
sVcoloring
p1955
F6.220955035164415e-05
sVfractious
p1956
F0.0
sVteacher
p1957
F6.220955035164415e-05
sVchange
p1958
F0.0002887912702839853
sVsending
p1959
F0.00011443083348393617
sVincoming
p1960
F0.0
sValeve
p1961
F0.0
sVekg
p1962
F0.0
sVvibrating
p1963
F3.814361116131205e-05
sVtrial
p1964
F0.0003051488892904964
sVwelbutrin
p1965
F0.0
sVusually
p1966
F0.0011070332027552769
sVdecouple
p1967
F0.0
sVhistory
p1968
F0.00019252751352265683
sVregardless
p1969
F0.0004976764028131532
sVhiking
p1970
F0.0
sVextra
p1971
F7.219781757099632e-05
sVjar
p1972
F2.4065939190332104e-05
sVsincerely
p1973
F0.0
sVmobic
p1974
F0.0
sVsufferers
p1975
F0.0
sVrarely
p1976
F0.0
sVmarket
p1977
F0.00019071805580656026
sVprove
p1978
F0.0
sVmasturbating
p1979
F6.220955035164415e-05
sVlive
p1980
F8.229221020489583e-05
sVtompamax
p1981
F0.0
sVclub
p1982
F0.0001244191007032883
sVclue
p1983
F0.00011443083348393617
sV20708057
p1984
F0.0
sVcar
p1985
F9.626375676132842e-05
sVibd
p1986
F0.0
sVcat
p1987
F0.00011443083348393617
sVlabeled
p1988
F6.220955035164415e-05
sVibs
p1989
F0.0
sVdollars
p1990
F6.220955035164415e-05
sVstimulating
p1991
F0.0
sVheart
p1992
F0.0004091209662356458
sVdedicated
p1993
F6.220955035164415e-05
sVcentenarians
p1994
F0.0
sVhears
p1995
F0.0
sVdecember
p1996
F0.0
sVchit
p1997
F0.0
sVpaused
p1998
F3.814361116131205e-05
sVheard
p1999
F0.00021116507956469918
sVabort
p2000
F6.220955035164415e-05
sVcapsules
p2001
F0.0
sVserum
p2002
F0.0
sVredundancy
p2003
F0.0
sVlistened
p2004
F0.0
sVfortunately
p2005
F0.0
sVspreads
p2006
F0.0
sVwrite
p2007
F7.038835985489972e-05
sVpregabaline
p2008
F0.0
sVnonstop
p2009
F0.00018662865105493248
sVdeteriorate
p2010
F0.0
sVproduct
p2011
F0.00011443083348393617
sVdiva
p2012
F0.0
sVosborne
p2013
F0.0
sVlifting
p2014
F7.62872223226241e-05
sVremember
p2015
F0.0001076128902679407
sVchiropractic
p2016
F0.0
sVwhenever
p2017
F7.62872223226241e-05
sVcandles
p2018
F3.814361116131205e-05
sVcrept
p2019
F0.0
sVidiosyncratic
p2020
F0.0
sVtypical
p2021
F0.00019071805580656026
sVapprox
p2022
F6.220955035164415e-05
sVendep
p2023
F0.0
sVindeed
p2024
F4.813187838066421e-05
sVconsulting
p2025
F0.0
sVbrain
p2026
F0.0010589013243746126
sVtablets
p2027
F0.0
sVcold
p2028
F0.0003128572094743174
sVelavils
p2029
F0.0
sVacknowledge
p2030
F0.0
sVreactine
p2031
F0.0
sVreacting
p2032
F0.0
sVmidazolam
p2033
F0.0
sVforms
p2034
F6.220955035164415e-05
sVwindow
p2035
F1.4077671970979944e-05
sVnon
p2036
F7.596204018913462e-05
sVusa
p2037
F6.220955035164415e-05
sVlightheadedness
p2038
F0.0
sVtransmissions
p2039
F0.0
sVadrenaline
p2040
F0.0
sVnox
p2041
F0.0
sVhalf
p2042
F0.00013293357033098557
sVrecap
p2043
F6.220955035164415e-05
sVdkmntl027
p2044
F0.0
sVdiscuss
p2045
F0.0003110477517582208
sVsusceptibility
p2046
F0.0
sVinversion
p2047
F0.0
sVthankful
p2048
F0.0
sVjanuary
p2049
F0.0
sVdrop
p2050
F0.00019252751352265683
sVconcerta
p2051
F0.0
sVentirely
p2052
F5.6310687883919776e-05
sVen
p2053
F0.0004958669450970567
sVsignificantly
p2054
F0.0
sVed
p2055
F7.62872223226241e-05
sVeg
p2056
F0.00018662865105493248
sVyeah
p2057
F0.000686585000903617
sVyear
p2058
F0.00025953697064620994
sVokay
p2059
F0.0005721541674196807
sVhappen
p2060
F0.00012669904773881952
sVep
p2061
F0.0
sVes
p2062
F6.220955035164415e-05
sVer
p2063
F0.00021659345271298895
sValbum
p2064
F0.0001244191007032883
sVshown
p2065
F9.626375676132842e-05
sVmedications
p2066
F0.0
sVopened
p2067
F1.4077671970979944e-05
sVspace
p2068
F0.00019071805580656026
sVirony
p2069
F3.814361116131205e-05
sVincrease
p2070
F0.000648441389742305
sVreceiving
p2071
F6.220955035164415e-05
sVviable
p2072
F0.0
sVshows
p2073
F2.5320680063044867e-05
sVcars
p2074
F3.814361116131205e-05
sVdiagnostic
p2075
F0.0
sVunwanted
p2076
F0.00018662865105493248
sVrls
p2077
F0.0
sVcare
p2078
F0.0009154466678714893
sVcycles
p2079
F0.0001244191007032883
sVcouldn
p2080
F0.00026747576744861896
sVdeprivation
p2081
F0.0
sVtransition
p2082
F3.814361116131205e-05
sVhonest
p2083
F9.626375676132842e-05
sVblind
p2084
F0.0001525744446452482
sVinitial
p2085
F9.626375676132842e-05
sVxd
p2086
F0.0
sVxx
p2087
F0.0
sVdirectly
p2088
F4.813187838066421e-05
sVxr
p2089
F0.0
sVimpossible
p2090
F0.0001525744446452482
sVmessage
p2091
F4.813187838066421e-05
sVtomorrow
p2092
F0.0001244191007032883
sVsize
p2093
F1.4077671970979944e-05
sVchecked
p2094
F7.62872223226241e-05
sVsilent
p2095
F7.62872223226241e-05
sVcaught
p2096
F2.4065939190332104e-05
sVremotely
p2097
F3.814361116131205e-05
sVchecker
p2098
F6.220955035164415e-05
sVmilage
p2099
F0.0
sVframe
p2100
F3.814361116131205e-05
sVfriend
p2101
F5.6971530141850965e-05
sVmostly
p2102
F0.0004091209662356458
sVsores
p2103
F6.220955035164415e-05
sVprescribers
p2104
F0.0
sVx2
p2105
F0.0
sVuracil
p2106
F0.0
sVeliminated
p2107
F0.0
sVappreciated
p2108
F7.62872223226241e-05
sVpng
p2109
F6.220955035164415e-05
sVprofessionals
p2110
F0.0
sVmagnesium
p2111
F0.0
sVphysiotherapist
p2112
F0.0
sVslap
p2113
F6.220955035164415e-05
sVovernight
p2114
F0.00018662865105493248
sVinpatient
p2115
F0.0
sVanger
p2116
F7.62872223226241e-05
sVabnormalities
p2117
F0.0
sVbreakfast
p2118
F3.814361116131205e-05
sVgentamycin
p2119
F0.0
sVgambapintine
p2120
F0.0
sVform
p2121
F0.00014077671970979944
sVantidepressent
p2122
F0.0
sVequipment
p2123
F0.0
sVonline
p2124
F0.00019071805580656026
sVobjective
p2125
F0.0
sVbutalbital
p2126
F0.0
sVbegin
p2127
F9.626375676132842e-05
sVprice
p2128
F7.219781757099632e-05
sVimportantly
p2129
F0.0
sVclusterfuck
p2130
F0.0
sVmhtt
p2131
F0.0
sVforever
p2132
F0.0001525744446452482
sVrenal
p2133
F0.0
sVtooth
p2134
F0.0002488382014065766
sVmri
p2135
F0.0
sVprofessional
p2136
F0.00011443083348393617
sVtypically
p2137
F0.0007465146042197299
sVamytryptyline
p2138
F0.0
sV120mg
p2139
F0.0
sVrealizing
p2140
F0.0
sVtitle
p2141
F3.814361116131205e-05
sValcoholism
p2142
F0.0002488382014065766
sVaderall
p2143
F0.0
sVffs
p2144
F0.0
sVroutine
p2145
F0.0003814361116131205
sVtruly
p2146
F7.62872223226241e-05
sVcannot
p2147
F0.0001548543916807794
sVrecommending
p2148
F0.0
sVseldom
p2149
F6.220955035164415e-05
sVerythromycin
p2150
F0.0
sVhusband
p2151
F0.0001525744446452482
sVconcers
p2152
F0.0
sVmedicated
p2153
F0.00018662865105493248
sVsucralose
p2154
F0.0
sVburst
p2155
F3.814361116131205e-05
sVphysically
p2156
F0.00018662865105493248
sVnamely
p2157
F0.0
sVasleep
p2158
F0.0003432925004518085
sVangina
p2159
F0.0
sVconcern
p2160
F0.0002488382014065766
sVstaffed
p2161
F0.0
sVtackling
p2162
F0.0
sV3
p2163
F0.001027670053881536
sVlandline
p2164
F6.220955035164415e-05
sV10mins
p2165
F0.0
sVherbal
p2166
F0.0003110477517582208
sVjustified
p2167
F0.0
sVcardiovascular
p2168
F0.0
sVlycan
p2169
F0.0
sVtherapies
p2170
F0.0
sVnotice
p2171
F7.038835985489972e-05
sVblame
p2172
F2.4065939190332104e-05
sVhurts
p2173
F0.00018662865105493248
sVarticle
p2174
F0.00016846157433232474
sVhurty
p2175
F0.0
sVndri
p2176
F0.0
sVaura
p2177
F0.0002488382014065766
sVsapolsky
p2178
F0.0
sVcomes
p2179
F0.00036098908785498157
sVnearby
p2180
F3.814361116131205e-05
sVoverview
p2181
F0.0
sVlearning
p2182
F0.00019071805580656026
sVstablon
p2183
F0.0
sV18mg
p2184
F0.0
sVepitalon
p2185
F0.0
sVinformed
p2186
F0.0002488382014065766
sVpulsatile
p2187
F0.0
sVdangers
p2188
F6.220955035164415e-05
sVexhaustion
p2189
F6.220955035164415e-05
sVdiscontinuing
p2190
F0.0
sVcystitis
p2191
F0.0
sVcommenting
p2192
F6.220955035164415e-05
sVfoggy
p2193
F0.0001244191007032883
sV1mg
p2194
F0.0
sVdeveloping
p2195
F6.220955035164415e-05
sValter
p2196
F0.0
sVtrick
p2197
F7.219781757099632e-05
sVnotoriety
p2198
F0.0
sVeditorial
p2199
F0.0
sValcoholic
p2200
F6.220955035164415e-05
sVmucus
p2201
F0.0
sVanxieties
p2202
F0.0
sVfloating
p2203
F3.814361116131205e-05
sVworry
p2204
F0.00012669904773881952
sVdevelop
p2205
F0.00026700527812918435
sVinquire
p2206
F6.220955035164415e-05
sVmedia
p2207
F3.814361116131205e-05
sVfiguring
p2208
F0.0001244191007032883
sVdocument
p2209
F7.62872223226241e-05
sVfinish
p2210
F4.813187838066421e-05
sV200mg
p2211
F0.0
sVanecdotal
p2212
F0.0
sVfunctionality
p2213
F6.220955035164415e-05
sVpassing
p2214
F1.2660340031522434e-05
sVmentally
p2215
F0.0001244191007032883
sVsevere
p2216
F0.0011443083348393614
sVcomplainer
p2217
F0.0
sV92o5yaigmqe
p2218
F0.0
sVcharged
p2219
F2.4065939190332104e-05
sVescitalopram
p2220
F0.0
sVvent
p2221
F0.0
sVgenerally
p2222
F0.00045725284461631
sVinflammatory
p2223
F0.0
sVounces
p2224
F0.0
sVtouch
p2225
F7.038835985489972e-05
sVujtbtiszjem
p2226
F0.0
sVdeath
p2227
F0.00036098908785498157
sVangiotensin
p2228
F0.0
sVthinking
p2229
F0.00036098908785498157
sVsenseless
p2230
F6.220955035164415e-05
sViphones
p2231
F0.0
sVimprovement
p2232
F0.0003051488892904964
sVtreatment
p2233
F0.0032971061686371404
sVmomentum
p2234
F6.220955035164415e-05
sVami
p2235
F0.0
sVgastroenterologist
p2236
F0.0
sVohai
p2237
F0.0
sVread
p2238
F0.00029563111139057887
sVdiscontinue
p2239
F0.0
sVgonna
p2240
F7.219781757099632e-05
sVbuspirone
p2241
F0.0
sVlistening
p2242
F0.0001525744446452482
sVusing
p2243
F0.00029563111139057887
sVrebecca
p2244
F0.0
sVruled
p2245
F0.00018662865105493248
sVtegretol
p2246
F0.0
sVheightened
p2247
F0.0
sVpounds
p2248
F0.0001525744446452482
sVmiracle
p2249
F0.0
sVphysiotherapy
p2250
F0.0
sVoccasions
p2251
F0.0
sVoutput
p2252
F6.220955035164415e-05
sVeddie
p2253
F0.0
sVduration
p2254
F0.0
sVnonzero
p2255
F0.0
sVrecorded
p2256
F0.0
sVhepatitis
p2257
F6.220955035164415e-05
sVconservative
p2258
F3.814361116131205e-05
sVbiest
p2259
F0.0
sVtoxnet
p2260
F0.0
sV4960
p2261
F0.0
sVovulation
p2262
F0.0
sVasap
p2263
F0.0
sVsixty
p2264
F0.0
sVsadder
p2265
F0.0
sVthrow
p2266
F0.00011443083348393617
sVvasodilator
p2267
F0.0
sVcomparison
p2268
F3.814361116131205e-05
sVcentral
p2269
F0.0
sVanticonvulsants
p2270
F0.0
sVsri
p2271
F0.0
sVbenzos
p2272
F0.0
sVgreatly
p2273
F6.220955035164415e-05
sVunderway
p2274
F6.220955035164415e-05
sVbackup
p2275
F6.220955035164415e-05
sVflashbacks
p2276
F0.0
sVoutlook
p2277
F3.814361116131205e-05
sVclenazopam
p2278
F0.0
sVcyclophosphamide
p2279
F0.0
sVbedtime
p2280
F0.0
sVheated
p2281
F6.220955035164415e-05
sVsoundscape
p2282
F0.0
sVintervention
p2283
F6.220955035164415e-05
sVprazosin
p2284
F0.0
sVlog
p2285
F0.0002488382014065766
sVarea
p2286
F7.596204018913462e-05
sVaren
p2287
F0.0001076128902679407
sVqualifying
p2288
F0.0
sVlol
p2289
F0.00043546685246150906
sVstart
p2290
F0.0003660194712454786
sVcats
p2291
F6.220955035164415e-05
sVlow
p2292
F0.0007883496303748769
sVlot
p2293
F0.0
sVhubimg
p2294
F0.0
sVallergic
p2295
F0.00018662865105493248
sVdelayed
p2296
F4.813187838066421e-05
sVlymph
p2297
F0.0
sVtrying
p2298
F0.0005208738629262579
sVcirculation
p2299
F0.0
sVstanford
p2300
F0.0
sVdefault
p2301
F6.220955035164415e-05
sVbucket
p2302
F0.0
sVaneurysm
p2303
F0.0
sVtrigeminal
p2304
F0.0
sVillnesses
p2305
F0.0
sVv33
p2306
F0.0
sV600
p2307
F3.814361116131205e-05
sVdescribe
p2308
F0.00011443083348393617
sVmoved
p2309
F0.00021659345271298895
sVscanned
p2310
F0.0
sVtriptans
p2311
F0.0
sVmoves
p2312
F2.4065939190332104e-05
sVhospitals
p2313
F0.0
sVbackstroke
p2314
F0.0
sV19344297
p2315
F0.0
sVwu4nqcpv9yc
p2316
F0.0
sVevenings
p2317
F6.220955035164415e-05
sVforcing
p2318
F6.220955035164415e-05
sVgaining
p2319
F0.00018662865105493248
sVdrift
p2320
F0.0
sVsuited
p2321
F6.220955035164415e-05
sVtendencies
p2322
F0.0
sVtitration
p2323
F0.0
sVskeleton
p2324
F2.4065939190332104e-05
sVpointing
p2325
F2.4065939190332104e-05
sVhydrobromide
p2326
F0.0
sVmonth
p2327
F0.0005349515348972379
sVnitroglycerin
p2328
F0.0
sVgyns
p2329
F0.0
sVspain
p2330
F0.0
sVsustain
p2331
F0.0
sVnodes
p2332
F0.0
sVmpd
p2333
F0.0
sVapoptosis
p2334
F0.0
sVhypotension
p2335
F0.0
sVbalancing
p2336
F3.814361116131205e-05
sVmps
p2337
F0.0
sVdecide
p2338
F0.00019071805580656026
sVcandida
p2339
F0.0
sVheaven
p2340
F3.814361116131205e-05
sVsedation
p2341
F0.0
sVthrobbing
p2342
F0.00018662865105493248
sVstreets
p2343
F6.220955035164415e-05
sVorgasm
p2344
F0.0003110477517582208
sVtoilet
p2345
F0.0001244191007032883
sVconsumers
p2346
F0.0
sVemotions
p2347
F6.220955035164415e-05
sVlearned
p2348
F0.0005598859531647974
sVloose
p2349
F2.4065939190332104e-05
sVmodify
p2350
F6.220955035164415e-05
sVanswers
p2351
F0.00022886166696787233
sVselective
p2352
F0.0
sVstrong
p2353
F0.0003369231486646495
sVcolored
p2354
F0.0
sVahead
p2355
F4.813187838066421e-05
sVhypochondria
p2356
F0.0
sVmdma
p2357
F0.0
sVvasodilation
p2358
F0.0
sVexperimenting
p2359
F0.0
sVcreepy
p2360
F6.220955035164415e-05
sVamount
p2361
F0.00026472533109365314
sVbase
p2362
F1.4077671970979944e-05
sVmusically
p2363
F0.0
sVfamily
p2364
F0.00036098908785498157
sVrequiring
p2365
F6.220955035164415e-05
sVcosmetic
p2366
F6.220955035164415e-05
sVvirgins
p2367
F6.220955035164415e-05
sVchunky
p2368
F6.220955035164415e-05
sVtrained
p2369
F0.0001244191007032883
sVchunks
p2370
F0.0
sVeldepryl
p2371
F0.0
sVkittin
p2372
F0.0
sVtakes
p2373
F0.00026747576744861896
sVdpdr
p2374
F0.0
sVcontains
p2375
F3.814361116131205e-05
sVtaken
p2376
F0.0001772447604413141
sVinjury
p2377
F0.00043546685246150906
sVyuck
p2378
F0.0
sVoutpatient
p2379
F0.0
sVsurprisingly
p2380
F6.220955035164415e-05
sVexcuse
p2381
F2.4065939190332104e-05
sVbroke
p2382
F9.626375676132842e-05
sVhurry
p2383
F1.4077671970979944e-05
sVweighed
p2384
F0.0
sVnine
p2385
F1.4077671970979944e-05
sVretroorbital
p2386
F0.0
sVmirtazapine
p2387
F0.0
sVpushes
p2388
F3.814361116131205e-05
sVpushed
p2389
F7.219781757099632e-05
sVexclude
p2390
F6.220955035164415e-05
sVlacks
p2391
F3.814361116131205e-05
sVspecies
p2392
F0.0
sVstayed
p2393
F4.813187838066421e-05
sVreject
p2394
F6.220955035164415e-05
sViproniazid
p2395
F0.0
sVft
p2396
F0.0001244191007032883
sVreuptake
p2397
F0.0
sVherbals
p2398
F0.0
sVtries
p2399
F2.4065939190332104e-05
sVfi
p2400
F6.220955035164415e-05
sVmorphine
p2401
F0.0002488382014065766
sVenzymes
p2402
F0.0
sVbugs
p2403
F7.62872223226241e-05
sVanytime
p2404
F0.0002488382014065766
sVnegligible
p2405
F0.0
sVdream
p2406
F7.62872223226241e-05
sVhelp
p2407
F0.0007469600618598238
sVslouch
p2408
F0.0
sVurine
p2409
F6.220955035164415e-05
sVsoon
p2410
F0.00011394306028370193
sVmucosa
p2411
F0.0
sVhell
p2412
F0.00024065939190332105
sVlisinopril
p2413
F0.0
sVoverhead
p2414
F3.814361116131205e-05
sVfined
p2415
F0.0
sVactually
p2416
F0.00022155595055164262
sVsystems
p2417
F6.220955035164415e-05
sVevening
p2418
F0.0003432925004518085
sVmotivated
p2419
F6.220955035164415e-05
sVfood
p2420
F0.00012669904773881952
sVaphasia
p2421
F0.0
sVdosulepin
p2422
F0.0
sVfoot
p2423
F4.813187838066421e-05
sVninja
p2424
F6.220955035164415e-05
sVifs
p2425
F6.220955035164415e-05
sVfully
p2426
F4.223301591293984e-05
sVintervene
p2427
F0.0
sVstopped
p2428
F0.0005775825405679706
sVreferred
p2429
F0.0
sVheavy
p2430
F4.223301591293984e-05
sVrestless
p2431
F0.0
sVmentioned_videos
p2432
F0.0
sVwacky
p2433
F0.0
sVcircadian
p2434
F0.0
sVtodd
p2435
F0.0
sVbeyond
p2436
F1.8990510047283654e-05
sVevent
p2437
F7.219781757099632e-05
sVleave
p2438
F0.00011262137576783955
sVtryciclic
p2439
F0.0
sVamaryl
p2440
F0.0
sVsince
p2441
F0.0003924705409771955
sVtemporary
p2442
F0.00018662865105493248
sVlaproscopy
p2443
F0.0
sVsafety
p2444
F0.0001525744446452482
sV7
p2445
F0.00014077671970979944
sVissue
p2446
F0.0006016484797583026
sVass
p2447
F0.0001525744446452482
sVlibrium
p2448
F0.0
sVtimeline
p2449
F0.0
sVribose
p2450
F0.0
sVpreventatives
p2451
F0.0
sVreason
p2452
F0.00019708740759371923
sVheroin
p2453
F6.220955035164415e-05
sVasd
p2454
F0.0
sVput
p2455
F0.00026586714066197115
sVsauna
p2456
F0.0
sVutilization
p2457
F6.220955035164415e-05
sVterrible
p2458
F0.0003369231486646495
sVterribly
p2459
F3.814361116131205e-05
sVamerican
p2460
F0.0
sVknots
p2461
F6.220955035164415e-05
sVprobability
p2462
F0.0
sVknocking
p2463
F6.220955035164415e-05
sVdysthymic
p2464
F0.0
sVisnot
p2465
F0.0
sVmiss
p2466
F5.6971530141850965e-05
sVpropranolol
p2467
F0.0
sVfindings
p2468
F0.0
sVwonderful
p2469
F7.219781757099632e-05
sVlevothyroxine
p2470
F0.0
sVselling
p2471
F0.00018662865105493248
sVbowel
p2472
F0.0
sVsignaling
p2473
F0.00018662865105493248
sVinventing
p2474
F6.220955035164415e-05
sValbums
p2475
F0.0
sVstd
p2476
F6.220955035164415e-05
sVgrocery
p2477
F0.0001244191007032883
sVsti
p2478
F0.0
sVazithromycin
p2479
F0.0
sVnewborns
p2480
F0.0
sVprocedural
p2481
F0.0
sVphobic
p2482
F0.0
sValongside
p2483
F7.62872223226241e-05
sVrandomly
p2484
F0.00018662865105493248
sVultram
p2485
F0.0
sVsentences
p2486
F6.220955035164415e-05
sVpharmacokinetics
p2487
F0.0
sVconcentration
p2488
F7.62872223226241e-05
sVoption
p2489
F0.0007465146042197299
sVlie
p2490
F2.4065939190332104e-05
sVlin
p2491
F0.0
sVfowlkes
p2492
F0.0
sVuseless
p2493
F6.220955035164415e-05
sVbreaststroke
p2494
F0.0
sVtowards
p2495
F1.8990510047283654e-05
sVexperiences
p2496
F7.62872223226241e-05
sVeaten
p2497
F3.814361116131205e-05
sVwatt
p2498
F0.0
sValpha
p2499
F0.0001244191007032883
sVapproved
p2500
F0.0
sVmobile
p2501
F6.220955035164415e-05
sVclear
p2502
F2.5320680063044867e-05
sVclean
p2503
F2.5320680063044867e-05
sVstalked
p2504
F0.0
sVstalker
p2505
F0.0001244191007032883
sVglycinate
p2506
F0.0
sVdistressing
p2507
F0.0
sVreoccurring
p2508
F0.0
sVless
p2509
F0.00025953697064620994
sVparanoia
p2510
F0.0
sVpretty
p2511
F0.0009385716284229522
sVrelieves
p2512
F0.0
sVfamous
p2513
F3.814361116131205e-05
sVfeels
p2514
F0.0005340105562583687
sVworkouts
p2515
F0.0
sVoxy
p2516
F0.0
sVhypo
p2517
F0.0
sVwithdrawal
p2518
F0.0
sVx
p2519
F0.00043546685246150906
sVtriptan
p2520
F0.0
sVthrowing
p2521
F9.626375676132842e-05
sVschizophrenia
p2522
F0.0001244191007032883
sVrtms
p2523
F0.0
sVclose
p2524
F0.00014439563514199265
sVmkeigykw
p2525
F0.0
sVwow
p2526
F0.00018662865105493248
sVwon
p2527
F8.229221020489583e-05
sVprobably
p2528
F0.0006757282546070374
sVconditions
p2529
F0.0007465146042197299
sVanticholinergic
p2530
F0.0
sVstatistically
p2531
F0.0
sVmissing
p2532
F7.038835985489972e-05
sVpoorer
p2533
F0.0
sVinvisible
p2534
F3.814361116131205e-05
sVfiance
p2535
F0.0
sVsensitive
p2536
F1.4077671970979944e-05
sVanticonvulants
p2537
F0.0
sVbuzz
p2538
F3.814361116131205e-05
sVhistamine
p2539
F0.0
sVexperimental
p2540
F0.0
sVliked
p2541
F3.814361116131205e-05
sVtofranil
p2542
F0.0
sVwhatever
p2543
F0.00014077671970979944
sV100mg
p2544
F0.0
sValone
p2545
F0.00012032969595166052
sVlikes
p2546
F2.4065939190332104e-05
sVvessel
p2547
F0.0001244191007032883
sVdescribed
p2548
F0.00026700527812918435
sVseretonin
p2549
F0.0
sVdescribes
p2550
F6.220955035164415e-05
sVdamn
p2551
F0.00037325730210986495
sVmaintenance
p2552
F0.0
sVmetronidazole
p2553
F0.0
sVinstructing
p2554
F0.0
sVempty
p2555
F6.330170015761217e-06
sValto
p2556
F0.0
sVgenerating
p2557
F3.814361116131205e-05
sVlived
p2558
F7.62872223226241e-05
sVpartly
p2559
F3.814361116131205e-05
sVelse
p2560
F0.00020256544050435894
sVlives
p2561
F0.00012032969595166052
sVliver
p2562
F0.0003432925004518085
sVintriguing
p2563
F6.220955035164415e-05
sVreferrals
p2564
F0.0
sVlook
p2565
F0.0001772447604413141
sVjuice
p2566
F0.00011443083348393617
sVpace
p2567
F0.0
sVguide
p2568
F6.220955035164415e-05
sVcostly
p2569
F0.0
sVoverlooked
p2570
F0.0
sVjpg
p2571
F7.62872223226241e-05
sVskype
p2572
F0.0
sVready
p2573
F3.798102009456731e-05
sVhydromorphone
p2574
F0.0
sVbaseline
p2575
F0.00018662865105493248
sVanymore
p2576
F0.0003128572094743174
sVmodification
p2577
F0.0
sVconflict
p2578
F0.0002488382014065766
sVreleif
p2579
F0.0
sVused
p2580
F0.0011966021175332953
sVlawyers
p2581
F6.220955035164415e-05
sVbonus
p2582
F0.00018662865105493248
sV5aiw
p2583
F0.0
sVuses
p2584
F7.219781757099632e-05
sVuser
p2585
F3.814361116131205e-05
sV005
p2586
F0.0
sVbrussels
p2587
F0.0
sVolder
p2588
F0.0001548543916807794
sVmemantine
p2589
F0.0
sVobviously
p2590
F0.00014439563514199265
sV20mg
p2591
F0.0
sVchore
p2592
F0.0
sVsorenson
p2593
F0.0
sVscotland
p2594
F0.0
sVdesk
p2595
F3.814361116131205e-05
sVquarters
p2596
F6.220955035164415e-05
sVpraying
p2597
F6.220955035164415e-05
sVfiancee
p2598
F0.0
sVguaranteed
p2599
F0.0
sVexercising
p2600
F0.0
sVsedated
p2601
F0.0
sVsprintec
p2602
F0.0
sVguarantees
p2603
F0.0
sVremaining
p2604
F3.814361116131205e-05
sVnaproxen
p2605
F0.0
sVradiator
p2606
F0.0
sVevaluate
p2607
F0.0
sVshowing
p2608
F5.6310687883919776e-05
sVgame
p2609
F2.8155343941959888e-05
sVwiser
p2610
F0.0
sVantidepresant
p2611
F0.0
sV36hrs
p2612
F0.0
sVoutright
p2613
F0.0
sVsubmission
p2614
F6.220955035164415e-05
sVinterestingly
p2615
F0.0001244191007032883
sVcandidemia
p2616
F0.0
sVtranslates
p2617
F0.0
sVpopular
p2618
F0.00018662865105493248
sVsoma
p2619
F0.0
sVurgent
p2620
F0.0
sVexperienced
p2621
F0.0003110477517582208
sV28th
p2622
F0.0
sVcefalexin
p2623
F0.0
sVbruising
p2624
F0.0
sVdescribing
p2625
F6.220955035164415e-05
sVpounding
p2626
F6.220955035164415e-05
sVminimal
p2627
F0.0
sVcgi
p2628
F6.220955035164415e-05
sVeating
p2629
F0.0001525744446452482
sVachy
p2630
F0.0
sVrub
p2631
F6.220955035164415e-05
sVreoccur
p2632
F0.0
sVstep
p2633
F0.00014077671970979944
sVnegatives
p2634
F0.0
sVlasts
p2635
F7.62872223226241e-05
sVbecome
p2636
F3.165085007880609e-05
sVache
p2637
F0.0
sVtaboo
p2638
F0.0
sVrockstead
p2639
F0.0
sVidk
p2640
F0.0
sVaftercare
p2641
F0.0
sVclassics
p2642
F0.0
sVblock
p2643
F0.00022886166696787233
sVantihistaminic
p2644
F0.0
sVseeing
p2645
F0.00038505502704531367
sVdude
p2646
F0.00018662865105493248
sV70
p2647
F2.4065939190332104e-05
sVnonsense
p2648
F0.0
sVsmells
p2649
F3.814361116131205e-05
sVconnexus
p2650
F0.0
sVplacing
p2651
F6.220955035164415e-05
sVaccountability
p2652
F0.0
sVconsultation
p2653
F0.0
sVpsychoactive
p2654
F0.0
sVproperly
p2655
F4.223301591293984e-05
sValive
p2656
F1.4077671970979944e-05
sVnewer
p2657
F0.0002488382014065766
sVpwn
p2658
F0.0
sVinjection
p2659
F0.0
sVsharpen
p2660
F0.0
sV1046
p2661
F0.0
sVinfo
p2662
F0.00043546685246150906
sVthru
p2663
F6.220955035164415e-05
sVchiropractor
p2664
F6.220955035164415e-05
sVcircuits
p2665
F0.0
sVstumbling
p2666
F0.0
sVuti
p2667
F0.0
sVpsychosis
p2668
F0.0
sVsimilar
p2669
F0.00032378645533253877
sVtricyclic
p2670
F0.0
sVestrogen
p2671
F0.0002488382014065766
sVmindful
p2672
F0.0
sVinterventions
p2673
F0.0
sVdoesn
p2674
F0.00036714986091415067
sVpvrmltqimhu
p2675
F0.0
sVkidney
p2676
F0.0001244191007032883
sVnac
p2677
F0.0
sVinsomniac
p2678
F0.0
sVamounts
p2679
F7.62872223226241e-05
sVnah
p2680
F6.220955035164415e-05
sVfears
p2681
F0.0
sVapplication
p2682
F3.814361116131205e-05
sVelectrical
p2683
F0.0001244191007032883
sVinsomnias
p2684
F0.0
sVdepartment
p2685
F0.0001244191007032883
sVhydrated
p2686
F0.0
sVtecta
p2687
F0.0
sVsmiley
p2688
F0.0
sVvisits
p2689
F0.0
sVrested
p2690
F0.0
sVsmiled
p2691
F0.0
sVla_1119621_667x333
p2692
F0.0
sVstructure
p2693
F6.220955035164415e-05
sVindependently
p2694
F0.0
sVe
p2695
F8.229221020489583e-05
sVpractically
p2696
F6.220955035164415e-05
sVcomplicating
p2697
F0.0
sVsedative
p2698
F0.0
sVyoutube
p2699
F0.0
sVpamphlets
p2700
F0.0
sVdepth
p2701
F2.4065939190332104e-05
sVrequires
p2702
F6.220955035164415e-05
sVsounded
p2703
F0.0
sVnoritriptyline
p2704
F0.0
sVgp
p2705
F0.0
sVproduce
p2706
F7.62872223226241e-05
sVhypothyroidism
p2707
F0.0
sVgo
p2708
F0.0
sVpsycho
p2709
F6.220955035164415e-05
sVgi
p2710
F0.0
sVexpelling
p2711
F0.0
sVselegiline
p2712
F0.0
sVtmg
p2713
F0.0
sVfacebook
p2714
F0.0
sVtelling
p2715
F4.223301591293984e-05
sVnausea
p2716
F0.0
sVexcruciating
p2717
F0.0
sVstiff
p2718
F0.0001244191007032883
sVpositions
p2719
F2.4065939190332104e-05
sVbutton
p2720
F3.814361116131205e-05
sVmichael
p2721
F0.0
sVcatastrophes
p2722
F0.0
sVpretend
p2723
F6.220955035164415e-05
sVwaking
p2724
F0.0003814361116131205
sVjump
p2725
F4.813187838066421e-05
sVbeliever
p2726
F0.0
sVzz
p2727
F6.220955035164415e-05
sVintraocular
p2728
F0.0
sVnotwithstanding
p2729
F6.220955035164415e-05
sVcomprehend
p2730
F0.0
sVquetzalcotl
p2731
F0.0
sVclick
p2732
F2.4065939190332104e-05
sVplays
p2733
F4.813187838066421e-05
sVcell
p2734
F4.813187838066421e-05
sValprazolam
p2735
F0.0
sVpediatrics
p2736
F0.0
sVprescribe
p2737
F0.0010575623559779506
sVbelieved
p2738
F0.0
sVfocused
p2739
F0.00011443083348393617
sVzopiclone
p2740
F0.0
sVwithdrawing
p2741
F0.0
sV25505248
p2742
F0.0
sVproducts
p2743
F0.00019071805580656026
sVgene
p2744
F6.220955035164415e-05
sVexamining
p2745
F0.0
sVflexeril
p2746
F0.0
sVstabilization
p2747
F0.0
sVdanger
p2748
F1.4077671970979944e-05
sVwin
p2749
F7.219781757099632e-05
sVmanage
p2750
F0.0003369231486646495
sVapprehensive
p2751
F0.0
sVaddressed
p2752
F0.0
sVe827
p2753
F0.0
sVgimmick
p2754
F0.0
sVsinging
p2755
F2.4065939190332104e-05
sValbuterol
p2756
F0.0
sVtcas
p2757
F0.0
sVcrap
p2758
F0.00011443083348393617
sVperiodically
p2759
F3.814361116131205e-05
sVcamera
p2760
F7.62872223226241e-05
sVvehicle
p2761
F6.220955035164415e-05
sVmeans
p2762
F0.0004195797227744326
sVhydro
p2763
F0.0
sVpopped
p2764
F6.220955035164415e-05
sVdentists
p2765
F0.0
sVstarted
p2766
F0.000760194286432917
sVbecomes
p2767
F4.813187838066421e-05
sVvisibility
p2768
F6.220955035164415e-05
sVconfused
p2769
F7.62872223226241e-05
sVweened
p2770
F0.0
sVmanneken
p2771
F0.0
sVinattentive
p2772
F6.220955035164415e-05
sVmythical
p2773
F0.0
sVzyrtec
p2774
F0.0
sV6am
p2775
F0.0
sVcrossed
p2776
F0.00011443083348393617
sVamitrp
p2777
F0.0
sVinhibitor
p2778
F0.0
sVcontrol
p2779
F0.0010298775013554255
sVkenny
p2780
F0.0
sVspeciality
p2781
F0.0
sVproviders
p2782
F0.0001244191007032883
sVdefective
p2783
F0.0
sVredditors
p2784
F0.0
sVlocated
p2785
F7.62872223226241e-05
sVdigoxin
p2786
F0.0
sVelliptical
p2787
F0.0
sVnaltraxone
p2788
F0.0
sVfatigue
p2789
F0.0
sVintroduced
p2790
F7.62872223226241e-05
sVc7bispulop0
p2791
F0.0
sVhealthcare
p2792
F0.0
sVsoftware
p2793
F7.62872223226241e-05
sVfastest
p2794
F6.220955035164415e-05
sVserotonergic
p2795
F0.0
sVincluding
p2796
F0.00021659345271298895
sVgiom
p2797
F0.0
sVconverting
p2798
F0.0
sVexclusion
p2799
F0.0
sVtemporal
p2800
F0.0
sVimbalance
p2801
F0.0
sVpixel
p2802
F0.0001244191007032883
sVsword
p2803
F7.219781757099632e-05
sVauto
p2804
F0.0003110477517582208
sVsweets
p2805
F0.0001244191007032883
sVsteriod
p2806
F0.0
sVhands
p2807
F0.0001525744446452482
sVfront
p2808
F7.038835985489972e-05
sVdocumented
p2809
F0.0
sVpiriton
p2810
F0.0
sVmods
p2811
F0.0
sVuniversity
p2812
F0.00018662865105493248
sVslide
p2813
F3.814361116131205e-05
sVdeplete
p2814
F0.0
sVshaking
p2815
F0.0001244191007032883
sVthryroid
p2816
F0.0
sVixzz3pytia1zj
p2817
F0.0
sVinverted
p2818
F0.0
sVaggravated
p2819
F0.0
sV3ni1nd
p2820
F0.0
sVcorticosteroids
p2821
F0.0
sVstimulants
p2822
F0.0
sVspecial
p2823
F1.2660340031522434e-05
sVsecretly
p2824
F6.220955035164415e-05
sVhorizonal
p2825
F0.0
sVcause
p2826
F0.00033549901083534457
sVecg
p2827
F0.0
sVcompletely
p2828
F0.0002252427515356791
sVect
p2829
F0.0
sVintruder
p2830
F0.0
sVdrowning
p2831
F0.0
sVtimey
p2832
F0.0
sVroute
p2833
F7.219781757099632e-05
sVask
p2834
F0.00013926374034674678
sVkeep
p2835
F0.00016458442040979165
sVswapped
p2836
F6.220955035164415e-05
sVpowerful
p2837
F0.0003110477517582208
sVrandomized
p2838
F0.0
sVbitch
p2839
F0.0002488382014065766
sVdrinker
p2840
F6.220955035164415e-05
sVquality
p2841
F0.00019252751352265683
sVplaylist
p2842
F0.0001244191007032883
sVmanagement
p2843
F0.0006843050538680856
sVclomipramine
p2844
F0.0
sVattack
p2845
F0.00019708740759371923
sVneurotransmitter
p2846
F0.0
sVperfectly
p2847
F2.4065939190332104e-05
sVprone
p2848
F0.0
sVexactly
p2849
F0.0001830097356227393
sVlists
p2850
F0.0001244191007032883
sVchemicals
p2851
F0.0
sVmanipulation
p2852
F0.0002488382014065766
sVfuzzy
p2853
F0.0
sVoverwhelming
p2854
F0.0
sVmorbidity
p2855
F0.0
sVneck
p2856
F0.0004195797227744326
sVbloat
p2857
F6.220955035164415e-05
sVbed
p2858
F0.0010680211125167374
sVprobiotics
p2859
F0.0
sVlactmed
p2860
F0.0
sVinjecting
p2861
F0.0
sVreferral
p2862
F0.0
sVkitties
p2863
F0.0
sVexhibit
p2864
F6.220955035164415e-05
sVsweeteners
p2865
F0.0
sVgoodie
p2866
F0.0
sVneed
p2867
F0.00044311190110328524
sVmainstays
p2868
F0.0
sVable
p2869
F0.00040825248715841843
sVinstance
p2870
F0.00012032969595166052
sValdosterone
p2871
F0.0
sVmileage
p2872
F0.0
sVnytimes
p2873
F0.0
sVarrousals
p2874
F0.0
sVhalos
p2875
F0.0
sVacupuncturist
p2876
F0.0
sVzombification
p2877
F0.0
sVexpired
p2878
F7.62872223226241e-05
sVwolves
p2879
F0.0
sVnortripyline
p2880
F0.0
sVconsequences
p2881
F0.0001244191007032883
sVupset
p2882
F6.220955035164415e-05
sVimpression
p2883
F6.220955035164415e-05
sVanyway
p2884
F0.0002887912702839853
sVngf
p2885
F0.0
sVbased
p2886
F0.0002887912702839853
sVhadn
p2887
F4.813187838066421e-05
sVhopeful
p2888
F0.0
sVreceptors
p2889
F0.0013064005573845273
sVreactive
p2890
F0.0
sVplatelet
p2891
F0.0
sVcvohyev
p2892
F0.0
sVfuel
p2893
F0.0
sVsulfur
p2894
F6.220955035164415e-05
sVachieve
p2895
F0.00018662865105493248
sVdoubting
p2896
F0.0
sVslows
p2897
F6.220955035164415e-05
sVoverall
p2898
F0.00043546685246150906
sV120
p2899
F0.0
sVtbh
p2900
F0.0
sV123
p2901
F0.0
sVrelaxants
p2902
F0.0
sVjoins
p2903
F0.0
sV129
p2904
F0.0
sVscrolling
p2905
F6.220955035164415e-05
sVtecas
p2906
F0.0
sVcourse
p2907
F0.0002252427515356791
sVcatastrophize
p2908
F0.0
sVchained
p2909
F0.00018662865105493248
sVughh
p2910
F0.0
sVwish
p2911
F0.0004331869054259779
sVgrad
p2912
F0.00018662865105493248
sVapproriate
p2913
F0.0
sVcomputer
p2914
F0.00022886166696787233
sVpowder
p2915
F7.62872223226241e-05
sVdesperate
p2916
F0.0001244191007032883
sVempathise
p2917
F0.0
sVjoys
p2918
F0.0
sVnightmare
p2919
F9.626375676132842e-05
sVhorribly
p2920
F0.0
sVtend
p2921
F0.0007465146042197299
sVwritten
p2922
F0.00011443083348393617
sVcorrectly
p2923
F4.813187838066421e-05
sVhorrible
p2924
F0.000686585000903617
sVneither
p2925
F7.62872223226241e-05
sVkidneys
p2926
F6.220955035164415e-05
sVcomparable
p2927
F0.0
sVattention
p2928
F1.4077671970979944e-05
sVtantra
p2929
F0.0
sVkicking
p2930
F6.220955035164415e-05
sVkey
p2931
F0.00019252751352265683
sVpolice
p2932
F3.814361116131205e-05
sVsymbicort
p2933
F0.0
sVcareer
p2934
F3.814361116131205e-05
sVminutes
p2935
F0.00025339809547763903
sVantisocial
p2936
F0.0
sVpresentations
p2937
F0.0
sVsyed
p2938
F0.0
sVstrains
p2939
F0.0
sVmanifestations
p2940
F0.0
sVvaccines
p2941
F0.0
sVdecreases
p2942
F0.0
sVerased
p2943
F3.814361116131205e-05
sVquit
p2944
F0.00026700527812918435
sVyay
p2945
F0.0
sVaddition
p2946
F0.0006843050538680856
sVslowly
p2947
F0.00019252751352265683
sVtreat
p2948
F0.0009867035068036165
sVsars
p2949
F0.0
sVshoulders
p2950
F0.0
sVcontrolled
p2951
F0.0003110477517582208
sVotc
p2952
F0.0
sVcontroller
p2953
F0.0
sVkicks
p2954
F6.220955035164415e-05
sVsmoking
p2955
F0.0001525744446452482
sVmain
p2956
F5.0641360126089734e-05
sVkava
p2957
F0.0
sVasexual
p2958
F0.0001244191007032883
sVharder
p2959
F0.00019071805580656026
sVcrappiness
p2960
F0.0
sVcrohns
p2961
F0.0
sVdiscontinuation
p2962
F0.0
sVexaminer
p2963
F0.0
sVdemo
p2964
F6.220955035164415e-05
sVneuron
p2965
F0.0
sVexamined
p2966
F0.0
sVbucks
p2967
F6.220955035164415e-05
sVshooting
p2968
F0.0001244191007032883
sVgeneric
p2969
F0.0002488382014065766
sVballoon
p2970
F6.220955035164415e-05
sVmatches
p2971
F2.4065939190332104e-05
sVparts
p2972
F0.00012032969595166052
sVparty
p2973
F0.0003051488892904964
sVabsorb
p2974
F6.220955035164415e-05
sVforgotten
p2975
F7.62872223226241e-05
sVeffect
p2976
F0.00022788612056740386
sVrenin
p2977
F0.0
sVnightly
p2978
F6.220955035164415e-05
sVfierce
p2979
F0.0
sVfrequently
p2980
F0.00043546685246150906
sVdestruction
p2981
F0.0
sVtransaction
p2982
F3.814361116131205e-05
sVneuropathy
p2983
F0.0
sVawakenings
p2984
F0.0
sVwell
p2985
F0.0
sVwelp
p2986
F0.0
sVsibo
p2987
F0.0
sVinebriated
p2988
F6.220955035164415e-05
sVdesyrel
p2989
F0.0
sVaccurate
p2990
F6.220955035164415e-05
sVdose
p2991
F0.00553664998129633
sVsources
p2992
F0.00018662865105493248
sVmistakes
p2993
F0.0001244191007032883
sVlauren
p2994
F0.0
sVcoordination
p2995
F0.0
sVspells
p2996
F7.62872223226241e-05
sVdensity
p2997
F3.814361116131205e-05
sVheaded
p2998
F2.4065939190332104e-05
sVlogged
p2999
F6.220955035164415e-05
sVbullshit
p3000
F6.220955035164415e-05
sVnarcolepsy
p3001
F0.0002488382014065766
sVkick
p3002
F0.00014439563514199265
sVsandrino
p3003
F0.0
sVimmediately
p3004
F7.219781757099632e-05
sVprominent
p3005
F6.220955035164415e-05
sVloss
p3006
F0.00022886166696787233
sVnecessary
p3007
F0.00012669904773881952
sVcortef
p3008
F0.0
sVfingerprints
p3009
F0.0
sVlose
p3010
F3.165085007880609e-05
sVpopof
p3011
F0.0
sVpage
p3012
F0.00011443083348393617
sVshed
p3013
F0.0
sVtwitter
p3014
F0.0
sVlibrary
p3015
F7.62872223226241e-05
sVhydrocortisone
p3016
F0.0
sVlsd
p3017
F0.0
sVhome
p3018
F0.00012669904773881952
sVleery
p3019
F0.0
sVrectocele
p3020
F0.0
sVupswing
p3021
F0.0
sVoverlap
p3022
F6.220955035164415e-05
sVinflammation
p3023
F0.0
sVjournal
p3024
F0.0
sVtenfold
p3025
F0.0
sVpublicationdetail
p3026
F0.0
sVnaps
p3027
F0.0
sV125mg
p3028
F0.0
sVcranberry
p3029
F3.814361116131205e-05
sVtongue
p3030
F2.4065939190332104e-05
sVduloxetine
p3031
F0.0
sVequally
p3032
F0.0
sVglenn
p3033
F0.0
sVpreviously
p3034
F0.00037325730210986495
sVh1
p3035
F0.0
sVreceptor
p3036
F0.0
sVbackups
p3037
F0.0
sVpointless
p3038
F6.220955035164415e-05
sVadrenalin
p3039
F0.0
sVprozac
p3040
F0.0
sVadditional
p3041
F0.00011443083348393617
sVpalpated
p3042
F0.0
sVmuseum
p3043
F6.220955035164415e-05
sVnoticed
p3044
F0.0001548543916807794
sVdelusions
p3045
F0.0001244191007032883
sVnorth
p3046
F2.4065939190332104e-05
sVhr
p3047
F6.220955035164415e-05
sVhq
p3048
F0.0
sVastro
p3049
F0.0
sVneutral
p3050
F0.0003110477517582208
sVhi
p3051
F0.0001244191007032883
sVvalerian
p3052
F0.0
sVgain
p3053
F0.001449457224129858
sVcourts
p3054
F0.0
sVoverflow
p3055
F6.220955035164415e-05
sVear
p3056
F0.00018662865105493248
sVeat
p3057
F0.0001548543916807794
sVcells
p3058
F0.00011443083348393617
sVsigned
p3059
F4.813187838066421e-05
sVstories
p3060
F3.814361116131205e-05
sVconceive
p3061
F6.220955035164415e-05
sVpiece
p3062
F7.219781757099632e-05
sVflashin
p3063
F0.0
sVlasted
p3064
F0.0002488382014065766
sVjudgemental
p3065
F6.220955035164415e-05
sVcefotaxime
p3066
F0.0
sVfunctions
p3067
F6.220955035164415e-05
sVingredients
p3068
F0.0
sVnsaid
p3069
F0.0
sVstay
p3070
F0.00021116507956469918
sVfriends
p3071
F9.854370379685961e-05
sVmedcenter
p3072
F0.0
sVblogs
p3073
F0.0
sVpersistent
p3074
F3.814361116131205e-05
sVportion
p3075
F6.220955035164415e-05
sVdiagnosis
p3076
F0.0
sVsecondly
p3077
F0.0
sVsimilarity
p3078
F0.0
sV6pm
p3079
F0.0
sVwhose
p3080
F1.4077671970979944e-05
sVcalculate
p3081
F6.220955035164415e-05
sVbays
p3082
F0.0
sVoffending
p3083
F0.0
sVsorry
p3084
F0.0003519417992744986
sVrescue
p3085
F3.814361116131205e-05
sVhypertensive
p3086
F0.0
sVaffect
p3087
F0.0009331432552746623
sVvast
p3088
F0.0
sVcompanies
p3089
F0.0
sVsolution
p3090
F0.0
sVunrelated
p3091
F0.00018662865105493248
sVprotriptyline
p3092
F0.0
sVcholesterol
p3093
F6.220955035164415e-05
sVups
p3094
F7.62872223226241e-05
sV9pm
p3095
F0.0
sV10k
p3096
F0.0
sVforce
p3097
F9.626375676132842e-05
sVlavender
p3098
F0.0
sVlikely
p3099
F0.0017418674098460363
sVcolourful
p3100
F0.0
sVprogestagen
p3101
F0.0
sVeven
p3102
F0.0005633851314027484
sVintegrity
p3103
F0.0001244191007032883
sVmeals
p3104
F6.220955035164415e-05
sVlights
p3105
F0.00019071805580656026
sVnew
p3106
F0.0
sVtips
p3107
F3.814361116131205e-05
sVever
p3108
F0.00029118782072501604
sVmed
p3109
F0.0008773030567101773
sVniche
p3110
F0.0
sVpresynaptic
p3111
F0.0
sVrheumatologists
p3112
F0.0
sVnever
p3113
F0.0
sVmeh
p3114
F0.0
sVdrew
p3115
F0.0
sVmet
p3116
F2.4065939190332104e-05
sVq10
p3117
F0.0
sVactive
p3118
F0.00016846157433232474
sV100
p3119
F0.0003369231486646495
sVquite
p3120
F0.00012027323029946314
sVdry
p3121
F0.0004958669450970567
sVspiel
p3122
F0.0
sVtaper
p3123
F0.0
sVbumps
p3124
F6.220955035164415e-05
sVcredit
p3125
F1.4077671970979944e-05
sVsuitable
p3126
F0.0
sVclonidine
p3127
F0.0
sVheadedness
p3128
F0.0
sVschooling
p3129
F0.0
sVcounts
p3130
F3.814361116131205e-05
sVsnri
p3131
F0.0
sVarms
p3132
F4.813187838066421e-05
sVcall
p3133
F7.596204018913462e-05
sVcalm
p3134
F0.0003110477517582208
sVtypo
p3135
F6.220955035164415e-05
sVrecommend
p3136
F0.0008087241545713741
sVleaky
p3137
F6.220955035164415e-05
sVtype
p3138
F0.0005294506621873063
sVtell
p3139
F0.0003660194712454786
sVposting
p3140
F6.220955035164415e-05
sVlungs
p3141
F0.0001244191007032883
sVwarn
p3142
F2.4065939190332104e-05
sVwarm
p3143
F1.4077671970979944e-05
sVtransiently
p3144
F0.0
sVadult
p3145
F0.0002488382014065766
sVward
p3146
F6.220955035164415e-05
sVroom
p3147
F0.00011262137576783955
sVroof
p3148
F7.62872223226241e-05
sVs0379
p3149
F0.0
sVguise
p3150
F6.220955035164415e-05
sVroot
p3151
F7.62872223226241e-05
sVvodka
p3152
F6.220955035164415e-05
sVdaptomycin
p3153
F0.0
sVgive
p3154
F0.00022155595055164262
sVdosing
p3155
F0.0
sVpromethazine
p3156
F0.0
sVfoods
p3157
F0.0002488382014065766
sVquetiapine
p3158
F0.0
sVdiscography
p3159
F0.0
sVsavers
p3160
F0.0
sVdhhs
p3161
F0.0
sVdosages
p3162
F0.0
sVamazing
p3163
F0.0003432925004518085
sVanswer
p3164
F0.00016893206365175935
sVundesirable
p3165
F0.0
sVvicious
p3166
F7.62872223226241e-05
sVcuriosity
p3167
F3.814361116131205e-05
sVgravol
p3168
F0.0
sVsummarize
p3169
F0.0
sVlesbian
p3170
F6.220955035164415e-05
sVthird
p3171
F3.798102009456731e-05
sVdepressents
p3172
F0.0
sVrecieved
p3173
F0.0
sVrph
p3174
F0.0
sVmaintain
p3175
F7.62872223226241e-05
sVwaited
p3176
F0.0001244191007032883
sVuninsured
p3177
F0.0
sVoperate
p3178
F6.220955035164415e-05
sVtyramine
p3179
F0.0
sVmurray
p3180
F0.0
sVkeyboard
p3181
F3.814361116131205e-05
sVpersonal
p3182
F9.854370379685961e-05
sVbetter
p3183
F0.0004747627511820913
sVdifferently
p3184
F0.00019071805580656026
sVpersist
p3185
F0.0001244191007032883
sVcombination
p3186
F0.0002887912702839853
sVworkout
p3187
F0.0
sVdrowsiness
p3188
F0.0
sVschool
p3189
F0.0009953528056263065
sVtherapy
p3190
F0.0024883820140657663
sVvaping
p3191
F0.0
sVmeat
p3192
F3.814361116131205e-05
sVcvogfsd
p3193
F0.0
sVwent
p3194
F0.00025953697064620994
sVside
p3195
F8.229221020489583e-05
sVbone
p3196
F4.813187838066421e-05
sVmean
p3197
F0.00019708740759371923
sVaide
p3198
F0.0
sVstealing
p3199
F6.220955035164415e-05
sVaids
p3200
F0.0
sVextract
p3201
F6.220955035164415e-05
sVconjectures
p3202
F0.0
sVsofteners
p3203
F0.0
sVcymbta
p3204
F0.0
sVcontent
p3205
F0.00037325730210986495
sVgenerics
p3206
F0.0
sVreader
p3207
F6.220955035164415e-05
sVsurprise
p3208
F4.813187838066421e-05
sVsluggish
p3209
F6.220955035164415e-05
sVshriveled
p3210
F0.0
sVramos
p3211
F0.0
sVstruggle
p3212
F0.0003051488892904964
sVinadequately
p3213
F0.0
sVzaps
p3214
F0.0
sVstarts
p3215
F5.6310687883919776e-05
sVmetaxalone
p3216
F0.0
sVisn
p3217
F0.0002532068006304487
sVmoving
p3218
F4.223301591293984e-05
sVloud
p3219
F7.62872223226241e-05
sVlaggy
p3220
F0.0
sVfeatures
p3221
F3.814361116131205e-05
sVgrade
p3222
F6.220955035164415e-05
sVwarped
p3223
F0.0
sVdristan
p3224
F0.0
sVdownside
p3225
F0.0
sVimmensely
p3226
F0.0
sVsarotex
p3227
F0.0
sV1a
p3228
F0.0
sVpsychotic
p3229
F0.0001244191007032883
sVconcussion
p3230
F0.0
sVdwell
p3231
F0.0
sVgyn
p3232
F0.0
sV2am
p3233
F0.0
sVsomewhat
p3234
F0.0006220955035164416
sVpeculiar
p3235
F0.0
sVsymptom
p3236
F0.0
sVbegins
p3237
F7.62872223226241e-05
sVanxiety
p3238
F0.006096535934461127
sVpreparation
p3239
F6.220955035164415e-05
sVmatter
p3240
F0.0001548543916807794
sVmodulating
p3241
F0.0
sVmodern
p3242
F1.4077671970979944e-05
sVmind
p3243
F0.0003128572094743174
sVmine
p3244
F0.0002252427515356791
sVginger
p3245
F3.814361116131205e-05
sVseen
p3246
F0.00016893206365175935
sVseem
p3247
F0.00014559391036250802
sVmins
p3248
F0.0001244191007032883
sVseek
p3249
F1.4077671970979944e-05
sVtells
p3250
F4.813187838066421e-05
sVhistamines
p3251
F0.0
sVchest
p3252
F7.219781757099632e-05
sVworsening
p3253
F0.0
sVpsychologically
p3254
F0.0
sVclonazepam
p3255
F0.0
sVnorepinephrine
p3256
F0.0
sVregular
p3257
F0.0008709337049230181
sVbuts
p3258
F6.220955035164415e-05
sVdoi
p3259
F0.0
sVdoc
p3260
F0.0010298775013554255
sVmedical
p3261
F0.0007219781757099631
sVdog
p3262
F2.4065939190332104e-05
sVdigress
p3263
F0.0
sVpoints
p3264
F0.00016846157433232474
sVannoyed
p3265
F6.220955035164415e-05
sVurgency
p3266
F0.0
sVbeaten
p3267
F6.220955035164415e-05
sVosteopath
p3268
F0.0
sVchecks
p3269
F0.00019071805580656026
sVprobe
p3270
F0.0
sVending
p3271
F3.814361116131205e-05
sVattempts
p3272
F4.813187838066421e-05
sVlyrica
p3273
F0.0
sVpmdd
p3274
F0.0
sVchamomile
p3275
F0.0
sVcarbons
p3276
F0.0
sVexplain
p3277
F0.00019252751352265683
sVsugar
p3278
F0.0003432925004518085
sVstabbing
p3279
F0.0
sVfolks
p3280
F6.220955035164415e-05
sVboyfriend
p3281
F0.0002488382014065766
sVsudafed
p3282
F0.0
sVpriadel
p3283
F0.0
sVcompounded
p3284
F0.0
sVstop
p3285
F0.00016458442040979165
sVcoast
p3286
F0.00011443083348393617
sVslanderous
p3287
F0.0
sVreviewed
p3288
F0.0
sVbar
p3289
F2.4065939190332104e-05
sVoptimistic
p3290
F0.0
sVbay
p3291
F7.62872223226241e-05
sVbag
p3292
F0.0001525744446452482
sVbad
p3293
F0.00033549901083534457
sVdiscs
p3294
F0.0
sVban
p3295
F0.0
sVfertility
p3296
F0.00018662865105493248
sVflagged
p3297
F0.0
sVethical
p3298
F6.220955035164415e-05
sVreference
p3299
F7.62872223226241e-05
sVzoned
p3300
F0.0
sVtesting
p3301
F0.00043546685246150906
sVmyofascial
p3302
F0.0
sVemergent
p3303
F0.0
sVdecided
p3304
F0.00024065939190332105
sVsubject
p3305
F6.220955035164415e-05
sV02
p3306
F0.0001244191007032883
sVsaid
p3307
F0.0003418291808511058
sVduff
p3308
F6.220955035164415e-05
sV04
p3309
F3.814361116131205e-05
sVsorta
p3310
F0.0001244191007032883
sVartificial
p3311
F0.0001244191007032883
sVomeprazole
p3312
F0.0
sV22118833
p3313
F0.0
sVsorts
p3314
F3.814361116131205e-05
sVbaboon
p3315
F0.0
sVtolerance
p3316
F0.0006843050538680856
sVreddit
p3317
F0.0
sVrelatable
p3318
F0.0
sVwears
p3319
F3.814361116131205e-05
sVvitamin
p3320
F0.0
sVcousin
p3321
F0.0001244191007032883
sVsuggested
p3322
F0.0005598859531647974
sVmiconazole
p3323
F0.0
sVhyoscyamine
p3324
F0.0
sVagonist
p3325
F0.0
sVcivilised
p3326
F0.0
sVresistant
p3327
F0.0
sVdynahist
p3328
F0.0
sV20s
p3329
F3.814361116131205e-05
sVanxiolytics
p3330
F0.0
sVmc5
p3331
F0.0
sVabdominal
p3332
F0.0
sVputs
p3333
F1.4077671970979944e-05
sVbasis
p3334
F8.446603182587967e-05
sVthree
p3335
F0.00016458442040979165
sVtiny
p3336
F5.6310687883919776e-05
sVparticulars
p3337
F0.0
sVtrigger
p3338
F0.0006220955035164416
sVbasic
p3339
F0.00016846157433232474
sVentered
p3340
F2.4065939190332104e-05
sVlovely
p3341
F2.4065939190332104e-05
sVwebsite
p3342
F0.0001525744446452482
sVdeeper
p3343
F6.220955035164415e-05
sVmushroom
p3344
F6.220955035164415e-05
sVmcg
p3345
F0.0
sVsuppress
p3346
F0.0
sVsunshine
p3347
F6.220955035164415e-05
sVsooooo
p3348
F6.220955035164415e-05
sVargument
p3349
F7.62872223226241e-05
sVdihydroergotamine
p3350
F0.0
sVpersonally
p3351
F4.223301591293984e-05
sVsad
p3352
F9.626375676132842e-05
sVunpopular
p3353
F0.0
sVtank
p3354
F0.0001244191007032883
sVvendetta
p3355
F0.0
sVtastes
p3356
F2.4065939190332104e-05
sVspontaneously
p3357
F6.220955035164415e-05
sVnear
p3358
F1.2660340031522434e-05
sVsuppose
p3359
F7.62872223226241e-05
sVsle
p3360
F0.0
sVmurders
p3361
F0.0
sVstudy
p3362
F0.0005340105562583687
sVchilling
p3363
F0.0
sVseven
p3364
F3.814361116131205e-05
sVsettles
p3365
F6.220955035164415e-05
sVir
p3366
F0.0
sViv
p3367
F0.0
sVii
p3368
F0.0
sVshame
p3369
F3.814361116131205e-05
sVim
p3370
F0.0001244191007032883
sVic
p3371
F0.0
sVmouse
p3372
F0.00011443083348393617
sVid
p3373
F0.0001244191007032883
sVdisappear
p3374
F7.62872223226241e-05
sVrythm
p3375
F0.0
sVbottles
p3376
F0.00012032969595166052
sVmake
p3377
F0.00037981020094567304
sVinstillations
p3378
F0.0
sVsinusitis
p3379
F0.0
sVbottled
p3380
F6.220955035164415e-05
sVpotentially
p3381
F0.0004976764028131532
sVfiltered
p3382
F0.0
sVevolve
p3383
F3.814361116131205e-05
sVverapamil
p3384
F0.0
sVdeclaring
p3385
F0.0
sVkit
p3386
F7.62872223226241e-05
sVovert
p3387
F6.220955035164415e-05
sVthoughts
p3388
F0.00022886166696787233
sVkid
p3389
F6.220955035164415e-05
sVpracticed
p3390
F0.0
sVchanges
p3391
F0.0002887912702839853
sVyoure
p3392
F0.0
sVsmoker
p3393
F3.814361116131205e-05
sVmadvoice
p3394
F0.0
sVsmoked
p3395
F6.220955035164415e-05
sVleft
p3396
F5.6971530141850965e-05
sVassigned
p3397
F0.00018662865105493248
sVpsych
p3398
F0.0
sVhuman
p3399
F4.813187838066421e-05
sVanders
p3400
F0.0
sVaugments
p3401
F0.0
sVyes
p3402
F6.330170015761218e-05
sVyet
p3403
F0.00011394306028370193
sVimpending
p3404
F0.0
sVcandidate
p3405
F7.62872223226241e-05
sV1_meetingabstracts
p3406
F0.0
sVroyal
p3407
F0.0
sVethiopians
p3408
F0.0
sVspasms
p3409
F0.0
sVhypersensitive
p3410
F0.0
sVflatulence
p3411
F0.0
sV3pm
p3412
F0.0
sVbackground
p3413
F1.8990510047283654e-05
sVwanting
p3414
F0.00037325730210986495
sVopi
p3415
F0.0
sVdreams
p3416
F0.0003110477517582208
sVshoulder
p3417
F2.4065939190332104e-05
sVfioricet
p3418
F0.0
sVpatience
p3419
F6.220955035164415e-05
sVunnecessary
p3420
F0.00018662865105493248
sVnotorious
p3421
F6.220955035164415e-05
sVsignal
p3422
F3.814361116131205e-05
sVwww
p3423
F0.0017164625022590425
sVdeal
p3424
F0.0001830097356227393
sVsomehow
p3425
F2.4065939190332104e-05
sVelderly
p3426
F0.00018662865105493248
sVmanifest
p3427
F0.0001244191007032883
sVfloaters
p3428
F0.0
sVdaytime
p3429
F0.0001244191007032883
sVshakespeare
p3430
F0.0
sVburn
p3431
F3.814361116131205e-05
sVprotagonist
p3432
F0.0
sVconfrontation
p3433
F0.0
sVsuper
p3434
F0.00045772333393574467
sVheparin
p3435
F0.0
sVafternoon
p3436
F0.0001244191007032883
sVvaginal
p3437
F6.220955035164415e-05
sVas_sdtp
p3438
F0.0
sVautomatically
p3439
F0.00011443083348393617
sVnerve
p3440
F0.0021773342623075454
sVwhats
p3441
F0.0
sVsubs
p3442
F6.220955035164415e-05
sVformerly
p3443
F0.0
sVlies
p3444
F4.813187838066421e-05
sVamazingly
p3445
F6.220955035164415e-05
sVflying
p3446
F7.62872223226241e-05
sVpages
p3447
F0.00011443083348393617
sVfork
p3448
F2.4065939190332104e-05
sVoffering
p3449
F3.814361116131205e-05
sVclinics
p3450
F0.0
sVulcers
p3451
F0.0
sVlorazepam
p3452
F0.0
sVspike
p3453
F6.220955035164415e-05
sVfailure
p3454
F7.62872223226241e-05
sVzanaflex
p3455
F0.0
sVunderstood
p3456
F0.00043546685246150906
sVprevents
p3457
F0.0001244191007032883
sVmilligrams
p3458
F0.0
sVacetabular
p3459
F0.0
sVdelete
p3460
F7.62872223226241e-05
sVdiagnose
p3461
F6.220955035164415e-05
sVsticks
p3462
F3.814361116131205e-05
sVclassic
p3463
F3.814361116131205e-05
sVtoss
p3464
F6.220955035164415e-05
sVsticky
p3465
F3.814361116131205e-05
sVgland
p3466
F0.0
sVawhile
p3467
F0.0001244191007032883
sVmucous
p3468
F0.0
sVshit
p3469
F0.000686585000903617
sVoversimplification
p3470
F0.0
sVanesthesiologist
p3471
F0.0
sVexcel
p3472
F0.0
sVdesvenflaxine
p3473
F0.0
sVhanded
p3474
F3.814361116131205e-05
sVoestrogen
p3475
F0.0
sValleviates
p3476
F0.0
sVfelt
p3477
F0.0006257144189486348
sVdiet
p3478
F0.0008709337049230181
sVjourney
p3479
F0.0
sVglucocorticoids
p3480
F0.0
sVdied
p3481
F0.00011443083348393617
sVhappening
p3482
F0.00012032969595166052
sVassume
p3483
F0.0002488382014065766
sVdaily
p3484
F0.0024883820140657663
sVfst
p3485
F0.0
sVteeth
p3486
F0.00022886166696787233
sVrestored
p3487
F6.220955035164415e-05
sVmanaged
p3488
F0.00019071805580656026
sVskip
p3489
F3.814361116131205e-05
sVrelieve
p3490
F0.0
sVstimulator
p3491
F0.0
sVinvent
p3492
F6.220955035164415e-05
sVthemes
p3493
F6.220955035164415e-05
sVmild
p3494
F0.0
sVmanages
p3495
F3.814361116131205e-05
sVskin
p3496
F1.2660340031522434e-05
sVmilk
p3497
F6.220955035164415e-05
sVretention
p3498
F0.0001244191007032883
sVsuicide
p3499
F0.00043546685246150906
sVdisorders
p3500
F0.0006220955035164416
sVq4spks8b62q
p3501
F0.0
sVsufferer
p3502
F0.0
sV0
p3503
F0.0003814361116131205
sVfinally
p3504
F0.0008010158343875531
sVunpleasant
p3505
F0.00018662865105493248
sVsuffered
p3506
F4.813187838066421e-05
sVaspx
p3507
F6.220955035164415e-05
sVyeast
p3508
F0.00011443083348393617
sVfsijournal
p3509
F0.0
sVadvised
p3510
F0.0001244191007032883
sVword
p3511
F6.330170015761217e-06
sVdie
p3512
F4.223301591293984e-05
sVdig
p3513
F6.220955035164415e-05
sVacetazolomide
p3514
F0.0
sVaccidentally
p3515
F4.813187838066421e-05
sVphenergen
p3516
F0.0
sVlaxatives
p3517
F0.0
sVtums
p3518
F0.0
sVpropranalol
p3519
F0.0
sVround
p3520
F2.8155343941959888e-05
sVinconsistent
p3521
F7.62872223226241e-05
sVanesthetic
p3522
F0.0
sVtalked
p3523
F0.0001244191007032883
sVdealing
p3524
F0.00037325730210986495
sVrun
p3525
F6.963187017337339e-05
sVheres
p3526
F0.0
sVsuspect
p3527
F0.0001525744446452482
sVinternational
p3528
F3.814361116131205e-05
sVfilled
p3529
F7.038835985489972e-05
sV8516
p3530
F0.0
sVclerk
p3531
F0.0001244191007032883
sVcrackpots
p3532
F0.0
sVfeverfew
p3533
F0.0
sVwithdrawals
p3534
F0.0
sVwait
p3535
F0.00014077671970979944
sVbox
p3536
F4.223301591293984e-05
sVboy
p3537
F7.219781757099632e-05
sVdiagnoses
p3538
F0.0
sVcranial
p3539
F0.0
sVshift
p3540
F6.220955035164415e-05
sVbot
p3541
F0.0
sVvaginismus
p3542
F0.0
sVsomatic
p3543
F0.0
sVdiagnosed
p3544
F0.0
sVsuggestion
p3545
F0.0001525744446452482
sVmassage
p3546
F0.0004976764028131532
sVgenuinely
p3547
F0.0002488382014065766
sVteenage
p3548
F6.220955035164415e-05
sVuseful
p3549
F0.0004976764028131532
sVmerely
p3550
F0.0
sVsweating
p3551
F0.00018662865105493248
sVfranck
p3552
F0.0
sVvisit
p3553
F9.626375676132842e-05
sVfrance
p3554
F0.0
sVtachycardia
p3555
F0.0
sVcreams
p3556
F0.0
sVlessened
p3557
F0.0
sVaspirin
p3558
F0.0
sVsharing
p3559
F0.0
sVcrackazat
p3560
F0.0
sVtandem
p3561
F0.0
sVfly
p3562
F2.4065939190332104e-05
sVavoiding
p3563
F0.00018662865105493248
sVflu
p3564
F0.0002488382014065766
sVmunchausen
p3565
F0.0
sVmaking
p3566
F0.00011394306028370193
sVarrive
p3567
F2.4065939190332104e-05
sVdosage
p3568
F0.0012441910070328831
sVclaim
p3569
F9.626375676132842e-05
sVcrazy
p3570
F0.0003814361116131205
sVfuck
p3571
F0.0002488382014065766
sVbelsomra
p3572
F0.0
sVrays
p3573
F0.0
sVnonchalant
p3574
F0.0
sVchemical
p3575
F0.0002488382014065766
sVtill
p3576
F7.62872223226241e-05
sVcalve
p3577
F0.0
sVpure
p3578
F1.4077671970979944e-05
sVswore
p3579
F0.0
sVpins
p3580
F0.0
sVguarantee
p3581
F6.220955035164415e-05
sVstaying
p3582
F3.814361116131205e-05
sVinflamation
p3583
F0.0
sVmat
p3584
F0.0
sVmay
p3585
F0.0006836583617022116
sVmax
p3586
F0.00018662865105493248
sVpresribe
p3587
F0.0
sVmad
p3588
F2.8155343941959888e-05
sVguys
p3589
F0.00018662865105493248
sVgrow
p3590
F7.62872223226241e-05
sVman
p3591
F1.8990510047283654e-05
sVwaist
p3592
F3.814361116131205e-05
sVmaybe
p3593
F0.0
sVq
p3594
F0.0
sVswitch
p3595
F0.0001525744446452482
sVverify
p3596
F0.0001244191007032883
sVbasket
p3597
F0.0001244191007032883
sVtalk
p3598
F0.0005535166013776384
sV2mg
p3599
F0.0
sV2710
p3600
F0.0
sVseizing
p3601
F0.0
sVnbsp
p3602
F0.00018662865105493248
sVshake
p3603
F0.00011443083348393617
sVargued
p3604
F0.0
sVgroup
p3605
F8.446603182587967e-05
sVthank
p3606
F0.00021659345271298895
sVinteresting
p3607
F8.446603182587967e-05
sVhyoscine
p3608
F0.0
sVpolicy
p3609
F0.0002488382014065766
sVsecondary
p3610
F7.219781757099632e-05
sV82q
p3611
F0.0
sVtexas
p3612
F0.0
sVndris
p3613
F0.0
sVwithin
p3614
F0.00011262137576783955
sVkiller
p3615
F4.813187838066421e-05
sVtouching
p3616
F6.220955035164415e-05
sVkilled
p3617
F7.219781757099632e-05
sVoutweigh
p3618
F0.0
sVhnbk00yzije
p3619
F0.0
sV_____________________________________________________
p3620
F0.0
sVtruthful
p3621
F0.0
sVproteins
p3622
F6.220955035164415e-05
sVlithobid
p3623
F0.0
sVdysphoria
p3624
F0.0
sVrock
p3625
F2.4065939190332104e-05
sVpharmacies
p3626
F0.0
sVvogue
p3627
F0.0
sVeyelid
p3628
F0.0
sVabnormal
p3629
F3.814361116131205e-05
sVgirl
p3630
F0.00011262137576783955
sVcanada
p3631
F0.0
sVliving
p3632
F3.798102009456731e-05
sV3rd
p3633
F3.814361116131205e-05
sVsitagliptin
p3634
F0.0
sVstupid
p3635
F4.813187838066421e-05
sVcorrect
p3636
F0.00019071805580656026
sVmechanisms
p3637
F0.0
sVneurotrophin
p3638
F0.0
sVromans
p3639
F0.0
sVcalifornia
p3640
F0.0
sVyuri
p3641
F0.0
sVorg
p3642
F0.0009331432552746623
sVcough
p3643
F9.626375676132842e-05
sVlanguage
p3644
F2.4065939190332104e-05
sVwaiter
p3645
F0.0001244191007032883
sVthing
p3646
F0.000348159350866867
sVthink
p3647
F0.000525404111308181
sVfrequent
p3648
F0.0003110477517582208
sVfirst
p3649
F0.0005443946213554647
sVexotic
p3650
F6.220955035164415e-05
sVwiki
p3651
F0.0
sVdwelling
p3652
F0.0
sVamericans
p3653
F0.0
sVlong
p3654
F0.0
sVsuspended
p3655
F0.0
sVcarry
p3656
F4.4311190110328524e-05
sVlethargy
p3657
F0.0
sVsounds
p3658
F0.0010680211125167374
sVcheesy
p3659
F6.220955035164415e-05
sVlittle
p3660
F0.0
sVslept
p3661
F0.0003110477517582208
sVanyone
p3662
F0.0002252427515356791
sV10lbs
p3663
F0.0
sVwaffer
p3664
F0.0
sVamphetamines
p3665
F0.0
sVspeaking
p3666
F0.00011443083348393617
sVeyes
p3667
F8.446603182587967e-05
sVallegedly
p3668
F0.0
sVdnz4gdmjgg
p3669
F0.0
sVissues
p3670
F0.0014876008352911702
sVadrenergic
p3671
F0.0
sVaccurately
p3672
F3.814361116131205e-05
sVmassages
p3673
F0.0
sVtriptylines
p3674
F0.0
sVbutt
p3675
F6.220955035164415e-05
sVelusive
p3676
F6.220955035164415e-05
sV11
p3677
F1.2660340031522434e-05
sV10
p3678
F0.00015825425039403044
sV13
p3679
F2.4065939190332104e-05
sV12
p3680
F5.0641360126089734e-05
sV15
p3681
F6.330170015761218e-05
sV14
p3682
F0.00026472533109365314
sV17
p3683
F7.219781757099632e-05
sV16
p3684
F7.219781757099632e-05
sV19
p3685
F2.4065939190332104e-05
sV18
p3686
F0.00014439563514199265
sVgotta
p3687
F0.00019071805580656026
sVmutilation
p3688
F0.0
sVnifedipine
p3689
F0.0
sVcoconut
p3690
F2.8155343941959888e-05
sV20x
p3691
F0.0
sVtopics
p3692
F6.220955035164415e-05
sVcymbalta
p3693
F0.0
sVmarijuana
p3694
F0.0003110477517582208
sVvoices
p3695
F0.0
sVconspiracy
p3696
F0.0
sV20g
p3697
F0.0
sVoccupied
p3698
F0.0
sVefficient
p3699
F0.0
sVadvil
p3700
F0.0
sVpotential
p3701
F0.0006220955035164416
sVinterior
p3702
F6.220955035164415e-05
sVperformance
p3703
F4.813187838066421e-05
sVchannel
p3704
F0.0001525744446452482
sV200
p3705
F0.00018662865105493248
sVpain
p3706
F0.006545935459770333
sVnormal
p3707
F0.0006016484797583026
sVtrack
p3708
F0.00019071805580656026
sVdecreasing
p3709
F0.0
sVpaid
p3710
F7.62872223226241e-05
sVbeta
p3711
F0.0013064005573845273
sVtract
p3712
F0.0
sVpair
p3713
F3.814361116131205e-05
sVnaturopath
p3714
F0.0
sVespecially
p3715
F0.00025339809547763903
sVsurprising
p3716
F3.814361116131205e-05
sVfills
p3717
F3.814361116131205e-05
sVgracefully
p3718
F2.4065939190332104e-05
sVvulvodynia
p3719
F0.0
sVshop
p3720
F6.220955035164415e-05
sVshot
p3721
F7.038835985489972e-05
sVshow
p3722
F6.330170015761217e-06
sVoiploids
p3723
F0.0
sVelevate
p3724
F0.0
sVtherapist
p3725
F0.0009331432552746623
sVtiredness
p3726
F0.0
sVamitriptalyne
p3727
F0.0
sVdice
p3728
F6.220955035164415e-05
sVglucotrol
p3729
F0.0
sVdick
p3730
F0.0001244191007032883
sV500mg
p3731
F0.0
sVbehind
p3732
F1.8990510047283654e-05
sVblack
p3733
F2.8155343941959888e-05
sVextracellular
p3734
F0.0
sVawareness
p3735
F0.0
sVfda
p3736
F0.0
sVkillers
p3737
F0.0
sVnearly
p3738
F5.6971530141850965e-05
sVconjunction
p3739
F0.0
sVblends
p3740
F0.0
sVgel
p3741
F0.0002488382014065766
sVmedial
p3742
F0.0
sVmorning
p3743
F0.001373170001807234
sVmiles
p3744
F7.62872223226241e-05
sVanthing
p3745
F0.0
sVtransdermal
p3746
F0.0
sVblurred
p3747
F6.220955035164415e-05
sVrelative
p3748
F6.220955035164415e-05
sVstigma
p3749
F0.0
sVwonder
p3750
F7.219781757099632e-05
sVcamping
p3751
F3.814361116131205e-05
sVglipizide
p3752
F0.0
sVskelaxin
p3753
F0.0
sVlabel
p3754
F0.00045725284461631
sVwhereabouts
p3755
F6.220955035164415e-05
sVenough
p3756
F0.0
sVreading
p3757
F0.00011262137576783955
sVacross
p3758
F0.00014439563514199265
sVjv
p3759
F0.0
sVkilling
p3760
F6.220955035164415e-05
sVjk
p3761
F0.0
sVpharmacists
p3762
F0.0
sVdates
p3763
F3.814361116131205e-05
sVphilosophically
p3764
F0.0
sVaccording
p3765
F2.8155343941959888e-05
sVrestroom
p3766
F6.220955035164415e-05
sVvilazodone
p3767
F0.0
sVconcentrate
p3768
F0.00018662865105493248
sVdelirium
p3769
F0.0
sVamong
p3770
F0.00011443083348393617
sVstretches
p3771
F0.0002488382014065766
sVcancer
p3772
F0.0003110477517582208
sVassociated
p3773
F0.0017418674098460363
sVguesstimate
p3774
F0.0
sVprogablin
p3775
F0.0
sVadults
p3776
F6.220955035164415e-05
sVconsidering
p3777
F0.0001525744446452482
sVmark
p3778
F4.813187838066421e-05
sVtriptons
p3779
F0.0
sVshopping
p3780
F3.814361116131205e-05
sVoffered
p3781
F7.62872223226241e-05
sVbmi
p3782
F0.0
sVwake
p3783
F0.0002887912702839853
sVoverdose
p3784
F0.0006220955035164416
sVhardcore
p3785
F0.00018662865105493248
sVsound
p3786
F9.854370379685961e-05
sVdisconnected
p3787
F3.814361116131205e-05
sVprofiles
p3788
F6.220955035164415e-05
sVparagard
p3789
F0.0
sVignition
p3790
F0.0
sVpromising
p3791
F6.220955035164415e-05
sVcancelled
p3792
F7.62872223226241e-05
sVqzz7fkc1uny
p3793
F0.0
sVrubbing
p3794
F0.0
sVsleeping
p3795
F0.0009535902790328014
sVstrain
p3796
F0.0
sVsudden
p3797
F7.219781757099632e-05
sVdangerously
p3798
F6.220955035164415e-05
sVlitres
p3799
F0.0
sVprotein
p3800
F0.0
sVeveryday
p3801
F0.0002488382014065766
sVmovements
p3802
F6.220955035164415e-05
sVdifferent
p3803
F0.0007038835985489972
sVritalin
p3804
F0.0
sVconsiderable
p3805
F3.814361116131205e-05
sVpaw
p3806
F0.0
sVpay
p3807
F3.165085007880609e-05
sVbowels
p3808
F6.220955035164415e-05
sVstruggling
p3809
F0.0002488382014065766
sVintermediary
p3810
F0.0
sVoil
p3811
F0.0003051488892904964
sVassist
p3812
F6.220955035164415e-05
sVrunning
p3813
F0.0
sVtotally
p3814
F0.00021116507956469918
sVidusl2n0l81rk20140204
p3815
F0.0
sVdrain
p3816
F6.220955035164415e-05
sVintermittent
p3817
F0.0
sVroughly
p3818
F0.0
sVaccountable
p3819
F0.0
sVbottle
p3820
F0.00016846157433232474
sVbumping
p3821
F0.0
sVmoney
p3822
F0.00011443083348393617
sV100mgs
p3823
F0.0
sVresolution
p3824
F0.00022886166696787233
sVdehydration
p3825
F0.0
sVreputable
p3826
F0.0
sVaspect
p3827
F3.814361116131205e-05
sVketamine
p3828
F0.0
sVclueless
p3829
F0.0
sVpreventatively
p3830
F0.0
sVahhhh
p3831
F0.0
sV4
p3832
F0.00022155595055164262
sVglyburide
p3833
F0.0
sVpill
p3834
F0.0008709337049230181
sVmop
p3835
F0.0
sVinhibition
p3836
F0.0
sVmom
p3837
F0.0004976764028131532
sVcredentials
p3838
F6.220955035164415e-05
sVeither
p3839
F0.00015192408037826923
sVdrainage
p3840
F0.0
sVpassionate
p3841
F4.813187838066421e-05
sVclassified
p3842
F0.0
sVoxazepam
p3843
F0.0
sVspecified
p3844
F6.220955035164415e-05
sVimages
p3845
F6.220955035164415e-05
sVgross
p3846
F6.220955035164415e-05
sVouts
p3847
F6.220955035164415e-05
sVbenzodiazepine
p3848
F0.0
sVfluids
p3849
F6.220955035164415e-05
sVcritical
p3850
F3.814361116131205e-05
sVmaoi
p3851
F0.0
sVmoderate
p3852
F0.0002488382014065766
sVknife
p3853
F2.4065939190332104e-05
sVmeasuring
p3854
F0.0
sVcaring
p3855
F6.220955035164415e-05
sVseconds
p3856
F0.00011443083348393617
sVnotable
p3857
F6.220955035164415e-05
sVnotably
p3858
F6.220955035164415e-05
sVbroken
p3859
F2.8155343941959888e-05
sVmanufacturer
p3860
F0.0
sVx31
p3861
F0.0
sVstations
p3862
F0.0001244191007032883
sVmixed
p3863
F0.00011443083348393617
sVroad
p3864
F0.00011443083348393617
sVquietly
p3865
F3.814361116131205e-05
sVspreading
p3866
F0.0
sVreferences
p3867
F6.220955035164415e-05
sVinbox
p3868
F0.0
sVdreaming
p3869
F6.220955035164415e-05
sVpharmaceutical
p3870
F0.0
sVconcussive
p3871
F0.0
sVappears
p3872
F4.223301591293984e-05
sVdayquil
p3873
F0.0
sVseasonal
p3874
F0.0
sVzolpidem
p3875
F0.0
sVmoclobemide
p3876
F0.0
sVcombined
p3877
F0.00011443083348393617
sVspicy
p3878
F3.814361116131205e-05
sVbuggy
p3879
F6.220955035164415e-05
sVbookstore
p3880
F6.220955035164415e-05
sVorthostatic
p3881
F0.0
sVswabs
p3882
F0.0
sVromantic
p3883
F6.220955035164415e-05
sVnadolol
p3884
F0.0
sVvomit
p3885
F6.220955035164415e-05
sVhaloperidol
p3886
F0.0
sVrequired
p3887
F0.00026700527812918435
sVvideos
p3888
F0.00011443083348393617
sVresolving
p3889
F6.220955035164415e-05
sVdivalproex
p3890
F0.0
sVdeep
p3891
F2.8155343941959888e-05
sVgeneral
p3892
F0.0
sVvasovagal_response
p3893
F0.0
sVfile
p3894
F0.0001244191007032883
sVgirlfriend
p3895
F0.0001244191007032883
sVmelatonin
p3896
F0.0
sVneurotransmitters
p3897
F0.0
sVfill
p3898
F0.00014439563514199265
sVtedious
p3899
F0.0
sVnarcotics
p3900
F0.0
sVfield
p3901
F0.0001244191007032883
sVdoxylamine
p3902
F0.0
sVxanax
p3903
F0.0
sVimportant
p3904
F0.00045772333393574467
sVbrands
p3905
F6.220955035164415e-05
sVarrousal
p3906
F0.0
sValright
p3907
F0.00011443083348393617
sVhusky
p3908
F6.220955035164415e-05
sVstarting
p3909
F0.00024065939190332105
sVforget
p3910
F0.00016846157433232474
sVforbidden
p3911
F0.0
sVallergy
p3912
F0.00037325730210986495
sVcommute
p3913
F6.220955035164415e-05
sVoxycodone
p3914
F0.0
sVcooperative
p3915
F0.0
sVtalks
p3916
F0.0001244191007032883
sVcatheterize
p3917
F6.220955035164415e-05
sVchildren
p3918
F2.4065939190332104e-05
sVreluctant
p3919
F0.0
sVresponsiveness
p3920
F0.0
sVvasovagal
p3921
F0.0
sVinvestigational
p3922
F0.0
sVoverdoing
p3923
F0.0
sVstraightforward
p3924
F0.0
sVreturning
p3925
F7.62872223226241e-05
sVrambunctious
p3926
F0.0
sViud
p3927
F0.0
sVfall
p3928
F0.00019071805580656026
sVdifference
p3929
F0.0003432925004518085
sVsplitter
p3930
F6.220955035164415e-05
sVneurological
p3931
F0.0
sVgiddings
p3932
F0.0
sVworded
p3933
F0.0
sVprogesterone
p3934
F0.0
sVreminding
p3935
F6.220955035164415e-05
sVbiological
p3936
F0.0
sVgrabs
p3937
F2.4065939190332104e-05
sVzero
p3938
F0.00019071805580656026
sVlawyer
p3939
F0.0001244191007032883
sVwyeth
p3940
F0.0
sV90s
p3941
F0.0
sVabd
p3942
F0.0
sVstool
p3943
F0.0001244191007032883
sVcaffeine
p3944
F0.0004976764028131532
sVabs
p3945
F6.220955035164415e-05
sVpalemor
p3946
F0.0
sVnightguards
p3947
F0.0
sVpublic
p3948
F4.813187838066421e-05
sVmovement
p3949
F4.813187838066421e-05
sVmull
p3950
F0.0
sVcomponent
p3951
F3.814361116131205e-05
sVthreads
p3952
F0.0
sVaffectionately
p3953
F0.0
sVunbinds
p3954
F0.0
sVsearch
p3955
F0.00012032969595166052
sVantagonizing
p3956
F0.0
sVreuptaken
p3957
F0.0
sVstretching
p3958
F0.0
sVtemazepam
p3959
F0.0
sV1000mg
p3960
F0.0
sVpublished
p3961
F6.220955035164415e-05
sVtoxicity
p3962
F0.0
sVseroquel
p3963
F0.0
sVeye
p3964
F7.62872223226241e-05
sVwiped
p3965
F6.220955035164415e-05
sVtexting
p3966
F6.220955035164415e-05
sVtwo
p3967
F0.0
sVcomparing
p3968
F6.220955035164415e-05
sVscotia
p3969
F0.0
sVengaged
p3970
F6.220955035164415e-05
sVcontrolling
p3971
F0.0
sVparticular
p3972
F7.038835985489972e-05
sVpercoset
p3973
F0.0
sVtown
p3974
F2.4065939190332104e-05
sV8hrs
p3975
F0.0
sVnone
p3976
F0.00019252751352265683
sVseratonin
p3977
F0.0
sVcluster
p3978
F0.0
sVrecall
p3979
F0.00018662865105493248
sVdes
p3980
F0.0
sVsucks
p3981
F0.00019071805580656026
sVtianeptine
p3982
F0.0
sVspecialized
p3983
F6.220955035164415e-05
sVtension_headache
p3984
F0.0
sVinexpensive
p3985
F0.0
sVshare
p3986
F5.6310687883919776e-05
sVminimum
p3987
F3.814361116131205e-05
sVnumbers
p3988
F7.62872223226241e-05
sV7173
p3989
F0.0
sVsharp
p3990
F6.220955035164415e-05
sVneeds
p3991
F0.0
sVcomfort
p3992
F0.0
sVinhalers
p3993
F0.0
sVulnar
p3994
F0.0
sVamitrip
p3995
F0.0
sVadvice
p3996
F0.0006220955035164416
sVexpenditures
p3997
F0.0
sVblood
p3998
F0.0013958244730392622
sVcoming
p3999
F6.330170015761218e-05
sVshuts
p4000
F6.220955035164415e-05
sVresponse
p4001
F0.0006220955035164416
sVsulfonylureas
p4002
F0.0
sVolanzipine
p4003
F0.0
sVmethadone
p4004
F0.0
sVmorten
p4005
F0.0
sVplaying
p4006
F9.626375676132842e-05
sVturmeric
p4007
F0.0
sVsuffer
p4008
F0.0003814361116131205
sV24
p4009
F0.00021659345271298895
sV25
p4010
F0.00024065939190332105
sV20
p4011
F6.963187017337339e-05
sV21
p4012
F7.219781757099632e-05
sV22
p4013
F4.813187838066421e-05
sVsodium
p4014
F0.0
sVpcp
p4015
F0.0
sV28
p4016
F3.814361116131205e-05
sVlate
p4017
F0.00011262137576783955
sVreuters
p4018
F0.0
sVoxalate
p4019
F0.0
sVpad
p4020
F3.814361116131205e-05
sVmethylfolate
p4021
F0.0
sVupping
p4022
F0.0
sVdolls
p4023
F0.0001244191007032883
sVhurting
p4024
F0.0
sVgood
p4025
F0.0
sVseeking
p4026
F0.00018662865105493248
sVurogynecologist
p4027
F0.0
sVlibido
p4028
F0.0
sVencouraging
p4029
F0.0
sVwalls
p4030
F3.814361116131205e-05
sVcompound
p4031
F0.0
sVprejudiced
p4032
F0.0
sVcomplain
p4033
F3.814361116131205e-05
sVassociation
p4034
F0.0001244191007032883
sVmystery
p4035
F0.0
sVeasily
p4036
F2.8155343941959888e-05
sVlabrel
p4037
F0.0
sVgoofy
p4038
F0.0
sVdeteriorated
p4039
F0.0
sV2a
p4040
F6.220955035164415e-05
sVgender
p4041
F0.0
sVsenekot
p4042
F0.0
sVharm
p4043
F0.0
sVeveryone
p4044
F0.00024065939190332105
sVmental
p4045
F0.0009331432552746623
sVhouse
p4046
F0.00016893206365175935
sVfish
p4047
F5.6310687883919776e-05
sVhard
p4048
F0.0006194175667231176
sVidea
p4049
F0.00012027323029946314
sVextended
p4050
F6.220955035164415e-05
sVsuspecting
p4051
F0.0
sVinterrelated
p4052
F0.0
sVinsurance
p4053
F0.0006843050538680856
sVfunding
p4054
F0.0
sVchildish
p4055
F0.0
sVacting
p4056
F3.814361116131205e-05
sVprint
p4057
F7.62872223226241e-05
sVpristiq
p4058
F0.0
sVevaluation
p4059
F0.0
sVpleasant
p4060
F0.00018662865105493248
sVdifficulty
p4061
F0.0002488382014065766
sVmembers
p4062
F7.62872223226241e-05
sVbeginning
p4063
F6.330170015761217e-06
sVbenefits
p4064
F0.0003110477517582208
sVneeding
p4065
F0.00018662865105493248
sVcopper
p4066
F0.0
sVdont
p4067
F0.00019071805580656026
sVmistakenly
p4068
F6.220955035164415e-05
sVinstances
p4069
F0.0001244191007032883
sVcfm
p4070
F6.220955035164415e-05
sVdone
p4071
F0.0001709145904255529
sVcups
p4072
F3.814361116131205e-05
sVquads
p4073
F0.0
sVtwenty
p4074
F2.4065939190332104e-05
sVleast
p4075
F0.0
sVregulation
p4076
F0.0
sVassumption
p4077
F6.220955035164415e-05
sVpains
p4078
F0.0
sVlarkin
p4079
F0.0
sVmuscles
p4080
F0.0006843050538680856
sVneedle
p4081
F0.00011443083348393617
sVpark
p4082
F6.220955035164415e-05
sVtrolly
p4083
F0.0
sVdentist
p4084
F0.0003110477517582208
sVpart
p4085
F0.00040825248715841843
sVdifferentiate
p4086
F0.0
sVdoctors
p4087
F0.0017418674098460363
sVobstructed
p4088
F0.0
sVbelieve
p4089
F0.00025339809547763903
sV600mg
p4090
F0.0
sVb
p4091
F5.6310687883919776e-05
sVcommiserate
p4092
F0.0
sVcyclic
p4093
F0.0
sVgotten
p4094
F0.0001244191007032883
sVlargely
p4095
F0.0
sVyoutu
p4096
F0.0
sVsupposed
p4097
F0.00021659345271298895
sVsedate
p4098
F3.814361116131205e-05
sVtoe
p4099
F3.814361116131205e-05
sVtreated
p4100
F0.00021659345271298895
sVoutta
p4101
F6.220955035164415e-05
sVpleae
p4102
F0.0
sVdecrees
p4103
F0.0
sVcategorized
p4104
F0.0
sVfading
p4105
F6.220955035164415e-05
sVditched
p4106
F0.0
sVmountain
p4107
F0.0
sVbuilt
p4108
F5.6310687883919776e-05
sVflared
p4109
F0.0
sVdepending
p4110
F0.0002488382014065766
sVcouch
p4111
F0.0001244191007032883
sVonset
p4112
F0.0
sVflares
p4113
F0.0
sVbuild
p4114
F2.8155343941959888e-05
sVdeepening
p4115
F6.220955035164415e-05
sVchart
p4116
F3.814361116131205e-05
sVsignificant
p4117
F0.0010575623559779506
sVservices
p4118
F4.813187838066421e-05
sVextremely
p4119
F0.00045772333393574467
sVkiddies
p4120
F0.0
sV45mg
p4121
F0.0
sVkm
p4122
F0.0
sVhydocodone
p4123
F0.0
sVotolaryngology
p4124
F0.0
sVorganise
p4125
F0.0
sVheterodimerization
p4126
F0.0
sVcinnamon
p4127
F3.814361116131205e-05
sVparticularly
p4128
F0.00026700527812918435
sVdisturbances
p4129
F0.0
sVrelation
p4130
F6.220955035164415e-05
sVcyclics
p4131
F0.0
sVcarefully
p4132
F6.220955035164415e-05
sVmarinol
p4133
F0.0
sVfine
p4134
F0.0
sVfind
p4135
F0.0
sVbacktracking
p4136
F0.0
sVdividing
p4137
F0.0
sVnervous
p4138
F0.0001525744446452482
sVunhappy
p4139
F6.220955035164415e-05
sV8
p4140
F6.330170015761218e-05
sVintractable
p4141
F0.0
sVexpress
p4142
F6.220955035164415e-05
sVcheaper
p4143
F7.62872223226241e-05
sVbreast
p4144
F0.0001244191007032883
sVresolve
p4145
F7.219781757099632e-05
sVremove
p4146
F2.4065939190332104e-05
sVcommon
p4147
F0.0006979122365196311
sVmouthwash
p4148
F0.0
sVgehry
p4149
F0.0
sVindividual
p4150
F7.219781757099632e-05
sVtender
p4151
F0.0
sVrepairs
p4152
F0.0
sVexpert
p4153
F6.220955035164415e-05
sVvisiting
p4154
F2.4065939190332104e-05
sVplease
p4155
F6.963187017337339e-05
sVsmallest
p4156
F6.220955035164415e-05
sVmyriad
p4157
F0.0
sVvascular
p4158
F0.0
sVburned
p4159
F2.4065939190332104e-05
sVdonate
p4160
F6.220955035164415e-05
sVresponses
p4161
F0.0
sVasthma
p4162
F0.0003110477517582208
sValters
p4163
F0.0
sVpissed
p4164
F0.00018662865105493248
sVreverse
p4165
F4.813187838066421e-05
sVtapered
p4166
F0.0
sVforeign
p4167
F3.814361116131205e-05
sVpoint
p4168
F0.00015825425039403044
sVsimple
p4169
F1.2660340031522434e-05
sVpanicking
p4170
F0.0
sVdietary
p4171
F0.0
sVsimply
p4172
F0.00014439563514199265
sVvolunteered
p4173
F0.0
sVthroughout
p4174
F2.4065939190332104e-05
sVexpensive
p4175
F0.00026472533109365314
sVheadaches
p4176
F0.0
sV30mg
p4177
F0.0
sVensures
p4178
F0.0
sVraise
p4179
F2.4065939190332104e-05
sVcreate
p4180
F0.0001525744446452482
sVsecret
p4181
F3.814361116131205e-05
sVdropping
p4182
F3.814361116131205e-05
sVmeeting
p4183
F2.4065939190332104e-05
sVgas
p4184
F0.00037325730210986495
sVgap
p4185
F0.0003110477517582208
sVamlodipine
p4186
F0.0
sVpricey
p4187
F6.220955035164415e-05
sVunderstand
p4188
F0.0001076128902679407
sVrealms
p4189
F0.0
sVcolonoscopy
p4190
F6.220955035164415e-05
sV35mg
p4191
F0.0
sVgad
p4192
F0.0
sVsolid
p4193
F0.00022886166696787233
sVcapsicum
p4194
F0.0
sVbill
p4195
F3.814361116131205e-05
sVtolerate
p4196
F0.0
sVcrutch
p4197
F0.0
sVsexuality
p4198
F0.0
sVnonnbreathing
p4199
F0.0
sVconstipated
p4200
F6.220955035164415e-05
sVlarger
p4201
F4.813187838066421e-05
sVdistrubance
p4202
F0.0
sVurethra
p4203
F0.00018662865105493248
sVaches
p4204
F0.0
sVmigraine
p4205
F0.0
sVconcoction
p4206
F0.0
sVbenign
p4207
F6.220955035164415e-05
sVcomplaints
p4208
F3.814361116131205e-05
sVdevelopment
p4209
F7.62872223226241e-05
sVlatency
p4210
F0.0
sVyesterday
p4211
F6.220955035164415e-05
sVmoment
p4212
F5.0641360126089734e-05
sVpurpose
p4213
F4.223301591293984e-05
sVswish
p4214
F0.0
sVwerewolf
p4215
F0.0
sVcodeine
p4216
F0.0
sVspent
p4217
F7.62872223226241e-05
sVflags
p4218
F6.220955035164415e-05
sVrozerem
p4219
F0.0
sVwithdraw
p4220
F6.220955035164415e-05
sVentry
p4221
F7.62872223226241e-05
sVchemistry
p4222
F0.0
sVspend
p4223
F4.813187838066421e-05
sVprevention
p4224
F0.0
sV1960
p4225
F0.0
sVldn
p4226
F0.0
sVisolated
p4227
F0.0
sVshape
p4228
F3.814361116131205e-05
sVopenly
p4229
F0.0
sVirritable
p4230
F0.0002488382014065766
sValternative
p4231
F0.00026700527812918435
sVinjuries
p4232
F0.0
sVletting
p4233
F6.220955035164415e-05
sVcut
p4234
F5.0641360126089734e-05
sVbrusselsmuseumsnocturnes
p4235
F0.0
sVhated
p4236
F0.0001244191007032883
sVfentanyl
p4237
F0.0
sVsource
p4238
F9.626375676132842e-05
sVexcited
p4239
F3.814361116131205e-05
sVridiculously
p4240
F6.220955035164415e-05
sVbig
p4241
F5.0641360126089734e-05
sVrebound
p4242
F0.0
sVmatters
p4243
F7.62872223226241e-05
sVhallucinations
p4244
F0.0
sVbit
p4245
F0.00019623527048859775
sVknock
p4246
F0.0003051488892904964
sVstranger
p4247
F6.220955035164415e-05
sVsemi
p4248
F2.4065939190332104e-05
sVglove
p4249
F6.220955035164415e-05
sVzoloft
p4250
F0.0
sVindication
p4251
F3.814361116131205e-05
sVrheumatoid
p4252
F0.0
sVptsd
p4253
F0.0
sVgoogle
p4254
F0.0003051488892904964
sVoften
p4255
F0.00091450568923262
sVjibes
p4256
F0.0
sVmetabolic
p4257
F0.0
sVabsolutely
p4258
F0.00026747576744861896
sV30s
p4259
F0.0001244191007032883
sVback
p4260
F0.00048109292119785256
sVstrongest
p4261
F6.220955035164415e-05
sVexamples
p4262
F0.0009953528056263065
sVcandle
p4263
F0.0001244191007032883
sVscale
p4264
F0.00019071805580656026
sVaffects
p4265
F0.00019071805580656026
sVdecision
p4266
F4.813187838066421e-05
sVper
p4267
F0.00045772333393574467
sVpen
p4268
F2.4065939190332104e-05
sVconnecting
p4269
F3.814361116131205e-05
sVeliminate
p4270
F0.0
sVscalp
p4271
F0.0
sVpee
p4272
F0.00018662865105493248
sVnose
p4273
F2.8155343941959888e-05
sVpatient
p4274
F0.0017418674098460363
sVtrimipramine
p4275
F0.0
sV300
p4276
F3.814361116131205e-05
sV302
p4277
F0.0001244191007032883
sVcontinuing
p4278
F6.220955035164415e-05
sV306
p4279
F0.0
sVtripping
p4280
F0.0
sVgerd
p4281
F0.0
sVabandoment
p4282
F0.0
sVexercises
p4283
F0.0
sVcrps
p4284
F0.0
sVreabsorbed
p4285
F0.0
sVdelusional
p4286
F6.220955035164415e-05
sVcalming
p4287
F0.0
sVtieflicht
p4288
F0.0
sVpharmaceuticals
p4289
F0.0
sVhomemade
p4290
F6.220955035164415e-05
sVforward
p4291
F0.0
sVbored
p4292
F6.220955035164415e-05
sVhopes
p4293
F3.814361116131205e-05
sVjags
p4294
F0.0
sVdirected
p4295
F0.0
sVabortives
p4296
F0.0
sVludiomil
p4297
F0.0
sVconstant
p4298
F0.0003814361116131205
sVsingle
p4299
F5.0641360126089734e-05
sVcure
p4300
F0.00043546685246150906
sVcurb
p4301
F6.220955035164415e-05
sVc17s1
p4302
F0.0
sVtramulief
p4303
F0.0
sVadjudicate
p4304
F0.0
sVcohesive
p4305
F0.0
sVexcuses
p4306
F0.0
sVbutterbur
p4307
F0.0
sVunderweight
p4308
F0.0
sVcellar
p4309
F6.220955035164415e-05
sVmisfill
p4310
F0.0
sVluxurious
p4311
F6.220955035164415e-05
sVfructose
p4312
F0.0
sVvehicles
p4313
F0.0
sV2003
p4314
F7.62872223226241e-05
sV2007
p4315
F0.0
sVrestraining
p4316
F6.220955035164415e-05
sVamplified
p4317
F0.0
sVonlinelibrary
p4318
F0.0
sVintensive
p4319
F0.0001244191007032883
sVhelps
p4320
F0.0017927497245816665
sVdekmantel
p4321
F0.0
sVfatal
p4322
F3.814361116131205e-05
sVingredient
p4323
F6.220955035164415e-05
sVrandom
p4324
F7.62872223226241e-05
sVacdfc5
p4325
F0.0
sVputting
p4326
F4.223301591293984e-05
sVsurgeon
p4327
F0.0
sVseverely
p4328
F0.0001244191007032883
sVcandl
p4329
F0.0
sVantihistaminergic
p4330
F0.0
sVshock
p4331
F3.814361116131205e-05
sVnarcoleptic
p4332
F0.0
sVhavent
p4333
F0.0
sVsavella
p4334
F0.0
sVjoey
p4335
F0.0
sVbleeding
p4336
F0.0002488382014065766
sVuncomfortably
p4337
F0.0
sVuncomfortable
p4338
F0.00018662865105493248
sV3x
p4339
F0.0
sVgiving
p4340
F0.00014077671970979944
sVaccess
p4341
F3.814361116131205e-05
sVbruxism
p4342
F0.0
sV3a
p4343
F0.0
sVexercise
p4344
F0.001181981456681239
sVbody
p4345
F0.0002468766306146875
sVsink
p4346
F2.4065939190332104e-05
sVothers
p4347
F0.00029563111139057887
sVoxidative
p4348
F6.220955035164415e-05
sVsafer
p4349
F0.0
sVirritating
p4350
F0.0
sVextreme
p4351
F0.00014439563514199265
sV39
p4352
F0.00011443083348393617
sVnumbness
p4353
F0.0
sVfrusemide
p4354
F0.0
sV35
p4355
F7.62872223226241e-05
sVcefepine
p4356
F0.0
sVdepressant
p4357
F0.0
sVnamed
p4358
F1.4077671970979944e-05
sVformulated
p4359
F0.0
sVlimp
p4360
F6.220955035164415e-05
sVprivate
p4361
F0.00012032969595166052
sVdecrease
p4362
F0.00043546685246150906
sVnames
p4363
F4.813187838066421e-05
sVminuteclinic
p4364
F0.0
sVviibryd
p4365
F0.0
sVchf
p4366
F0.0
sVpainkiller
p4367
F0.0
sVclassically
p4368
F0.00018662865105493248
sVoils
p4369
F0.0
sVnimodipine
p4370
F0.0
sVscreening
p4371
F6.220955035164415e-05
sVupcoming
p4372
F0.0
sVduper
p4373
F0.0
sVtrail
p4374
F6.220955035164415e-05
sVtrain
p4375
F6.220955035164415e-05
sV4am
p4376
F0.0
sViii
p4377
F0.0
sVfan
p4378
F2.4065939190332104e-05
sVmajority
p4379
F0.00019071805580656026
sVaccount
p4380
F7.62872223226241e-05
sVhypertonic
p4381
F0.0
sVobvious
p4382
F0.00014439563514199265
sVdidnt
p4383
F0.0001244191007032883
sVsnacks
p4384
F0.0
sVeffectively
p4385
F0.0
sVbones
p4386
F2.4065939190332104e-05
sVpsyched
p4387
F6.220955035164415e-05
sVvaried
p4388
F3.814361116131205e-05
sVnoises
p4389
F0.00018662865105493248
sVtrazadone
p4390
F0.0
sVholds
p4391
F1.4077671970979944e-05
sVregions
p4392
F0.0
sVvaries
p4393
F0.0
sVsnipping
p4394
F0.0
sVketoconazole
p4395
F0.0
sVstock
p4396
F7.219781757099632e-05
sVprofile
p4397
F0.0003051488892904964
sVlt042
p4398
F0.0
sVbyetta
p4399
F0.0
sVfran
p4400
F0.0
sVhighs
p4401
F0.0
sVcollection
p4402
F3.814361116131205e-05
sVauthorative
p4403
F0.0
sVphysio
p4404
F0.0
sVprostate
p4405
F6.220955035164415e-05
sVchasing
p4406
F3.814361116131205e-05
sVbind
p4407
F0.0
sVlines
p4408
F2.4065939190332104e-05
sVaddiction
p4409
F0.0
sVpurported
p4410
F0.0
sVemsam
p4411
F0.0
sVfortunate
p4412
F0.0
sVbunch
p4413
F0.00012032969595166052
sVantipsychotic
p4414
F0.0
sVtsh
p4415
F0.0
sVla
p4416
F1.2660340031522434e-05
sVlo
p4417
F0.0
sVll
p4418
F0.0004051308810087179
sV3239560
p4419
F0.0
sVlabor
p4420
F0.0
sVage
p4421
F9.854370379685961e-05
sVwilling
p4422
F0.0003051488892904964
sVtsp
p4423
F0.0
sVdad
p4424
F4.813187838066421e-05
sVgreater
p4425
F0.00011443083348393617
sVmention
p4426
F0.00016846157433232474
sVcutting
p4427
F4.813187838066421e-05
sVday
p4428
F0.0
sVsynaptic
p4429
F0.0
sVverifying
p4430
F0.0
sVpreclude
p4431
F0.0
sVidentified
p4432
F6.220955035164415e-05
sVl4
p4433
F0.0
sVl5
p4434
F0.0
sVlamictal
p4435
F0.0
sVactivate
p4436
F3.814361116131205e-05
sVcelexa
p4437
F0.0
sVjunkie
p4438
F6.220955035164415e-05
sVhuntington
p4439
F0.0
sVsexual
p4440
F0.0004976764028131532
sVpopping
p4441
F3.814361116131205e-05
sVkids
p4442
F3.814361116131205e-05
sVmate
p4443
F2.4065939190332104e-05
sVsituational
p4444
F0.0
sVsocalled
p4445
F0.0
sVrem
p4446
F0.0
sVred
p4447
F1.2660340031522434e-05
sVworkflow
p4448
F0.0
sVartdet
p4449
F0.0
sVlikelihood
p4450
F0.0
sVbleed
p4451
F2.4065939190332104e-05
sVzirtek
p4452
F0.0
sVinteraction
p4453
F0.0003110477517582208
sVcured
p4454
F0.00018662865105493248
sVcounterintuitively
p4455
F0.0
sVoaxacan
p4456
F0.0
sVgrieving
p4457
F0.0
sVfinest
p4458
F2.4065939190332104e-05
sVfuriex
p4459
F0.0
sVimprovements
p4460
F6.220955035164415e-05
sVsadly
p4461
F0.0
sVmonkey
p4462
F7.62872223226241e-05
sVlaps
p4463
F0.0
sVpots
p4464
F6.220955035164415e-05
sVrealistically
p4465
F0.0
sVvagina
p4466
F0.0001244191007032883
sVintermediate
p4467
F0.0
sVvagine
p4468
F0.0
sVfiorecet
p4469
F0.0
sVmessing
p4470
F6.220955035164415e-05
sVscans
p4471
F0.0
sVexplanation
p4472
F6.220955035164415e-05
sVwrithe
p4473
F0.0
sVenvironmental
p4474
F0.0
sVtopomax
p4475
F0.0
sVloved
p4476
F3.814361116131205e-05
sVcomfortable
p4477
F3.814361116131205e-05
sVunlikely
p4478
F0.0
sVapparently
p4479
F0.00014439563514199265
sVhaywire
p4480
F0.0
sVmin
p4481
F6.220955035164415e-05
sVsecreted
p4482
F0.0
sVmix
p4483
F0.0003369231486646495
sVconcerns
p4484
F0.0
sVunless
p4485
F0.0003369231486646495
sVprednisone
p4486
F0.0
sVmimics
p4487
F0.0
sVeight
p4488
F9.626375676132842e-05
sVsfk
p4489
F0.0
sVgather
p4490
F3.814361116131205e-05
sVrequest
p4491
F7.219781757099632e-05
sVdisease
p4492
F0.0005721541674196807
sVrelievers
p4493
F0.0
sVskinny
p4494
F0.00018662865105493248
sVmonotherapy
p4495
F0.0
sVnormally
p4496
F0.0003051488892904964
sVnortryptiline
p4497
F0.0
sVtext
p4498
F7.62872223226241e-05
sVsupported
p4499
F0.0001244191007032883
sVvistaril
p4500
F0.0
sVthicker
p4501
F6.220955035164415e-05
sVstaff
p4502
F6.220955035164415e-05
sV5pm
p4503
F0.0
sVknowledge
p4504
F0.00022886166696787233
sVsparks
p4505
F0.0
sVcholestyramine
p4506
F0.0
sVcontrols
p4507
F0.00011443083348393617
sVregularly
p4508
F0.0002488382014065766
sVpharmacology
p4509
F0.0
sVastigmatism
p4510
F0.0
sVbear
p4511
F3.814361116131205e-05
sVdumbing
p4512
F6.220955035164415e-05
sVmum
p4513
F3.814361116131205e-05
sVknowledgable
p4514
F0.0
sVareas
p4515
F0.0001244191007032883
sVorgan
p4516
F6.220955035164415e-05
sVht2a
p4517
F0.0
sVcalling
p4518
F5.6310687883919776e-05
sVfixed
p4519
F0.00011443083348393617
sVopiod
p4520
F0.0
sVgabapentin
p4521
F0.0
sVenhancer
p4522
F0.0
sVexists
p4523
F3.814361116131205e-05
sVgroggy
p4524
F0.0
sVdislodge
p4525
F6.220955035164415e-05
sVintensity
p4526
F0.0003110477517582208
sVenhanced
p4527
F6.220955035164415e-05
sVracket
p4528
F0.0
sVphases
p4529
F0.0
sVattempting
p4530
F2.4065939190332104e-05
sVpattern
p4531
F0.0
sVdifficulties
p4532
F0.0
sVwean
p4533
F0.0
sVprogress
p4534
F1.4077671970979944e-05
sVaspartame
p4535
F6.220955035164415e-05
sVoptional
p4536
F6.220955035164415e-05
sVlegit
p4537
F6.220955035164415e-05
sVempathy
p4538
F0.0
sVinstant
p4539
F3.814361116131205e-05
sVjoke
p4540
F3.814361116131205e-05
sVtaking
p4541
F0.0007342997218283013
sVattributed
p4542
F0.0001244191007032883
sVscientificamerican
p4543
F0.0
sVgabapentine
p4544
F0.0
sVgabapenting
p4545
F0.0
sVswim
p4546
F3.814361116131205e-05
sVswallow
p4547
F3.814361116131205e-05
sVplacebo
p4548
F0.0
sVotherwise
p4549
F0.00014439563514199265
sVcomment
p4550
F0.00026700527812918435
sVdetailed
p4551
F6.220955035164415e-05
sVrelevant
p4552
F0.0
sVtimolol
p4553
F0.0
sVgone
p4554
F6.963187017337339e-05
sVabortive
p4555
F0.0
sVlaugh
p4556
F2.4065939190332104e-05
sVspecializes
p4557
F0.0
sVianad
p4558
F0.0
sVianal
p4559
F0.0
sVimprove
p4560
F0.00011443083348393617
sVfinished
p4561
F4.813187838066421e-05
sVtense
p4562
F0.0
sVbull
p4563
F6.220955035164415e-05
sVfellow
p4564
F6.220955035164415e-05
sVvolunteer
p4565
F6.220955035164415e-05
sVmulti
p4566
F2.4065939190332104e-05
sVhepatocellular
p4567
F0.0
sVplain
p4568
F7.219781757099632e-05
sVvalue
p4569
F4.223301591293984e-05
sVpromotes
p4570
F0.0
sVcaving
p4571
F0.0
sVfrustrating
p4572
F0.0
sVmanually
p4573
F0.0001244191007032883
sValmost
p4574
F0.00013926374034674678
sVav
p4575
F0.0
sVhelped
p4576
F0.002174185836194787
sVpartner
p4577
F0.00019071805580656026
sVadministration
p4578
F0.0001244191007032883
sVturkpsikiyatri
p4579
F0.0
sVinjured
p4580
F0.0
sVzanjabee
p4581
F0.0
sViop
p4582
F0.0
sVblockers
p4583
F0.0009953528056263065
sVfucked
p4584
F0.0002488382014065766
sVcenter
p4585
F7.219781757099632e-05
sVthought
p4586
F0.00026747576744861896
sVsets
p4587
F2.8155343941959888e-05
sVposition
p4588
F4.223301591293984e-05
sVmuscle
p4589
F0.0013686101077361713
sVprolapsed
p4590
F0.0
sVusual
p4591
F0.00018662865105493248
sVstores
p4592
F0.00011443083348393617
sVclinic
p4593
F0.0
sVunderlying
p4594
F3.814361116131205e-05
sVbooks
p4595
F3.814361116131205e-05
sVloperamide
p4596
F0.0
sVmaxalts
p4597
F0.0
sVads
p4598
F6.220955035164415e-05
sVabsorption
p4599
F0.0
sVergots
p4600
F0.0
sVadd
p4601
F0.00021659345271298895
sVmatch
p4602
F2.4065939190332104e-05
sVresolved
p4603
F3.814361116131205e-05
sVtests
p4604
F0.0006220955035164416
sVfyi
p4605
F0.0
sVdeployment
p4606
F0.0
sVinsert
p4607
F0.0001244191007032883
sVlike
p4608
F0.0
sVsuccess
p4609
F0.0003814361116131205
sVadmitted
p4610
F0.0001244191007032883
sV24362450
p4611
F0.0
sVedit
p4612
F0.0011197719063295948
sVworks
p4613
F0.0010829672635649448
sVaccessible
p4614
F0.0001244191007032883
sVreglan
p4615
F0.0
sVauthority
p4616
F6.220955035164415e-05
sVhair
p4617
F2.4065939190332104e-05
sVconvey
p4618
F0.0
sVrecommendation
p4619
F6.220955035164415e-05
sVproper
p4620
F1.4077671970979944e-05
sVfaxes
p4621
F0.0
sVsupportive
p4622
F0.0
sVhappens
p4623
F9.854370379685961e-05
sVendongenous
p4624
F0.0
sVtmd
p4625
F0.0
sVassuming
p4626
F0.0
sVscrewed
p4627
F0.0001525744446452482
sVtmj
p4628
F0.0
sVnoise
p4629
F1.4077671970979944e-05
sVslight
p4630
F0.00019071805580656026
sVlessens
p4631
F0.0
sVcombative
p4632
F0.0
sVstellar
p4633
F0.0
sVneurosurgeon
p4634
F0.0
sValthough
p4635
F0.0003660194712454786
sVworthy
p4636
F3.814361116131205e-05
sVpreventative
p4637
F0.0
sVbizarre
p4638
F6.220955035164415e-05
sVpanel
p4639
F3.814361116131205e-05
sVactual
p4640
F0.00018662865105493248
sVui0
p4641
F0.0
sVnonstressful
p4642
F0.0
sVbloodstream
p4643
F6.220955035164415e-05
sVbyszvbfbpty
p4644
F0.0
sVlocalised
p4645
F0.0
sVobliterated
p4646
F0.0
sVfunctional
p4647
F0.00018662865105493248
sVchronic
p4648
F0.0031726870679338517
sVguard
p4649
F2.4065939190332104e-05
sVdoesnt
p4650
F3.814361116131205e-05
sVfemale
p4651
F7.219781757099632e-05
sV1987
p4652
F0.0
sVadolescent
p4653
F0.0
sVopanaer
p4654
F0.0
sVrcs
p4655
F0.0
sVrushes
p4656
F7.62872223226241e-05
sVburning
p4657
F3.814361116131205e-05
sVbiggest
p4658
F0.0001525744446452482
sVbuy
p4659
F9.626375676132842e-05
sVdextroamphetamine
p4660
F0.0
sVbur
p4661
F0.0
sVbrand
p4662
F2.4065939190332104e-05
sVrepeated
p4663
F6.220955035164415e-05
sVbug
p4664
F3.814361116131205e-05
sVpartially
p4665
F3.814361116131205e-05
sVwise
p4666
F0.00037325730210986495
sVdangerous
p4667
F0.0002887912702839853
sVj
p4668
F0.00011443083348393617
sVantidepressives
p4669
F0.0
sVpii
p4670
F0.0
sVpenetrating
p4671
F6.220955035164415e-05
sVdomino
p4672
F0.0
sVlidoderm
p4673
F0.0
sVperiods
p4674
F0.00043546685246150906
sVpis
p4675
F0.0
sVpit
p4676
F6.220955035164415e-05
sVglutamate
p4677
F0.0
sVliquicaps
p4678
F0.0
sVoab
p4679
F0.0
sV48
p4680
F7.62872223226241e-05
sV49
p4681
F6.220955035164415e-05
sV45
p4682
F4.813187838066421e-05
sVdetail
p4683
F0.00022886166696787233
sV40
p4684
F0.00012032969595166052
sVsurreal
p4685
F0.0
sVducked
p4686
F6.220955035164415e-05
sVstimulant
p4687
F0.0
sVcategory
p4688
F0.00019071805580656026
sVrya0_hghxus0
p4689
F0.0
sVvalproate
p4690
F0.0
sVgoin
p4691
F3.814361116131205e-05
sVhuntingtin
p4692
F0.0
sV4x
p4693
F0.0
sVoral
p4694
F0.0006843050538680856
sVhikes
p4695
F0.0
sV_apasserby_
p4696
F0.0
sVpupil
p4697
F0.0
sV4a
p4698
F6.220955035164415e-05
sVlimited
p4699
F0.0001244191007032883
sVimplants
p4700
F0.0
sVsleep
p4701
F0.00332109960826583
sVappetite
p4702
F0.0009953528056263065
sVhate
p4703
F0.0005598859531647974
sVpoorly
p4704
F6.220955035164415e-05
sVfeeding
p4705
F7.62872223226241e-05
sVpatches
p4706
F0.0001525744446452482
sVjaipur
p4707
F0.0
sVcrises
p4708
F0.0
sV30min
p4709
F0.0
sVpatched
p4710
F0.0
sVwhatsoever
p4711
F3.814361116131205e-05
sV50mg
p4712
F0.0
sVrisk
p4713
F0.0004091209662356458
sVcitalopram
p4714
F0.0
sVevery
p4715
F0.0004051308810087179
sVvastly
p4716
F0.0
sVtheanine
p4717
F0.0
sVloneliness
p4718
F0.0
sVenjoy
p4719
F7.219781757099632e-05
sVcracker
p4720
F6.220955035164415e-05
sVconsistent
p4721
F6.220955035164415e-05
sVdirect
p4722
F6.220955035164415e-05
sVsurrounding
p4723
F3.814361116131205e-05
sVstreet
p4724
F6.220955035164415e-05
sVfaecal
p4725
F0.0
sVworsen
p4726
F0.0
sVselected
p4727
F0.0001244191007032883
sVconduct
p4728
F0.0
sVmints
p4729
F0.0
sVinjections
p4730
F0.0
sVwoozy
p4731
F0.0
sVnytron
p4732
F0.0
sVstudio
p4733
F6.220955035164415e-05
sVpath
p4734
F2.8155343941959888e-05
sVcefuroxime
p4735
F0.0
sVleaves
p4736
F4.223301591293984e-05
sVchanged
p4737
F0.00012032969595166052
sVmuseums
p4738
F6.220955035164415e-05
sVsettled
p4739
F0.00018662865105493248
sVchanger
p4740
F0.0
sVprints
p4741
F6.220955035164415e-05
sVstraw
p4742
F3.814361116131205e-05
sVfeelings
p4743
F3.814361116131205e-05
sVvisible
p4744
F7.62872223226241e-05
sVforums
p4745
F6.220955035164415e-05
sVswings
p4746
F0.0002488382014065766
sVwould
p4747
F0.0
sVhospital
p4748
F0.00026700527812918435
sVlessening
p4749
F0.0
sVdepakote
p4750
F0.0
sVassessment
p4751
F0.0001244191007032883
sVdressing
p4752
F7.62872223226241e-05
sVphone
p4753
F0.00019071805580656026
sVbreaths
p4754
F0.0
sVexcellent
p4755
F0.0001244191007032883
sVmust
p4756
F0.0
sVshoot
p4757
F3.814361116131205e-05
sVmd
p4758
F0.0
sVmg
p4759
F0.0
sVcheapest
p4760
F6.220955035164415e-05
sVmm
p4761
F3.814361116131205e-05
sVml
p4762
F0.0
sVtremendously
p4763
F0.0
sVmj
p4764
F0.0
sVriperdol
p4765
F0.0
sVms
p4766
F0.00037325730210986495
sVaddictive
p4767
F0.0
sVloosen
p4768
F0.0
sVdiminished
p4769
F0.0
sVtimes
p4770
F0.0
sVmuseedelavilledebruxelles
p4771
F0.0
sVlexapro
p4772
F0.0
sVlooses
p4773
F6.220955035164415e-05
sVend
p4774
F0.00010128272025217947
sVsitting
p4775
F0.00022886166696787233
sVquivver
p4776
F0.0
sVlesions
p4777
F6.220955035164415e-05
sVent
p4778
F0.0
sVtoxin
p4779
F0.0
sVtoxic
p4780
F0.0
sVbadly
p4781
F5.6310687883919776e-05
sV1200mg
p4782
F0.0
sVmess
p4783
F0.00011443083348393617
sVarthritis
p4784
F0.0
sVparallel
p4785
F0.0
sVcopay
p4786
F0.0
sVaaaaaannnnnyway
p4787
F0.0
sVtetracyclic
p4788
F0.0
sVhypotheses
p4789
F0.0
sVupside
p4790
F3.814361116131205e-05
sVenter
p4791
F2.8155343941959888e-05
sVfillers
p4792
F0.0
sVrxconnect
p4793
F0.0
sVjacuzzi
p4794
F0.0
sVlondon
p4795
F0.0
sVlevofloxican
p4796
F0.0
sVbeside
p4797
F1.4077671970979944e-05
sVnormelatonin
p4798
F0.0
sVncbi
p4799
F0.0
sVcanto
p4800
F0.0
sVwriting
p4801
F4.813187838066421e-05
sVdestroyed
p4802
F6.220955035164415e-05
sVedits
p4803
F0.0
sVfade
p4804
F0.00011443083348393617
sVpropanalol
p4805
F0.0
sVdiseases
p4806
F0.00018662865105493248
sVpotentiation
p4807
F0.0
sVnline
p4808
F0.0
sValex
p4809
F0.0
sVwuling
p4810
F0.0
sVexplode
p4811
F0.0
sVfilling
p4812
F0.00012669904773881952
sVfitness
p4813
F6.220955035164415e-05
sVlasting
p4814
F0.0002488382014065766
sVconstipation
p4815
F0.00018662865105493248
sVcombining
p4816
F0.0001244191007032883
sVsaturday
p4817
F0.0
sVclozapine
p4818
F0.0
sVdriving
p4819
F0.00011443083348393617
sVgod
p4820
F7.62872223226241e-05
sVintegrative
p4821
F0.0
sVcounselors
p4822
F0.0
sVadjust
p4823
F0.0001244191007032883
sVgot
p4824
F0.0003544895208826282
sVnewly
p4825
F6.220955035164415e-05
sVgov
p4826
F0.0007465146042197299
sVperception
p4827
F6.220955035164415e-05
sVhang
p4828
F7.038835985489972e-05
sVfree
p4829
F0.0001548543916807794
sVcirrhosis
p4830
F0.0
sVmasterpiece
p4831
F0.0
sVinjectable
p4832
F0.0
sVwanted
p4833
F0.0008391594455488652
sVfret
p4834
F0.0
sVritual
p4835
F6.220955035164415e-05
sVdays
p4836
F0.0008305826462878168
sVtolerant
p4837
F0.0
sVheck
p4838
F0.0001244191007032883
sVhopeless
p4839
F0.0002488382014065766
sVsoda
p4840
F6.220955035164415e-05
sVonto
p4841
F2.4065939190332104e-05
sValready
p4842
F0.00013293357033098557
sVtrkb
p4843
F0.0
sVtrka
p4844
F0.0
sVcoding
p4845
F6.220955035164415e-05
sVprimary
p4846
F0.0003432925004518085
sVhearing
p4847
F7.62872223226241e-05
sVrestrict
p4848
F0.0
sVrant
p4849
F0.0
sVnhs
p4850
F0.0
sVsober
p4851
F6.220955035164415e-05
sVcalorie
p4852
F6.220955035164415e-05
sVsharpest
p4853
F0.0
sVdysfunction
p4854
F0.0
sVtop
p4855
F0.0001830097356227393
sVeuphoric
p4856
F0.0
sVfiction
p4857
F6.220955035164415e-05
sVkinder
p4858
F0.0
sVton
p4859
F0.0004976764028131532
sVmotility
p4860
F0.0
sVanalgesic
p4861
F0.0
sVduress
p4862
F0.0
sVglucose
p4863
F0.0
sVcurtains
p4864
F3.814361116131205e-05
sVmurder
p4865
F0.0002488382014065766
sVantihypertensive
p4866
F0.0
sVcentered
p4867
F6.220955035164415e-05
sVtool
p4868
F6.220955035164415e-05
sVserve
p4869
F3.814361116131205e-05
sVtook
p4870
F0.00029118782072501604
sV150mg
p4871
F0.0
sVbloated
p4872
F0.0
sVclasses
p4873
F0.00012669904773881952
sVmodulators
p4874
F0.0
sVlbs
p4875
F0.0
sVran
p4876
F0.00014439563514199265
sVtalking
p4877
F0.0008087241545713741
sVrat
p4878
F3.814361116131205e-05
sVadhd
p4879
F0.0
sVbdnf
p4880
F0.0
sVunaffected
p4881
F0.0
sVrelatively
p4882
F0.0002488382014065766
sVrelapse
p4883
F0.0
sV1964
p4884
F0.0
sVdegenerates
p4885
F0.0
sV1961
p4886
F0.0
sVthorough
p4887
F0.0
sVoriented
p4888
F0.0
sVlaughed
p4889
F0.0
sVcleft
p4890
F0.0
sVeffectiveness
p4891
F0.0
sVrides
p4892
F0.00018662865105493248
sVprescribes
p4893
F0.0
sVplenty
p4894
F0.00019071805580656026
sVpromotions
p4895
F0.0
sVthc
p4896
F0.0
sVdevastating
p4897
F0.0
sVflow
p4898
F0.0002488382014065766
sVreputation
p4899
F3.814361116131205e-05
sVdeclaw
p4900
F0.0
sV1hr
p4901
F0.0
sVreorganize
p4902
F0.0
sVlabels
p4903
F0.00012032969595166052
sVsituations
p4904
F7.219781757099632e-05
sVocd
p4905
F0.0
sVklonapin
p4906
F0.0
sVclaritin
p4907
F0.0
sVwatch
p4908
F0.0
sVfluid
p4909
F0.0001244191007032883
sVredditor
p4910
F0.0
sVdespite
p4911
F7.038835985489972e-05
sVreport
p4912
F0.00026700527812918435
sVknocks
p4913
F6.220955035164415e-05
sVcountries
p4914
F6.220955035164415e-05
sVidiotic
p4915
F0.0
sVtwice
p4916
F0.00019252751352265683
sVshots
p4917
F0.00011443083348393617
sVhippocratical
p4918
F0.0
sVautomatic
p4919
F3.814361116131205e-05
sVcataplexy
p4920
F0.0
sVhabit
p4921
F0.0
sV1960s
p4922
F0.0
sVvalsartan
p4923
F0.0
sVrecieve
p4924
F0.0
sVdepressive
p4925
F0.0
sVcapacity
p4926
F0.0
sVmus
p4927
F0.0
sVgrandmother
p4928
F6.220955035164415e-05
sVhopefully
p4929
F0.0
sVtraits
p4930
F0.0
sVapproach
p4931
F0.00019071805580656026
sVdiscovery
p4932
F0.0
sVconfusion
p4933
F6.220955035164415e-05
sVweak
p4934
F0.0001244191007032883
sVhowever
p4935
F0.0018690369469042906
sVnightmares
p4936
F0.0
sVwear
p4937
F0.0001525744446452482
sVcontamination
p4938
F0.0
sVnews
p4939
F7.219781757099632e-05
sVoxidase
p4940
F0.0
sVdrowsy
p4941
F0.0
sVptttfysqja4
p4942
F0.0
sVprotect
p4943
F0.0001244191007032883
sVfault
p4944
F1.4077671970979944e-05
sVamoxicillin
p4945
F0.0
sVventricular
p4946
F0.0
sVgames
p4947
F0.0001525744446452482
sVmildly
p4948
F0.0
sVexpense
p4949
F6.220955035164415e-05
sVbehaviors
p4950
F0.0
sVinactivate
p4951
F0.0
sVtrust
p4952
F0.00011443083348393617
sVnovember
p4953
F0.0
sVbathroom
p4954
F0.0001244191007032883
sVrotenone
p4955
F0.0
sVquickly
p4956
F0.0001548543916807794
sVbeer
p4957
F0.0001244191007032883
sVfmb005
p4958
F0.0
sVexpected
p4959
F9.626375676132842e-05
sVcontainers
p4960
F6.220955035164415e-05
sVbladder
p4961
F0.00018662865105493248
sVuncommon
p4962
F0.0001525744446452482
sVreadyfill
p4963
F0.0
sVneurontin
p4964
F0.0
sVauras
p4965
F0.0
sVlessen
p4966
F0.0
sVbuproprion
p4967
F0.0
sVn
p4968
F1.2660340031522434e-05
sVlesser
p4969
F6.220955035164415e-05
sVweren
p4970
F0.00014439563514199265
sVstopping
p4971
F0.0001525744446452482
sVcracked
p4972
F6.220955035164415e-05
sVprocedure
p4973
F0.00018662865105493248
sVclonazolam
p4974
F0.0
sVexperience
p4975
F0.00129688277948461
sVexterior
p4976
F0.0
sVmisspoke
p4977
F0.0
sVinteracts
p4978
F0.0
sVsuggest
p4979
F0.0008087241545713741
sVwound
p4980
F3.814361116131205e-05
sVforehead
p4981
F6.220955035164415e-05
sVcomplex
p4982
F0.00014439563514199265
sVseveral
p4983
F0.000724728612064929
sVharming
p4984
F0.0
sVdiazepam
p4985
F0.0
sVmedicating
p4986
F0.0001244191007032883
sVmisery
p4987
F6.220955035164415e-05
sVexcedrine
p4988
F0.0
sVbastard
p4989
F3.814361116131205e-05
sVconstricting
p4990
F0.0
sVfridays
p4991
F0.0
sVcyclo
p4992
F0.0
sVcharacters
p4993
F4.813187838066421e-05
sVpositives
p4994
F0.0
sVtyson
p4995
F0.0
sVcycle
p4996
F0.00022886166696787233
sVmentioning
p4997
F0.00018662865105493248
sVnarrow
p4998
F3.814361116131205e-05
sVshortly
p4999
F6.220955035164415e-05
sVneurologists
p5000
F0.0
sVprioritize
p5001
F6.220955035164415e-05
sVboxes
p5002
F3.814361116131205e-05
sVsavings
p5003
F0.0
sVgreatest
p5004
F3.814361116131205e-05
sVincapable
p5005
F6.220955035164415e-05
sVmother
p5006
F5.0641360126089734e-05
sValarms
p5007
F6.220955035164415e-05
sVpicc
p5008
F0.0
sVphenergran
p5009
F0.0
sVproposed
p5010
F0.0
sVinflammatories
p5011
F0.0
sVdopamine
p5012
F0.0
sVmonitored
p5013
F0.0
sVpharmacy
p5014
F0.0016174483091427481
sVteenager
p5015
F6.220955035164415e-05
sV5a
p5016
F0.0
sVtolerable
p5017
F0.0
sVgave
p5018
F0.0008391594455488652
sV1301571a
p5019
F0.0
sVbands
p5020
F0.0
sVaddicts
p5021
F0.0
sVtelework
p5022
F0.0
sVjudge
p5023
F3.814361116131205e-05
sVgift
p5024
F6.220955035164415e-05
sV55
p5025
F6.220955035164415e-05
sV50
p5026
F0.0001830097356227393
sV52
p5027
F7.62872223226241e-05
sVspecific
p5028
F0.00038505502704531367
sVinformative
p5029
F6.220955035164415e-05
sVoffices
p5030
F0.0
sVwhomever
p5031
F0.0
sVfrustrations
p5032
F0.0
sVsuccessfully
p5033
F0.0001244191007032883
sVexcerpt
p5034
F0.0
sVselectivity
p5035
F0.0
sVescape
p5036
F4.223301591293984e-05
sVice
p5037
F3.814361116131205e-05
sVeverything
p5038
F0.00013293357033098557
sVicy
p5039
F7.62872223226241e-05
sVatenolol
p5040
F0.0
sV424
p5041
F0.0
sVicu
p5042
F0.0
sVcord
p5043
F0.0
sVcore
p5044
F4.813187838066421e-05
sVhepatic
p5045
F0.0
sVdisappeared
p5046
F4.813187838066421e-05
sVmenopause
p5047
F0.0
sVchapter
p5048
F6.220955035164415e-05
sVcn5
p5049
F0.0
sVattacks
p5050
F0.0006843050538680856
sVsnris
p5051
F0.0
sVvengeance
p5052
F6.220955035164415e-05
sVplus
p5053
F0.00038505502704531367
sVtwitch
p5054
F6.220955035164415e-05
sVpresence
p5055
F2.8155343941959888e-05
sVobtaining
p5056
F0.0
sVbath
p5057
F6.220955035164415e-05
sVaccomplishments
p5058
F0.0
sVrounds
p5059
F0.0
sVvirgin
p5060
F2.4065939190332104e-05
sVhumalog
p5061
F0.0
sVmetabolism
p5062
F6.220955035164415e-05
sVhead
p5063
F0.00012660340031522436
sVhangover
p5064
F0.0001244191007032883
sVheal
p5065
F0.0
sVdifferences
p5066
F0.0001244191007032883
sVheat
p5067
F7.62872223226241e-05
sVhear
p5068
F0.00019708740759371923
sVremoved
p5069
F1.4077671970979944e-05
sVnodded
p5070
F0.0
sVrefreshing
p5071
F3.814361116131205e-05
sVadenosine
p5072
F0.0
sVtrim
p5073
F6.220955035164415e-05
sVsometime
p5074
F4.813187838066421e-05
sVannoying
p5075
F9.626375676132842e-05
sVcheck
p5076
F0.0004958669450970567
sVregime
p5077
F0.0
sVtechs
p5078
F0.0
sVna
p5079
F0.0
sVwhereas
p5080
F0.0002488382014065766
sVnc
p5081
F6.220955035164415e-05
sVtip
p5082
F2.4065939190332104e-05
sVloosening
p5083
F0.0
sVtil
p5084
F2.4065939190332104e-05
sVsetting
p5085
F4.223301591293984e-05
sVvicodin
p5086
F0.0
sVconstruits
p5087
F0.0
sVpapers
p5088
F6.220955035164415e-05
sVnp
p5089
F0.0
sVimplant
p5090
F0.0
sVtic
p5091
F0.0
sVnode
p5092
F0.0
sVpicture
p5093
F7.219781757099632e-05
sVmiscellaneous
p5094
F6.220955035164415e-05
sVlonger
p5095
F9.495255023641826e-05
sVbullet
p5096
F3.814361116131205e-05
sVserious
p5097
F0.00021659345271298895
sVintimacy
p5098
F0.0
sVneighbors
p5099
F6.220955035164415e-05
sVcoach
p5100
F0.0001244191007032883
sVantipsychotics
p5101
F0.0
sValternatives
p5102
F0.00018662865105493248
sVfocus
p5103
F0.00043546685246150906
sVleads
p5104
F7.219781757099632e-05
sVremarkably
p5105
F0.0
sVrow
p5106
F2.4065939190332104e-05
sVenvironment
p5107
F3.814361116131205e-05
sVcharge
p5108
F3.814361116131205e-05
sVpromoting
p5109
F0.0
sVstove
p5110
F6.220955035164415e-05
sVadvantage
p5111
F3.814361116131205e-05
sVcook
p5112
F3.814361116131205e-05
sVcool
p5113
F6.220955035164415e-05
sVimpressive
p5114
F6.220955035164415e-05
sVlevel
p5115
F6.330170015761218e-05
sVbrother
p5116
F0.00011443083348393617
sVmorningtrixie
p5117
F0.0
sVbooking
p5118
F0.0
sVquick
p5119
F1.2660340031522434e-05
sVwellbutrin
p5120
F0.0
sVurologist
p5121
F0.0
sVsays
p5122
F5.6971530141850965e-05
sVpeds
p5123
F0.0
sVirritates
p5124
F0.0
sVdried
p5125
F0.0
sVcomforting
p5126
F0.0
sVetizolam
p5127
F0.0
sVbacteria
p5128
F0.0001244191007032883
sV25ml
p5129
F0.0
sVstands
p5130
F2.4065939190332104e-05
sV25mg
p5131
F0.0
sVgoes
p5132
F4.4311190110328524e-05
sVreply
p5133
F0.00019071805580656026
sVprescriptions
p5134
F0.0
sV1238
p5135
F0.0
sVwater
p5136
F0.0003128572094743174
sVmethacholine
p5137
F0.0
sVtopiramate
p5138
F0.0
sVgroups
p5139
F0.00018662865105493248
sVthirty
p5140
F3.814361116131205e-05
sVhealthy
p5141
F0.00024065939190332105
sVstomachs
p5142
F0.0
sVexams
p5143
F0.0
sVaugmentin
p5144
F0.0
sVweird
p5145
F0.0004091209662356458
sVlowers
p5146
F6.220955035164415e-05
sVproblematic
p5147
F0.0001244191007032883
sVparalyzed
p5148
F0.0
sV1st
p5149
F7.62872223226241e-05
sVcrisis
p5150
F0.0
sVvivid
p5151
F0.0
sVbrighter
p5152
F6.220955035164415e-05
sVstated
p5153
F0.0001244191007032883
sVsports
p5154
F3.814361116131205e-05
sVhandles
p5155
F3.814361116131205e-05
sVcriteria
p5156
F0.0
sVaustralian
p5157
F0.0
sVpregabalin
p5158
F0.0
sVtoday
p5159
F0.00023932042350665908
sVsessions
p5160
F0.0003110477517582208
sVchocolate
p5161
F3.814361116131205e-05
sVbeers
p5162
F3.814361116131205e-05
sVcases
p5163
F0.0005598859531647974
sVlocal
p5164
F0.0001525744446452482
sVdepressants
p5165
F0.0
sVreflux
p5166
F0.0
sVdropper
p5167
F0.0
sVnursing
p5168
F0.0
sVfigure
p5169
F0.0003051488892904964
sVrecover
p5170
F2.4065939190332104e-05
sVstroke
p5171
F6.220955035164415e-05
sVdropped
p5172
F7.219781757099632e-05
sVquacks
p5173
F0.0
sVpainkillers
p5174
F0.0001244191007032883
sVdinner
p5175
F4.813187838066421e-05
sV1
p5176
F0.00030384816075653846
sVvital
p5177
F6.220955035164415e-05
sVensure
p5178
F0.00018662865105493248
sVcocktail
p5179
F6.220955035164415e-05
sVhuge
p5180
F8.862238022065705e-05
sVinsecurities
p5181
F0.0
sV4th
p5182
F0.0001244191007032883
sVdexedrine
p5183
F0.0
sVmisdiagnosed
p5184
F0.0
sVmgs
p5185
F0.0
sVliquid
p5186
F6.220955035164415e-05
sVjoint
p5187
F0.00043546685246150906
sV1ohm
p5188
F0.0
sVlegitimate
p5189
F0.0
sVexclusive
p5190
F6.220955035164415e-05
sVacts
p5191
F0.00019071805580656026
sVtripans
p5192
F0.0
sV126
p5193
F0.0
sVblocker
p5194
F0.0007465146042197299
sVmainly
p5195
F0.0001525744446452482
sVymmv
p5196
F0.0
sVparacetamol
p5197
F0.0
sVmoducare
p5198
F0.0
sVsupplemented
p5199
F0.0
sVparadoxically
p5200
F6.220955035164415e-05
sVhydroxizine
p5201
F0.0
sVgtn
p5202
F0.0
sVideation
p5203
F0.0
sVstatic
p5204
F6.220955035164415e-05
sV46222
p5205
F0.0
sVhappened
p5206
F8.446603182587967e-05
sVlonely
p5207
F7.62872223226241e-05
sVopiods
p5208
F0.0
sVmoms
p5209
F6.220955035164415e-05
sVconversations
p5210
F6.220955035164415e-05
sVunderneath
p5211
F1.4077671970979944e-05
sVqualified
p5212
F0.0001244191007032883
sVfeature
p5213
F3.814361116131205e-05
sVterm
p5214
F0.0005294506621873063
sVname
p5215
F6.963187017337339e-05
sVdoxy
p5216
F0.0
sVpossibilities
p5217
F0.0
sVnodding
p5218
F6.220955035164415e-05
sVrealise
p5219
F0.0
sVpopulated
p5220
F6.220955035164415e-05
sVnassa
p5221
F0.0
sVadequately
p5222
F0.0
sVintended
p5223
F0.0
sVultimately
p5224
F6.220955035164415e-05
sVfactors
p5225
F6.220955035164415e-05
sVprofit
p5226
F6.220955035164415e-05
sVinadequacy
p5227
F0.0
sVattended
p5228
F0.0
sVtheory
p5229
F0.00018662865105493248
sVsympathize
p5230
F0.0
sVcontain
p5231
F6.220955035164415e-05
sVantihistamines
p5232
F0.0
sVoasis
p5233
F0.0
sVclozaril
p5234
F0.0
sVescitralopram
p5235
F0.0
sVflare
p5236
F0.0
sVcalories
p5237
F0.0001244191007032883
sV10mg
p5238
F0.0
sVmotion
p5239
F7.62872223226241e-05
sVturn
p5240
F2.8155343941959888e-05
sVplace
p5241
F5.6971530141850965e-05
sVdiscontinued
p5242
F0.0
sV1000
p5243
F7.62872223226241e-05
sVorigin
p5244
F0.0001244191007032883
sVfetched
p5245
F0.0
sVglucagon
p5246
F0.0
sVsimplified
p5247
F0.0
sVpregablin
p5248
F0.0
sVcvomlru
p5249
F0.0
sVtingling
p5250
F0.0
sVgiven
p5251
F0.00013926374034674678
sVnecessarily
p5252
F0.0001525744446452482
sVstuck
p5253
F0.00011443083348393617
sVexpel
p5254
F0.0
sVcarbonate
p5255
F0.0
sVoids
p5256
F0.0
sVstimulation
p5257
F0.0001244191007032883
sVaromatherapy
p5258
F0.0
sVreturns
p5259
F1.4077671970979944e-05
sVesomeprazole
p5260
F0.0
sVterrifying
p5261
F0.0
sVwhite
p5262
F4.223301591293984e-05
sVreaaaally
p5263
F0.0
sVgives
p5264
F2.8155343941959888e-05
sVfexofenadine
p5265
F0.0
sVcopd
p5266
F0.0
sVreleaser
p5267
F0.0
sVseason
p5268
F6.220955035164415e-05
sVhuh
p5269
F3.814361116131205e-05
sVerectile
p5270
F0.0
sVcopy
p5271
F4.813187838066421e-05
sVspecify
p5272
F6.220955035164415e-05
sVpopulation
p5273
F7.62872223226241e-05
sVsert
p5274
F0.0
sVunfortunately
p5275
F0.0009953528056263065
sVrequire
p5276
F0.0001244191007032883
sVcards
p5277
F3.814361116131205e-05
sVoath
p5278
F6.220955035164415e-05
sVpre
p5279
F7.62872223226241e-05
sVana
p5280
F6.220955035164415e-05
sVpro
p5281
F0.0
sVimpingement
p5282
F0.0
sVtylenol
p5283
F0.0
sV_r3ni1nd
p5284
F0.0
sVsumatriptan
p5285
F0.0
sVexploratory
p5286
F0.0
sVideas
p5287
F0.0
sVideal
p5288
F7.62872223226241e-05
sVblunt
p5289
F6.220955035164415e-05
sVurge
p5290
F0.0
sVsure
p5291
F0.0005912622227811577
sVmultiple
p5292
F0.0003432925004518085
sVbotulinum
p5293
F0.0
sVfalls
p5294
F1.4077671970979944e-05
sVupregulating
p5295
F0.0
sVpleasure
p5296
F2.4065939190332104e-05
sVprobes
p5297
F0.0
sVpencils
p5298
F6.220955035164415e-05
sVtendon
p5299
F0.0
sVneuro
p5300
F0.0
sVlistful
p5301
F0.0
sVconsidered
p5302
F0.0004195797227744326
sVproud
p5303
F3.814361116131205e-05
sVhungry
p5304
F7.62872223226241e-05
sVmasturbation
p5305
F6.220955035164415e-05
sVwebmd
p5306
F0.0
sVdrastically
p5307
F0.0
sVcheap
p5308
F7.62872223226241e-05
sVtizanidine
p5309
F0.0
sVimplanon
p5310
F0.0
sVhack
p5311
F6.220955035164415e-05
sVvenlafaxin
p5312
F0.0
sVnlm
p5313
F0.0
sVstate
p5314
F0.00026472533109365314
sVpartake
p5315
F6.220955035164415e-05
sVnootropics
p5316
F0.0
sVtinnitus
p5317
F0.0
sVssi
p5318
F0.0
sVsciatic
p5319
F0.0
sVcautionary
p5320
F0.0
sVregarding
p5321
F0.00022886166696787233
sVendorphin
p5322
F0.0
sVkegals
p5323
F0.0
sVbarbaric
p5324
F0.0
sVpants
p5325
F6.220955035164415e-05
sVdiscussing
p5326
F6.220955035164415e-05
sVcollege
p5327
F0.0003110477517582208
sVexam
p5328
F0.0001244191007032883
sVfails
p5329
F0.00018662865105493248
sVdetect
p5330
F6.220955035164415e-05
sVinhibitory
p5331
F0.0
sVways
p5332
F5.6310687883919776e-05
sVreview
p5333
F0.0
sVdefinite
p5334
F6.220955035164415e-05
sVinhibitors
p5335
F0.0
sVoutside
p5336
F5.0641360126089734e-05
sVmessed
p5337
F0.00019071805580656026
sVcomp
p5338
F6.220955035164415e-05
sVvenlafaxine
p5339
F0.0
sVcities
p5340
F6.220955035164415e-05
sVcome
p5341
F0.00013926374034674678
sVreaction
p5342
F0.00026700527812918435
sVtopamax
p5343
F0.0
sV23
p5344
F4.813187838066421e-05
sVquiet
p5345
F2.8155343941959888e-05
sVcontract
p5346
F3.814361116131205e-05
sVduty
p5347
F7.62872223226241e-05
sVafterwards
p5348
F0.00012032969595166052
sVhepatotoxicity
p5349
F0.0
sVbricks
p5350
F0.0
sVpot
p5351
F7.62872223226241e-05
sVperiod
p5352
F0.00019708740759371923
sVpop
p5353
F0.00022886166696787233
sVthiazolidinediones
p5354
F0.0
sVpoo
p5355
F6.220955035164415e-05
sVpole
p5356
F3.814361116131205e-05
sVmris
p5357
F0.0
sV66
p5358
F6.220955035164415e-05
sVbabbling
p5359
F0.0
sV68
p5360
F6.220955035164415e-05
sV69
p5361
F0.0
sVendeavor
p5362
F0.0
sVturkey
p5363
F0.00043546685246150906
sVgeib
p5364
F0.0
sVparoxtine
p5365
F0.0
sVpeaceful
p5366
F6.220955035164415e-05
sVhelicopter
p5367
F0.0
sVhardly
p5368
F0.00011443083348393617
sV500
p5369
F6.220955035164415e-05
sV6a
p5370
F0.0
sVdirection
p5371
F2.5320680063044867e-05
sVpioglitazone
p5372
F0.0
sVexasperate
p5373
F0.0
sVactifed
p5374
F0.0
sVminister
p5375
F6.220955035164415e-05
sVdahlia
p5376
F0.0
sVcareful
p5377
F0.00026700527812918435
sVirrelevant
p5378
F6.220955035164415e-05
sVspirit
p5379
F2.4065939190332104e-05
sVcase
p5380
F0.0003097087833615588
sVcash
p5381
F3.814361116131205e-05
sVvoltaren
p5382
F0.0
sVnumbs
p5383
F0.0
sVcoupled
p5384
F0.0
sVside_effect
p5385
F0.0
sVsomeone
p5386
F0.0
sVsedating
p5387
F0.0
sVresentful
p5388
F0.0
sVrheumatologist
p5389
F0.0
sVrelaxant
p5390
F0.0
sVtrip
p5391
F0.00011443083348393617
sVhtml
p5392
F0.00018662865105493248
sVsuboxone
p5393
F0.0
sVagitated
p5394
F0.0
sVconstriction
p5395
F0.0
sVevents
p5396
F7.62872223226241e-05
sVweek
p5397
F0.0013236266554682659
sVween
p5398
F0.0
sVnest
p5399
F3.814361116131205e-05
sVdriver
p5400
F3.814361116131205e-05
sVcanisten
p5401
F0.0
sVpersons
p5402
F3.814361116131205e-05
sVdecently
p5403
F6.220955035164415e-05
sVvestibular
p5404
F0.0
sVchanging
p5405
F9.626375676132842e-05
sVfasting
p5406
F0.0
sVranch
p5407
F6.220955035164415e-05
sVwithout
p5408
F0.0
sVrelief
p5409
F0.0
sVcomponents
p5410
F6.220955035164415e-05
sVrelied
p5411
F0.0
sVmodel
p5412
F4.813187838066421e-05
sVreward
p5413
F3.814361116131205e-05
sVcommercials
p5414
F6.220955035164415e-05
sVresearchers
p5415
F0.0
sVguided
p5416
F0.0001244191007032883
sVkill
p5417
F7.038835985489972e-05
sVelectrolyte
p5418
F0.0
sVincurring
p5419
F0.0
sVrefills
p5420
F0.0
sVseems
p5421
F0.0002468766306146875
sVexcept
p5422
F0.00016893206365175935
sVcrohn
p5423
F0.0
sVblog
p5424
F3.814361116131205e-05
sVdecompression
p5425
F0.0
sVdisrupt
p5426
F0.0
sVdulls
p5427
F0.0
sVross
p5428
F0.0
sVsoundly
p5429
F0.0
sVelectrolytes
p5430
F0.0
sVacute
p5431
F0.0
sVfibromyalgia
p5432
F0.0
sVreduces
p5433
F0.0
sVsanity
p5434
F0.0
sVdonations
p5435
F0.0
sVreduced
p5436
F0.00043546685246150906
sVneuralgia
p5437
F0.0
sVoverheated
p5438
F0.0
sVcompetition
p5439
F7.62872223226241e-05
sVbjomvux77
p5440
F0.0
sVibuprofen
p5441
F0.0
sVprovided
p5442
F0.00011443083348393617
sVmood
p5443
F0.0011824519460006738
sVhighest
p5444
F0.00018662865105493248
sVlegal
p5445
F0.0001244191007032883
sVmoon
p5446
F7.62872223226241e-05
sVsmush
p5447
F0.0
sVprovider
p5448
F0.0
sVquitting
p5449
F0.0
sVbentyl
p5450
F0.0
sVnails
p5451
F6.220955035164415e-05
sVcommunicate
p5452
F0.0002488382014065766
sVmechanism_of_action
p5453
F0.0
sVcalmer
p5454
F0.0
sV120lb
p5455
F0.0
sV_
p5456
F0.0
sVjournaling
p5457
F0.0
sVol
p5458
F3.814361116131205e-05
sVok
p5459
F0.00019252751352265683
sVoh
p5460
F0.0003814361116131205
sVjeep
p5461
F0.0
sVketoprofen
p5462
F0.0
sVod
p5463
F0.0
sVdiscussed
p5464
F0.0
sVob
p5465
F0.0
sVstand
p5466
F8.446603182587967e-05
sVop
p5467
F0.0006843050538680856
sVamber
p5468
F0.0003110477517582208
sVladies
p5469
F2.4065939190332104e-05
sVlantus
p5470
F0.0
sVcommunication
p5471
F0.0
sVspinal
p5472
F0.0
sVrising
p5473
F0.0001244191007032883
sVcolesevelam
p5474
F0.0
sVdetermine
p5475
F0.00018662865105493248
sVamitryline
p5476
F0.0
sVjanuvia
p5477
F0.0
sVempathetic
p5478
F0.0
sVbuds
p5479
F0.0
sVstrictly
p5480
F3.814361116131205e-05
sVstrict
p5481
F6.220955035164415e-05
sVz8xnbmbynb0
p5482
F0.0
sVnitric
p5483
F6.220955035164415e-05
sVcultures
p5484
F0.0001244191007032883
sVenergy
p5485
F0.0006220955035164416
sVregard
p5486
F0.0
sVnortriptylene
p5487
F0.0
sVcabinet
p5488
F0.0001244191007032883
sVstrenuous
p5489
F0.0
sVpromote
p5490
F6.220955035164415e-05
sVfaster
p5491
F7.219781757099632e-05
sVapplying
p5492
F6.220955035164415e-05
sVmedrol
p5493
F0.0
sVcreeping
p5494
F0.0
sVstrongly
p5495
F0.0
sVcbc
p5496
F0.0
sVautoimmune
p5497
F0.0
sVcbd
p5498
F0.0
sVtaste
p5499
F7.219781757099632e-05
sVssri
p5500
F0.0
sVlimbitrlol
p5501
F0.0
sVomgwtf
p5502
F0.0
sVcorresponding
p5503
F0.0
sVincorrect
p5504
F0.0001244191007032883
sVhasnt
p5505
F0.0
sVrubbed
p5506
F6.220955035164415e-05
sVdiarrhea
p5507
F0.0003110477517582208
sVmiko
p5508
F0.0
sV5
p5509
F0.00022155595055164262
sVbriefly
p5510
F0.0001244191007032883
sVreleasing
p5511
F0.0001244191007032883
sVseparate
p5512
F3.814361116131205e-05
sVincludes
p5513
F2.4065939190332104e-05
sVn1
p5514
F0.0
sVincluded
p5515
F0.0001525744446452482
sVbooked
p5516
F6.220955035164415e-05
sVclinically
p5517
F0.0
sVbilateral
p5518
F0.0
sVcalls
p5519
F2.4065939190332104e-05
sVwife
p5520
F0.00026700527812918435
sVwebsites
p5521
F3.814361116131205e-05
sVexhausting
p5522
F0.0
sVnumbing
p5523
F0.00018662865105493248
sVbeckers
p5524
F0.0
sVcatapres
p5525
F0.0
sVlack
p5526
F8.446603182587967e-05
sVsulfonylurea
p5527
F0.0
sVsurgical
p5528
F0.0
sVdisc
p5529
F0.0
sVantagonize
p5530
F0.0
sVfollow
p5531
F8.446603182587967e-05
sVmeditation
p5532
F0.0
sVdisk
p5533
F0.0001244191007032883
sVdecisions
p5534
F0.0
sVsynthetic
p5535
F6.220955035164415e-05
sVthursday
p5536
F0.0
sVprostaglandin
p5537
F0.0
sVprogram
p5538
F7.62872223226241e-05
sVdairy
p5539
F0.0
sVpresentation
p5540
F0.0001244191007032883
sVactivities
p5541
F0.0
sVfax
p5542
F0.0
sVwoman
p5543
F4.223301591293984e-05
sVworse
p5544
F0.0005631068788391978
sVsong
p5545
F4.223301591293984e-05
sVfar
p5546
F0.0002152257805358814
sVinduce
p5547
F0.0
sVpsychologist
p5548
F0.0
sVsont
p5549
F0.0
sVawful
p5550
F0.00016846157433232474
sVbubbles
p5551
F3.814361116131205e-05
sVtreating
p5552
F0.0006220955035164416
sVlist
p5553
F0.0003128572094743174
sVprolonged
p5554
F0.0
sVvicoden
p5555
F0.0
sVrats
p5556
F6.220955035164415e-05
sVremeron
p5557
F0.0
sVten
p5558
F7.038835985489972e-05
sVtea
p5559
F4.813187838066421e-05
sVbreakers
p5560
F0.0
sVrate
p5561
F0.0006102977785809929
sVfunctioning
p5562
F0.00018662865105493248
sVsub
p5563
F0.00012032969595166052
sVversion
p5564
F0.00026700527812918435
sVracing
p5565
F2.4065939190332104e-05
sVguns
p5566
F3.814361116131205e-05
sVfugue
p5567
F0.0
sVunprofessional
p5568
F6.220955035164415e-05
sVsupposedly
p5569
F6.220955035164415e-05
sVoveractive
p5570
F0.0
sVshouldn
p5571
F9.626375676132842e-05
sVrelaxation
p5572
F0.0
sVsiamese
p5573
F0.0
sVallows
p5574
F0.0002488382014065766
sVsupplements
p5575
F0.0
sVstiffness
p5576
F0.0
sVmshc
p5577
F0.0
sVoptions
p5578
F0.0004958669450970567
sVimaging
p5579
F0.0
sVthankfully
p5580
F0.0
sVsuddenly
p5581
F5.6310687883919776e-05
sVairway
p5582
F0.0
sVtexts
p5583
F6.220955035164415e-05
sVresolves
p5584
F6.220955035164415e-05
sVpiggyback
p5585
F6.220955035164415e-05
sVminor
p5586
F7.219781757099632e-05
sVflat
p5587
F2.8155343941959888e-05
sVflaw
p5588
F0.0
sVknows
p5589
F0.00014439563514199265
sVantibiotics
p5590
F0.0004976764028131532
sVbasically
p5591
F0.001181981456681239
sVknown
p5592
F0.00021116507956469918
sVmellow
p5593
F6.220955035164415e-05
sVglad
p5594
F8.446603182587967e-05
sVv
p5595
F0.002363962913362478
sVcomputers
p5596
F0.0001244191007032883
sVatrocious
p5597
F0.0001244191007032883
sVjoints
p5598
F6.220955035164415e-05
sVcimetidine
p5599
F0.0
sVchores
p5600
F6.220955035164415e-05
sVcourt
p5601
F3.814361116131205e-05
sVgoal
p5602
F0.00018662865105493248
sVzantac
p5603
F0.0
sVrather
p5604
F0.00019708740759371923
sVbreaking
p5605
F1.4077671970979944e-05
sVoccasionally
p5606
F4.813187838066421e-05
sVinfluences
p5607
F0.0
sVspeeding
p5608
F0.0
sVexplains
p5609
F0.0001244191007032883
sVsimplicity
p5610
F0.0
sVsemax
p5611
F0.0
sVubiquitous
p5612
F0.0
sVweaknesses
p5613
F0.0
sVmaprotiline
p5614
F0.0
sVnumb
p5615
F0.0
sVshort
p5616
F0.0001076128902679407
sVnsaids
p5617
F0.0
sVbegan
p5618
F0.00026700527812918435
sVtallahassee
p5619
F0.0
sVseptember
p5620
F0.0
sVdeveloped
p5621
F0.0
sVdisabled
p5622
F0.00011443083348393617
sVisnt
p5623
F6.220955035164415e-05
sVrxlist
p5624
F0.0
sVmilwaukee
p5625
F0.0
sVdisagreed
p5626
F0.0
sVcontraindications
p5627
F0.0
sVmattress
p5628
F0.0001244191007032883
sVresort
p5629
F0.0
sVstrange
p5630
F5.6310687883919776e-05
sVbout
p5631
F6.220955035164415e-05
sVmight
p5632
F0.0003228386708038221
sVpolypharmacy
p5633
F0.0
sVwouldn
p5634
F0.0001548543916807794
sVreturn
p5635
F1.4077671970979944e-05
sVlumieresdelaville
p5636
F0.0
sVcommunities
p5637
F0.0
sVinelastic
p5638
F0.0
sVbigger
p5639
F4.813187838066421e-05
sVinstructions
p5640
F6.220955035164415e-05
sV8months
p5641
F0.0
sV400mg
p5642
F0.0
sVinhibits
p5643
F0.0
sVintolerable
p5644
F0.0
sVcharacterized
p5645
F0.0
sVnicotine
p5646
F0.0
sVweight
p5647
F0.000774271958403897
sVneedless
p5648
F0.0
sVgeneration
p5649
F0.0
sVexpect
p5650
F4.4311190110328524e-05
sVprolly
p5651
F0.0
sValcohol
p5652
F0.0010680211125167374
sVwondered
p5653
F4.813187838066421e-05
sVinduces
p5654
F0.0
sVadhere
p5655
F0.0
sVhealth
p5656
F0.001181981456681239
sVparadise
p5657
F0.0
sVcompounding
p5658
F0.0
sVinduced
p5659
F0.0
sVfiber
p5660
F0.0
sVfriday
p5661
F0.0
sVguess
p5662
F0.00038505502704531367
sVdysorgasmia
p5663
F0.0
sVbazillion
p5664
F0.0
sVthrown
p5665
F9.626375676132842e-05
sVthread
p5666
F0.0002488382014065766
sVzyprexa
p5667
F0.0
sVfeed
p5668
F3.814361116131205e-05
sVfeel
p5669
F0.0005127437712766586
sVrelate
p5670
F0.0
sVfeet
p5671
F2.8155343941959888e-05
sVsympathy
p5672
F6.220955035164415e-05
sVnotify
p5673
F6.220955035164415e-05
sVslower
p5674
F0.00011443083348393617
sVstory
p5675
F0.0003432925004518085
sVtemperature
p5676
F3.814361116131205e-05
sVn171
p5677
F0.0
sVleading
p5678
F2.4065939190332104e-05
sVinteract
p5679
F0.00018662865105493248
sVcomfy
p5680
F0.0
sVhangs
p5681
F2.4065939190332104e-05
sVpassed
p5682
F4.223301591293984e-05
sVstore
p5683
F0.00022886166696787233
sVheadache
p5684
F0.0026128011147690546
sVstatement
p5685
F7.62872223226241e-05
sVrelieved
p5686
F0.0
sVserotonin
p5687
F0.0
sVluckily
p5688
F0.0
sVconvinced
p5689
F3.814361116131205e-05
sVneuropathic
p5690
F0.0
sValbeit
p5691
F0.0
sVkind
p5692
F0.0
sVvial
p5693
F0.0
sVdouble
p5694
F0.00022886166696787233
sVkink
p5695
F0.0
sVmedicate
p5696
F0.0
sVrisks
p5697
F0.0
sVrestful
p5698
F0.0
sVscanners
p5699
F0.0
sVrisky
p5700
F6.220955035164415e-05
sVmotivation
p5701
F0.0
sVexert
p5702
F0.0
sVsuspicious
p5703
F6.220955035164415e-05
sVnights
p5704
F0.0001525744446452482
sVcyclizine
p5705
F0.0
sVfinding
p5706
F0.0001548543916807794
sVeffexor
p5707
F0.0
sVjudas
p5708
F0.0
sVdraposil
p5709
F0.0
sVadded
p5710
F0.0001525744446452482
sVwarnings
p5711
F3.814361116131205e-05
sVmeasures
p5712
F0.0
sVreach
p5713
F0.00012032969595166052
sVreact
p5714
F0.00011443083348393617
sV75
p5715
F0.00018662865105493248
sV72
p5716
F6.220955035164415e-05
sVthunderclap
p5717
F0.0
sVnothing
p5718
F0.00020889561052012017
sVstressful
p5719
F0.0001244191007032883
sVpolyethylene
p5720
F0.0
sVmineral
p5721
F6.220955035164415e-05
sVsbtl
p5722
F0.0
sVwindows
p5723
F7.219781757099632e-05
sVnefazodone
p5724
F0.0
sVnotch
p5725
F6.220955035164415e-05
sVindomethacin
p5726
F0.0
sVlying
p5727
F2.4065939190332104e-05
sVstumped
p5728
F0.0
sVrts
p5729
F0.0
sVstoned
p5730
F6.220955035164415e-05
sVexcessive
p5731
F4.813187838066421e-05
sVpostsynaptic
p5732
F0.0
sVdilation
p5733
F0.0
sVamitrypaline
p5734
F0.0
sVaggravate
p5735
F0.0
sVrocket
p5736
F0.0
sVviagra
p5737
F0.0001244191007032883
sVaappublications
p5738
F0.0
sVhip
p5739
F0.0001244191007032883
sVhit
p5740
F5.6310687883919776e-05
sVhiv
p5741
F0.0
sVlongest
p5742
F0.0001244191007032883
sVdeaden
p5743
F0.0
sVmedicines
p5744
F0.0
sVprescribing
p5745
F0.0
sVactivity
p5746
F0.0008709337049230181
sVdizziness
p5747
F0.0005598859531647974
sVwrote
p5748
F0.00011443083348393617
sVbars
p5749
F2.4065939190332104e-05
sVvulva
p5750
F0.0
sVart
p5751
F2.4065939190332104e-05
sVdump
p5752
F7.62872223226241e-05
sVdefense
p5753
F0.0
sVdumb
p5754
F0.00019071805580656026
sVarm
p5755
F4.813187838066421e-05
sVdeclined
p5756
F7.62872223226241e-05
sVnailed
p5757
F0.0
sVvarious
p5758
F0.00026472533109365314
sVnumerous
p5759
F3.814361116131205e-05
sVrecently
p5760
F0.00021116507956469918
sVcreating
p5761
F4.813187838066421e-05
sVinitially
p5762
F7.62872223226241e-05
sVsold
p5763
F6.220955035164415e-05
sVsole
p5764
F0.0
sVoutfit
p5765
F6.220955035164415e-05
sVsolu
p5766
F0.0
sVc
p5767
F1.8990510047283654e-05
sVprescription
p5768
F0.0
sVhesitant
p5769
F0.0
sVpseuephedrine
p5770
F0.0
sVbecame
p5771
F0.0003432925004518085
sVunincorporated
p5772
F0.0
sVondansetron
p5773
F0.0
sVregulates
p5774
F0.0
sVdistress
p5775
F6.220955035164415e-05
sVreasons
p5776
F0.00022886166696787233
sVsweet
p5777
F2.4065939190332104e-05
sVregulated
p5778
F0.0
sVgoats
p5779
F3.814361116131205e-05
sVps
p5780
F6.220955035164415e-05
sVpp
p5781
F0.0
sVpt
p5782
F0.0002488382014065766
sVscented
p5783
F6.220955035164415e-05
sVdue
p5784
F0.0008010158343875531
sVdug
p5785
F0.0
sVreduction
p5786
F0.00043546685246150906
sVdur
p5787
F0.0
sVwoke
p5788
F0.0003110477517582208
sVpm
p5789
F0.0
sVflight
p5790
F2.4065939190332104e-05
sVtransferring
p5791
F6.220955035164415e-05
sVgoodly
p5792
F0.0
sVdemand
p5793
F2.4065939190332104e-05
sVnoticeable
p5794
F6.220955035164415e-05
sVevaluated
p5795
F0.0
sVbehavior
p5796
F7.62872223226241e-05
sVevaluates
p5797
F0.0
sVtheres
p5798
F0.0
sVidentical
p5799
F3.814361116131205e-05
sVdisappointing
p5800
F3.814361116131205e-05
sVnightstand
p5801
F0.0
sVdisprders
p5802
F0.0
sVrid
p5803
F3.814361116131205e-05
sVrib
p5804
F0.0
sVlengthy
p5805
F6.220955035164415e-05
sVshirt
p5806
F3.814361116131205e-05
sVwidely
p5807
F0.0
sV9
p5808
F5.6310687883919776e-05
sVadvise
p5809
F0.0
sVhigher
p5810
F0.00011262137576783955
sVfodmap
p5811
F0.0
sVliterature
p5812
F6.220955035164415e-05
sVliquids
p5813
F0.0
sVkyodai
p5814
F0.0
sVnoticeably
p5815
F0.0
sVlower
p5816
F0.00021116507956469918
sVanybody
p5817
F0.0001244191007032883
sVanalysis
p5818
F0.00018662865105493248
sVmagnified
p5819
F0.0
sVedge
p5820
F5.6310687883919776e-05
sVstating
p5821
F6.220955035164415e-05
sVmicrogestin
p5822
F0.0
sVb6cxjpnxx6k
p5823
F0.0
sVintervals
p5824
F0.0
sVquestions
p5825
F0.0004091209662356458
sVnortriptyine
p5826
F0.0
sVtablet
p5827
F0.0003110477517582208
sVextracted
p5828
F3.814361116131205e-05
sVworkers
p5829
F7.62872223226241e-05
sVexclusively
p5830
F3.814361116131205e-05
sVplateau
p5831
F0.0
sVtamer
p5832
F0.0
sVfinder
p5833
F0.0001244191007032883
sVapnea
p5834
F0.0
sVambien
p5835
F0.0
sVadvocate
p5836
F0.0
sVaggregation
p5837
F0.0
sVmoods
p5838
F0.0
sVmoody
p5839
F0.0
sVlost
p5840
F0.0
sVadmittedly
p5841
F0.0
sVproductive
p5842
F6.220955035164415e-05
sVignore
p5843
F7.219781757099632e-05
sVcollect
p5844
F0.0
sVmitrazapine
p5845
F0.0
sVfucking
p5846
F0.00037325730210986495
sVarrived
p5847
F7.62872223226241e-05
sVpaxil
p5848
F0.0
sVdiclofenac
p5849
F0.0
sVgradually
p5850
F0.0
sVpros
p5851
F6.220955035164415e-05
sVworkup
p5852
F0.0
sVtends
p5853
F0.0
sVvasoconstrictor
p5854
F0.0
sVapathetic
p5855
F0.0
sVzzz
p5856
F0.0
sVhydroxyxine
p5857
F0.0
sVeffecting
p5858
F0.0
sVrefused
p5859
F6.220955035164415e-05
sVzombie
p5860
F0.00037325730210986495
sVrefuses
p5861
F6.220955035164415e-05
sVintense
p5862
F0.00019071805580656026
sVhandled
p5863
F7.62872223226241e-05
sVpipeline
p5864
F0.0
sVcautious
p5865
F0.0001244191007032883
sVwanna
p5866
F3.814361116131205e-05
sVgamma
p5867
F0.0
sVnortriptyline
p5868
F0.0
sVgouge
p5869
F0.0
sVquestion
p5870
F9.854370379685961e-05
sVfast
p5871
F4.223301591293984e-05
sVsections
p5872
F6.220955035164415e-05
sVmountains
p5873
F6.220955035164415e-05
sVpotassium
p5874
F0.0
sVmemory
p5875
F0.00012032969595166052
sVcrank
p5876
F0.0
sVraising
p5877
F3.814361116131205e-05
sVmalate
p5878
F0.0
sVpeppermint
p5879
F0.0
sVstalking
p5880
F0.0002488382014065766
sV116
p5881
F0.0
sVcalled
p5882
F0.00029563111139057887
sVfreak
p5883
F6.220955035164415e-05
sVworthwhile
p5884
F6.220955035164415e-05
sVstick
p5885
F0.00011443083348393617
sVsplints
p5886
F0.0
sVwarning
p5887
F4.813187838066421e-05
sVbicep
p5888
F0.0
sV1k
p5889
F0.0
sVpeace
p5890
F6.220955035164415e-05
sVseething
p5891
F0.0
sV60oz
p5892
F0.0
sVincome
p5893
F0.0
sVverifed
p5894
F0.0
sVnice
p5895
F0.0
sVmuddled
p5896
F0.0
sVusers
p5897
F6.220955035164415e-05
sVunderstatement
p5898
F0.0
sVproblems
p5899
F0.00019708740759371923
sVhelping
p5900
F0.00038505502704531367
sVmeaning
p5901
F7.219781757099632e-05
sVposters
p5902
F6.220955035164415e-05
sVamphetamine
p5903
F0.0
sVpinpoint
p5904
F0.0
sVremix
p5905
F0.00037325730210986495
sVsuffers
p5906
F0.0
sVhappier
p5907
F6.220955035164415e-05
sV325mg
p5908
F0.0
sVintentional
p5909
F0.0
sVgdgzzvv_yaq
p5910
F0.0
sVresistance
p5911
F6.220955035164415e-05
sVedu
p5912
F6.220955035164415e-05
sVwinds
p5913
F0.0
sVworrisome
p5914
F0.0
sVside_effects
p5915
F0.0
sVsqueezing
p5916
F0.0001244191007032883
sVstable
p5917
F0.0001244191007032883
sVinclude
p5918
F0.0008010158343875531
sVdramatically
p5919
F6.220955035164415e-05
sV2910
p5920
F0.0
sVfwiw
p5921
F0.0
sVbreathing
p5922
F0.00022886166696787233
sVfluoxetine
p5923
F0.0
sVoutdoorsy
p5924
F6.220955035164415e-05
sVwishes
p5925
F0.0001244191007032883
sVdrinking
p5926
F2.4065939190332104e-05
sVposture
p5927
F0.0
sVnotes
p5928
F3.814361116131205e-05
sVnoted
p5929
F0.0001244191007032883
sVsomeday
p5930
F0.00018662865105493248
sVsmaller
p5931
F4.813187838066421e-05
sVummc
p5932
F0.0
sVsciatica
p5933
F0.0
sVacid
p5934
F0.00022886166696787233
sVbeyaz
p5935
F0.0
sVhardest
p5936
F6.220955035164415e-05
sVwaiting
p5937
F5.6310687883919776e-05
sVrefilled
p5938
F0.0
sVchose
p5939
F6.220955035164415e-05
sVdegree
p5940
F3.814361116131205e-05
sVsinuses
p5941
F0.0
sVdarknet
p5942
F0.0
sVpushing
p5943
F2.8155343941959888e-05
sVdesired
p5944
F0.0
sVnardil
p5945
F0.0
sVadjusts
p5946
F0.0
sVopiate
p5947
F0.0
sVaminophylline
p5948
F0.0
sVleaving
p5949
F1.4077671970979944e-05
sVsuggests
p5950
F7.62872223226241e-05
sVmindblowing
p5951
F0.0
sVspices
p5952
F3.814361116131205e-05
sVduct
p5953
F0.0
sVapp
p5954
F0.00018662865105493248
sVapo
p5955
F0.0
sVmotor
p5956
F0.0001244191007032883
sVredd
p5957
F0.0
sVapply
p5958
F3.814361116131205e-05
sVunprovoked
p5959
F0.0
sVuse
p5960
F0.000348159350866867
sVhippie
p5961
F6.220955035164415e-05
sVconsumption
p5962
F6.220955035164415e-05
sVattribute
p5963
F3.814361116131205e-05
sVsort
p5964
F0.00010128272025217947
sVvaginally
p5965
F0.0
sVosteo
p5966
F0.0
sVopiates
p5967
F6.220955035164415e-05
sVinfection
p5968
F0.0004976764028131532
sVsore
p5969
F0.0003110477517582208
sVpsilocybin
p5970
F0.0
sVwomen
p5971
F0.00012669904773881952
sVannoy
p5972
F6.220955035164415e-05
sVtopic
p5973
F3.814361116131205e-05
sVgeodon
p5974
F0.0
sVlopressor
p5975
F0.0
sVanywhere
p5976
F2.8155343941959888e-05
sVstabilizer
p5977
F0.0
sVangsty
p5978
F0.0
sVdistractions
p5979
F0.0
sVhypersomnia
p5980
F0.0
sVsomething
p5981
F0.00048109292119785256
sVtab
p5982
F3.814361116131205e-05
sVserial
p5983
F0.0
sVmade
p5984
F0.000348159350866867
sVdws
p5985
F0.0
sVsyndrome
p5986
F0.0005721541674196807
sVmemorize
p5987
F6.220955035164415e-05
sVsit
p5988
F9.626375676132842e-05
sVtamper
p5989
F0.0
sVsix
p5990
F7.62872223226241e-05
sVoccur
p5991
F0.00037325730210986495
sVlosange
p5992
F0.0
sVaurorix
p5993
F0.0
sVdismissing
p5994
F0.0
sVinstead
p5995
F0.0002887912702839853
sVstruggled
p5996
F0.0
sVpanic
p5997
F0.0
sVtypewriter
p5998
F0.0
sVtension
p5999
F0.0
sVattend
p6000
F3.814361116131205e-05
sV6mg
p6001
F0.0
sVmasks
p6002
F6.220955035164415e-05
sVhalfs
p6003
F0.0
sVnormalcy
p6004
F0.0
sVdiscomfort
p6005
F0.0
sVabuse
p6006
F0.0003110477517582208
sVunnaturally
p6007
F0.0
sVhahahaha
p6008
F0.0
sVlight
p6009
F9.854370379685961e-05
sVhonestly
p6010
F0.00045772333393574467
sV800mg
p6011
F0.0
sVwhilst
p6012
F7.62872223226241e-05
sV130
p6013
F3.814361116131205e-05
sVlooks
p6014
F1.8990510047283654e-05
sVsexytimes
p6015
F0.0
sVunchecked
p6016
F6.220955035164415e-05
sVboosts
p6017
F6.220955035164415e-05
sVcomplicate
p6018
F0.0
sVpermanent
p6019
F4.813187838066421e-05
sVchoose
p6020
F7.219781757099632e-05
sVcovered
p6021
F5.6310687883919776e-05
sVbye
p6022
F0.0001244191007032883
sVbumbling
p6023
F0.0
sVpractice
p6024
F0.0
sVbatiments
p6025
F0.0
sVimpaired
p6026
F6.220955035164415e-05
sVsalford
p6027
F0.0
sVarticles
p6028
F0.0001244191007032883
sVtransmitter
p6029
F0.0
sVtram
p6030
F0.0
sVunpredictable
p6031
F0.0002488382014065766
sVtrap
p6032
F0.0
sVrelated
p6033
F0.0004091209662356458
sVweening
p6034
F0.0
sV88
p6035
F0.00018662865105493248
sV89
p6036
F6.220955035164415e-05
sVdoubled
p6037
F6.220955035164415e-05
sV82
p6038
F6.220955035164415e-05
sV80
p6039
F0.0
sV87
p6040
F0.0
sV85
p6041
F6.220955035164415e-05
sVirritability
p6042
F0.0
sVsentiment
p6043
F0.0
sVdespairing
p6044
F0.0
sVfun
p6045
F5.6310687883919776e-05
sV8g
p6046
F0.0
sV8x
p6047
F0.0
sVbetablocker
p6048
F0.0
sVorganic
p6049
F0.0
sVg
p6050
F0.00016846157433232474
sVfeasible
p6051
F6.220955035164415e-05
sVconversation
p6052
F5.6310687883919776e-05
sVbirthday
p6053
F3.814361116131205e-05
sVhence
p6054
F0.0001244191007032883
sVscattershot
p6055
F0.0
sVhypomanic
p6056
F0.0
sVcorticosteroid
p6057
F0.0
sVpriority
p6058
F0.0
sVparathesia
p6059
F0.0
sVshelf
p6060
F0.0
sVregards
p6061
F0.0
sVinstitution
p6062
F6.220955035164415e-05
sVboring
p6063
F3.814361116131205e-05
sVlimiting
p6064
F0.0
sVpatients
p6065
F0.0
sVhost
p6066
F2.4065939190332104e-05
sVdrownings
p6067
F0.0
sVlinked
p6068
F0.0002488382014065766
sVunbearable
p6069
F0.0
sVafraid
p6070
F0.00011262137576783955
sVcspine
p6071
F0.0
sVallergies
p6072
F0.00018662865105493248
sVbagel
p6073
F6.220955035164415e-05
sVpharmacist
p6074
F0.0
sVcombat
p6075
F0.0
sVknees
p6076
F7.62872223226241e-05
sVharmful
p6077
F0.0
sVdigestive
p6078
F0.0001244191007032883
sVlidocaine
p6079
F0.0
sVclass
p6080
F0.0003378641273035187
sVritz
p6081
F0.0
sVsubjective
p6082
F0.0
sVacademy
p6083
F0.0001244191007032883
sVatypical
p6084
F0.00043546685246150906
sVlooked
p6085
F0.0003051488892904964
sVworsens
p6086
F0.0
sVmeningeal
p6087
F0.0
sVhl
p6088
F0.0
sVchances
p6089
F7.62872223226241e-05
sVagreed
p6090
F0.0002488382014065766
sVtmja
p6091
F0.0
sVcheezit
p6092
F0.0
sVpurely
p6093
F3.814361116131205e-05
sVplanning
p6094
F0.0
sVfear
p6095
F9.626375676132842e-05
sVfeat
p6096
F0.0
sVholistic
p6097
F6.220955035164415e-05
sVneurogenic
p6098
F0.0
sV60mg
p6099
F0.0
sVcombo
p6100
F0.00018662865105493248
sVthousands
p6101
F0.0001244191007032883
sVovereating
p6102
F0.0
sVwatching
p6103
F0.00019071805580656026
sVmidnight
p6104
F3.814361116131205e-05
sVdiagnosing
p6105
F0.0
sVones
p6106
F0.0002887912702839853
sVvallium
p6107
F0.0
sVwords
p6108
F0.00012669904773881952
sVqt
p6109
F6.220955035164415e-05
sVended
p6110
F0.00045772333393574467
sV22842584
p6111
F0.0
sVview
p6112
F4.223301591293984e-05
sVconversions
p6113
F0.0
sVknowing
p6114
F4.813187838066421e-05
sVcarbonated
p6115
F6.220955035164415e-05
sVmethylprednisolone
p6116
F0.0
sVfantastically
p6117
F6.220955035164415e-05
sVbuzzed
p6118
F0.0
sVdysmorphia
p6119
F0.0
sVstill
p6120
F0.0
sVmentioned
p6121
F0.0005598859531647974
sVglucophage
p6122
F0.0
sVarguably
p6123
F0.0
sVreishi
p6124
F0.0
sVsuperb
p6125
F0.0
sVxray
p6126
F0.0
sVfavor
p6127
F3.814361116131205e-05
sVdoxepin
p6128
F0.0
sVclosed
p6129
F1.4077671970979944e-05
sVbought
p6130
F1.4077671970979944e-05
sVability
p6131
F0.00022886166696787233
sVbeverages
p6132
F0.0
sVagencies
p6133
F0.0
sVjob
p6134
F0.00026472533109365314
sVunclear
p6135
F3.814361116131205e-05
sVwall
p6136
F7.62872223226241e-05
sVwalk
p6137
F0.00024065939190332105
sVwalt
p6138
F0.0
sVrespect
p6139
F9.626375676132842e-05
sVpulmonary
p6140
F0.0
sVrosiglitazone
p6141
F0.0
sVwithdrawl
p6142
F0.0
sVoccured
p6143
F0.0
sVdecent
p6144
F2.4065939190332104e-05
sVcharts
p6145
F0.0
sVremedies
p6146
F0.0
sVmike
p6147
F0.0
sVpainted
p6148
F2.4065939190332104e-05
sVsufficient
p6149
F0.0
sVcrappy
p6150
F7.62872223226241e-05
sVhmm
p6151
F2.4065939190332104e-05
sVlast
p6152
F0.00019623527048859775
sVpresent
p6153
F4.4311190110328524e-05
sVunlike
p6154
F0.00014439563514199265
sVoveruse
p6155
F0.0
sVvanilla
p6156
F3.814361116131205e-05
sVchoices
p6157
F0.0001244191007032883
sVmutant
p6158
F6.220955035164415e-05
sVthus
p6159
F0.00011443083348393617
sVchloramphenicol
p6160
F0.0
sVdual
p6161
F7.62872223226241e-05
sVperhaps
p6162
F0.0001525744446452482
sVradiation
p6163
F6.220955035164415e-05
sVcross
p6164
F1.2660340031522434e-05
sVmember
p6165
F6.220955035164415e-05
sVadverse
p6166
F0.0
sVdevastated
p6167
F0.0
sVunits
p6168
F0.0004195797227744326
sVgets
p6169
F0.0003369231486646495
sVdifficult
p6170
F0.0003128572094743174
sVelbows
p6171
F4.813187838066421e-05
sVhydroxyzine
p6172
F0.0
sVbeast
p6173
F2.4065939190332104e-05
sVstudent
p6174
F0.00026700527812918435
sVpdf
p6175
F0.0001244191007032883
sVwarming
p6176
F6.220955035164415e-05
sVarse
p6177
F0.0
sVbanging
p6178
F3.814361116131205e-05
sVfighting
p6179
F0.0001525744446452482
sVfirstly
p6180
F0.0
sVoutgrow
p6181
F0.0
sVrealised
p6182
F0.0
sVroutinely
p6183
F0.0
sVcried
p6184
F0.0001244191007032883
sVpercent
p6185
F3.814361116131205e-05
sVduoxetine
p6186
F0.0
sVhappiness
p6187
F0.0001244191007032883
sVtca
p6188
F0.0
sVrapid
p6189
F6.220955035164415e-05
sVsupply
p6190
F0.0001244191007032883
sV0738
p6191
F0.0
sVgoogling
p6192
F0.0
sVusage
p6193
F3.814361116131205e-05
sV201111
p6194
F0.0
sVboom
p6195
F4.813187838066421e-05
sVmurine
p6196
F0.0
sVsick
p6197
F0.0003110477517582208
sVreferal
p6198
F0.0
sVcpap
p6199
F0.0
sVknow
p6200
F0.0007342997218283013
sVfacial
p6201
F0.00037325730210986495
sVhelpful
p6202
F0.0009331432552746623
sVloses
p6203
F3.814361116131205e-05
sVwonders
p6204
F0.0
sVclusters
p6205
F0.0
sVmanic
p6206
F0.00018662865105493248
sVscared
p6207
F0.0003814361116131205
sVsearching
p6208
F7.62872223226241e-05
sVgrowth
p6209
F0.0001244191007032883
sVlead
p6210
F0.0001830097356227393
sVlean
p6211
F6.220955035164415e-05
sVpatiently
p6212
F0.0
sVdebuts
p6213
F0.0
sVmurdered
p6214
F0.00018662865105493248
sVfluorescent
p6215
F0.0
sVrare
p6216
F0.0004976764028131532
sVtestosterone
p6217
F0.0
sVextension
p6218
F6.220955035164415e-05
sVgetting
p6219
F0.0002532068006304487
sVcolumn
p6220
F6.220955035164415e-05
sVndc
p6221
F0.0
sVdependence
p6222
F0.0
sVdependency
p6223
F0.00043546685246150906
sVcarries
p6224
F2.8155343941959888e-05
sVswear
p6225
F6.220955035164415e-05
sVsweat
p6226
F6.220955035164415e-05
sVpolished
p6227
F6.220955035164415e-05
sVunsustainable
p6228
F0.0
sVowe
p6229
F7.62872223226241e-05
sVmras
p6230
F0.0
sV11nce
p6231
F0.0
sVweather
p6232
F2.4065939190332104e-05
sVpromise
p6233
F3.814361116131205e-05
sVkeystroke
p6234
F6.220955035164415e-05
sVeh
p6235
F9.626375676132842e-05
sVuncontrollably
p6236
F0.0
sVtransfer
p6237
F3.814361116131205e-05
sVspiral
p6238
F6.220955035164415e-05
sVx4exwu4rhes
p6239
F0.0
sVtriggered
p6240
F0.00018662865105493248
sVmutter
p6241
F0.0
sVmailed
p6242
F0.0
sVautomated
p6243
F0.0
sVphenelzineu
p6244
F0.0
sVfluphenazine
p6245
F0.0
sVtemp
p6246
F0.0001244191007032883
sVwhether
p6247
F8.229221020489583e-05
sVvaporshark
p6248
F0.0
sVrecord
p6249
F3.814361116131205e-05
sVruling
p6250
F0.0
sVdemonstrate
p6251
F0.0001244191007032883
sVarno
p6252
F0.0
sVhorrific
p6253
F0.0
sVinadequate
p6254
F6.220955035164415e-05
sV20046420
p6255
F0.0
sVlesionings
p6256
F0.0
sVcounteract
p6257
F0.0
sVimproving
p6258
F3.814361116131205e-05
sVincredible
p6259
F6.220955035164415e-05
sVas_sdt
p6260
F0.0
sVboot
p6261
F6.220955035164415e-05
sVimmobilized
p6262
F0.0
sVpills
p6263
F0.0008087241545713741
sVbook
p6264
F0.0003051488892904964
sVbruxella
p6265
F0.0
sVbranch
p6266
F4.813187838066421e-05
sVautomaticaly
p6267
F0.0
sVincredibly
p6268
F0.0004195797227744326
sVkinds
p6269
F0.0002488382014065766
sVmetabolized
p6270
F0.0
sVprotolith
p6271
F0.0
sVpumps
p6272
F0.0
sVkinda
p6273
F0.0006843050538680856
sVintentionally
p6274
F6.220955035164415e-05
sVriboflavin
p6275
F0.0
sVtonnes
p6276
F0.0
sVpods
p6277
F0.0
sVestriol
p6278
F0.0
s.