(dp0
Vpartial
p1
F0.0014956256003573081
sVforget
p2
F0.0005785869620700713
sVlack
p3
F0.0003384516762171656
sVfocus
p4
F0.0014956256003573081
sVmonth
p5
F0.0013538067048686625
sVfour
p6
F0.00015218827779128096
sVsleep
p7
F0.0017357608862102135
sVmodafinil
p8
F0.0
sVgo
p9
F0.0
sVoldest
p10
F0.0009170386382872369
sVserotonigenic
p11
F0.0
sVsuicide
p12
F0.0014956256003573081
sVyoung
p13
F0.00015218827779128096
sVfinally
p14
F0.0018340772765744738
sVstable
p15
F0.0014956256003573081
sVsorry
p16
F0.0003384516762171656
sVinclude
p17
F0.0018340772765744738
sVworth
p18
F0.0011571739241401425
sVannoy
p19
F0.0014956256003573081
sV50mg
p20
F0.0
sVworse
p21
F0.0006769033524343313
sVfluoxetine
p22
F0.0
sVhorror
p23
F0.0014956256003573081
sVwave
p24
F0.0005785869620700713
sVmania
p25
F0.0
sVevery
p26
F0.0003043765555825619
sVword
p27
F0.00015218827779128096
sVexact
p28
F0.0005785869620700713
sVcause
p29
F0.00015218827779128096
sVlist
p30
F0.0011571739241401425
sVfewer
p31
F0.0014956256003573081
sVtry
p32
F0.0007609413889564047
sVp
p33
F0.0005785869620700713
sVadjust
p34
F0.0014956256003573081
sVsedation
p35
F0.0
sVsavella
p36
F0.0
sVreliable
p37
F0.0009170386382872369
sVwellbutrin
p38
F0.0
sVneurotoxin
p39
F0.0
sVenjoy
p40
F0.0005785869620700713
sVprevent
p41
F0.0018340772765744738
sVsmaller
p42
F0.0005785869620700713
sVantibiotic
p43
F0.0
sVten
p44
F0.0003384516762171656
sVplexus
p45
F0.0
sVpulse
p46
F0.0
sVpast
p47
F0.0003384516762171656
sVcost
p48
F0.0005785869620700713
sVvideo
p49
F0.0009170386382872369
sVlink
p50
F0.0018340772765744738
sVeven
p51
F0.0004565648333738429
sV25ml
p52
F0.0
sVwreck
p53
F0.0014956256003573081
sVcrackpot
p54
F0.0
sVmelt
p55
F0.0
sV25mg
p56
F0.0
sVcurrent
p57
F0.0005785869620700713
sVbipolar
p58
F0.0059825024014292325
sVversion
p59
F0.0009170386382872369
sVreply
p60
F0.0009170386382872369
sVappeal
p61
F0.0014956256003573081
sVever
p62
F0.0003043765555825619
sVbird
p63
F0.0005785869620700713
sVfull
p64
F0.0
sVrespectively
p65
F0.0
sVprescribe
p66
F0.004486876801071924
sVneurotoxicity
p67
F0.0
sVwater
p68
F0.0011571739241401425
sVshouldn
p69
F0.0005785869620700713
sVselective
p70
F0.0
sVothers
p71
F0.0013538067048686625
sVactive
p72
F0.0005785869620700713
sValong
p73
F0.0004565648333738429
sVchange
p74
F0.0005785869620700713
sVdry
p75
F0.0018340772765744738
sVgreat
p76
F0.0
sV30
p77
F0.0003384516762171656
sVguilty
p78
F0.0014956256003573081
sV35
p79
F0.0009170386382872369
sVprobio
p80
F0.0
sVamount
p81
F0.0011571739241401425
sVsimultaneous
p82
F0.0
sV10ish
p83
F0.0
sVusually
p84
F0.0011571739241401425
sVdepressant
p85
F0.0
sVregardless
p86
F0.0014956256003573081
sVfamily
p87
F0.0005785869620700713
sVheart
p88
F0.0005785869620700713
sVprefer
p89
F0.0005785869620700713
sVcompare
p90
F0.0009170386382872369
sVhighly
p91
F0.0009170386382872369
sVsincerely
p92
F0.0
sVseroquel
p93
F0.0
sVlamcital
p94
F0.0
sVmarket
p95
F0.0018340772765744738
sVtrazodone
p96
F0.0
sVtcas
p97
F0.0
sVwould
p98
F0.0
sVpositive
p99
F0.0005785869620700713
sVmotivate
p100
F0.0
sVtwo
p101
F0.0
sVnext
p102
F0.0004565648333738429
sVlive
p103
F0.00015218827779128096
sVcall
p104
F0.0003043765555825619
sVtherefore
p105
F0.0014956256003573081
sVrecommend
p106
F0.0059825024014292325
sVtachycardia
p107
F0.0
sVchloride
p108
F0.0
sVtell
p109
F0.0003384516762171656
sVtoday
p110
F0.0003384516762171656
sVbreathe
p111
F0.0014956256003573081
sVcomorbid
p112
F0.0
sVfactor
p113
F0.0014956256003573081
sVflag
p114
F0.0005785869620700713
sVdrown
p115
F0.0029912512007146163
sVstick
p116
F0.0009170386382872369
sVexcellent
p117
F0.0014956256003573081
sVlifestyle
p118
F0.0014956256003573081
sVmonoamine
p119
F0.0
sVshoot
p120
F0.0009170386382872369
sVgeodon
p121
F0.0
sVhour
p122
F0.0011571739241401425
sVpursue
p123
F0.0
sVwork
p124
F0.0
sVmr
p125
F0.0
sVinhibitor
p126
F0.0
sVspontaneous
p127
F0.0
sVscatter
p128
F0.0
sVcathinones
p129
F0.0
sVclaim
p130
F0.0005785869620700713
sVcrazy
p131
F0.0009170386382872369
sVgive
p132
F0.0006087531111651238
sVslim
p133
F0.0009170386382872369
sVfuck
p134
F0.0014956256003573081
sVhigh
p135
F0.0
sVsomething
p136
F0.0015218827779128095
sVwant
p137
F0.0
sVsense
p138
F0.00015218827779128096
sVscar
p139
F0.0014956256003573081
sVlexapro
p140
F0.0
sVend
p141
F0.00015218827779128096
sVsyndrome
p142
F0.0009170386382872369
sVturn
p143
F0.0003384516762171656
sVrather
p144
F0.0003384516762171656
sV800mg
p145
F0.0
sVchemical
p146
F0.0014956256003573081
sVhop
p147
F0.0014956256003573081
sVelephant
p148
F0.0014956256003573081
sVanswer
p149
F0.0003384516762171656
sVsemax
p150
F0.0
sVokay
p151
F0.0018340772765744738
sVcocktail
p152
F0.0014956256003573081
sVmess
p153
F0.0018340772765744738
sVsunny
p154
F0.0009170386382872369
sVfluid
p155
F0.0014956256003573081
sVbrintellix
p156
F0.0
sVproduce
p157
F0.0009170386382872369
sVnumb
p158
F0.0
sVcommit
p159
F0.0009170386382872369
sVdate
p160
F0.0009170386382872369
sVsuck
p161
F0.0009170386382872369
sVeighth
p162
F0.0014956256003573081
sVtrileptal
p163
F0.0
sVattempt
p164
F0.0003384516762171656
sVremember
p165
F0.0003043765555825619
sVmaybe
p166
F0.0
sVsupervision
p167
F0.0
sVswitch
p168
F0.0018340772765744738
sVblock
p169
F0.0009170386382872369
sVworst
p170
F0.0009170386382872369
sVbupropion
p171
F0.0
sVretrieval
p172
F0.0
sVtalk
p173
F0.0005785869620700713
sVserotonergic
p174
F0.0
sVhelp
p175
F0.0015218827779128095
sVsertraline
p176
F0.0
sVmove
p177
F0.0005785869620700713
sVsoon
p178
F0.00015218827779128096
sVtrade
p179
F0.0011571739241401425
sVbrain
p180
F0.0017357608862102135
sVemsam
p181
F0.0
sVcold
p182
F0.0011571739241401425
sVstill
p183
F0.0
sVbunch
p184
F0.0005785869620700713
sVpharmd
p185
F0.0
sVcomplicate
p186
F0.0
sVjib
p187
F0.0
sVexclusion
p188
F0.0
sVfit
p189
F0.0006769033524343313
sVsomewhere
p190
F0.0003384516762171656
sVlo
p191
F0.0
sVll
p192
F0.0004565648333738429
sVfate
p193
F0.0014956256003573081
sVactually
p194
F0.00015218827779128096
sVbetter
p195
F0.0007609413889564047
sVpermanent
p196
F0.0005785869620700713
sVamitriptyline
p197
F0.0
sVderivative
p198
F0.0
sVmight
p199
F0.0003043765555825619
sVeasier
p200
F0.0005785869620700713
sVeventually
p201
F0.0014956256003573081
sVtonic
p202
F0.0
sVsomeone
p203
F0.0
sVpure
p204
F0.0003384516762171656
sVmellowmarsh
p205
F0.0
sVspell
p206
F0.0009170386382872369
sVinsomnia
p207
F0.0
sVtoxic
p208
F0.0
sVsonata
p209
F0.0
sVhalf
p210
F0.0004565648333738429
sVfront
p211
F0.0003384516762171656
sVday
p212
F0.0
sVbigger
p213
F0.0005785869620700713
sVterm
p214
F0.0005785869620700713
sVname
p215
F0.0004565648333738429
sVdrop
p216
F0.0005785869620700713
sV400mg
p217
F0.0
sVgood
p218
F0.0
sVlamictal
p219
F0.0
sVreceptor
p220
F0.0
sVentirely
p221
F0.0003384516762171656
sVside
p222
F0.00015218827779128096
sVluck
p223
F0.0005785869620700713
sVen
p224
F0.0027511159148617104
sV300mg
p225
F0.0
sVcelexa
p226
F0.0
sVreduce
p227
F0.0009170386382872369
sVidea
p228
F0.0003043765555825619
sVcloudy
p229
F0.0009170386382872369
sVyear
p230
F0.0010653179445389667
sVhappen
p231
F0.0003384516762171656
sVsexual
p232
F0.0014956256003573081
sVleave
p233
F0.0003384516762171656
sValcohol
p234
F0.0009170386382872369
sVsince
p235
F0.0006087531111651238
sVresearch
p236
F0.0029912512007146163
sVincrease
p237
F0.0018340772765744738
sVmay
p238
F0.0004565648333738429
sVrace
p239
F0.0014956256003573081
sVgeib
p240
F0.0
sV7
p241
F0.0003384516762171656
sVmedicine
p242
F0.0014956256003573081
sVissue
p243
F0.0005785869620700713
sVcorrect
p244
F0.0009170386382872369
sVred
p245
F0.00015218827779128096
sVtimeline
p246
F0.0
sVcholesterol
p247
F0.0014956256003573081
sVfree
p248
F0.0003384516762171656
sVreason
p249
F0.0010153550286514969
sVbase
p250
F0.0003384516762171656
sVstruggle
p251
F0.0009170386382872369
sVask
p252
F0.00015218827779128096
sVorg
p253
F0.004486876801071924
sVcare
p254
F0.0027511159148617104
sVcouldn
p255
F0.0006769033524343313
sVg
p256
F0.0005785869620700713
sVcould
p257
F0.0
sV10mg
p258
F0.0
sVthing
p259
F0.0003043765555825619
sVplace
p260
F0.00015218827779128096
sVisn
p261
F0.0003043765555825619
sVswing
p262
F0.0014956256003573081
sV130bpm
p263
F0.0
sVthink
p264
F0.0004565648333738429
sVfirst
p265
F0.0009131296667476858
sVemotion
p266
F0.0029912512007146163
sVcheese
p267
F0.0027511159148617104
sVmajor
p268
F0.0003384516762171656
sVdont
p269
F0.0009170386382872369
sVfeel
p270
F0.0012175062223302477
sVrelate
p271
F0.0
sVclear
p272
F0.0003043765555825619
sVanother
p273
F0.0003043765555825619
sVwasn
p274
F0.0006087531111651238
sVxr
p275
F0.0
sVmessage
p276
F0.0005785869620700713
sVmoiety
p277
F0.0
sVsize
p278
F0.0003384516762171656
sVcity
p279
F0.0005785869620700713
sVstory
p280
F0.0009170386382872369
sVnecessarily
p281
F0.0009170386382872369
sVbite
p282
F0.0010153550286514969
sVsystem
p283
F0.0006769033524343313
sVleast
p284
F0.0
sVeuphoria
p285
F0.0
sVclomipramine
p286
F0.0
sV2
p287
F0.0004565648333738429
sVnoradrenergics
p288
F0.0
sVstore
p289
F0.0009170386382872369
sVheadache
p290
F0.004486876801071924
sVoption
p291
F0.0014956256003573081
sVceretropic
p292
F0.0
sVreleaser
p293
F0.0
sVanafranil
p294
F0.0
sVimmediate
p295
F0.0009170386382872369
sVchloroamphetamines
p296
F0.0
sVserotonin
p297
F0.0
sVhydroxylation
p298
F0.0
sVsomewhat
p299
F0.0014956256003573081
sVx2
p300
F0.0
sVinstitution
p301
F0.0014956256003573081
sVsymptom
p302
F0.0
sV600mg
p303
F0.0
sVsert
p304
F0.0
sVanxiety
p305
F0.0029912512007146163
sV15
p306
F0.00015218827779128096
sVkindly
p307
F0.0014956256003573081
sVbother
p308
F0.0009170386382872369
sV5mg
p309
F0.0
sVguilt
p310
F0.0014956256003573081
sVwilliams
p311
F0.0
sVthumb
p312
F0.0014956256003573081
sVprologue
p313
F0.0
sVtofranil
p314
F0.0
sVcymbalta
p315
F0.0
sVsad
p316
F0.0005785869620700713
sVsay
p317
F0.0012175062223302477
sVadhd
p318
F0.0
sVanger
p319
F0.0009170386382872369
sVrelatively
p320
F0.0014956256003573081
sVpara
p321
F0.0
sV1964
p322
F0.0
sVself
p323
F0.00015218827779128096
sVagency
p324
F0.0014956256003573081
sV1960
p325
F0.0
sV1961
p326
F0.0
sVnote
p327
F0.0003384516762171656
sVmix
p328
F0.0005785869620700713
sVpotential
p329
F0.0014956256003573081
sVeffexor
p330
F0.0
sVdraposil
p331
F0.0
sVbegin
p332
F0.0017357608862102135
sVsure
p333
F0.0003384516762171656
sVpain
p334
F0.003471521772420427
sVcombat
p335
F0.0
sVopposite
p336
F0.0009170386382872369
sVmethylphenidate
p337
F0.0
sVprescriber
p338
F0.0
sVreach
p339
F0.0011571739241401425
sVharmful
p340
F0.0
sVnorepinephrine
p341
F0.0
sVdigestive
p342
F0.0014956256003573081
sVmouth
p343
F0.0005785869620700713
sVsfk
p344
F0.0
sVletter
p345
F0.0005785869620700713
sVnothing
p346
F0.00015218827779128096
sVutilize
p347
F0.0014956256003573081
sVextremely
p348
F0.0009170386382872369
sVclass
p349
F0.0006769033524343313
sVtomorrow
p350
F0.0014956256003573081
sVpotency
p351
F0.0
sVespecially
p352
F0.0003384516762171656
sVdoc
p353
F0.0009170386382872369
sVmedical
p354
F0.0005785869620700713
sVsometimes
p355
F0.0003384516762171656
sVface
p356
F0.0003384516762171656
sVdefinitely
p357
F0.0011571739241401425
sVprofessional
p358
F0.0009170386382872369
sVparticularly
p359
F0.0018340772765744738
sVshow
p360
F0.0003043765555825619
sVbrand_name
p361
F0.0
sVelevate
p362
F0.0
sVshoe
p363
F0.0014956256003573081
sVdopey
p364
F0.0
sVneurotoxic
p365
F0.0
sVfind
p366
F0.0
sVdecade
p367
F0.0009170386382872369
sVslow
p368
F0.0003384516762171656
sVhadn
p369
F0.0005785869620700713
sVnervous
p370
F0.0009170386382872369
sVexplain
p371
F0.0005785869620700713
sVdick
p372
F0.0014956256003573081
sVocd
p373
F0.0
sVhaven
p374
F0.0003384516762171656
sVimpulsivity
p375
F0.0
sVcombo
p376
F0.0014956256003573081
sV8
p377
F0.0003043765555825619
sVhope
p378
F0.0006087531111651238
sVhit
p379
F0.0013538067048686625
sVdependent
p380
F0.0014956256003573081
sVstop
p381
F0.0006087531111651238
sVwonky
p382
F0.0
sV12
p383
F0.0003043765555825619
sVlongest
p384
F0.0014956256003573081
sVnew
p385
F0.0
sVreport
p386
F0.0009170386382872369
sVknowledgable
p387
F0.0
sVdr
p388
F0.0014956256003573081
sVchild
p389
F0.0003384516762171656
sVmetabolite
p390
F0.0
sVatomoxetine
p391
F0.0
sVcry
p392
F0.0009170386382872369
sVclonic
p393
F0.0
sVmorning
p394
F0.0009170386382872369
sVtwice
p395
F0.0011571739241401425
sVbad
p396
F0.0004565648333738429
sVwithdrawal
p397
F0.0
sVrelease
p398
F0.0011571739241401425
sVkeppra
p399
F0.0
sVview
p400
F0.0003384516762171656
sVrespond
p401
F0.0009170386382872369
sVbtw
p402
F0.0
sVfair
p403
F0.00015218827779128096
sVpotent
p404
F0.0
sVsee
p405
F0.0004565648333738429
sVcollege
p406
F0.0014956256003573081
sVfail
p407
F0.0006769033524343313
sVbest
p408
F0.00015218827779128096
sVwonder
p409
F0.0011571739241401425
sVsuffer
p410
F0.0009170386382872369
sVextend
p411
F0.0009170386382872369
sVpattern
p412
F0.0
sVaway
p413
F0.0
sVcurrently
p414
F0.0005785869620700713
sVwikipedia
p415
F0.0
sVimipramine
p416
F0.0
sVlabel
p417
F0.0005785869620700713
sVinvega
p418
F0.0
sV3
p419
F0.0020307100573029938
sVvarious
p420
F0.0005785869620700713
sVhopefully
p421
F0.0
sVtolerance
p422
F0.0029912512007146163
sVrecently
p423
F0.0003384516762171656
sVability
p424
F0.0009170386382872369
sVparent
p425
F0.0018340772765744738
sVjob
p426
F0.0011571739241401425
sVsteroid
p427
F0.0
sVpolice
p428
F0.0009170386382872369
sVspark
p429
F0.0
sVcome
p430
F0.0007609413889564047
sVabruptly
p431
F0.0014956256003573081
sVmyoclonic
p432
F0.0
sVlast
p433
F0.0007609413889564047
sVlicense
p434
F0.0009170386382872369
sVtopamax
p435
F0.0
sVjoke
p436
F0.0009170386382872369
sVspray
p437
F0.0014956256003573081
sVetc
p438
F0.0003043765555825619
sVbpd
p439
F0.0
sVmean
p440
F0.0006769033524343313
sVpcp
p441
F0.0
sVpoint
p442
F0.0003043765555825619
sVsimple
p443
F0.00015218827779128096
sVca
p444
F0.010469379202501156
sVseizure
p445
F0.0
sVabilify
p446
F0.0
sV100mcg
p447
F0.0
sVcontemporaneous
p448
F0.0
sVcathinone
p449
F0.0
sVsafer
p450
F0.0
sVspeak
p451
F0.0009170386382872369
sVturkey
p452
F0.0014956256003573081
sVquit
p453
F0.0009170386382872369
sVaddition
p454
F0.0029912512007146163
sVoxidase
p455
F0.0
sVdue
p456
F0.0009170386382872369
sVtrigger
p457
F0.0014956256003573081
sVtreat
p458
F0.0005785869620700713
sVimprove
p459
F0.0009170386382872369
sVpm
p460
F0.0
sVwebsite
p461
F0.0009170386382872369
sVlife
p462
F0.0003043765555825619
sVcontribute
p463
F0.0014956256003573081
sVhospitalization
p464
F0.0
sVanorgasmia
p465
F0.0
sVselank
p466
F0.0
sVdeep
p467
F0.0003384516762171656
sVpersonally
p468
F0.0003384516762171656
sVoverdose
p469
F0.0029912512007146163
sVirrelevant
p470
F0.0014956256003573081
sVcase
p471
F0.001692258381085828
sVserax
p472
F0.0
sVstraight
p473
F0.0003043765555825619
sVharder
p474
F0.0009170386382872369
sVrat
p475
F0.0009170386382872369
sVsuppose
p476
F0.0018340772765744738
sVmany
p477
F0.0
sVamisulpride
p478
F0.0
sVseven
p479
F0.0009170386382872369
sVpound
p480
F0.0009170386382872369
sVwouldn
p481
F0.0003384516762171656
sVir
p482
F0.0
sVside_effect
p483
F0.0
sVneed
p484
F0.0009131296667476858
sVmyaysd
p485
F0.0
sVexperience
p486
F0.0018340772765744738
sVactivity
p487
F0.0014956256003573081
sVeveryday
p488
F0.0014956256003573081
sVworry
p489
F0.0006769033524343313
sVdifferent
p490
F0.0003384516762171656
sVdevelop
p491
F0.0018340772765744738
sVcombination
p492
F0.0005785869620700713
sVmigraine
p493
F0.0
sVsuggest
p494
F0.0014956256003573081
sVcomplex
p495
F0.0005785869620700713
sVunfortunate
p496
F0.0005785869620700713
sVlithium
p497
F0.0
sVpal
p498
F0.0
sVambien
p499
F0.0
sVhigher
p500
F0.0010153550286514969
sVsafe
p501
F0.0011571739241401425
sVslightly
p502
F0.0003384516762171656
sVsickness
p503
F0.0014956256003573081
sVupon
p504
F0.0003384516762171656
sVeffect
p505
F0.0007609413889564047
sVtotally
p506
F0.0003384516762171656
sVkiller
p507
F0.0005785869620700713
sVlower
p508
F0.0003384516762171656
sVtoxicity
p509
F0.0
sVwell
p510
F0.0
sVsevere
p511
F0.0009170386382872369
sVwithout
p512
F0.0
sVsolve
p513
F0.0009170386382872369
sVrelief
p514
F0.0
sVbottle
p515
F0.0011571739241401425
sVconsistency
p516
F0.0
sVmuscle
p517
F0.0014956256003573081
sVable
p518
F0.0010153550286514969
sVcheddar
p519
F0.0
sVdose
p520
F0.017947507204287696
sVkill
p521
F0.0006769033524343313
sVvictim
p522
F0.0014956256003573081
sVyes
p523
F0.00015218827779128096
sVyet
p524
F0.00015218827779128096
sVhappiness
p525
F0.0014956256003573081
sVtca
p526
F0.0
sVdeath
p527
F0.0005785869620700713
sVcl
p528
F0.0
sVsky
p529
F0.0009170386382872369
sVexcept
p530
F0.0006769033524343313
sVadd
p531
F0.0005785869620700713
sVaffinity
p532
F0.0
sV4
p533
F0.0006087531111651238
sVwet
p534
F0.0009170386382872369
sVsnap
p535
F0.0005785869620700713
sVgrow
p536
F0.0018340772765744738
sVmod
p537
F0.0014956256003573081
sVkick
p538
F0.0005785869620700713
sVreal
p539
F0.0
sVdesire
p540
F0.0014956256003573081
sVaround
p541
F0.0003043765555825619
sVemergency
p542
F0.0014956256003573081
sVread
p543
F0.0003384516762171656
sVbig
p544
F0.00015218827779128096
sVcouple
p545
F0.0003384516762171656
sVdiscontinue
p546
F0.0
sVpossible
p547
F0.0006769033524343313
sVpossibly
p548
F0.0003384516762171656
sVknow
p549
F0.0010653179445389667
sVbackground
p550
F0.00015218827779128096
sVdamage
p551
F0.0009170386382872369
sVimplicate
p552
F0.0
sVlike
p553
F0.0
sVtegretol
p554
F0.0
sVknock
p555
F0.0009170386382872369
sVfibromyalgia
p556
F0.0
sVd
p557
F0.0
sVstranger
p558
F0.0014956256003573081
sVchlorinate
p559
F0.0
sV50
p560
F0.0003384516762171656
sVsanity
p561
F0.0
sVzoloft
p562
F0.0
sVeither
p563
F0.00015218827779128096
sVnight
p564
F0.00015218827779128096
sVpopular
p565
F0.0014956256003573081
sVbecome
p566
F0.00015218827779128096
sVdisorder
p567
F0.004486876801071924
sVtherapeutic
p568
F0.0
sVklonopin
p569
F0.0
sVdidn
p570
F0.0007609413889564047
sVold
p571
F0.0
sVdeal
p572
F0.0003384516762171656
sVmetabolic
p573
F0.0
sVinteract
p574
F0.0014956256003573081
sVpronounce
p575
F0.0014956256003573081
sVback
p576
F0.0009131296667476858
sVfluoroamphetamines
p577
F0.0
sVpaxil
p578
F0.0
sVaout
p579
F0.0
sVnuvigil
p580
F0.0
sVcurious
p581
F0.0006769033524343313
sVfriend
p582
F0.00015218827779128096
sVmood
p583
F0.0036681545531489475
sVlead
p584
F0.0003384516762171656
sVavoid
p585
F0.0013538067048686625
sVnormal
p586
F0.0005785869620700713
sVthank
p587
F0.0005785869620700713
sVnorpramine
p588
F0.0
sVcampfire
p589
F0.0
sVmaoi
p590
F0.0
sVcompulsion
p591
F0.0
sVlocate
p592
F0.0014956256003573081
sVsmiley
p593
F0.0
sVrun
p594
F0.00015218827779128096
sVbc
p595
F0.0
sVlate
p596
F0.0003384516762171656
sVlose
p597
F0.00015218827779128096
sVzombie
p598
F0.0059825024014292325
sVrelationship
p599
F0.0005785869620700713
sValthough
p600
F0.0003384516762171656
sVstone
p601
F0.0011571739241401425
sVactual
p602
F0.0014956256003573081
sVanything
p603
F0.0003043765555825619
sVod
p604
F0.0
sVrange
p605
F0.0003384516762171656
sVbenzos
p606
F0.0
sVplus
p607
F0.0011571739241401425
sVafternoon
p608
F0.0014956256003573081
sVact
p609
F0.0003384516762171656
sVcharm
p610
F0.0014956256003573081
sVtwitch
p611
F0.0014956256003573081
sVwanna
p612
F0.0018340772765744738
sVroad
p613
F0.0009170386382872369
sVequally
p614
F0.0
sVsignificant
p615
F0.0014956256003573081
sVpresence
p616
F0.0006769033524343313
sVnortriptyline
p617
F0.0
sVwithin
p618
F0.0003384516762171656
sVthree
p619
F0.00015218827779128096
sVsidenote
p620
F0.0
sVright
p621
F0.00015218827779128096
sVlung
p622
F0.0029912512007146163
sVdihydroxytryptamine
p623
F0.0
sV1987
p624
F0.0
sVprozac
p625
F0.0
sVaren
p626
F0.00015218827779128096
sVamazingly
p627
F0.0014956256003573081
sVquestion
p628
F0.0006769033524343313
sVmediate
p629
F0.0
sVlong
p630
F0.0
sVstart
p631
F0.0006769033524343313
sV300mcg
p632
F0.0
sVlow
p633
F0.0010153550286514969
sVway
p634
F0.0006087531111651238
sVenergy
p635
F0.0014956256003573081
sVhappy
p636
F0.0006769033524343313
sVfunction
p637
F0.0014956256003573081
sVpamelor
p638
F0.0
sVhead
p639
F0.00015218827779128096
sVwiki
p640
F0.0
sVenough
p641
F0.0
sVbrand
p642
F0.0005785869620700713
sV6
p643
F0.0004565648333738429
sVproperly
p644
F0.0003384516762171656
sVhear
p645
F0.0003384516762171656
sVlarger
p646
F0.0005785869620700713
sVline
p647
F0.0003384516762171656
sVirreversible
p648
F0.0
sVeat
p649
F0.0003384516762171656
sVamplify
p650
F0.0
sVnorfluoxetine
p651
F0.0
sVcounsel
p652
F0.0
sVdangerous
p653
F0.0005785869620700713
sVmaximum
p654
F0.0014956256003573081
sVadderall
p655
F0.0
sVproblem
p656
F0.0010153550286514969
sVaverage
p657
F0.0018340772765744738
sVlatuda
p658
F0.0
sVdiagnose
p659
F0.0014956256003573081
sVtricyclic
p660
F0.0
sVplay
p661
F0.0005785869620700713
sVhorrific
p662
F0.0
sVcertain
p663
F0.00015218827779128096
sVtodd
p664
F0.0
sVdopaminergics
p665
F0.0
sVdoesn
p666
F0.0013696945001215287
sVgeneral
p667
F0.0
sVcure
p668
F0.0014956256003573081
sVchat
p669
F0.0005785869620700713
sVtrip
p670
F0.0009170386382872369
sVdepakote
p671
F0.0
sVincorrect
p672
F0.0014956256003573081
sV200mg
p673
F0.0
sVna
p674
F0.0
sVstake
p675
F0.0
sVgraduate
p676
F0.0014956256003573081
sVfield
p677
F0.0014956256003573081
sV5
p678
F0.00015218827779128096
sVtest
p679
F0.0017357608862102135
sVbehold
p680
F0.0014956256003573081
sVnice
p681
F0.0
sVfelt
p682
F0.003471521772420427
sVupdate
p683
F0.0014956256003573081
sVchloro
p684
F0.0
sVcoverage
p685
F0.0
sVweigh
p686
F0.0009170386382872369
sVamphetamine
p687
F0.0
sVstructure
p688
F0.0029912512007146163
sVcliff
p689
F0.0009170386382872369
sVindependently
p690
F0.0
sVe
p691
F0.00015218827779128096
sVassume
p692
F0.0014956256003573081
sVage
p693
F0.0006769033524343313
sVlot
p694
F0.0
sVrule
p695
F0.0018340772765744738
sVdiagnosis
p696
F0.0
sVtime
p697
F0.0
sVpush
p698
F0.0005785869620700713
sV2009
p699
F0.0
sVgrocery
p700
F0.0014956256003573081
sVbasically
p701
F0.0014956256003573081
s.