(dp0
Vdisarray
p1
F0.0
sVsuicidal
p2
F0.0013583038224897054
sVcnnz7pl
p3
F0.0
sVsaver
p4
F0.0
sVchild
p5
F3.546652256245424e-05
sVdesirable
p6
F0.0
sVderp
p7
F0.0
sVfour
p8
F4.252769788470236e-05
sVedgy
p9
F0.00020896981884457007
sVprotest
p10
F0.0
sVsleep
p11
F0.005577998712264773
sVexcite
p12
F9.609694334794091e-05
sVgrandparent
p13
F0.0
sVappetite
p14
F0.004231638831602544
sVhate
p15
F0.00047018209240028266
sVpoorly
p16
F0.00010448490942228503
sVdisappear
p17
F0.00019219388669588182
sVbuddy
p18
F0.00010448490942228503
sVhealthland
p19
F0.0
sVphysiological
p20
F0.0
sVrupture
p21
F0.0
sVreputation
p22
F6.406462889862727e-05
sVivabradine
p23
F0.0
sVtickle
p24
F5.224245471114252e-05
sVdisinhibit
p25
F0.0
sVswap
p26
F6.406462889862727e-05
sVwhatsoever
p27
F9.609694334794091e-05
sVetizest
p28
F0.0
sVlord
p29
F3.2032314449313634e-05
sVsorry
p30
F0.00021279913537472543
sVmagnetic
p31
F0.0
sVadventure
p32
F5.224245471114252e-05
sVhormone
p33
F0.0
sVrisk
p34
F0.0004244129454984066
sVdownstream
p35
F0.0
sVappal
p36
F0.0
sVhypertensive
p37
F0.0
sVdispense
p38
F0.0
sVblanket
p39
F3.2032314449313634e-05
sVrise
p40
F3.2032314449313634e-05
sVglimepiride
p41
F0.0
sVinhibit
p42
F0.0
sV250mg
p43
F0.0
sVredact
p44
F0.0
sVmania
p45
F0.0
sVtrileptal
p46
F0.0
sVleisurely
p47
F0.0
sVaffect
p48
F0.0016717585507565606
sVvast
p49
F0.0
sVcopy
p50
F2.0210140261828886e-05
sVyikes
p51
F0.0
sVschool
p52
F0.0010448490942228503
sVastral
p53
F0.0
sVbestfriend
p54
F0.0
sVscholar
p55
F3.2032314449313634e-05
sVprobiotic
p56
F0.0
sVexaggerate
p57
F0.0
sVobsessive
p58
F0.0
sVsynergy
p59
F0.0
sVcommenter
p60
F0.0
sVsolution
p61
F0.0
sVkbar
p62
F0.0
sVviable
p63
F0.0
sVintensify
p64
F0.0
sVunrelated
p65
F0.00015672736413342754
sVprotriptyline
p66
F0.0
sVcholesterol
p67
F0.00020896981884457007
sVenhance
p68
F0.00018189126235645996
sVoddly
p69
F3.2032314449313634e-05
sVhappier
p70
F0.00015672736413342754
sVenjoy
p71
F0.0001616811220946311
sVforce
p72
F0.00018189126235645996
sVspecially
p73
F5.224245471114252e-05
sVnigh
p74
F0.0
sVinfancy
p75
F0.0
sVblasphemy
p76
F5.224245471114252e-05
sVconsistent
p77
F5.224245471114252e-05
sV10g
p78
F0.0
sVpulse
p79
F0.0
sVbatch
p80
F0.0
sVnail
p81
F9.609694334794091e-05
sVpalps
p82
F0.0
sVcrave
p83
F0.0
sVstreet
p84
F0.00020896981884457007
sVocassional
p85
F0.0
sVkratom
p86
F0.0
sVemptiness
p87
F0.0
sVtheory
p88
F0.00015672736413342754
sVeven
p89
F0.0006804431661552378
sVbromantane
p90
F0.0
sVguilty
p91
F5.224245471114252e-05
sVchrist
p92
F0.0
sVworsen
p93
F0.0
sVweren
p94
F0.00012126084157097331
sVasia
p95
F0.0
sVquietapine
p96
F0.0
sVwouldnt
p97
F0.0
sVbipolar
p98
F0.0015672736413342755
sVhostile
p99
F5.224245471114252e-05
sVapb
p100
F0.0
sVconduct
p101
F0.0
sVsupplier
p102
F0.0
sVnew
p103
F0.0
sVnet
p104
F6.406462889862727e-05
sVhmmm
p105
F0.00010448490942228503
sVever
p106
F0.00023921830060145077
sVdisintegrate
p107
F0.0
sVcull
p108
F0.0
sVspecialist
p109
F0.0
sVmea
p110
F0.0
sVsri
p111
F0.0
sVpresynaptic
p112
F0.0
sVherb
p113
F0.0
sVmeo
p114
F0.0
sVnever
p115
F0.0
sVweirdly
p116
F0.0
sVsocialize
p117
F0.0
sVching
p118
F0.0
sVkicker
p119
F0.0
sVethanol
p120
F0.0
sVactive
p121
F0.00010105070130914443
sVpath
p122
F3.546652256245424e-05
sV100
p123
F0.0003031521039274333
sVdiagnostic
p124
F0.0
sVdry
p125
F0.00022422620114519545
sVsubstance
p126
F0.0
sVforum
p127
F0.00015672736413342754
sVtaper
p128
F0.0
sVphenelzine
p129
F0.0
sVdrs
p130
F0.0
sVtypically
p131
F0.00047018209240028266
sVcontroversy
p132
F5.224245471114252e-05
sV3nkz1u
p133
F0.0
sVunhelpful
p134
F3.2032314449313634e-05
sVjama
p135
F0.0
sVsmoke
p136
F0.0005765816600876454
sVneurologist
p137
F0.0
sVmilitary
p138
F0.00015672736413342754
sVaka
p139
F0.0
sVsuitable
p140
F0.0
sVmenial
p141
F0.0
sVclonidine
p142
F0.0
sVfantastic
p143
F9.609694334794091e-05
sVhunch
p144
F0.0
sVground
p145
F6.0630420785486655e-05
sVwikimedia
p146
F0.0
sVtreatment
p147
F0.0018284859148899881
sVreplace
p148
F6.406462889862727e-05
sVpsychological
p149
F0.00026121227355571257
sVpatience
p150
F5.224245471114252e-05
sValpha
p151
F0.0005224245471114251
sVhindsight
p152
F0.0
sVmodafinilpots
p153
F0.0
sVcocaine
p154
F0.00010448490942228503
sVcuriously
p155
F0.0
sVindictment
p156
F0.0
sVtrazodone
p157
F0.0
sVdeficit
p158
F0.0
sVcharge
p159
F3.2032314449313634e-05
sVwould
p160
F0.0
sVarmy
p161
F3.2032314449313634e-05
sVsnri
p162
F0.0
sVhospital
p163
F0.0006086139745369591
sVmotivate
p164
F0.0
sVnegative
p165
F0.00038438777339176364
sVinsult
p166
F5.224245471114252e-05
sVarmo
p167
F0.0
sVmediate
p168
F0.0
sVautowikibot
p169
F0.0
sVcall
p170
F0.00021263848942351177
sVtherefore
p171
F0.00010448490942228503
sVshed
p172
F0.0
sVrecommend
p173
F0.0013060613677785629
sVstrike
p174
F5.224245471114252e-05
sVsurvive
p175
F0.00010448490942228503
sVtype
p176
F0.00046483322602206435
sVtell
p177
F0.0009103074124363255
sVpantoprazole
p178
F0.0
sVreevaluate
p179
F0.0
sVattractive
p180
F4.042028052365777e-05
sVunequivicolly
p181
F0.0
sVcomorbid
p182
F0.0
sVholy
p183
F2.0210140261828886e-05
sVrelax
p184
F0.00032032314449313633
sVsuccessful
p185
F2.0210140261828886e-05
sVnaive
p186
F0.0
sVhaha
p187
F0.00020896981884457007
sVhurt
p188
F0.00047018209240028266
sV99
p189
F3.2032314449313634e-05
sVdisruption
p190
F0.0
sVwarm
p191
F1.1822174187484748e-05
sVadult
p192
F0.0003134547282668551
sVexcellent
p193
F0.00020896981884457007
sV90
p194
F0.00019219388669588182
sVhole
p195
F1.1822174187484748e-05
sVhold
p196
F8.275521931239324e-05
sVbenedryl
p197
F0.0
sVsupplemental
p198
F0.0
sVmust
p199
F0.0
sVshoot
p200
F0.0004804847167397046
sVmd
p201
F0.0
sVintake
p202
F0.0
sVjoin
p203
F4.728869674993899e-05
sVroom
p204
F4.728869674993899e-05
sVcharacterize
p205
F0.0
sVpursue
p206
F0.0
sVnoots
p207
F0.0
sVtremendously
p208
F0.0
sVworm
p209
F5.224245471114252e-05
sVroof
p210
F6.406462889862727e-05
sVworth
p211
F0.000525463646807551
sVnovel
p212
F0.0
sVsuggestive
p213
F5.224245471114252e-05
sVpharm
p214
F0.0
sVreabsorb
p215
F0.0
sVinteraction
p216
F0.0005746670018225677
sVim
p217
F0.0009403641848005653
sVroot
p218
F6.406462889862727e-05
sVexample
p219
F0.0003428430514370577
sVaddictive
p220
F0.0
sVamitryp
p221
F0.0
sVphrase
p222
F3.2032314449313634e-05
sVacetylcholine
p223
F0.0
sVkpin
p224
F0.0
sVgive
p225
F0.00048375256343848933
sVclimax
p226
F0.0
sVtable
p227
F1.063192447117559e-05
sVhusband
p228
F9.609694334794091e-05
sVinvolve
p229
F0.0
sVpromethazine
p230
F0.0
sVhomie
p231
F0.0
sVcaution
p232
F0.00010448490942228503
sVwant
p233
F0.0
sVwow
p234
F0.00010448490942228503
sVclonazopam
p235
F0.0
sVindifferent
p236
F5.224245471114252e-05
sVlexapro
p237
F0.0
sVloathe
p238
F5.224245471114252e-05
sVpreferably
p239
F5.224245471114252e-05
sVend
p240
F0.000207322527187924
sVrecovery
p241
F9.609694334794091e-05
sVillicit
p242
F0.0
sVsertaline
p243
F0.0
sVtravel
p244
F2.3644348374969496e-05
sVdamage
p245
F6.406462889862727e-05
sVmachine
p246
F0.00012812925779725454
sVcitalopram
p247
F0.0
sVhot
p248
F4.042028052365777e-05
sVenquire
p249
F0.0
sVmorbid
p250
F0.0
sVhop
p251
F0.00047018209240028266
sVrookie
p252
F0.0
sVanswer
p253
F9.457739349987799e-05
sVdisappoint
p254
F5.224245471114252e-05
sVmemorization
p255
F5.224245471114252e-05
sVclassify
p256
F0.0
sVmassive
p257
F0.0
sVbadly
p258
F4.728869674993899e-05
sVuntill
p259
F5.224245471114252e-05
sVfever
p260
F0.0
sVdoable
p261
F0.0
sVmodulation
p262
F0.0
sVarthritis
p263
F0.0
sVimaginable
p264
F0.0
sVlab
p265
F0.0
sVthankyou
p266
F0.0
sVwrong
p267
F0.0002246213095622102
sVmesh
p268
F0.0
sVtenormin
p269
F0.0
sVgravol
p270
F0.0
sVsummarize
p271
F0.0
sVparallel
p272
F0.0
sVpurchase
p273
F9.609694334794091e-05
sVattempt
p274
F0.00015368826443730172
sVthird
p275
F1.5947886706763385e-05
sVmanic
p276
F0.0007836368206671378
sVtetra
p277
F0.0
sVsensitive
p278
F4.728869674993899e-05
sVappreciate
p279
F0.00016016157224656817
sVhypnotic
p280
F0.0
sVbattletag
p281
F0.0
sVorally
p282
F0.0
sVupside
p283
F3.2032314449313634e-05
sVultimate
p284
F0.0
sVho
p285
F2.0210140261828886e-05
sVenter
p286
F2.3644348374969496e-05
sVevery
p287
F0.0003774333187267334
sVpreventive
p288
F0.0
sVorder
p289
F5.847558459146574e-05
sVwind
p290
F4.042028052365777e-05
sVjack
p291
F5.224245471114252e-05
sVrestriction
p292
F0.0
sVbreathe
p293
F0.00020896981884457007
sVafterwards
p294
F8.084056104731554e-05
sV7yrs
p295
F0.0
sVneti
p296
F0.0
sVwut
p297
F0.0
sVvits
p298
F0.0
sVconsent
p299
F0.00010448490942228503
sVtochka3evlj3sxdv
p300
F0.0
sVtyramine
p301
F0.0
sVvary
p302
F0.00019219388669588182
sVhadn
p303
F8.084056104731554e-05
sVneuron
p304
F0.0
sVrussian
p305
F5.224245471114252e-05
sVguidance
p306
F0.0
sVnsfw
p307
F0.0
sVeuropeanneuropsychopharmacology
p308
F0.0
sVvastly
p309
F0.0
sVbladder
p310
F0.00010448490942228503
sVantacid
p311
F0.0
sV25mg
p312
F0.0
sVnardil
p313
F0.0
sV19185342
p314
F0.0
sVfit
p315
F8.275521931239324e-05
sVreflection
p316
F0.0
sVpersonal
p317
F0.00016551043862478648
sVfix
p318
F0.00035235545894245
sVrecreational
p319
F0.0007836368206671378
sVimo
p320
F0.0
sVbetter
p321
F0.0005847558459146574
sVaccord
p322
F0.0
sVproduction
p323
F0.00010448490942228503
sVcompensatory
p324
F0.0
sVdifferently
p325
F0.00016016157224656817
sVfade
p326
F0.00019219388669588182
sVpharms
p327
F0.0
sVacupuncture
p328
F0.0
sVprecipitate
p329
F0.0
sVinhibitor
p330
F0.0
sVcred
p331
F0.0
sVeasier
p332
F0.0003031521039274333
sVpropanalol
p333
F0.0
sVpleasurable
p334
F0.0
sVaborter
p335
F0.0
sVeventually
p336
F0.0009403641848005653
sVcoffee
p337
F0.0002562585155945091
sVwidely
p338
F0.0
sVcombination
p339
F0.0002829419636656044
sV20cat
p340
F0.0
sVconfuse
p341
F6.406462889862727e-05
sVunemployed
p342
F0.0
sVdrowsiness
p343
F0.0
sVtheanine
p344
F0.0
sVmxp
p345
F0.0
sVhypomania
p346
F0.0
sVbreak
p347
F0.0007047109178849
sVhotics
p348
F0.0
sVtherapy
p349
F0.0022986680072902706
sVindulge
p350
F0.0
sVvaping
p351
F0.0
sVmxe
p352
F0.0
sVlifelong
p353
F0.0
sVhumanity
p354
F5.224245471114252e-05
sVbank
p355
F3.2032314449313634e-05
sVbread
p356
F3.2032314449313634e-05
sV40g
p357
F0.0
sVelavil
p358
F0.0
sVindeed
p359
F6.0630420785486655e-05
sVprogression
p360
F0.0
sVreasonably
p361
F0.00010448490942228503
sVsleepless
p362
F0.0
sVlucy
p363
F0.0
sVlosartan
p364
F0.0
sVedit2
p365
F0.0
sVintimidate
p366
F5.224245471114252e-05
sVreasonable
p367
F0.00016016157224656817
sVfitness
p368
F0.00010448490942228503
sVacoustic
p369
F0.0
sVmeal
p370
F0.00020210140261828886
sVbone
p371
F8.084056104731554e-05
sVluck
p372
F0.0004244129454984066
sVfee
p373
F0.0
sVwhim
p374
F0.0
sVfinancial
p375
F5.224245471114252e-05
sVconstipation
p376
F5.224245471114252e-05
sVindependent
p377
F3.2032314449313634e-05
sVknockout
p378
F0.0
sVmda
p379
F0.0
sVspider
p380
F5.224245471114252e-05
sVmdd
p381
F0.0
sVaide
p382
F0.0
sVxr
p383
F0.0
sVdoug
p384
F0.0
sVgrandfather
p385
F5.224245471114252e-05
sVextract
p386
F5.224245471114252e-05
sVslew
p387
F0.0
sVclothe
p388
F0.0
sVru
p389
F0.0
sVnetwork
p390
F5.224245471114252e-05
sVmethylprednisolone
p391
F0.0
sVmode
p392
F3.2032314449313634e-05
sVopen
p393
F0.0
sVuseless
p394
F5.224245471114252e-05
sVrx
p395
F0.0
sVsynapsesneuro
p396
F0.0
sVencourage
p397
F0.00015672736413342754
sVdsm
p398
F0.0
sVwrite
p399
F0.00014186609024981696
sVadapt
p400
F0.0
sVrc
p401
F0.00015672736413342754
sVmedicine
p402
F0.0007836368206671378
sVsurprise
p403
F8.084056104731554e-05
sVrn
p404
F0.0
sVgov
p405
F0.0003656971829779976
sVsluggish
p406
F0.00010448490942228503
sVperception
p407
F0.00020896981884457007
sVcomedown
p408
F0.0
sVbarrier
p409
F3.2032314449313634e-05
sVassociate
p410
F0.000800807861232841
sVdouglas
p411
F0.0
sVhorrid
p412
F0.0
sVtexture
p413
F6.406462889862727e-05
sVsheer
p414
F5.224245471114252e-05
sVfree
p415
F0.00010639956768736272
sVupbringing
p416
F0.0
sVsensory
p417
F0.00020896981884457007
sVstruggle
p418
F0.00035235545894245
sVnmda
p419
F0.0
sVstereotypical
p420
F0.0
sVforcibly
p421
F0.0
sVinadequately
p422
F0.0
sVquetiepine
p423
F0.0
sVknit
p424
F0.0
sVslope
p425
F3.2032314449313634e-05
sVfret
p426
F0.0
sV25gram
p427
F0.0
sVenormous
p428
F5.224245471114252e-05
sVheteroreceptors
p429
F0.0
sVwithdrawl
p430
F0.0
sVdenture
p431
F0.0
sVatm
p432
F0.0
sVtolerant
p433
F0.0
sVflicker
p434
F5.224245471114252e-05
sVish
p435
F5.224245471114252e-05
sVoppose
p436
F0.0
sVisn
p437
F0.00024985022507262636
sVsoda
p438
F5.224245471114252e-05
sVregress
p439
F0.0
sVscheme
p440
F3.2032314449313634e-05
sVonto
p441
F0.00012126084157097331
sVstewart
p442
F0.0
sVrecite
p443
F0.0
sVchronotherapy
p444
F0.0
sValready
p445
F9.56873202405803e-05
sVgrade
p446
F0.00010448490942228503
sVreassure
p447
F0.0
sVvitro
p448
F0.0
sVrestrict
p449
F0.0
sVhook
p450
F6.0630420785486655e-05
sVkurzgesagt
p451
F0.0
sVdeplete
p452
F0.0
sVdownside
p453
F0.0
sVanother
p454
F0.0003189577341352677
sVwasn
p455
F0.00021263848942351177
sVsober
p456
F0.0003134547282668551
sVcategorize
p457
F0.0
sVcalorie
p458
F0.0006791519112448527
sVclarity
p459
F3.2032314449313634e-05
sVcaloric
p460
F0.0
sVdysfunction
p461
F0.0
sVawfully
p462
F3.2032314449313634e-05
sVstimulation
p463
F0.0003134547282668551
sVtoy
p464
F5.224245471114252e-05
sVfence
p465
F6.406462889862727e-05
sVservice
p466
F4.042028052365777e-05
sVindicate
p467
F5.224245471114252e-05
sVfluvoxamine
p468
F0.0
sVtop
p469
F0.00037830957399951194
sVeuphoric
p470
F0.0
sVeuphoria
p471
F0.0
sVpalpitation
p472
F0.0
sVmaster
p473
F2.0210140261828886e-05
sVnoradrenergic_and_specific_serotonergic_antidepressant
p474
F0.0
sVglucocorticoid
p475
F0.0
sV2012_minneapolis_workplace_shooting
p476
F0.0
sVunderlie
p477
F0.0
sVlol
p478
F0.0007313943659559952
sVrecreationally
p479
F0.0
sVlisten
p480
F0.0001414709818328022
sVmurder
p481
F5.224245471114252e-05
sVantihypertensive
p482
F0.0
sVgym
p483
F0.00019219388669588182
sV2am
p484
F0.0
sVminnies
p485
F0.0
sVinexact
p486
F0.0
sVtrippy
p487
F0.00010448490942228503
sVdirect
p488
F0.0005224245471114251
sVemaciate
p489
F0.0
sVpredictable
p490
F0.0
sVavanza
p491
F0.0
sVsomewhat
p492
F0.0006269094565337102
sVsymptom
p493
F0.0
sVrls
p494
F0.0
sVdistance
p495
F3.2032314449313634e-05
sVanxiety
p496
F0.009037944665027655
sV5ht2c
p497
F0.0
sVfrankly
p498
F5.224245471114252e-05
sV5ht2a
p499
F0.0
sVtree
p500
F1.1822174187484748e-05
sVsecond
p501
F8.505539576940472e-05
sVebay
p502
F5.224245471114252e-05
sVproject
p503
F2.0210140261828886e-05
sVmatter
p504
F9.457739349987799e-05
sV5mg
p505
F0.0
sVsilly
p506
F2.0210140261828886e-05
sVfriend
p507
F0.00011163520694734369
sVhallucination
p508
F0.0
sV__mirtazapine__
p509
F0.0
sVsolely
p510
F0.00010448490942228503
sVpoland
p511
F0.0
sVenhancement
p512
F0.00010448490942228503
sVsupplement
p513
F0.0
sVmini
p514
F5.224245471114252e-05
sVfashion
p515
F5.224245471114252e-05
sVendquote
p516
F0.0
sVminn
p517
F0.0
sVmodern
p518
F1.1822174187484748e-05
sVmind
p519
F0.0008286157507349844
sVmine
p520
F0.00014186609024981696
sVginger
p521
F3.2032314449313634e-05
sVnbc
p522
F0.0
sVparamaters
p523
F0.0
sVshittiness
p524
F0.0
sVanalysis
p525
F0.00015672736413342754
sVrap
p526
F5.224245471114252e-05
sVadhd
p527
F0.0
sVarousal
p528
F0.0
sVhypoxiam
p529
F0.0
sVseem
p530
F0.0003721173564911456
sVurinate
p531
F0.0
sVseek
p532
F8.275521931239324e-05
sVdozen
p533
F0.00012812925779725454
sVchem
p534
F0.0
sVsecure
p535
F3.2032314449313634e-05
sVrelapse
p536
F0.0
sVconcrete
p537
F0.0
sVlatter
p538
F0.00020896981884457007
sVresponsible
p539
F3.2032314449313634e-05
sVthorough
p540
F0.0
sVchest
p541
F6.0630420785486655e-05
sVcontact
p542
F0.00010105070130914443
sVchess
p543
F5.224245471114252e-05
sVresponsibly
p544
F0.0
sVtransmit
p545
F0.0
sVeffectiveness
p546
F0.0
sVstrobe
p547
F0.0
sVblue
p548
F2.0210140261828886e-05
sVgravy
p549
F3.2032314449313634e-05
sVexactly
p550
F0.00028373218049963393
sVndris
p551
F0.0
sVpsychologically
p552
F0.0
sVclonazepam
p553
F0.0
sVaccumbal
p554
F0.0
sVobject
p555
F1.1822174187484748e-05
sVquit
p556
F0.0008648724901314682
sVastepro
p557
F0.0
sVnorepinephrine
p558
F0.0
sVregular
p559
F0.0005224245471114251
sVmouth
p560
F0.00020210140261828886
sVaddict
p561
F0.0007313943659559952
sVletter
p562
F2.0210140261828886e-05
sVx
p563
F5.224245471114252e-05
sVphase
p564
F0.00010448490942228503
sVcontain
p565
F5.224245471114252e-05
sVautopsy
p566
F0.00010448490942228503
sVdarkness
p567
F5.224245471114252e-05
sV1ux484
p568
F0.0
sVmitigate
p569
F0.0
sVolanzapine
p570
F0.0
sVepisode
p571
F0.0008358792753782803
sVobservation
p572
F0.00010448490942228503
sVenvironmental
p573
F0.0
sVdob
p574
F0.0
sVdoc
p575
F0.0008969048045807818
sValarm
p576
F9.609694334794091e-05
sVflop
p577
F5.224245471114252e-05
sVnighttime
p578
F5.224245471114252e-05
sVdog
p579
F8.084056104731554e-05
sVmusical
p580
F5.224245471114252e-05
sVallergic
p581
F0.00010448490942228503
sVdigress
p582
F0.0
sVdefinitely
p583
F0.0008488258909968132
sVtech
p584
F5.224245471114252e-05
sVgrossly
p585
F0.0
sVnorepenephrine
p586
F0.0
sVdeeply
p587
F9.609694334794091e-05
sVscream
p588
F0.00010448490942228503
sVdot
p589
F6.406462889862727e-05
sVreserve
p590
F5.224245471114252e-05
sVsetraline
p591
F0.0
sVhunger
p592
F0.0006269094565337102
sVbarbiturate
p593
F0.0
sVprobe
p594
F0.0
sVsubreddit
p595
F0.0
sVndma
p596
F0.0
sVchord
p597
F5.224245471114252e-05
sVlyrica
p598
F0.0
sVpoison
p599
F5.224245471114252e-05
sVdopey
p600
F0.0
sVx3
p601
F0.0
sVlethal
p602
F0.0
sVsubtle
p603
F0.00020896981884457007
sVanalogue
p604
F0.0
sVd2
p605
F0.0
sVd3
p606
F0.0
sVcapitulate
p607
F0.0
sVexperiemented
p608
F0.0
sVbusy
p609
F1.1822174187484748e-05
sVchamomile
p610
F0.0
sVheadline
p611
F0.00015672736413342754
sVexplain
p612
F0.0002627318234037755
sVlayman
p613
F0.0
sVkinase
p614
F0.0
sVcripple
p615
F0.0
sVsugar
p616
F0.0004484524022903909
sVbliss
p617
F0.0
sVpng
p618
F5.224245471114252e-05
sVdisgust
p619
F0.0
sVintegrate
p620
F0.00010448490942228503
sVgingko
p621
F0.0
sVadequate
p622
F0.0
sVboyfriend
p623
F0.0003134547282668551
sVsudafed
p624
F0.0
sVsmaller
p625
F2.0210140261828886e-05
sVindepth
p626
F0.0
sVcortex
p627
F0.0
sVmixture
p628
F5.224245471114252e-05
sVwide
p629
F1.1822174187484748e-05
sVdd
p630
F0.0
sVstop
p631
F0.00044122486555378694
sVperceive
p632
F0.0
sVpsychiatric
p633
F0.0
sVforemost
p634
F0.0
sVpocket
p635
F0.00010448490942228503
sVamazon
p636
F0.0011493340036451353
sVmeditate
p637
F0.0003656971829779976
sVdx
p638
F0.0
sValtogether
p639
F3.2032314449313634e-05
sVanxiolytic
p640
F0.0
sVnasty
p641
F0.00012812925779725454
sV80lbs
p642
F0.0
sVibotenic
p643
F0.0
sVslack
p644
F0.0
sVlaptop
p645
F3.2032314449313634e-05
sV8am
p646
F0.0
sVbar
p647
F6.0630420785486655e-05
sVblast
p648
F6.406462889862727e-05
sVnicely
p649
F3.2032314449313634e-05
sVchloral
p650
F0.0
sVhospitalize
p651
F0.0
sVanimation
p652
F5.224245471114252e-05
sVyohimbe
p653
F0.0
sVpatch
p654
F6.406462889862727e-05
sVbag
p655
F6.406462889862727e-05
sVbad
p656
F0.0004571727522605504
sVerupt
p657
F0.0
sVrelease
p658
F0.0003233622441892622
sVpsych
p659
F0.0
sVbam
p660
F5.224245471114252e-05
sVsteal
p661
F2.0210140261828886e-05
sVrequire
p662
F0.0005224245471114251
sVrespond
p663
F0.0002882908300438227
sVdeprenyl
p664
F0.0
sVnortryptaline
p665
F0.0
sVmglur
p666
F0.0
sVfair
p667
F2.126384894235118e-05
sVrockstar
p668
F0.0
sVjob
p669
F0.0005456737870693799
sVperipheral
p670
F0.0
sVvalsartan
p671
F0.0
sVspirit
p672
F2.0210140261828886e-05
sVresult
p673
F0.0006406462889862727
sVetiz
p674
F0.0
sVhorrendous
p675
F0.00015672736413342754
sVfail
p676
F0.0002009769611872407
sVsimultaneously
p677
F0.00010448490942228503
sVdepressive
p678
F0.0
sVhammer
p679
F0.0
sVbleh
p680
F0.0
sVbest
p681
F0.00024985022507262636
sVsubject
p682
F0.00015672736413342754
sVinstance
p683
F0.00010105070130914443
sV01
p684
F5.224245471114252e-05
sVavandia
p685
F0.0
sVinappropriate
p686
F9.609694334794091e-05
sVsorta
p687
F5.224245471114252e-05
sVrare
p688
F0.0003134547282668551
sVaway
p689
F0.0
sViirc
p690
F0.0
sVwikipedia
p691
F0.0
sVimipramine
p692
F0.0
sVcontinually
p693
F5.224245471114252e-05
sVsigaint
p694
F0.0
sVscore
p695
F4.042028052365777e-05
sVfinger
p696
F6.0630420785486655e-05
sVomeprazole
p697
F0.0
sVhopefully
p698
F0.0
sVmum
p699
F6.406462889862727e-05
sVoccupational
p700
F0.0
sVirc
p701
F5.224245471114252e-05
sVtolerance
p702
F0.0010448490942228503
sVlethargic
p703
F0.0
sVnonides
p704
F0.0
sVthyroid
p705
F0.0
sVlazy
p706
F0.00016016157224656817
sVmen
p707
F4.042028052365777e-05
sVpaywall
p708
F0.0
sVextend
p709
F0.00016016157224656817
sVnature
p710
F2.6579811177938972e-05
sVwean
p711
F0.0
sVtldr
p712
F0.0
sVhandful
p713
F0.0
sVweak
p714
F0.0006791519112448527
sVvitamin
p715
F0.0
sVmeh
p716
F0.0
sVdebate
p717
F3.2032314449313634e-05
sVwear
p718
F0.00016016157224656817
sVextent
p719
F0.00010448490942228503
sV20151009_101200
p720
F0.0
sVcousin
p721
F0.00010448490942228503
sVresidual
p722
F5.224245471114252e-05
sVwy
p723
F0.0
sVimprove
p724
F0.00041642008784107727
sVcop
p725
F0.00016016157224656817
sVessentially
p726
F0.0
sVaccident
p727
F0.00015672736413342754
sVstark
p728
F0.0
sVantidopaminergic
p729
F0.0
sVagonist
p730
F0.0
sVresistant
p731
F0.0
sVcountry
p732
F7.093304512490848e-05
sVill
p733
F6.0630420785486655e-05
sVdisengage
p734
F0.0
sVmirtazapie
p735
F0.0
sVbrag
p736
F0.0
sVsteer
p737
F0.0
sVcrank
p738
F0.0
sVlogic
p739
F5.224245471114252e-05
sVpita
p740
F0.0
sVuni
p741
F0.00041793963768914014
sVargue
p742
F0.00010448490942228503
sVvertigo
p743
F5.224245471114252e-05
sVanxienty
p744
F0.0
sVagonism
p745
F0.0
sVpeacefully
p746
F0.0
sVsuggest
p747
F0.0013583038224897054
sVwhatmeds
p748
F0.0
sVtough
p749
F0.00010105070130914443
sVconfide
p750
F0.0
sVirresponsible
p751
F0.0
sVseizure
p752
F0.0
sVheight
p753
F2.0210140261828886e-05
sVawesomely
p754
F0.0
sVhygiene
p755
F0.00015672736413342754
sVinactivate
p756
F0.0
sVnilly
p757
F0.0
sVpregnancy
p758
F0.00010448490942228503
sVnews
p759
F0.0001414709818328022
sVrefill
p760
F0.00015672736413342754
sVtrust
p761
F0.00016016157224656817
sVchka
p762
F0.0
sVspeak
p763
F0.00041642008784107727
sVparalyze
p764
F0.0
sVbathroom
p765
F5.224245471114252e-05
sVtint
p766
F0.0
sVabdominal
p767
F0.0
sVincomparable
p768
F0.0
sVoutlier
p769
F0.0
sVbasis
p770
F0.00010639956768736272
sVlorcaserin
p771
F0.0
sVbinge
p772
F0.0
sVsubside
p773
F0.0
sVthree
p774
F7.973943353381692e-05
sVtiny
p775
F3.546652256245424e-05
sVquickly
p776
F0.00015368826443730172
sVbeer
p777
F0.00010448490942228503
sVtrigger
p778
F0.00020896981884457007
sVdetrimental
p779
F0.0
sVinterest
p780
F0.0005445493456383318
sVbasic
p781
F2.0210140261828886e-05
sVfry
p782
F0.00020896981884457007
sVnorvasc
p783
F0.0
sVteenager
p784
F5.224245471114252e-05
sVwebsite
p785
F3.2032314449313634e-05
sVfatlogic
p786
F0.0
sVlife
p787
F0.0004359089033181992
sV25i
p788
F0.0
sVchub
p789
F0.0
sVrecomend
p790
F0.0
sVmushroom
p791
F0.00015672736413342754
sV900mg
p792
F0.0
sVsuppress
p793
F0.0
sVdismiss
p794
F5.224245471114252e-05
sVsooooo
p795
F5.224245471114252e-05
sVsearch
p796
F0.0001414709818328022
sVuncommon
p797
F6.406462889862727e-05
sVargument
p798
F6.406462889862727e-05
sVcoherent
p799
F0.0
sVlift
p800
F0.00016016157224656817
sVpersonally
p801
F0.0002009769611872407
sVcatch
p802
F0.00012812925779725454
sVdeepen
p803
F0.0
sVbuprenorphine
p804
F0.0
sVdiabeta
p805
F0.0
sVpecker
p806
F0.0
sV161
p807
F0.0
sVchill
p808
F5.224245471114252e-05
sVtonight
p809
F9.609694334794091e-05
sVexception
p810
F0.00012812925779725454
sVtank
p811
F5.224245471114252e-05
sVdaze
p812
F0.0
sVshrink
p813
F9.609694334794091e-05
sVrigorously
p814
F0.0
sVlessen
p815
F0.0
sVbuproprion
p816
F0.0
sVn
p817
F5.315962235587795e-06
sVlesser
p818
F5.224245471114252e-05
sVcalcium
p819
F0.0
sVnear
p820
F2.126384894235118e-05
sVsuppose
p821
F0.0002562585155945091
sVbacolfen
p822
F0.0
sVaid
p823
F0.0
sVbalance
p824
F0.00041793963768914014
sVk
p825
F6.406462889862727e-05
sVmealtime
p826
F0.0
sVarevailablell
p827
F0.0
sVseven
p828
F6.406462889862727e-05
sVvasodilation
p829
F0.0
sVrobert
p830
F0.0
sViq
p831
F0.0
sVir
p832
F0.0
sVupregulates
p833
F0.0
sVclonazolam
p834
F0.0
sVweirdness
p835
F5.224245471114252e-05
sVii
p836
F0.0
sVplayer
p837
F3.2032314449313634e-05
sVcant
p838
F0.00010448490942228503
sVdizzy
p839
F0.0
sVanhedonia
p840
F0.0
sVcone
p841
F5.224245471114252e-05
sVanhedonic
p842
F0.0
sVworkout
p843
F0.0
sVie
p844
F5.224245471114252e-05
sVinsatiable
p845
F0.0
sV40gs
p846
F0.0
sVamitryptaline
p847
F0.0
sV20049305
p848
F0.0
sVkeen
p849
F3.2032314449313634e-05
sVseverity
p850
F0.0
sVstickied
p851
F0.0
sVperform
p852
F6.0630420785486655e-05
sVlarge
p853
F0.0
sVrecurrent
p854
F0.0
sVdhc
p855
F0.0
sVjerry
p856
F0.0
sV10yrs
p857
F0.0
sVdrawback
p858
F0.0
sVpotentially
p859
F0.00020896981884457007
sVunfortunate
p860
F4.042028052365777e-05
sVevaluate
p861
F0.0
sVvegetable
p862
F5.224245471114252e-05
sVseveral
p863
F0.0005765816600876454
sVcouple
p864
F0.0002246213095622102
sVeuropean
p865
F0.0
sVfairly
p866
F0.0002882908300438227
sVnih
p867
F0.0
sVmyocardial
p868
F0.0
sVcatholic
p869
F0.0
sVverapamil
p870
F0.0
sVpick
p871
F0.000525463646807551
sVhang
p872
F3.546652256245424e-05
sVevil
p873
F8.084056104731554e-05
sVkit
p874
F0.0015375510935670546
sVeffectively
p875
F0.0
sVpharmacological
p876
F0.0
sVafraid
p877
F7.093304512490848e-05
sVcapable
p878
F0.00015672736413342754
sVtune
p879
F0.0003134547282668551
sVkid
p880
F0.00047018209240028266
sVpharmawhore
p881
F0.0
sVflubromazelam
p882
F0.0
sVspecialize
p883
F0.0
sVshortly
p884
F5.224245471114252e-05
sVwhereby
p885
F0.0
sVscenario
p886
F0.0
sVmirtazipine
p887
F0.0
sVcongrats
p888
F0.0
sVeps
p889
F0.0
sVdeal
p890
F0.00037830957399951194
sVtho
p891
F0.0006269094565337102
sVclient
p892
F6.406462889862727e-05
sVencounter
p893
F5.224245471114252e-05
sVmother
p894
F2.6579811177938972e-05
sVjean
p895
F0.0
sV800
p896
F3.2032314449313634e-05
sVthc
p897
F0.0
sVprobly
p898
F0.0
sVunfortunately
p899
F0.0003656971829779976
sVimpression
p900
F0.00010448490942228503
sVbirth
p901
F0.00015672736413342754
sVsentence
p902
F0.0003134547282668551
sVyea
p903
F0.0
sVphoto
p904
F2.0210140261828886e-05
sV2844
p905
F0.0
sVunited_states
p906
F0.0
sVsleepy
p907
F0.0007836368206671378
sVenvious
p908
F0.0
sVphenubit
p909
F0.0
sVfinancially
p910
F0.00010448490942228503
sVidentify
p911
F6.406462889862727e-05
sVhangover
p912
F0.0003656971829779976
sVhuman
p913
F0.0001414709818328022
sVdopamine
p914
F0.0
sVyep
p915
F0.00020896981884457007
sVyes
p916
F9.03713580049925e-05
sVyet
p917
F0.00010631924471175589
sVprevious
p918
F2.126384894235118e-05
sVhah
p919
F0.0
sVunable
p920
F0.00022422620114519545
sVcandidate
p921
F6.406462889862727e-05
sVanalytical
p922
F0.0
sVacetylsalicylic
p923
F0.0
sVease
p924
F6.406462889862727e-05
sVboot
p925
F5.224245471114252e-05
sVsubutex
p926
F0.0
sVpharmacy
p927
F0.003552486920357691
sVhydroxozine
p928
F0.0
sVspread
p929
F5.224245471114252e-05
sVaffinity
p930
F0.0
sVboard
p931
F4.042028052365777e-05
sVeasy
p932
F0.0
sVprison
p933
F0.00012812925779725454
sV5g
p934
F0.0
sVsave
p935
F0.0001616811220946311
sVhat
p936
F0.0001414709818328022
sVtolerable
p937
F0.0
sVpsychosis
p938
F0.0
sVnoticeable
p939
F5.224245471114252e-05
sVthankfully
p940
F0.0
sVfreedom
p941
F2.0210140261828886e-05
sVmindfuck
p942
F0.0
sVelse
p943
F0.00013289905588969488
sVreferral
p944
F0.0
sVpossible
p945
F0.0002246213095622102
sVwih
p946
F0.0
sVfast
p947
F0.0001773326128122712
sVpossibly
p948
F0.00013004391606233223
sVzmjjijj
p949
F0.0
sVbackground
p950
F1.5947886706763385e-05
sVperformance
p951
F8.084056104731554e-05
sVjudge
p952
F0.00016016157224656817
sVshadow
p953
F3.2032314449313634e-05
sVunique
p954
F9.609694334794091e-05
sVunfounded
p955
F0.0
sVmassively
p956
F0.0
sVd
p957
F0.0
sVdesire
p958
F0.00026121227355571257
sVnauseate
p959
F0.0
sVbpd
p960
F0.0
sVfrontal
p961
F3.2032314449313634e-05
sVconcious
p962
F0.0
sV55
p963
F5.224245471114252e-05
sVcontradict
p964
F0.0
sVbpm
p965
F0.0
sVunnecessary
p966
F5.224245471114252e-05
sVmountaintop
p967
F0.0
sVspecific
p968
F0.00020210140261828886
sVremind
p969
F0.00016016157224656817
sVdissociative
p970
F0.0
sVnight
p971
F0.00044122486555378694
sVnotorious
p972
F0.00041793963768914014
sVsecurity
p973
F2.0210140261828886e-05
sVstarvation
p974
F0.0
sVintroduce
p975
F5.224245471114252e-05
sVsignal
p976
F6.406462889862727e-05
sVbeneficial
p977
F0.00010448490942228503
sVright
p978
F0.00033490562084203103
sVold
p979
F0.0
sVcrowd
p980
F6.406462889862727e-05
sVurge
p981
F0.0
sVdepakene
p982
F0.0
sVsomehow
p983
F2.0210140261828886e-05
sVelderly
p984
F5.224245471114252e-05
sVphysician
p985
F0.0
sVselectivity
p986
F0.0
sVhassle
p987
F0.0
sVideal
p988
F9.609694334794091e-05
sVstatistic
p989
F0.0
sVdear
p990
F2.0210140261828886e-05
sVmultiple
p991
F0.00032032314449313633
sVbore
p992
F0.00010448490942228503
sVpsychogenic
p993
F0.0
sVtxt
p994
F5.224245471114252e-05
sVdense
p995
F5.224245471114252e-05
sVtotaly
p996
F0.0
sVbottom
p997
F2.126384894235118e-05
sVparesthesia
p998
F0.0
sVreflexively
p999
F0.0
sVnormal
p1000
F0.0008084056104731554
sVmicrowave
p1001
F5.224245471114252e-05
sVcreative
p1002
F0.00012812925779725454
sVeverything
p1003
F0.0001913746404811606
sVfog
p1004
F0.0
sVperiphery
p1005
F0.0
sVatenolol
p1006
F0.0
sVumm
p1007
F0.0
sVexperimentation
p1008
F0.0
sVchristmas
p1009
F0.0
sVicu
p1010
F0.0
sVantihistaminic
p1011
F0.0
sVcord
p1012
F0.0
sVcore
p1013
F8.084056104731554e-05
sVsnore
p1014
F5.224245471114252e-05
sVepigenetic
p1015
F0.0
sVcrap
p1016
F9.609694334794091e-05
sVflunk
p1017
F0.0
sVdiltiazem
p1018
F0.0
sVdental
p1019
F5.224245471114252e-05
sVburn
p1020
F0.00016016157224656817
sVphen
p1021
F0.0
sVdiscount
p1022
F0.00010448490942228503
sVbolt
p1023
F0.0
sV14mg
p1024
F0.0
sVinvaluable
p1025
F0.0
sVpeer
p1026
F3.2032314449313634e-05
sVfastime
p1027
F0.0
sVsuper
p1028
F0.0013453572068711727
sValien
p1029
F5.224245471114252e-05
sVvalium
p1030
F0.0
sVsrni
p1031
F0.0
sVrestlessness
p1032
F0.0
sVlightheaded
p1033
F0.0
sVupregulating
p1034
F0.0
sVconceal
p1035
F0.0
sVoccasionally
p1036
F6.0630420785486655e-05
sVinderal
p1037
F0.0
sVinjure
p1038
F0.0
sVv
p1039
F0.00015672736413342754
sVo
p1040
F1.063192447117559e-05
sVessential
p1041
F0.0
sVtrustworthy
p1042
F5.224245471114252e-05
sVsnris
p1043
F0.0
sVplus
p1044
F0.00020210140261828886
sVafternoon
p1045
F0.00026121227355571257
sVhorizon
p1046
F5.224245471114252e-05
sVsteadily
p1047
F0.0
sVcommit
p1048
F6.406462889862727e-05
sVtwitch
p1049
F5.224245471114252e-05
sVslightly
p1050
F0.00010639956768736272
sVautomatically
p1051
F9.609694334794091e-05
sVnerve
p1052
F0.00015672736413342754
sVtel
p1053
F0.0
sVdigestion
p1054
F0.0
sVwhats
p1055
F0.0
sVhypo
p1056
F0.0
sVhungrier
p1057
F5.224245471114252e-05
sVod
p1058
F0.0
sVpreliminary
p1059
F0.00015672736413342754
sVcraft
p1060
F0.0
sVson
p1061
F3.546652256245424e-05
sVthankful
p1062
F0.0
sVfinely
p1063
F0.00020896981884457007
sVprazocin
p1064
F0.0
sVirritate
p1065
F0.0
sVwrap
p1066
F2.0210140261828886e-05
sVstall
p1067
F0.00010448490942228503
sVanorexic
p1068
F0.00010448490942228503
sVanorexia
p1069
F5.224245471114252e-05
sVstrangely
p1070
F5.224245471114252e-05
sVrely
p1071
F3.2032314449313634e-05
sVvaldoxan
p1072
F0.0
sVstereotype
p1073
F5.224245471114252e-05
sVsupport
p1074
F0.00016016157224656817
sVinitial
p1075
F0.00010105070130914443
sVcausative
p1076
F0.0
sVtame
p1077
F0.00010448490942228503
sVavail
p1078
F0.0
sVhumorous
p1079
F5.224245471114252e-05
sVaccordingly
p1080
F5.224245471114252e-05
sVclinical
p1081
F0.0
sVcarthage_nursing_home_shooting
p1082
F0.0
sVway
p1083
F0.0003774333187267334
sVwax
p1084
F2.0210140261828886e-05
sVjane
p1085
F0.0
sVmusic
p1086
F5.847558459146574e-05
sVempathy
p1087
F0.0
sVwar
p1088
F0.00016016157224656817
sVpurposely
p1089
F0.0
sVcalm
p1090
F0.0005224245471114251
sVfork
p1091
F2.0210140261828886e-05
sVpamelor
p1092
F0.0
sVhead
p1093
F7.442347129822912e-05
sVcreation
p1094
F5.224245471114252e-05
sVamphs
p1095
F0.0
sVform
p1096
F0.0002009769611872407
sVoffer
p1097
F0.0009902968728296153
sVlorazepam
p1098
F0.0
sVmorpine
p1099
F0.0
sVanalyse
p1100
F0.0
sVacute
p1101
F0.0
sVpowerfully
p1102
F0.0
sVunderstandable
p1103
F0.0
sVzoom
p1104
F5.224245471114252e-05
sVheap
p1105
F0.0
sVblindness
p1106
F5.224245471114252e-05
sVtrue
p1107
F0.00010639956768736272
sVreset
p1108
F5.224245471114252e-05
sVcounsel
p1109
F0.0
sVcircumstantial
p1110
F0.0
sV2000ug
p1111
F0.0
sVhappen
p1112
F0.0004019539223744814
sVaza
p1113
F0.0
sVinside
p1114
F2.126384894235118e-05
sVb6
p1115
F0.0
sVhmm
p1116
F2.0210140261828886e-05
sVnassa
p1117
F0.0
sVemotional
p1118
F0.0003134547282668551
sVfate
p1119
F5.224245471114252e-05
sVdelete
p1120
F6.406462889862727e-05
sVdiagnose
p1121
F0.0009403641848005653
sVtonne
p1122
F0.0
sV8mg
p1123
F0.0
sV155
p1124
F0.0
sVgo
p1125
F0.0
sVclassic
p1126
F6.406462889862727e-05
sVtoss
p1127
F5.224245471114252e-05
sVabstract
p1128
F5.224245471114252e-05
sVmirror
p1129
F0.00016016157224656817
sVmuscular
p1130
F3.2032314449313634e-05
sVdrive
p1131
F0.00035235545894245
sVsoothe
p1132
F0.0
sVexist
p1133
F9.609694334794091e-05
sVprayer
p1134
F0.0
sVrequest
p1135
F6.0630420785486655e-05
sVengeldinger
p1136
F0.0
sVawhile
p1137
F0.00015672736413342754
sV20
p1138
F0.00014884694259645825
sVsympathy
p1139
F5.224245471114252e-05
sVdealer
p1140
F0.00010448490942228503
sVshit
p1141
F0.0010890986912766637
sVphysical
p1142
F0.0
sVnh
p1143
F0.0
sVradically
p1144
F0.0
sV200mg
p1145
F0.0
sVnl
p1146
F0.00010448490942228503
sVfaithful
p1147
F5.224245471114252e-05
sVclingy
p1148
F5.224245471114252e-05
sVfloor
p1149
F3.2032314449313634e-05
sVnb
p1150
F0.0
sVanesthesiologist
p1151
F0.0
sVgenerally
p1152
F0.000343572384451091
sVactor
p1153
F5.224245471114252e-05
sVactos
p1154
F0.0
sVtil
p1155
F2.0210140261828886e-05
sVrole
p1156
F0.00015672736413342754
sVcomplicit
p1157
F0.0
sVtest
p1158
F0.0004042028052365777
sVtie
p1159
F3.2032314449313634e-05
sVbecuase
p1160
F0.0
sVsmell
p1161
F9.609694334794091e-05
sVroll
p1162
F6.0630420785486655e-05
sVtic
p1163
F0.0
sVnode
p1164
F0.0
sVpicture
p1165
F0.00010105070130914443
sVintend
p1166
F0.00026121227355571257
sVsalad
p1167
F5.224245471114252e-05
sVcanto
p1168
F0.0
sVhandicap
p1169
F0.00020896981884457007
sVfelt
p1170
F0.001030717153353273
sVupdate
p1171
F0.00010448490942228503
sVdiet
p1172
F0.0005224245471114251
sVoutpatient
p1173
F0.0
sVbrief
p1174
F5.224245471114252e-05
sVfell
p1175
F4.042028052365777e-05
sVprofessional
p1176
F6.406462889862727e-05
sVsnooze
p1177
F0.0
sVneuroscience
p1178
F0.0
sVnoradrenergic
p1179
F0.0
sVaware
p1180
F0.0
sVweekend
p1181
F9.609694334794091e-05
sVindo
p1182
F0.0
sVquintessentially
p1183
F0.0
sVreabsorption
p1184
F0.0
sVwarn
p1185
F0.00020210140261828886
sVyounger
p1186
F2.0210140261828886e-05
sVregime
p1187
F0.0
sVallright
p1188
F0.0
sVapology
p1189
F0.0
sVglass
p1190
F5.315962235587795e-06
sVassume
p1191
F0.00020896981884457007
sVsigma
p1192
F0.0
sVinterval
p1193
F0.0
sVdaily
p1194
F0.0021941830978679856
sVgorilla
p1195
F5.224245471114252e-05
sVsafe
p1196
F0.00020210140261828886
sVapart
p1197
F2.0210140261828886e-05
sVteeth
p1198
F0.00012812925779725454
sVpush
p1199
F8.084056104731554e-05
sVserious
p1200
F0.0004042028052365777
sVquantity
p1201
F0.0
sVprospective
p1202
F0.0
sVantidpressents
p1203
F0.0
sVbasically
p1204
F0.0009926066395117077
sVintoxicate
p1205
F0.0
sVunavoidable
p1206
F0.0
sVlamactil
p1207
F0.0
sVbolus
p1208
F0.0
sVwhoever
p1209
F2.0210140261828886e-05
sVskip
p1210
F0.00012812925779725454
sVkeep
p1211
F0.0004199610166114358
sVrelieve
p1212
F0.0
sVacademically
p1213
F0.0
sVfocus
p1214
F0.0009926066395117077
sVinvent
p1215
F5.224245471114252e-05
sV______________
p1216
F0.0
sVmirt
p1217
F0.0
sVmanager
p1218
F9.609694334794091e-05
sVtrichotillomania
p1219
F0.0
sVasymptomatic
p1220
F0.0
sVgrateful
p1221
F0.0
sVskin
p1222
F5.315962235587795e-06
sVbattle
p1223
F0.00015672736413342754
sVremarkably
p1224
F0.0
sVward
p1225
F0.00015672736413342754
sVanony
p1226
F0.0
sVretention
p1227
F5.224245471114252e-05
sVvet
p1228
F0.0003656971829779976
sVsuicide
p1229
F0.0007313943659559952
sVdepend
p1230
F0.0007313943659559952
sVzone
p1231
F0.0001414709818328022
sVpromote
p1232
F0.00010448490942228503
sVtechnique
p1233
F5.224245471114252e-05
sVsufferer
p1234
F0.0
sV94
p1235
F3.2032314449313634e-05
sVrecurrence
p1236
F0.0
sV0
p1237
F0.00016016157224656817
sVfinally
p1238
F0.0005125170311890182
sVpermanently
p1239
F0.00015672736413342754
sV50lbs
p1240
F0.0
sVrhythm
p1241
F0.00020896981884457007
sVunrefreshing
p1242
F0.0
sVaspx
p1243
F0.00015672736413342754
sVride
p1244
F2.0210140261828886e-05
sVpersevere
p1245
F0.0
sVprotective
p1246
F5.224245471114252e-05
sVstring
p1247
F1.1822174187484748e-05
sVgooglefu
p1248
F0.0
sVyeast
p1249
F3.2032314449313634e-05
sVrecipe
p1250
F0.0
sVbluebrainboost
p1251
F0.0
sVmg
p1252
F0.0
sVseemingly
p1253
F0.00015672736413342754
sVchoice
p1254
F0.00010105070130914443
sVultrashort
p1255
F0.0
sV977x
p1256
F0.0
sVcook
p1257
F3.2032314449313634e-05
sVword
p1258
F3.721173564911456e-05
sVtrouble
p1259
F5.3159622355877944e-05
sVdaytime
p1260
F0.0003134547282668551
sVexact
p1261
F0.00018189126235645996
sVminute
p1262
F0.0002829419636656044
sVcool
p1263
F0.00026121227355571257
sVdissociate
p1264
F0.0
sVdin
p1265
F0.0
sVunifiram
p1266
F0.0
sVdextropropoxyphene
p1267
F0.0
sVlevel
p1268
F4.784366012029015e-05
sVtear
p1269
F4.728869674993899e-05
sVdie
p1270
F5.911087093742374e-05
sVdig
p1271
F0.00010448490942228503
sVaccidentally
p1272
F2.0210140261828886e-05
sVadderal
p1273
F0.0
sVleave
p1274
F0.00023644348374969495
sVitem
p1275
F2.0210140261828886e-05
sVsoooo
p1276
F5.224245471114252e-05
sVsettle
p1277
F6.0630420785486655e-05
sVpropanolol
p1278
F0.0
sVt_t
p1279
F0.0
sVteam
p1280
F0.00015672736413342754
sVquick
p1281
F2.6579811177938972e-05
sVspiral
p1282
F5.224245471114252e-05
sVguy
p1283
F0.0002627318234037755
sVorganon
p1284
F0.0
sVdip
p1285
F5.224245471114252e-05
sVround
p1286
F3.546652256245424e-05
sVwellbutrin
p1287
F0.0
sVdis
p1288
F3.2032314449313634e-05
sVanesthetic
p1289
F0.0
sVprevent
p1290
F0.00019219388669588182
sVspiritual
p1291
F0.00010448490942228503
sV105lbs
p1292
F0.0
sVregret
p1293
F6.406462889862727e-05
sVinsignificant
p1294
F0.0
sVsigh
p1295
F3.2032314449313634e-05
sVsidetrack
p1296
F0.0
sVubiquitous
p1297
F0.0
sVdiscover
p1298
F9.609694334794091e-05
sV3723a635b4269dd35dc25bc269025ddd85632212
p1299
F0.0
sVsign
p1300
F2.126384894235118e-05
sVcetirizine
p1301
F0.0
sVstrenghts
p1302
F0.0
sVpmc
p1303
F0.0
sVneuropsychiatry
p1304
F0.0
sVravenous
p1305
F0.0
sVbacterial
p1306
F0.0
sVreaaaaally
p1307
F0.0
sVport
p1308
F2.0210140261828886e-05
sVsubstitute
p1309
F0.0
sVepileptic
p1310
F0.0
sVeducate
p1311
F0.0
sVdarkest
p1312
F0.0
sVappear
p1313
F0.00012812925779725454
sV75mgs
p1314
F0.0
sVpsychotropic
p1315
F0.0
sVdepress_appd
p1316
F0.0
sVlowest
p1317
F5.224245471114252e-05
sVoxide
p1318
F0.0
sVmelt
p1319
F0.0
sVsupporter
p1320
F0.0
sVcurrent
p1321
F0.00018189126235645996
sVrub
p1322
F5.224245471114252e-05
sVhungry
p1323
F0.0006406462889862727
sVamericansubs
p1324
F0.0
sVsuspect
p1325
F0.00012812925779725454
sVketipinor
p1326
F0.0
sVgoooood
p1327
F0.0
sVinternational
p1328
F6.406462889862727e-05
sVappeal
p1329
F5.224245471114252e-05
sVboost
p1330
F0.0
sValertness
p1331
F0.0
sVparadoxical
p1332
F0.0
sVsatisfy
p1333
F0.0
sVfocalin
p1334
F0.0
sVassertive
p1335
F5.224245471114252e-05
sVfuneral
p1336
F5.224245471114252e-05
sVmr
p1337
F0.0
sVwater
p1338
F8.084056104731554e-05
sVht6
p1339
F0.0
sVwussy
p1340
F0.0
sVsnack
p1341
F5.224245471114252e-05
sVtopiramate
p1342
F0.0
sVaddress
p1343
F0.00012812925779725454
sValone
p1344
F0.0002627318234037755
sVratio
p1345
F5.224245471114252e-05
sValong
p1346
F6.379154682705354e-05
sVrue
p1347
F0.0
sVmild
p1348
F0.0
sVchange
p1349
F0.0009094563117823
sVwait
p1350
F0.00016551043862478648
sVbox
p1351
F3.546652256245424e-05
sVboy
p1352
F2.0210140261828886e-05
sVtianeptine
p1353
F0.0
sVarc
p1354
F0.0
sVstair
p1355
F0.0
sVthirty
p1356
F9.609694334794091e-05
sVinstitute
p1357
F0.0
sVshift
p1358
F0.00026121227355571257
sVsleepys
p1359
F0.0
sVbos
p1360
F0.0
sVbot
p1361
F0.0
sVcommonly
p1362
F0.0
sVprecuneus
p1363
F0.0
sVtrial
p1364
F0.0005125170311890182
sVineffective
p1365
F0.00015672736413342754
sVsuggestion
p1366
F9.609694334794091e-05
sVusually
p1367
F0.0007275650494258398
sVcyst
p1368
F0.0
sVweird
p1369
F0.0003637825247129199
sV20mg
p1370
F0.0
sVgenuinely
p1371
F0.00010448490942228503
sVpepto
p1372
F0.0
sVpancreatitis
p1373
F0.0
sVlove
p1374
F0.0002246213095622102
sVconfidentiality
p1375
F5.224245471114252e-05
sVstubborn
p1376
F0.0
sVproblematic
p1377
F0.00010448490942228503
sVmerely
p1378
F0.0
sVsubstitution
p1379
F0.0
sVprefer
p1380
F8.084056104731554e-05
sVwestroads_mall_shooting
p1381
F0.0
sVmess
p1382
F0.00035235545894245
sVflexibility
p1383
F0.0
sVcvp06t4
p1384
F0.0
sVlogically
p1385
F5.224245471114252e-05
sV27
p1386
F4.042028052365777e-05
sVfake
p1387
F0.00010448490942228503
sVlithium
p1388
F0.0
sVrarely
p1389
F0.0
sVempathogens
p1390
F0.0
sVpost
p1391
F0.0006406462889862727
sVmarket
p1392
F0.000800807861232841
sVeverybody
p1393
F3.2032314449313634e-05
sVjan
p1394
F0.0
sVdeplin
p1395
F0.0
sVvenalefexine
p1396
F0.0
sVdiscus
p1397
F0.0
sVprove
p1398
F0.0
sVperk
p1399
F0.0
sVpositive
p1400
F0.00024252168314194662
sVangry
p1401
F9.609694334794091e-05
sVwane
p1402
F0.0
sVdude
p1403
F0.00047018209240028266
sVtightly
p1404
F6.406462889862727e-05
sVlive
p1405
F0.00010631924471175589
sVresubmit
p1406
F0.0
sVayy
p1407
F0.0
sVbender
p1408
F0.0
sVmemory
p1409
F0.00020210140261828886
sVtachycardic
p1410
F0.0
sVscope
p1411
F5.224245471114252e-05
sVsharpen
p1412
F0.0
sVpregabalin
p1413
F0.0
sVcheckout
p1414
F0.0
sVtheoretical
p1415
F0.0
sVahha
p1416
F0.0
sVaspirin
p1417
F0.0
sVdormant
p1418
F5.224245471114252e-05
sVantiemetic
p1419
F0.0
sVafford
p1420
F0.00010448490942228503
sVacceptable
p1421
F5.224245471114252e-05
sVcashier
p1422
F5.224245471114252e-05
sVvalidity
p1423
F0.0
sVatarax
p1424
F0.0
sVemployee
p1425
F5.224245471114252e-05
sVmirtazap
p1426
F0.0
sVtandem
p1427
F0.0
sVignorant
p1428
F0.00026121227355571257
sVdegrade
p1429
F0.0
sVsulfur
p1430
F5.224245471114252e-05
sVsit
p1431
F0.00018189126235645996
sVcaffeinated
p1432
F0.0
sVeffort
p1433
F0.00020896981884457007
sVfly
p1434
F4.042028052365777e-05
sVimpair
p1435
F0.0
sVpatently
p1436
F0.0
sVedible
p1437
F5.224245471114252e-05
sVflubromazepam
p1438
F0.0
sV3yr
p1439
F0.0
sVcar
p1440
F8.084056104731554e-05
sVoriginally
p1441
F3.2032314449313634e-05
sVpretend
p1442
F5.224245471114252e-05
sVflu
p1443
F0.00010448490942228503
sVcolonidine
p1444
F0.0
sVcat
p1445
F0.00022422620114519545
sVintensely
p1446
F0.0
sVhardest
p1447
F0.00020896981884457007
sVquetiapine
p1448
F0.0
sVachieve
p1449
F0.00015672736413342754
sVaripiprazole
p1450
F0.0
sVcal
p1451
F0.0
sVmetoprolol
p1452
F0.0
sVarrive
p1453
F8.084056104731554e-05
sVdosage
p1454
F0.001515031186623133
sVslightest
p1455
F0.0
sVsocial
p1456
F0.00015368826443730172
sVclaim
p1457
F0.00010105070130914443
sVcrazy
p1458
F0.00035235545894245
sVfigure
p1459
F0.00038438777339176364
sVnexus
p1460
F0.0
sVdecember
p1461
F0.0
sVawesome
p1462
F0.0005746670018225677
sVarise
p1463
F0.0
sVfuck
p1464
F0.0038136991939134043
sVagent
p1465
F0.0001616811220946311
sVednf
p1466
F0.0
sVsample
p1467
F4.728869674993899e-05
sV7pm
p1468
F0.0
sVdxm
p1469
F0.0
sVsurround
p1470
F0.0
sVexclude
p1471
F0.00010448490942228503
sVoffense
p1472
F0.00010448490942228503
sVbelsomra
p1473
F0.0
sVcardio
p1474
F0.0
sVoccur
p1475
F0.0003656971829779976
sVpink
p1476
F6.406462889862727e-05
sVdiclazepam
p1477
F0.0
sVproductive
p1478
F0.00010448490942228503
sVwinter
p1479
F3.2032314449313634e-05
sVfortunately
p1480
F0.0
sVtilt
p1481
F0.0
sVdiscussion
p1482
F6.406462889862727e-05
sVexceptional
p1483
F5.224245471114252e-05
sVdinner
p1484
F6.0630420785486655e-05
sVpublicise
p1485
F0.0
sVchemical
p1486
F0.00041793963768914014
sVtill
p1487
F6.406462889862727e-05
sVemotionless
p1488
F0.0
sVcriterion
p1489
F0.0
sVactual
p1490
F0.00015672736413342754
sVpure
p1491
F2.3644348374969496e-05
sVensure
p1492
F5.224245471114252e-05
sVadamant
p1493
F0.0
sVabsolute
p1494
F9.609694334794091e-05
sVeight
p1495
F2.0210140261828886e-05
sVpathway
p1496
F0.0
sVnonstop
p1497
F5.224245471114252e-05
sVcontinous
p1498
F0.0
sVsnf
p1499
F0.0
sVopana
p1500
F0.0
sVproduct
p1501
F0.0014094218357698
sV145
p1502
F0.0
sVirrational
p1503
F0.0
sV140
p1504
F5.224245471114252e-05
sV141
p1505
F0.0
sVmay
p1506
F0.00048375256343848933
sVmax
p1507
F0.00010448490942228503
sVdive
p1508
F5.224245471114252e-05
sVuse
p1509
F0.0011695116918293148
sVspot
p1510
F4.042028052365777e-05
sVuracil
p1511
F0.0
sVlaxative
p1512
F0.0
sVproduce
p1513
F0.00022422620114519545
sVmad
p1514
F1.1822174187484748e-05
sVdate
p1515
F6.406462889862727e-05
sVmah
p1516
F5.224245471114252e-05
sVsuck
p1517
F0.000800807861232841
sVdata
p1518
F0.00020896981884457007
sVgrow
p1519
F0.00019219388669588182
sVwhathaveyou
p1520
F0.0
sVman
p1521
F6.379154682705354e-05
sV120
p1522
F0.0
sVstress
p1523
F0.00035235545894245
sVnatural
p1524
F9.609694334794091e-05
sVneck
p1525
F3.2032314449313634e-05
sVliquid
p1526
F0.0003656971829779976
sVconscious
p1527
F5.224245471114252e-05
sVwhenever
p1528
F9.609694334794091e-05
sVsr
p1529
F0.0
sVgoal
p1530
F0.0003134547282668551
sVibu
p1531
F0.0
sVq
p1532
F0.0
sVprovide
p1533
F0.00041793963768914014
sVswitch
p1534
F0.0011211310057259772
sVtailor
p1535
F0.0
sVsidewalk
p1536
F5.224245471114252e-05
sVghb
p1537
F0.0
sVunleash
p1538
F0.0
sVbunk
p1539
F5.224245471114252e-05
sVtalk
p1540
F0.0013338692572807064
sV2mg
p1541
F0.0
sVtachy
p1542
F0.0
sVunbind
p1543
F0.0
sVlsd
p1544
F0.0
sVdisclosure
p1545
F0.0
sVserve
p1546
F6.406462889862727e-05
sVgradual
p1547
F0.0
sVepilepsy
p1548
F0.0
sVmainly
p1549
F0.00016016157224656817
sVunacceptable
p1550
F3.2032314449313634e-05
sVfeature
p1551
F3.2032314449313634e-05
sVpreskorn
p1552
F0.0
sVcourse
p1553
F0.00023644348374969495
sVprogram
p1554
F0.00016016157224656817
sVshake
p1555
F6.406462889862727e-05
sVhorrify
p1556
F0.0
sVcold
p1557
F0.0003839926649747488
sVstill
p1558
F0.0
sVskeleton
p1559
F2.0210140261828886e-05
sVtendency
p1560
F0.00015672736413342754
sVrapid
p1561
F0.00041793963768914014
sVvta
p1562
F0.0
sV86
p1563
F0.0
sVpolice
p1564
F3.2032314449313634e-05
sVthank
p1565
F0.0007679853299494976
sVacknowledge
p1566
F0.0
sVtemporolimbical
p1567
F0.0
sVorganisation
p1568
F0.0
sVpresence
p1569
F1.1822174187484748e-05
sVideation
p1570
F0.0
sVwindow
p1571
F2.3644348374969496e-05
sVjiu
p1572
F0.0
sVpolicy
p1573
F0.00020896981884457007
sVsuspension
p1574
F0.0
sVtachycardia
p1575
F0.0
sVmain
p1576
F0.00014884694259645825
sVnortriptyline
p1577
F0.0
sVtoxin
p1578
F0.0
sVnon
p1579
F0.00010100328247616809
sVfloat
p1580
F3.2032314449313634e-05
sVopioids
p1581
F0.0
sVthereby
p1582
F0.0
sVremron
p1583
F0.0
sVnod
p1584
F0.0003656971829779976
sVbenzodiazepine_withdrawal_syndrome
p1585
F0.0
sVinsomnia
p1586
F0.0
sVsarcastic
p1587
F5.224245471114252e-05
sVlunch
p1588
F4.042028052365777e-05
sVexenatide
p1589
F0.0
sVadrenaline
p1590
F0.0
sVrexulti
p1591
F0.0
sVbase
p1592
F8.275521931239324e-05
sVgate
p1593
F0.00020896981884457007
sVprosource
p1594
F0.0
sVtricyclic
p1595
F0.0
sVuncontrolled
p1596
F0.0
sVbullshit
p1597
F0.00020896981884457007
sVoutweigh
p1598
F0.0
sVsusceptibility
p1599
F0.0
sVterm
p1600
F0.000687144768902182
sVdeliriants
p1601
F0.0
sVname
p1602
F3.721173564911456e-05
sV_____________________________________________________
p1603
F0.0
sVstahl
p1604
F0.0
sVcognition
p1605
F0.00010448490942228503
sVprophylaxis
p1606
F0.0
sVdidn
p1607
F0.00042527697884702355
sVlithobid
p1608
F0.0
sVconcerta
p1609
F0.0
sVvendor
p1610
F6.406462889862727e-05
sVdysphoric
p1611
F0.0
sVgamble
p1612
F5.224245471114252e-05
sVdaytrana
p1613
F0.0
sVrock
p1614
F6.0630420785486655e-05
sVantiepileptic
p1615
F0.0
sVanyeone
p1616
F0.0
sVentirely
p1617
F0.00014186609024981696
sVquarter
p1618
F3.2032314449313634e-05
sVhumanish
p1619
F0.0
sVem
p1620
F1.1822174187484748e-05
sVel
p1621
F5.224245471114252e-05
sVen
p1622
F0.00105706637682735
sVeyelid
p1623
F0.0
sVeh
p1624
F4.042028052365777e-05
sVreplication
p1625
F0.0
sVlam
p1626
F5.224245471114252e-05
sVed
p1627
F9.609694334794091e-05
sVbeloved
p1628
F5.224245471114252e-05
sVyeah
p1629
F0.0007047109178849
sVbreakthrough
p1630
F0.0
sVex
p1631
F0.00019219388669588182
sVsignage
p1632
F0.0
sVokay
p1633
F0.0006086139745369591
sVgirl
p1634
F3.546652256245424e-05
sVsummary
p1635
F0.0
sVfriggen
p1636
F0.0
sVdescription
p1637
F5.224245471114252e-05
sVtroll
p1638
F5.224245471114252e-05
sVhcp
p1639
F0.0
sVaccomplish
p1640
F0.0
sVjackson
p1641
F0.0
sVspace
p1642
F6.406462889862727e-05
sV100g
p1643
F0.0
sVirony
p1644
F6.406462889862727e-05
sVsitagliptin
p1645
F0.0
sVinterference
p1646
F0.0
sVstumble
p1647
F0.0
sVincrease
p1648
F0.002370391269249209
sVlad
p1649
F6.406462889862727e-05
sVseriously
p1650
F0.00018189126235645996
sVhallucinate
p1651
F0.0
sVtrauma
p1652
F0.0
sVrational
p1653
F0.0
sVinternet
p1654
F9.609694334794091e-05
sVpyridinylpiperazine
p1655
F0.0
sVbless
p1656
F3.2032314449313634e-05
sV10pack
p1657
F0.0
sVhci
p1658
F0.0
sVcorrect
p1659
F9.609694334794091e-05
sVtangible
p1660
F0.0
sVscrew
p1661
F9.609694334794091e-05
sVneurotrophic
p1662
F0.0
sVearlier
p1663
F8.275521931239324e-05
sVmonster
p1664
F6.0630420785486655e-05
sVampakines
p1665
F0.0
sVvariant
p1666
F0.0
sVmillion
p1667
F0.00010448490942228503
sVpossibility
p1668
F0.00012812925779725454
sVquite
p1669
F0.00016479482930322164
sVwal
p1670
F0.0
sVcalifornia
p1671
F0.0
sVbesides
p1672
F0.00022422620114519545
sVclozaril
p1673
F0.0
sVorg
p1674
F0.0025076378261348407
sVvenlaflaxine
p1675
F0.0
sVcard
p1676
F6.406462889862727e-05
sVcare
p1677
F0.0002562585155945091
sVadvance
p1678
F0.00010105070130914443
sV10ml
p1679
F0.0
sVcouldn
p1680
F0.00018915478699975597
sVlanguage
p1681
F2.0210140261828886e-05
sVhypnogogic
p1682
F0.0
sVstandby
p1683
F0.0
sVdunno
p1684
F6.406462889862727e-05
sVdeprivation
p1685
F0.0
sVproperty
p1686
F8.275521931239324e-05
sV10mg
p1687
F0.0
sVmotion
p1688
F3.2032314449313634e-05
sVthing
p1689
F0.0003242736963708555
sVmaprotiline
p1690
F0.0
sVplace
p1691
F4.784366012029015e-05
sVundesirable
p1692
F0.0
sVswing
p1693
F0.00026121227355571257
sVpromotion
p1694
F5.224245471114252e-05
sVview
p1695
F5.911087093742374e-05
sVthink
p1696
F0.0009675051268769787
sVfrequent
p1697
F0.00015672736413342754
sVfirst
p1698
F0.0005315962235587795
sVexotic
p1699
F5.224245471114252e-05
sVsuspend
p1700
F0.0
sVxl
p1701
F0.0
sVlmaoooooooo
p1702
F0.0
sVnutritional
p1703
F0.0
sVrequirement
p1704
F3.2032314449313634e-05
sVentheogens
p1705
F0.0
sVcon
p1706
F0.0
sVspecifically
p1707
F0.0
sVdirectly
p1708
F8.084056104731554e-05
sVcarry
p1709
F3.189577341352677e-05
sVchubby
p1710
F5.224245471114252e-05
sVmessage
p1711
F0.0002829419636656044
sVdelirients
p1712
F0.0
sVcontraindicate
p1713
F0.0
sVtomorrow
p1714
F0.00010448490942228503
sVzap
p1715
F0.00026121227355571257
sVlanguish
p1716
F0.0
sVcity
p1717
F6.0630420785486655e-05
sVlittle
p1718
F0.0
sVnecessarily
p1719
F9.609694334794091e-05
sVsheet
p1720
F4.042028052365777e-05
sVquality
p1721
F0.0005860940675930377
sV1x
p1722
F0.0
sVbite
p1723
F0.0004847091416868747
sVcarbonate
p1724
F0.0
sVremotely
p1725
F3.2032314449313634e-05
sVanyone
p1726
F8.275521931239324e-05
sVpsychotic
p1727
F0.0006791519112448527
sV2
p1728
F0.000829290108751696
sV1g
p1729
F0.0
sVrealization
p1730
F0.0
sVhumalog
p1731
F0.0
sVwhite
p1732
F3.546652256245424e-05
sVcite
p1733
F0.0
sVwilliams
p1734
F0.0
sVfma
p1735
F0.0
sVnutrition
p1736
F0.0
sVfexofenadine
p1737
F0.0
sVhug
p1738
F0.00010448490942228503
sVactivity
p1739
F0.0011493340036451353
sVmostly
p1740
F0.0002627318234037755
sVcontinuous
p1741
F5.224245471114252e-05
sVadrenergic
p1742
F0.0
sVaccurately
p1743
F3.2032314449313634e-05
sVsupply
p1744
F5.224245471114252e-05
sVerectile
p1745
F0.0
sVridiculous
p1746
F0.00015672736413342754
sVbutt
p1747
F0.00015672736413342754
sVoccurence
p1748
F0.0
sVpeck
p1749
F0.0
sVspecify
p1750
F0.00010448490942228503
sVinventor
p1751
F0.0
sV11
p1752
F1.5947886706763385e-05
sV10
p1753
F0.0002923779229573287
sV13
p1754
F8.084056104731554e-05
sV12
p1755
F0.0003030098474285043
sV15
p1756
F0.00023921830060145077
sV14
p1757
F0.0003233622441892622
sV17
p1758
F0.000525463646807551
sV16
p1759
F0.0003233622441892622
sV19
p1760
F4.042028052365777e-05
sV18
p1761
F8.084056104731554e-05
sVgotta
p1762
F0.00016016157224656817
sV1800mg
p1763
F0.0
sVmetabolism
p1764
F0.00026121227355571257
sVrehab
p1765
F0.00015672736413342754
sVactively
p1766
F0.0
sVmagnesium
p1767
F0.0
sVcopay
p1768
F0.0
sVdarknet
p1769
F0.0
sVcollege
p1770
F0.0003656971829779976
sVinmediatly
p1771
F0.0
sVcounselor
p1772
F5.224245471114252e-05
sVdecompose
p1773
F0.0
sVprospect
p1774
F0.0
sVnifedipine
p1775
F0.0
sVtroublesome
p1776
F0.0
sVillness
p1777
F0.0
sVsan
p1778
F0.0
sVnicer
p1779
F3.2032314449313634e-05
sVintolerance
p1780
F0.0
sVpro
p1781
F0.0
sVcymbalta
p1782
F0.0
sVmarijuana
p1783
F0.0003134547282668551
sVslap
p1784
F5.224245471114252e-05
sVsad
p1785
F0.00012126084157097331
sVinpatient
p1786
F0.0
sVsay
p1787
F0.0006379154682705354
sVpubmed
p1788
F0.0
sVcomedian
p1789
F5.224245471114252e-05
sVtetracyclic
p1790
F0.0
sVshitload
p1791
F0.0
sVbreakfast
p1792
F9.609694334794091e-05
sVrecover
p1793
F6.0630420785486655e-05
sVsaw
p1794
F0.00010105070130914443
sVcalendar
p1795
F3.2032314449313634e-05
sVinvite
p1796
F5.224245471114252e-05
sVkush
p1797
F0.0
sVaspirate
p1798
F0.0
sVefficient
p1799
F0.0
sVisolate
p1800
F0.0
sVaside
p1801
F0.0001414709818328022
sV1000000
p1802
F0.0
sVstability
p1803
F0.0
sVnote
p1804
F0.00015368826443730172
sVrumination
p1805
F0.0
sVpotential
p1806
F0.0007313943659559952
sVfracture
p1807
F0.0
sVonline
p1808
F0.0002562585155945091
sVdestroy
p1809
F0.0003134547282668551
sVconcern
p1810
F0.0006269094565337102
sVimpairment
p1811
F0.0
sVchannel
p1812
F0.00016016157224656817
sV200
p1813
F0.00020896981884457007
sVbegin
p1814
F0.0002627318234037755
sVsure
p1815
F0.0007802634963739933
sVpain
p1816
F0.00048504336628389324
sVbotulinum
p1817
F0.0
sVopposite
p1818
F0.00016016157224656817
sVtrack
p1819
F0.00019219388669588182
sVprice
p1820
F0.00046483322602206435
sVcorrelation
p1821
F0.0
sVmolecule
p1822
F0.0
sVclearer
p1823
F0.0
sVovarian
p1824
F0.0
sVbeta
p1825
F0.0009926066395117077
sVimportantly
p1826
F0.0
sVpsychoactive
p1827
F0.0
sVcrochet
p1828
F0.0
sVpair
p1829
F3.2032314449313634e-05
sVknee
p1830
F0.0
sV130
p1831
F3.2032314449313634e-05
sVpersrcibed
p1832
F0.0
sVlatex
p1833
F0.00015672736413342754
sVforever
p1834
F0.00016016157224656817
sVespecially
p1835
F0.0003428430514370577
sVenamel
p1836
F0.0
sVenergize
p1837
F0.0
sVdream
p1838
F0.0008648724901314682
sVaverage
p1839
F9.609694334794091e-05
sVlater
p1840
F0.00048504336628389324
sVsteady
p1841
F0.0
sVsale
p1842
F0.0010970915489339928
sVtooth
p1843
F0.00010448490942228503
sVproperly
p1844
F3.546652256245424e-05
sVpdoc
p1845
F0.0
sVarguably
p1846
F0.0
sVhear
p1847
F0.0004492426191244204
sVsalt
p1848
F0.00015672736413342754
sVtrip_report_mirtazapine_remeron_225mg
p1849
F0.0
sVmasturbation
p1850
F5.224245471114252e-05
sVshop
p1851
F0.00010448490942228503
sVstimulator
p1852
F0.0
sVdrastically
p1853
F0.0
sVset
p1854
F6.910750906264133e-05
sV1x013o
p1855
F0.0
sVshow
p1856
F0.00010631924471175589
sVginseng
p1857
F0.0
sVable
p1858
F0.0004492426191244204
sVcheap
p1859
F0.00012812925779725454
sVlet
p1860
F0.00017542675377439724
sVfifty
p1861
F6.406462889862727e-05
sVmoderator
p1862
F0.0
sVelevate
p1863
F0.0
sVbright
p1864
F2.0210140261828886e-05
sVtherapist
p1865
F0.0008358792753782803
sVtiredness
p1866
F0.0
sVhack
p1867
F0.00010448490942228503
sVcorner
p1868
F1.1822174187484748e-05
sVaggressive
p1869
F0.0
sVnlm
p1870
F0.0
sVpromosing
p1871
F0.0
sV120mg
p1872
F0.0
sVlearntech
p1873
F0.0
sVfend
p1874
F0.0
sVslow
p1875
F0.0001773326128122712
sVsativa
p1876
F0.0
sVoffice
p1877
F2.0210140261828886e-05
sVglucotrol
p1878
F0.0
sVtitle
p1879
F6.406462889862727e-05
sVconduction
p1880
F0.0
sVdick
p1881
F0.00010448490942228503
sV500mg
p1882
F0.0
sVpump
p1883
F5.224245471114252e-05
sVfluid
p1884
F0.00010448490942228503
sVconsiderable
p1885
F3.2032314449313634e-05
sVamount
p1886
F0.0003031521039274333
sVstand
p1887
F9.457739349987799e-05
sVblack
p1888
F0.00011822174187484748
sVessence
p1889
F0.0
sVdoxepin
p1890
F0.0
sVextracellular
p1891
F0.0
sVawareness
p1892
F0.0
sVcarolina
p1893
F0.0
sVfda
p1894
F0.0
sVnootropics
p1895
F0.0
sVexaggeration
p1896
F0.0
sVatypical
p1897
F0.0006791519112448527
sVhorrible
p1898
F0.00041642008784107727
sVexpectation
p1899
F0.0
sVtruly
p1900
F0.00016016157224656817
sVaim
p1901
F6.406462889862727e-05
sVunimportant
p1902
F5.224245471114252e-05
sVcannot
p1903
F8.275521931239324e-05
sVsoltab
p1904
F0.0
sVcheat
p1905
F0.00010448490942228503
sVrejection
p1906
F0.0
sVconjunction
p1907
F0.0
sVneither
p1908
F6.406462889862727e-05
sVstroll
p1909
F0.0
sVsecondary
p1910
F6.0630420785486655e-05
sVprime
p1911
F5.224245471114252e-05
sVmaniacal
p1912
F0.0
sVinvestigational
p1913
F0.0
sVzofran
p1914
F0.0
sVexplore
p1915
F5.224245471114252e-05
sVobliterate
p1916
F0.0
sVmorning
p1917
F0.0013453572068711727
sVtdoc
p1918
F0.0
sVstupid
p1919
F0.0003031521039274333
sVcf
p1920
F0.00010448490942228503
sVepival
p1921
F0.0
sVgps
p1922
F0.0
sVvision
p1923
F0.0
sVwiki
p1924
F0.0
sVsmoothy
p1925
F0.0
sVallosteric
p1926
F0.0
sVlethargy
p1927
F0.0
sVconcert
p1928
F5.224245471114252e-05
sVburst
p1929
F3.2032314449313634e-05
sVphysically
p1930
F0.0005224245471114251
sVgeometrical
p1931
F0.0
sVamtriptalyne
p1932
F0.0
sValcoholism
p1933
F0.00015672736413342754
sVmaximum
p1934
F0.00015672736413342754
sVrelative
p1935
F0.00015672736413342754
sVnamely
p1936
F0.0
sVunfit
p1937
F0.0
sVasleep
p1938
F0.0006726786034355863
sVanyways
p1939
F0.00012812925779725454
sVgroup
p1940
F0.00014186609024981696
sVprocoralan
p1941
F0.0
sVversus
p1942
F3.2032314449313634e-05
sVstigma
p1943
F0.0
sVsurgery
p1944
F0.00015672736413342754
sVsport
p1945
F6.406462889862727e-05
sVwonder
p1946
F0.00024252168314194662
sVchronically
p1947
F0.0
sVinhibitory
p1948
F0.0
sVglipizide
p1949
F0.0
sVsubsequent
p1950
F0.00010448490942228503
sVreview
p1951
F0.0
sVdefinite
p1952
F5.224245471114252e-05
sVlabel
p1953
F0.00012126084157097331
sV3
p1954
F0.001217683941310929
sVjoy
p1955
F3.2032314449313634e-05
sVherbal
p1956
F0.00020896981884457007
sVacross
p1957
F0.00018189126235645996
sVnutrical
p1958
F0.0
sVx4
p1959
F0.0
sVaffordable
p1960
F0.0
sVfight
p1961
F0.00010105070130914443
sVnotice
p1962
F0.00033102087724957296
sVstims
p1963
F0.0
sVaugust
p1964
F0.0
sVparent
p1965
F0.0005125170311890182
sVsomnolence
p1966
F0.0
sVmarch
p1967
F5.224245471114252e-05
sVballsdeep
p1968
F0.0
sVbrokenly
p1969
F0.0
sVflow
p1970
F0.00010448490942228503
sVblame
p1971
F0.00012126084157097331
sVcardiologist
p1972
F0.0
sVsteroid
p1973
F0.0
sVseroqeul
p1974
F0.0
sVunusually
p1975
F0.0
sVvenlafaxine
p1976
F0.0
sVarticle
p1977
F0.00012126084157097331
sVtub
p1978
F0.0
sVinterfere
p1979
F0.00010448490942228503
sVcome
p1980
F0.0003933812054334968
sVtug
p1981
F0.0
sVguitar
p1982
F6.406462889862727e-05
sVcircumference
p1983
F0.0
sVncbi
p1984
F0.0
sVtopamax
p1985
F0.0
sVmany
p1986
F0.0
sVregion
p1987
F3.2032314449313634e-05
sVsodium
p1988
F0.0
sVpsychedelics
p1989
F0.0
sVquiet
p1990
F3.546652256245424e-05
sVsomewhere
p1991
F3.546652256245424e-05
sVconcentrate
p1992
F0.00010448490942228503
sViv
p1993
F0.0
sVdisappointment
p1994
F3.2032314449313634e-05
sVlatuda
p1995
F0.0
sVexpression
p1996
F2.0210140261828886e-05
sVnoopept
p1997
F0.0
sVriddle
p1998
F0.0
sVamong
p1999
F0.00022422620114519545
sVprovocation
p2000
F0.0
sVcancer
p2001
F0.00010448490942228503
sV150
p2002
F0.0
sVcolor
p2003
F6.0630420785486655e-05
sVeffective
p2004
F0.0024031529167125557
sVpot
p2005
F0.00035235545894245
sVjog
p2006
F0.0
sVperiod
p2007
F0.00014186609024981696
sVpop
p2008
F0.00022422620114519545
sVthiazolidinediones
p2009
F0.0
sVcoma
p2010
F0.00010448490942228503
sVludiomil
p2011
F0.0
sVpanicy
p2012
F0.0
sV3000
p2013
F0.0
sVcomeback
p2014
F5.224245471114252e-05
sVcancel
p2015
F0.00015672736413342754
sVfreak
p2016
F5.224245471114252e-05
sVguesstimate
p2017
F0.0
sVactually
p2018
F0.0003242736963708555
sVspark
p2019
F0.0
sVboat
p2020
F0.00010448490942228503
sVturkey
p2021
F0.0006791519112448527
sVsynergize
p2022
F0.0
sVunusual
p2023
F3.2032314449313634e-05
sVboil
p2024
F0.00010448490942228503
sVneurogenesis
p2025
F0.0
sVdspd
p2026
F0.0
sVstretch
p2027
F3.2032314449313634e-05
sVwobble
p2028
F5.224245471114252e-05
sVskew
p2029
F0.0
sVcalisthenic
p2030
F0.0
sVvacation
p2031
F0.00015672736413342754
sVmark
p2032
F8.084056104731554e-05
sVmart
p2033
F0.0
sVwithdrawls
p2034
F0.0
sVsesh
p2035
F0.0
sVsedative
p2036
F0.0
sVhardly
p2037
F9.609694334794091e-05
sVmary
p2038
F0.0
sV15mg
p2039
F0.0
sVdirection
p2040
F5.315962235587795e-06
sVreligiously
p2041
F0.0
sVpioglitazone
p2042
F0.0
sVconflate
p2043
F0.0
sVreaction
p2044
F0.0005125170311890182
sVagranulocytosis
p2045
F0.0
sVunsafe
p2046
F5.224245471114252e-05
sVthousand
p2047
F2.0210140261828886e-05
sVbmi
p2048
F0.0
sVcleave
p2049
F0.0
sVobserve
p2050
F3.2032314449313634e-05
sVwake
p2051
F0.0009902968728296153
sV1ml
p2052
F0.0
sVoverdose
p2053
F0.0006791519112448527
sVhardcore
p2054
F5.224245471114252e-05
sVcareful
p2055
F0.00022422620114519545
sVirrelevant
p2056
F5.224245471114252e-05
sVformer
p2057
F4.728869674993899e-05
sV1mg
p2058
F0.0
sVcountless
p2059
F0.0
sVsound
p2060
F0.00042559827074945087
sVkappa
p2061
F0.0
sVzispin
p2062
F0.0
sV2894
p2063
F0.0
sVmegace
p2064
F0.0
sVsildenafil
p2065
F0.0
sVtrick
p2066
F6.0630420785486655e-05
sVantidepressents
p2067
F0.0
sVongoing
p2068
F0.0
sVpizza
p2069
F5.224245471114252e-05
sVjoke
p2070
F6.406462889862727e-05
sVsituation
p2071
F0.0006726786034355863
sVpertain
p2072
F0.0
sVive
p2073
F0.0
sVcigs
p2074
F0.0
sVctrl
p2075
F5.224245471114252e-05
sVunwise
p2076
F0.0
sVside_effect
p2077
F0.0
sVbros
p2078
F0.0
sVjitsu
p2079
F0.0
sVblah
p2080
F6.406462889862727e-05
sVsomeone
p2081
F0.0
sVembrace
p2082
F5.224245471114252e-05
sVdangerously
p2083
F5.224245471114252e-05
sVprotein
p2084
F0.0
sVblab
p2085
F0.0
sVhelium
p2086
F0.0
sVeveryday
p2087
F0.00020896981884457007
sVworry
p2088
F0.00021279913537472543
sVantihistiminergic
p2089
F0.0
sVdead
p2090
F3.546652256245424e-05
sVdifferent
p2091
F0.0007684413221865086
sVpas
p2092
F0.00016016157224656817
sVritalin
p2093
F0.0
sVharsh
p2094
F6.406462889862727e-05
sVvilazodone
p2095
F0.0
sVpay
p2096
F4.252769788470236e-05
sVdiarrhea
p2097
F0.00047018209240028266
sVperpetually
p2098
F0.00010448490942228503
sVrelaxant
p2099
F0.0
sVsupra
p2100
F0.0
sVtrip
p2101
F0.0008648724901314682
sVfood
p2102
F0.00036648739981202716
sVreboxetine
p2103
F0.0
sVpad
p2104
F3.2032314449313634e-05
sVunderestimate
p2105
F5.224245471114252e-05
sVcoworkers
p2106
F0.00010448490942228503
sVacording
p2107
F0.0
sVjohnshopkinshealthalerts
p2108
F0.0
sVreminder
p2109
F5.224245471114252e-05
sVdocument
p2110
F3.2032314449313634e-05
sVjitteriness
p2111
F0.0
sVmoronic
p2112
F0.0
sVbreakdown
p2113
F0.00020896981884457007
sVexhaust
p2114
F0.0
sVoil
p2115
F0.00016016157224656817
sVween
p2116
F0.0
sVclosest
p2117
F3.2032314449313634e-05
sVsickness
p2118
F5.224245471114252e-05
sVenjoyment
p2119
F0.0
sV23921954
p2120
F0.0
sVfoam
p2121
F5.224245471114252e-05
sVness
p2122
F5.224245471114252e-05
sVsleepiness
p2123
F0.0
sVfruit
p2124
F1.1822174187484748e-05
sVanecdotal
p2125
F0.0
sVesmirtazapine
p2126
F0.0
sVunmanageable
p2127
F0.0
sVtoxicology
p2128
F0.0
sVtotally
p2129
F0.00015368826443730172
sVcouncilling
p2130
F0.0
sVmentally
p2131
F0.00041793963768914014
sVbooster
p2132
F0.0
sVcatastrophizing
p2133
F0.0
sVlargely
p2134
F0.0
sVminimize
p2135
F5.224245471114252e-05
sVantihistamine
p2136
F0.0
sVpage
p2137
F0.00019219388669588182
sVsevere
p2138
F0.000800807861232841
sVwithout
p2139
F0.0
sVsolve
p2140
F0.00019219388669588182
sVrelief
p2141
F0.0
sVbottle
p2142
F0.0018997531846119153
sVinability
p2143
F0.00010448490942228503
sVcialis
p2144
F0.0
sVreward
p2145
F9.609694334794091e-05
sVmotorskills
p2146
F0.0
sVjustify
p2147
F0.0
sVsummer
p2148
F0.00018189126235645996
sVescitalopram
p2149
F0.0
sVaffair
p2150
F3.2032314449313634e-05
sVtightness
p2151
F0.0
sVbenzo
p2152
F0.0
sVmoney
p2153
F0.00035235545894245
sVslime
p2154
F5.224245471114252e-05
sVrest
p2155
F3.189577341352677e-05
sVdysautonomia
p2156
F0.0
sVfoot
p2157
F2.0210140261828886e-05
sV5ht
p2158
F0.0
sVrelevant
p2159
F0.0
sVkill
p2160
F0.0002719100063121492
sVaspect
p2161
F0.00012812925779725454
sVask_wikibot
p2162
F0.0
sVtouch
p2163
F9.457739349987799e-05
sVbehavioural
p2164
F0.0
sVreality
p2165
F0.0005224245471114251
sVspeed
p2166
F2.6579811177938972e-05
sVwiki_laboratory_analysis
p2167
F0.0
sVplateau
p2168
F0.0
sVethyl
p2169
F0.0
sVketamine
p2170
F0.0
sVintolerable
p2171
F0.0
sVsixteen
p2172
F3.2032314449313634e-05
sVasthma
p2173
F0.00010448490942228503
sVangiotensin
p2174
F0.0
sVnick
p2175
F5.224245471114252e-05
sVremember
p2176
F0.0001860586782455728
sVexcept
p2177
F0.00016551043862478648
sVimprovement
p2178
F0.0002882908300438227
sVwall
p2179
F0.00016016157224656817
sVverse
p2180
F0.0
sV4
p2181
F0.0002976938851929165
sVthrow
p2182
F0.0004484524022903909
sVghostly
p2183
F0.0
sVelectrical
p2184
F0.00015672736413342754
sVglyburide
p2185
F0.0
sVdisrupt
p2186
F0.0
sVpill
p2187
F0.007993095570804805
sVvicodin
p2188
F0.0
sVntioned
p2189
F0.0
sVaround
p2190
F0.00023390233836586297
sV4pm
p2191
F0.0
sVdesperately
p2192
F0.00012812925779725454
sVread
p2193
F0.00023644348374969495
sVtwitchy
p2194
F0.0
sVdiphenhydramine
p2195
F0.0
sVdiscontinue
p2196
F0.0
sVgonna
p2197
F0.0001616811220946311
sVdart
p2198
F5.224245471114252e-05
sVdark
p2199
F0.0
sVbury
p2200
F0.0
sVpsy
p2201
F0.0
sVtraffic
p2202
F5.224245471114252e-05
sVtingle
p2203
F0.0
sVmom
p2204
F0.00026121227355571257
sVworld
p2205
F0.00015368826443730172
sVmoa
p2206
F0.0
sVbodyweightfitness
p2207
F0.0
sVgrin
p2208
F3.2032314449313634e-05
sVmod
p2209
F0.00010448490942228503
sVtegretol
p2210
F0.0
sV60
p2211
F0.00016016157224656817
sVfibromyalgia
p2212
F0.0
sVstranger
p2213
F0.00020896981884457007
sVbuspan
p2214
F0.0
sVhypersomnia
p2215
F0.0
sVpiece
p2216
F0.0004244129454984066
sVmiracle
p2217
F0.0
sVserver
p2218
F5.224245471114252e-05
sVsanity
p2219
F0.0
sVbenefit
p2220
F0.0013060613677785629
sVidk
p2221
F0.0
sVeither
p2222
F0.00017542675377439724
sVneuronal
p2223
F0.0
sVfully
p2224
F0.00011822174187484748
sVcompletely
p2225
F0.00016551043862478648
sVpassionate
p2226
F2.0210140261828886e-05
sVmirtazon
p2227
F0.0
sVgild
p2228
F0.0
sV0924
p2229
F0.0
sVnodd
p2230
F0.0
sVconditional
p2231
F0.0
sVpronounce
p2232
F0.00020896981884457007
sVl
p2233
F8.084056104731554e-05
sVplethora
p2234
F0.0
sVmeara
p2235
F0.0
sVerase
p2236
F5.224245471114252e-05
sVrefresh
p2237
F5.224245471114252e-05
sVibuprofen
p2238
F0.0
sVduration
p2239
F0.0
sV72
p2240
F5.224245471114252e-05
sVdivine
p2241
F5.224245471114252e-05
sVspasm
p2242
F0.0
sVexplode
p2243
F0.0
sV4mg
p2244
F0.0
sVslice
p2245
F5.224245471114252e-05
sVmood
p2246
F0.0017297449802629364
sVbenzodiazepine
p2247
F0.0
sVincredible
p2248
F0.00010448490942228503
sV28k465
p2249
F0.0
sVsize
p2250
F5.911087093742374e-05
sVcarb
p2251
F3.2032314449313634e-05
sVoverly
p2252
F5.224245471114252e-05
sVlegal
p2253
F0.00015672736413342754
sVresonate
p2254
F0.0
sVcannabis
p2255
F0.0
sVcritical
p2256
F3.2032314449313634e-05
sVexit
p2257
F2.0210140261828886e-05
sVinject
p2258
F0.00015672736413342754
sVpropylthiouracil
p2259
F0.0
sVprovider
p2260
F0.0
sVmaoi
p2261
F0.0
sVmoderate
p2262
F0.00026121227355571257
sV911
p2263
F0.0
sVdecent
p2264
F0.00010105070130914443
sVknife
p2265
F4.042028052365777e-05
sVrefer
p2266
F0.00020896981884457007
sVapocalyptic
p2267
F0.0
sVwilly
p2268
F0.0
sVmethamphetamine
p2269
F0.0
sVwelcome
p2270
F1.063192447117559e-05
sVscientific
p2271
F0.00010448490942228503
sVpower
p2272
F7.093304512490848e-05
sVintimate
p2273
F3.2032314449313634e-05
sVthrob
p2274
F5.224245471114252e-05
sVequivalent
p2275
F3.2032314449313634e-05
sVnotable
p2276
F0.00010448490942228503
sVmiscellaneous
p2277
F5.224245471114252e-05
sVnotably
p2278
F0.00015672736413342754
sVhectic
p2279
F0.0
sVdiagnostics
p2280
F0.0
sVstandpoint
p2281
F0.0
sVleftover
p2282
F3.2032314449313634e-05
sVfinicky
p2283
F0.0
sVianavet
p2284
F0.0
sVstone
p2285
F0.00010105070130914443
sVmuscanric
p2286
F0.0
sVtca
p2287
F0.0
sVoi
p2288
F0.0
sVpre
p2289
F6.406462889862727e-05
sVinstantaneously
p2290
F0.0
sVvoxra
p2291
F0.0
sVindustry
p2292
F5.224245471114252e-05
sVviolence
p2293
F6.406462889862727e-05
sVfavorite
p2294
F0.00010105070130914443
sVob
p2295
F0.0
sVside
p2296
F6.379154682705354e-05
sVprone
p2297
F0.0
sVbenzos
p2298
F0.0
sV75mg
p2299
F0.0
sVgreatly
p2300
F0.00020896981884457007
sVact
p2301
F0.00016551043862478648
sVinternalize
p2302
F5.224245471114252e-05
sVbond
p2303
F6.406462889862727e-05
sVbackup
p2304
F5.224245471114252e-05
sVroad
p2305
F6.406462889862727e-05
sVop
p2306
F0.0005746670018225677
sVcevs
p2307
F0.0
sVoutlook
p2308
F3.2032314449313634e-05
sVdesyrel
p2309
F0.0
sVlantus
p2310
F0.0
sVmethylone
p2311
F0.0
sVpotentiate
p2312
F0.0
sVimage
p2313
F9.609694334794091e-05
sVskilled
p2314
F0.0
sVlil
p2315
F5.224245471114252e-05
sVmarkedly
p2316
F0.0
sVspinal
p2317
F0.0
sV127lbs
p2318
F0.0
sV75g
p2319
F0.0
sVbedtime
p2320
F0.0
sVdetermine
p2321
F0.00010448490942228503
sVstrip
p2322
F0.0020500681247560726
sVsyringe
p2323
F0.0
sVsomnolent
p2324
F0.0
sVdank
p2325
F0.0
sVjanuvia
p2326
F0.0
sVfantasy
p2327
F0.00026121227355571257
sVtheoretically
p2328
F0.0
sVtechnically
p2329
F3.2032314449313634e-05
sVpharmaceutical
p2330
F0.0
sVdetox
p2331
F0.0
sVprazosin
p2332
F0.0
sVaccelerator
p2333
F5.224245471114252e-05
sVprepare
p2334
F5.224245471114252e-05
sVarea
p2335
F2.126384894235118e-05
sVflatulence
p2336
F0.0
sVomega
p2337
F0.0
sVstrictly
p2338
F9.609694334794091e-05
sVprescriber
p2339
F0.0
sVhey
p2340
F0.0002562585155945091
sVpresyncope
p2341
F0.0
sVstart
p2342
F0.000744796973811539
sVoutflow
p2343
F0.0
sVlow
p2344
F0.0005319978384368137
sVlot
p2345
F0.0
sVbrazilian
p2346
F0.0
sVzolpidem
p2347
F0.0
sVmoclobemide
p2348
F0.0
sVpsychopharmacology
p2349
F0.0
sVfish
p2350
F5.911087093742374e-05
sVbargain
p2351
F5.224245471114252e-05
sVdowner
p2352
F0.0
sV2btoggle
p2353
F0.0
sVcomplete
p2354
F4.728869674993899e-05
sVenough
p2355
F0.0
sV3faj7m
p2356
F0.0
sVregard
p2357
F0.0
sVindependently
p2358
F0.0
sVaniracetam
p2359
F0.0
sVhiccup
p2360
F0.0
sV95ish
p2361
F0.0
sVbrain
p2362
F0.0012934489767570487
sVbusiprone
p2363
F0.0
sVcycle
p2364
F0.0005125170311890182
sVlymph
p2365
F0.0
sVpg
p2366
F0.0
sVorthostatic
p2367
F0.0
sVdownstairs
p2368
F9.609694334794091e-05
sVhandsome
p2369
F3.2032314449313634e-05
sVfootball
p2370
F3.2032314449313634e-05
sVpull
p2371
F3.546652256245424e-05
sVregimen
p2372
F0.0
sVwaste
p2373
F0.0001414709818328022
sVannihilate
p2374
F0.0
sVrage
p2375
F0.00026121227355571257
sVdefault
p2376
F5.224245471114252e-05
sVattenuate
p2377
F0.0
sVpractically
p2378
F5.224245471114252e-05
sVrewire
p2379
F0.0
sVmedrol
p2380
F0.0
sVdirty
p2381
F6.406462889862727e-05
sVnootropic
p2382
F0.0
sVgrasp
p2383
F0.0
sVgrass
p2384
F2.0210140261828886e-05
sVagree
p2385
F0.00011822174187484748
sVaffection
p2386
F0.0
sVexpect
p2387
F0.00016479482930322164
sVaa
p2388
F0.0
sVnutmeg
p2389
F0.0
sVac
p2390
F0.0
sVab
p2391
F0.0
sVohh
p2392
F0.0
sVad
p2393
F0.00019219388669588182
sVcbd
p2394
F0.0
sVgeriatric
p2395
F0.0
sVtaste
p2396
F0.00012126084157097331
sVcertain
p2397
F9.56873202405803e-05
sVdivalproex
p2398
F0.0
sVdescribe
p2399
F0.00022422620114519545
sVcbn
p2400
F0.0
sVal
p2401
F5.224245471114252e-05
sVdeep
p2402
F0.00011822174187484748
sVgeneral
p2403
F0.0
sV225mg
p2404
F0.0
sVap
p2405
F0.0
sVexamine
p2406
F3.2032314449313634e-05
sVhypertension
p2407
F0.0
sVtogether
p2408
F0.0
sVfile
p2409
F0.00015672736413342754
sVav
p2410
F0.0
sVgirlfriend
p2411
F0.00015672736413342754
sVmelatonin
p2412
F0.0
sVsyrian
p2413
F0.0
sVlonger
p2414
F0.00012226713141851928
sVfill
p2415
F6.0630420785486655e-05
sVhit
p2416
F0.00014186609024981696
sVvetspecialistsofrochester
p2417
F0.0
sVmaybe
p2418
F0.0
sVyoga
p2419
F5.224245471114252e-05
sVbrighter
p2420
F5.224245471114252e-05
sVidiot
p2421
F5.224245471114252e-05
sVseizurish
p2422
F0.0
sV6g
p2423
F0.0
sVhybrid
p2424
F0.0
sVdepth
p2425
F4.042028052365777e-05
sVgraduate
p2426
F0.00010448490942228503
sVfield
p2427
F5.224245471114252e-05
sVmertazapine
p2428
F0.0
sV5
p2429
F0.0002817459984861531
sVburproprion
p2430
F0.0
sVinstantly
p2431
F5.224245471114252e-05
sVlinger
p2432
F0.0
sVpuppy
p2433
F0.0
sVpoor
p2434
F3.721173564911456e-05
sVpolar
p2435
F5.224245471114252e-05
sVpoop
p2436
F0.00015672736413342754
sVotc
p2437
F0.0
sVfor_moderators_switches_commands_and_css
p2438
F0.0
sVxanax
p2439
F0.0
sVsymbol
p2440
F3.2032314449313634e-05
sVtime
p2441
F0.0
sVdrift
p2442
F0.0
sVanywhere
p2443
F5.911087093742374e-05
sVconsideration
p2444
F0.0
sVandrew
p2445
F0.0
sV5kg
p2446
F0.0
sVimportant
p2447
F0.00035235545894245
sVnucleus
p2448
F0.0
sVobsessively
p2449
F0.0
sVillusory
p2450
F0.0
sVcrappy
p2451
F9.609694334794091e-05
sVhernia
p2452
F0.0
sValcohol
p2453
F0.0007687755467835273
sVtricky
p2454
F5.224245471114252e-05
sVaday
p2455
F0.0
sVgastric
p2456
F0.0
sVzyrtec
p2457
F0.0
sVclinically
p2458
F0.0
sVreciprocate
p2459
F0.0
sVwife
p2460
F0.00012812925779725454
sVacutally
p2461
F0.0
sVmask
p2462
F0.00010448490942228503
sVtitration
p2463
F0.0
sVmimic
p2464
F0.00010448490942228503
sVweek
p2465
F0.001050927293615102
sVprocedure
p2466
F0.00010448490942228503
sVhugely
p2467
F0.0
sVbehavioral
p2468
F0.0
sValright
p2469
F9.609694334794091e-05
sVoral
p2470
F0.00047018209240028266
sVamaryl
p2471
F0.0
sVexternal
p2472
F3.2032314449313634e-05
sVcatapres
p2473
F0.0
sVconsider
p2474
F0.0003428430514370577
sVembolism
p2475
F0.0
sV5htp
p2476
F0.0
sVaaaaalright
p2477
F0.0
sVcrucial
p2478
F0.0
sVallergy
p2479
F0.00026121227355571257
sVmonth
p2480
F0.0014304830766856545
sVshrooms
p2481
F0.00010448490942228503
sVsulfonylurea
p2482
F0.0
sVthoughtful
p2483
F5.224245471114252e-05
sVconcept
p2484
F5.224245471114252e-05
sVantagonize
p2485
F0.0
sVoxycodone
p2486
F0.0
sVassessment
p2487
F0.00010448490942228503
sVmessy
p2488
F5.224245471114252e-05
sVfollow
p2489
F0.0001773326128122712
sVmeditation
p2490
F0.0
sVfaster
p2491
F6.0630420785486655e-05
sVpsychotherapy
p2492
F0.0
sVreluctant
p2493
F0.0
sVniacin
p2494
F0.0
sVresponsiveness
p2495
F0.0
sVattentive
p2496
F0.0
sVlexipro
p2497
F0.0
sVtv
p2498
F0.00015672736413342754
sVequivalence
p2499
F0.0
sVsulfate
p2500
F0.0
sVextraneous
p2501
F5.224245471114252e-05
sVdiffuse
p2502
F5.224245471114252e-05
sVtail
p2503
F2.0210140261828886e-05
sVtm
p2504
F5.224245471114252e-05
sVfriday
p2505
F0.0
sVsthat
p2506
F0.0
sVbarely
p2507
F0.00032032314449313633
sVsmile
p2508
F3.2032314449313634e-05
sVpresentation
p2509
F5.224245471114252e-05
sVdefintiley
p2510
F0.0
sV_pixiepudding_
p2511
F0.0
sVwoman
p2512
F4.728869674993899e-05
sVappointment
p2513
F0.0006269094565337102
sVok
p2514
F0.0001616811220946311
sVdeeper
p2515
F5.224245471114252e-05
sVsong
p2516
F1.1822174187484748e-05
sVfar
p2517
F0.000207322527187924
sVtripdude
p2518
F0.0
sVhorror
p2519
F5.224245471114252e-05
sVfaq
p2520
F0.0
sVfav
p2521
F0.0
sViud
p2522
F0.0
sVfat
p2523
F0.0002562585155945091
sVunregulated
p2524
F0.0
sVblockade
p2525
F0.0
sVpsychologist
p2526
F0.0
sVhypotension
p2527
F0.0
sVdiary
p2528
F5.224245471114252e-05
sVcerenia
p2529
F0.0
sVdecide
p2530
F0.0006726786034355863
sVfall
p2531
F0.0007047109178849
sVawful
p2532
F0.00018189126235645996
sVdifference
p2533
F0.0005125170311890182
sVcombat
p2534
F0.0
sVcondition
p2535
F0.00012126084157097331
sVcapture
p2536
F0.0
sVenjoyable
p2537
F0.00010448490942228503
sVneurological
p2538
F0.0
sVheaven
p2539
F3.2032314449313634e-05
sVpotentiation
p2540
F0.0
sVdampen
p2541
F0.0
sVcable
p2542
F4.042028052365777e-05
sVlist
p2543
F0.0008892461715204709
sVt3
p2544
F0.0
sVprogesterone
p2545
F0.0
sVclozapine
p2546
F0.0
sVcircuit
p2547
F0.0
sVadjust
p2548
F0.0005224245471114251
sVsedation
p2549
F0.0
sVsmall
p2550
F4.784366012029015e-05
sVinjectable
p2551
F0.0
sVpsychopharmacologist
p2552
F0.0
sVamnesiac
p2553
F0.0
sVteh
p2554
F5.224245471114252e-05
sVpopulation
p2555
F6.406462889862727e-05
sVquicker
p2556
F5.224245471114252e-05
sVantibiotic
p2557
F0.0
sVmodafinil
p2558
F0.0
sVten
p2559
F5.911087093742374e-05
sVphenibut
p2560
F0.0
sVhealthier
p2561
F0.0
sVtea
p2562
F8.084056104731554e-05
sVedu
p2563
F5.224245471114252e-05
sVunheard
p2564
F0.0
sVlack
p2565
F0.00018915478699975597
sVpregaba
p2566
F0.0
sVpast
p2567
F0.00033102087724957296
sVorgasm
p2568
F0.00015672736413342754
sVzero
p2569
F9.609694334794091e-05
sVdesign
p2570
F3.2032314449313634e-05
sVperspective
p2571
F0.0
sVwyeth
p2572
F0.0
sVneuroskeptic
p2573
F0.0
sV200mic
p2574
F0.0
sVjesus
p2575
F0.0
sVdissertation
p2576
F0.00010448490942228503
sVruminate
p2577
F0.0
sVsub
p2578
F4.042028052365777e-05
sVclock
p2579
F3.2032314449313634e-05
sVsun
p2580
F1.1822174187484748e-05
sVsection
p2581
F0.00012812925779725454
sVmetoclopramide
p2582
F0.0
sVstool
p2583
F0.00010448490942228503
sVcaffeine
p2584
F0.0007836368206671378
sVmirtzapine
p2585
F0.0
sVcrush
p2586
F5.224245471114252e-05
sVpublic
p2587
F4.042028052365777e-05
sVversion
p2588
F0.00012812925779725454
sVrun
p2589
F0.00012758309365410708
sVnoticeably
p2590
F0.0
sVslippery
p2591
F0.0
sVnurse
p2592
F0.00020896981884457007
sVperforate
p2593
F0.0
sVtrialing
p2594
F0.0
sVmethod
p2595
F0.00020896981884457007
sVhandy
p2596
F0.00010448490942228503
sVmovement
p2597
F2.0210140261828886e-05
sVhasn
p2598
F5.911087093742374e-05
sVfull
p2599
F0.0
sVloose
p2600
F0.00010105070130914443
sVcertainly
p2601
F0.00011822174187484748
sVvraylar
p2602
F0.0
sVshouldn
p2603
F0.00020210140261828886
sVselective
p2604
F0.0
sVrelaxation
p2605
F0.0
sVeval
p2606
F5.224245471114252e-05
sVgrape
p2607
F3.2032314449313634e-05
sVnovember
p2608
F0.0
sVstrong
p2609
F0.0002627318234037755
sVnewish
p2610
F0.0
sVlegend
p2611
F5.224245471114252e-05
sV20lbs
p2612
F0.0
sVpmwiki
p2613
F0.0
sV900
p2614
F0.0
sVdeductible
p2615
F0.0
sVahead
p2616
F4.042028052365777e-05
sVreuptaken
p2617
F0.0
sVmdma
p2618
F0.0
sVcompliance
p2619
F0.0
sVcyproheptadine
p2620
F0.0
sVexperience
p2621
F0.0024664882125971497
sVsignificantly
p2622
F0.0
sVprior
p2623
F0.00010448490942228503
sVairport
p2624
F5.224245471114252e-05
sVtemazepam
p2625
F0.0
sVsimply
p2626
F0.0001414709818328022
sVskyrocket
p2627
F0.0
sVmisery
p2628
F5.224245471114252e-05
sVcessation
p2629
F0.0
sVrestoril
p2630
F0.0
sVtoxicity
p2631
F0.0
sVextant
p2632
F0.0
sVunhealthy
p2633
F5.224245471114252e-05
sVtrainer
p2634
F5.224245471114252e-05
sVvia
p2635
F0.00020896981884457007
sVdiscourraging
p2636
F0.0
sVfamily
p2637
F0.00018189126235645996
sVperpetuate
p2638
F0.0
sVsuddenly
p2639
F7.093304512490848e-05
sVagomelatine
p2640
F0.0
sVpepcid
p2641
F0.0
sVask
p2642
F0.0002923779229573287
sVincredibly
p2643
F0.0002562585155945091
sVseroquel
p2644
F0.0
sVbenifited
p2645
F0.0
sVstraterra
p2646
F0.0
sVestablish
p2647
F5.224245471114252e-05
sVselect
p2648
F5.224245471114252e-05
sVeldepryl
p2649
F0.0
sVenvironment
p2650
F9.609694334794091e-05
sVmunchies
p2651
F0.0006269094565337102
sVeye
p2652
F0.00035235545894245
sVdpdr
p2653
F0.0
sVoccassion
p2654
F0.0
sValcoholic
p2655
F5.224245471114252e-05
sVtwo
p2656
F0.0
sVshite
p2657
F0.0
sVkamil330
p2658
F0.0
sVanger
p2659
F0.00016016157224656817
sV6
p2660
F0.0002285863761302752
sVswear
p2661
F0.0003134547282668551
sVinjury
p2662
F5.224245471114252e-05
sVmetformin
p2663
F0.0
sVminor
p2664
F6.0630420785486655e-05
sVteen
p2665
F3.2032314449313634e-05
sVmm
p2666
F0.00019219388669588182
sVdelusion
p2667
F0.0
sVdoor
p2668
F1.1822174187484748e-05
sVformality
p2669
F0.0
sVfurthermore
p2670
F5.224245471114252e-05
sVelicit
p2671
F0.0
sVsignpost
p2672
F0.0
sVconcomitantly
p2673
F0.0
sVredhair
p2674
F0.0
sVsurprisingly
p2675
F5.224245471114252e-05
sVexcuse
p2676
F0.0001414709818328022
sVdood
p2677
F0.0
sVoxymorphone
p2678
F0.0
sVstick
p2679
F0.00035235545894245
sVimpulse
p2680
F5.224245471114252e-05
sVparticular
p2681
F9.457739349987799e-05
sVneurosci
p2682
F0.0
sVwound
p2683
F3.2032314449313634e-05
sVmonoamine
p2684
F0.0
sVglad
p2685
F0.00011822174187484748
sVtown
p2686
F2.0210140261828886e-05
sVnone
p2687
F0.00012126084157097331
sVinclude
p2688
F0.0016336480369149953
sVpill_testing
p2689
F0.0
sVhour
p2690
F0.0013338692572807064
sVstrain
p2691
F0.0
sVscience
p2692
F0.00032032314449313633
sVnovolog
p2693
F0.0
sVduty
p2694
F3.2032314449313634e-05
sVplea
p2695
F0.0
sVremain
p2696
F0.00016016157224656817
sVtitrate
p2697
F0.0
sVlearn
p2698
F0.0006791519112448527
sVmale
p2699
F0.00012126084157097331
sVdef
p2700
F3.2032314449313634e-05
sVhistory
p2701
F0.0001414709818328022
sVallegra
p2702
F0.0
sVcompare
p2703
F0.0004484524022903909
sVpsychonautwiki
p2704
F0.0
sVpusher
p2705
F0.0
sVshare
p2706
F0.00013004391606233223
sVaccept
p2707
F0.0001616811220946311
sVsocal
p2708
F0.0
sVnejmp0907708
p2709
F0.0
sVdxms
p2710
F0.0
sVminimum
p2711
F6.406462889862727e-05
sVsense
p2712
F7.442347129822912e-05
sVaxit
p2713
F0.0
sVsharp
p2714
F5.224245471114252e-05
sVscar
p2715
F0.0003134547282668551
sVaction
p2716
F0.0005125170311890182
sVaxis
p2717
F0.0
sVmapb
p2718
F0.0
sVhuge
p2719
F5.3159622355877944e-05
sVstim
p2720
F0.0
sVearly
p2721
F7.093304512490848e-05
sVadvantage
p2722
F3.2032314449313634e-05
sVawkward
p2723
F4.042028052365777e-05
sVdesperation
p2724
F0.0
sVrather
p2725
F0.0002719100063121492
sVcomfort
p2726
F0.0
sVmilk
p2727
F5.224245471114252e-05
sVformulate
p2728
F0.0
sVsalvia
p2729
F0.0
sVheck
p2730
F0.00010448490942228503
sVcommercial
p2731
F5.224245471114252e-05
sVhopeless
p2732
F0.00015672736413342754
sVgrind
p2733
F0.0
sVplant
p2734
F0.00010448490942228503
sV89
p2735
F5.224245471114252e-05
sVcytokine
p2736
F0.0
sVfu
p2737
F0.0
sV2bdelete
p2738
F0.0
sVblotter
p2739
F0.0
sVadvice
p2740
F0.0008881217300894228
sVsympathize
p2741
F0.0
sVreuptake
p2742
F0.0
sVego
p2743
F0.0
sVupload
p2744
F5.224245471114252e-05
sVbrintellix
p2745
F0.0
sVdisable
p2746
F5.224245471114252e-05
sVwhilst
p2747
F0.00016016157224656817
sVblood
p2748
F0.0007275650494258398
sVnumb
p2749
F0.0
sVfaculty
p2750
F0.0
sVdevelop
p2751
F0.00032032314449313633
sVremeronwithdrawal
p2752
F0.0
sVsloppy
p2753
F5.224245471114252e-05
sVresponse
p2754
F0.0006791519112448527
sV150lbs
p2755
F0.0
sVrefuse
p2756
F0.0001616811220946311
sVmirtaz
p2757
F0.0
sVmorphine
p2758
F0.00041793963768914014
sVselegeline
p2759
F0.0
sVshady
p2760
F0.0
sVdocumentation
p2761
F5.224245471114252e-05
sVovernight
p2762
F5.224245471114252e-05
sVstash
p2763
F0.0
sVperhaps
p2764
F6.406462889862727e-05
sVolanzipine
p2765
F0.0
sVresponsibility
p2766
F5.224245471114252e-05
sVreshape
p2767
F0.0
sVpleasure
p2768
F2.0210140261828886e-05
sVneurosteroids
p2769
F0.0
sVegg
p2770
F5.224245471114252e-05
sVuninstall
p2771
F5.224245471114252e-05
sVhm
p2772
F0.0
sVmdmaish
p2773
F0.0
sVhelp
p2774
F0.0011854595785360782
sVpant
p2775
F5.224245471114252e-05
sVsertraline
p2776
F0.0
sVslouch
p2777
F0.0
sVmayoclinic
p2778
F0.0
sVsoon
p2779
F6.379154682705354e-05
sVtramadol
p2780
F0.0
sVtrade
p2781
F2.0210140261828886e-05
sVbcuz
p2782
F0.0
sVattitude
p2783
F5.224245471114252e-05
sVpaper
p2784
F0.00010105070130914443
sVffi
p2785
F0.0
sVpermenant
p2786
F0.0
sVhell
p2787
F0.00012126084157097331
sVmcdonalds
p2788
F0.0
sVsuffer
p2789
F0.00041642008784107727
sVjames_eagan_holmes
p2790
F0.0
sVlisinopril
p2791
F0.0
sV24
p2792
F0.00020210140261828886
sV25
p2793
F0.0003233622441892622
sV26
p2794
F2.0210140261828886e-05
sVorexigenic
p2795
F0.0
sVrapidly
p2796
F6.0630420785486655e-05
sV21
p2797
F6.0630420785486655e-05
sV22
p2798
F6.0630420785486655e-05
sV23
p2799
F4.042028052365777e-05
sVpray
p2800
F2.0210140261828886e-05
sVtreat
p2801
F0.0008286157507349844
sVpcp
p2802
F0.0
sVnooooope
p2803
F0.0
sVcomplex
p2804
F2.0210140261828886e-05
sVyohimbine
p2805
F0.0
sVlate
p2806
F4.728869674993899e-05
sV2hours
p2807
F0.0
sVhtml
p2808
F0.00020896981884457007
sVbypass
p2809
F0.00010448490942228503
sVamitriptyline
p2810
F0.0
sVbout
p2811
F0.00015672736413342754
sVmethylfolate
p2812
F0.0
sValter
p2813
F0.0
sVally
p2814
F0.0
sVsuboxone
p2815
F0.0
sVwouldn
p2816
F0.00026008783212466447
sVgood
p2817
F0.0
sVreturn
p2818
F7.093304512490848e-05
sVyo
p2819
F6.406462889862727e-05
sVseverely
p2820
F0.00015672736413342754
sVya
p2821
F6.406462889862727e-05
sVpropose
p2822
F0.00010448490942228503
sVlibido
p2823
F0.0
sVsocially
p2824
F0.00026121227355571257
sVflonase
p2825
F0.0
sVslight
p2826
F6.406462889862727e-05
sVprimary
p2827
F0.00012812925779725454
sVsnowball
p2828
F0.0
sVrespire
p2829
F0.0
sVvomit
p2830
F0.0003134547282668551
sVintermezzo
p2831
F0.0
sVcompound
p2832
F0.0
sVmisuse
p2833
F0.0
sVsuffice
p2834
F5.224245471114252e-05
sVcomplain
p2835
F3.2032314449313634e-05
sVbigger
p2836
F4.042028052365777e-05
sVseoquel
p2837
F0.0
sVmystery
p2838
F0.0
sVeasily
p2839
F0.00013004391606233223
sVerection
p2840
F0.00010448490942228503
sVholiday
p2841
F3.2032314449313634e-05
sVeverytime
p2842
F5.224245471114252e-05
sValways
p2843
F0.0
sVnauseous
p2844
F0.0
sV2x
p2845
F0.0
sVevade
p2846
F5.224245471114252e-05
sVcapability
p2847
F0.0
sVtransmission
p2848
F0.0
sVeager
p2849
F0.0
sV2c
p2850
F0.0
sVdifficult
p2851
F0.0003233622441892622
sVfriendship
p2852
F6.406462889862727e-05
sVheavy
p2853
F5.911087093742374e-05
sVstatus
p2854
F2.0210140261828886e-05
sVharm
p2855
F0.0
sVeveryone
p2856
F0.00044462308576023545
sVcost
p2857
F4.042028052365777e-05
sVmental
p2858
F0.0016717585507565606
sV300mg
p2859
F0.0
sVvisually
p2860
F3.2032314449313634e-05
sVshort
p2861
F0.00012758309365410708
sVhouse
p2862
F8.275521931239324e-05
sVenergy
p2863
F0.0012538189130674204
sVhard
p2864
F0.0005319978384368137
sVreduce
p2865
F0.0007047109178849
sVidea
p2866
F0.00013289905588969488
sVgun
p2867
F6.406462889862727e-05
sVnutritionist
p2868
F0.0
sVneurology
p2869
F0.0
sVconnect
p2870
F5.224245471114252e-05
sVkazmierczak
p2871
F0.0
sVbeyond
p2872
F3.189577341352677e-05
sVinsurance
p2873
F0.00047018209240028266
sVterrify
p2874
F0.0
sVdecline
p2875
F0.00010448490942228503
sVanxious
p2876
F0.0008881217300894228
sVditch
p2877
F0.0
sVpsychology
p2878
F0.00010448490942228503
sVp
p2879
F0.00018189126235645996
sVchildish
p2880
F0.0
sVsince
p2881
F0.0003083258096640921
sVpublish
p2882
F0.0
sVresearch
p2883
F0.0016717585507565606
sVcrazymeds
p2884
F0.0
sVhealth
p2885
F0.0011493340036451353
sVcarpet
p2886
F5.224245471114252e-05
sV7
p2887
F0.0001773326128122712
sVpristiq
p2888
F0.0
sVissue
p2889
F0.0012126084157097331
sVass
p2890
F6.406462889862727e-05
sVnervously
p2891
F5.224245471114252e-05
sVbelief
p2892
F0.0
sVsingularly
p2893
F0.0
sVcircumstance
p2894
F0.00010448490942228503
sVhydroxyzine
p2895
F0.0
sVgut
p2896
F5.224245471114252e-05
sVdiffer
p2897
F5.224245471114252e-05
sVtbh
p2898
F0.0
sVpleasant
p2899
F0.00015672736413342754
sVdifficulty
p2900
F0.00020896981884457007
sVqualify
p2901
F0.0
sVheroin
p2902
F0.00015672736413342754
sVunsightly
p2903
F0.0
sVimagine
p2904
F0.0001414709818328022
sVput
p2905
F0.0003668013942555579
sVteach
p2906
F5.224245471114252e-05
sVweed
p2907
F0.001410546277200848
sVbeginning
p2908
F5.315962235587795e-06
sVgenerate
p2909
F0.00010448490942228503
sVtransdermal
p2910
F0.0
sVblister
p2911
F0.0
sVdmt
p2912
F0.0
sVunconfident
p2913
F0.0
sVthread
p2914
F0.00041793963768914014
sVinappropriately
p2915
F0.0
sVterrible
p2916
F0.0004244129454984066
sVamerican
p2917
F0.0
sVrocknroll
p2918
F0.0
sVdue
p2919
F0.00105706637682735
sVw
p2920
F0.0001616811220946311
sVanecdote
p2921
F0.0
sVconsequence
p2922
F0.0
sVundergo
p2923
F0.0
sVzyprexa
p2924
F0.0
sVbupropion
p2925
F0.0
sVfeed
p2926
F0.00012812925779725454
sVmajor
p2927
F0.00016551043862478648
sVdont
p2928
F0.0002562585155945091
sVprobability
p2929
F0.0
sVpurport
p2930
F0.0
sVfeel
p2931
F0.0011110361072378492
sVrelate
p2932
F0.0
sVnach
p2933
F0.0
sVmisc
p2934
F5.224245471114252e-05
sVnumber
p2935
F0.0002829419636656044
sVfancy
p2936
F0.00010448490942228503
sVmature
p2937
F2.0210140261828886e-05
sVdysthymia
p2938
F0.0
sVig
p2939
F0.0
sVfrequently
p2940
F0.0003134547282668551
sV40mg
p2941
F0.0
sVmiss
p2942
F5.3159622355877944e-05
sVpropranolol
p2943
F0.0
sVhiatal
p2944
F0.0
sVguess
p2945
F0.0003637825247129199
sVtemperature
p2946
F3.2032314449313634e-05
sVscript
p2947
F0.0005746670018225677
sVtwenty
p2948
F2.0210140261828886e-05
sVinteract
p2949
F0.00020896981884457007
sVdemonstrate
p2950
F5.224245471114252e-05
sVleast
p2951
F0.0
sVpaint
p2952
F4.042028052365777e-05
sVregulation
p2953
F0.0
sVassumption
p2954
F0.00026121227355571257
sVstatement
p2955
F3.2032314449313634e-05
sVracemic
p2956
F0.0
sVton
p2957
F0.00041793963768914014
sVkor
p2958
F0.0
sVbanana
p2959
F2.0210140261828886e-05
sVcraziest
p2960
F0.00010448490942228503
sVheadache
p2961
F0.0008358792753782803
sVcatapult
p2962
F0.0
sVhivemind
p2963
F0.0
sVrelationship
p2964
F0.00020210140261828886
sVsynthetic
p2965
F0.00015672736413342754
sVbowel
p2966
F0.0
sVsensitization
p2967
F0.0
sVpark
p2968
F0.00020896981884457007
sVimmediate
p2969
F3.2032314449313634e-05
sVchristpsychosis
p2970
F0.0
sVserotonin
p2971
F0.0
sVanalgesic
p2972
F0.0
sVluckily
p2973
F0.0
sVawesomeness
p2974
F0.0
sVnigga
p2975
F5.224245471114252e-05
sVagitate
p2976
F0.0
sVconsult
p2977
F0.0
sVetsy
p2978
F0.0
sVrampant
p2979
F5.224245471114252e-05
sVselegiline
p2980
F0.0
sVcenter
p2981
F2.0210140261828886e-05
sVneurontin
p2982
F0.0
sVb
p2983
F7.093304512490848e-05
sVaaa
p2984
F0.0
sVkindly
p2985
F5.224245471114252e-05
sVcyclic
p2986
F0.0
sVbitter
p2987
F5.224245471114252e-05
sVinstruction
p2988
F5.224245471114252e-05
sVadditionally
p2989
F5.224245471114252e-05
sVnorthern_illinois_university_shooting
p2990
F0.0
sVyouth
p2991
F3.2032314449313634e-05
sVmedicate
p2992
F0.0
sVstressor
p2993
F0.0
sVcontrary
p2994
F5.224245471114252e-05
sVstore
p2995
F3.2032314449313634e-05
sVsedate
p2996
F0.0007047109178849
sVmacro
p2997
F0.0
sVkindle
p2998
F0.0
sVglucose
p2999
F0.0
sVdeclare
p3000
F0.0
sVrisky
p3001
F5.224245471114252e-05
sVtofranil
p3002
F0.0
sVmotivation
p3003
F0.0
sVoutta
p3004
F5.224245471114252e-05
sVexert
p3005
F0.0
sVwasnt
p3006
F0.0
sVhtp
p3007
F0.0
sVbeforehand
p3008
F0.0
sVdefect
p3009
F0.00012812925779725454
sVearflap
p3010
F0.0
sVultra
p3011
F0.0
sVsitatuation
p3012
F0.0
sVincidentally
p3013
F0.0
sVsubstantial
p3014
F5.224245471114252e-05
sVprefrontal
p3015
F0.0
sVintestine
p3016
F0.0
sVconcentration
p3017
F0.00016016157224656817
sVoption
p3018
F0.0014627887319119905
sVsell
p3019
F1.1822174187484748e-05
sVlie
p3020
F0.0001414709818328022
sVgabaergics
p3021
F0.0
sVbake
p3022
F0.0
sVcheck
p3023
F0.0024024235836985226
sVself
p3024
F7.442347129822912e-05
sVsuicidally
p3025
F0.0
sVfa
p3026
F0.0
sVcouch
p3027
F5.224245471114252e-05
sVmajority
p3028
F9.609694334794091e-05
sVinternal
p3029
F3.2032314449313634e-05
sVbuild
p3030
F7.093304512490848e-05
sVeffexor
p3031
F0.0
sVtool
p3032
F0.0003656971829779976
sVeff
p3033
F0.0
sVplay
p3034
F0.0002829419636656044
sVrisperidone
p3035
F0.0
sValleviate
p3036
F0.00010448490942228503
sVneedle
p3037
F6.406462889862727e-05
sVfirsthand
p3038
F0.0
sV12mg
p3039
F0.0
sVreach
p3040
F0.00012126084157097331
sVchart
p3041
F0.00012812925779725454
sVbloat
p3042
F5.224245471114252e-05
sVplat
p3043
F0.0
sVperceptive
p3044
F0.0
sVyawn
p3045
F0.0
sVvirus
p3046
F0.00020896981884457007
sVcharm
p3047
F5.224245471114252e-05
sVplan
p3048
F0.00024252168314194662
sVsignificant
p3049
F0.0003134547282668551
sV70
p3050
F4.042028052365777e-05
sVnothing
p3051
F0.000180742716009985
sVnp
p3052
F0.0
sVinformation
p3053
F0.00035235545894245
sVextremely
p3054
F0.0005765816600876454
sVnumerous
p3055
F9.609694334794091e-05
sVfunnier
p3056
F5.224245471114252e-05
sVsalary
p3057
F0.0
sV45mg
p3058
F0.0
sVbreaker
p3059
F0.0
sVkg
p3060
F5.224245471114252e-05
sVmineral
p3061
F5.224245471114252e-05
sV1918
p3062
F0.0
sVclear
p3063
F5.847558459146574e-05
sVsometimes
p3064
F0.0005201756642493289
sVko
p3065
F0.0
sVinstitutionalize
p3066
F0.0
sVnefazodone
p3067
F0.0
sVtraditional
p3068
F6.406462889862727e-05
sVpart
p3069
F0.00033102087724957296
sVartistic
p3070
F0.0
sVclean
p3071
F1.063192447117559e-05
sVweigh
p3072
F9.609694334794091e-05
sVlatest
p3073
F3.2032314449313634e-05
sVblend
p3074
F3.2032314449313634e-05
sVassistance
p3075
F0.0
sVgaba
p3076
F0.0
sVstoner
p3077
F0.0003134547282668551
sVniggle
p3078
F0.0
sVugh
p3079
F0.0
sVparticularly
p3080
F0.0002562585155945091
sVamaze
p3081
F0.0
sVgold
p3082
F4.042028052365777e-05
sVagonize
p3083
F0.0
sVlay
p3084
F0.00012812925779725454
sVblindly
p3085
F0.0
sVtranquilizer
p3086
F0.0
sVbritain
p3087
F0.0
sVsession
p3088
F0.00015672736413342754
sVvynase
p3089
F0.0
sVstalker
p3090
F5.224245471114252e-05
sVse
p3091
F6.406462889862727e-05
sVfluoxetine
p3092
F0.0
sVmarinol
p3093
F0.0
sVfine
p3094
F0.0
sVfind
p3095
F0.0
sV4ish
p3096
F0.0
sVcollaborate
p3097
F0.0
sVimpact
p3098
F0.0
sVaccess
p3099
F0.00022422620114519545
sVbelieve
p3100
F0.0003191987030620882
sVchicro
p3101
F0.0
sVnorthern
p3102
F0.00010448490942228503
sValprazolam
p3103
F0.0
sVparanoid
p3104
F0.00026121227355571257
sVnervous
p3105
F3.2032314449313634e-05
sVruin
p3106
F0.00020896981884457007
sVtablet
p3107
F0.00041793963768914014
sVparanoia
p3108
F0.0
sVunhappy
p3109
F5.224245471114252e-05
sVaren
p3110
F0.00015416290483204605
sVincreasingly
p3111
F5.224245471114252e-05
sVenzyme
p3112
F0.0
sVexperiment
p3113
F0.00019219388669588182
sVpositively
p3114
F5.224245471114252e-05
sVcondom
p3115
F0.00010448490942228503
sVfactor
p3116
F0.0003656971829779976
sV8
p3117
F0.00026579811177938976
sVcircle
p3118
F0.0
sVjunk
p3119
F6.406462889862727e-05
sVdevastate
p3120
F0.0
sVhiv
p3121
F0.0
sVmeanwhile
p3122
F0.0
sVdependent
p3123
F0.00015672736413342754
sVbluelight
p3124
F0.0
sVkind
p3125
F0.0
sVfamous
p3126
F3.2032314449313634e-05
sVremedy
p3127
F0.0
sV150mg
p3128
F0.0
sVlongest
p3129
F0.00010448490942228503
sVreply
p3130
F6.406462889862727e-05
sVvalporic
p3131
F0.0
sVsill
p3132
F0.0
sVrestart
p3133
F3.2032314449313634e-05
sVtarget
p3134
F5.224245471114252e-05
sVsuspicious
p3135
F0.00010448490942228503
sVcrp
p3136
F0.0
sVresolve
p3137
F2.0210140261828886e-05
sVblocker
p3138
F0.0012538189130674204
sVprogressive
p3139
F0.0
sVbet
p3140
F2.3644348374969496e-05
sVchildhood
p3141
F0.0
sVcry
p3142
F9.609694334794091e-05
sValteration
p3143
F0.0
sVremove
p3144
F0.00012126084157097331
sVproclaim
p3145
F0.0
sVcoincidence
p3146
F5.224245471114252e-05
sVinfectedmethod
p3147
F0.0
sVinvestigate
p3148
F0.00019219388669588182
sVcrf
p3149
F0.0
sVcommon
p3150
F0.000525463646807551
sVdouble
p3151
F3.2032314449313634e-05
sVsustainable
p3152
F0.0
sVcease
p3153
F5.224245471114252e-05
sVdizziness
p3154
F0.0003656971829779976
sVcalifornian
p3155
F0.0
sVinsane
p3156
F0.00026121227355571257
sVautoreceptors
p3157
F0.0
sVcramp
p3158
F0.0
sVcorticosteroid
p3159
F0.0
sVart
p3160
F6.0630420785486655e-05
sVabilify
p3161
F0.0
sVdump
p3162
F6.406462889862727e-05
sVcocktail
p3163
F0.00041793963768914014
sVbrake
p3164
F0.0
sVpotent
p3165
F0.0
sVsex
p3166
F0.0004484524022903909
sVschizophrenic
p3167
F0.0
sVculture
p3168
F5.224245471114252e-05
sVsee
p3169
F0.0005741239214434818
sVindividual
p3170
F4.042028052365777e-05
sVdumb
p3171
F0.00012812925779725454
sVrtms
p3172
F0.0
sVovereat
p3173
F0.0
sVclose
p3174
F0.0003839926649747488
sVchangeable
p3175
F0.0
sVcurvilinear
p3176
F0.0
sVdynakids
p3177
F0.0
sVpractice
p3178
F0.0
sVglue
p3179
F5.224245471114252e-05
sVexpert
p3180
F0.00020896981884457007
sVmovie
p3181
F0.00012812925779725454
sVuser
p3182
F0.0014734864646684272
sVcurrently
p3183
F0.00048504336628389324
sVplease
p3184
F0.00016479482930322164
sVgrogginess
p3185
F0.0
sVcase
p3186
F0.0004137760965619662
sVrefrain
p3187
F0.0
sVsmallest
p3188
F5.224245471114252e-05
sVmyriad
p3189
F0.0
sVwok
p3190
F0.0
sVmodulators
p3191
F0.0
sVweekly
p3192
F5.224245471114252e-05
sVnope
p3193
F0.00015672736413342754
sVhypochondria
p3194
F0.0
sVblurb
p3195
F0.0
sVpiss
p3196
F5.224245471114252e-05
sVeurope
p3197
F0.0
sVmilder
p3198
F0.0
sVanticholinergic
p3199
F0.0
sVstatistically
p3200
F0.0
sVexcessive
p3201
F2.0210140261828886e-05
sVinitially
p3202
F0.00012812925779725454
sVvisteril
p3203
F0.0
sVcomplement
p3204
F0.0
sVattention
p3205
F4.728869674993899e-05
sVirratic
p3206
F0.0
sVworst
p3207
F0.0004484524022903909
sVincident
p3208
F0.0
sVdeath
p3209
F0.00010105070130914443
sVselectively
p3210
F0.0
sV400mg
p3211
F0.0
sVrecreantional
p3212
F0.0
sVsolu
p3213
F0.0
sVavidly
p3214
F0.0
sVtotal
p3215
F0.00012126084157097331
sVc
p3216
F1.5947886706763385e-05
sVcompazine
p3217
F0.0
sVlast
p3218
F0.0002764300362505653
sVreverse
p3219
F8.084056104731554e-05
sVhesitant
p3220
F0.0
sVannual
p3221
F5.224245471114252e-05
sVevent
p3222
F6.0630420785486655e-05
sVpiracetam
p3223
F0.0
sVconnection
p3224
F6.406462889862727e-05
sVutterance
p3225
F0.0
sValot
p3226
F0.00010448490942228503
sVbuzz
p3227
F0.00012812925779725454
sVgoverment
p3228
F0.0
sVpdf
p3229
F0.0003134547282668551
sVdepartment
p3230
F5.224245471114252e-05
sVmean
p3231
F0.0003901317481869967
sVwhole
p3232
F0.000343572384451091
sVdepersonalisation
p3233
F0.0
sVexperimental
p3234
F0.0
sVload
p3235
F4.042028052365777e-05
sVdysphagia
p3236
F0.0
sVconsume
p3237
F9.609694334794091e-05
sVstudy
p3238
F0.0009289371190300955
sVbell
p3239
F0.00010448490942228503
sVsimple
p3240
F2.126384894235118e-05
sVsweet
p3241
F6.0630420785486655e-05
sVsweep
p3242
F0.0
sVcommunity
p3243
F0.0
sVreccomend
p3244
F0.0
sV100mg
p3245
F0.0
sVbiiiiig
p3246
F0.0
sVdietary
p3247
F0.0
sVreupping
p3248
F0.0
sVadaptation
p3249
F0.0
sVshutdown
p3250
F5.224245471114252e-05
sVsing
p3251
F3.2032314449313634e-05
sVthroughout
p3252
F0.0001616811220946311
sVcyp3a4
p3253
F0.0
sVexpensive
p3254
F0.00012126084157097331
sV30mg
p3255
F0.0
sVraise
p3256
F0.00012126084157097331
sVpt
p3257
F0.00010448490942228503
sVcreate
p3258
F0.0005445493456383318
sVoverlook
p3259
F0.0
sVcreativity
p3260
F0.0
sVcurve
p3261
F6.406462889862727e-05
sVstrategy
p3262
F5.224245471114252e-05
sVpc
p3263
F5.224245471114252e-05
sVsecret
p3264
F9.609694334794091e-05
sVdamn
p3265
F0.0003134547282668551
sVamnesia
p3266
F5.224245471114252e-05
sVireland
p3267
F0.0
sVmetronidazole
p3268
F0.0
sVintrusive
p3269
F0.0003656971829779976
sVextreme
p3270
F0.0001616811220946311
sVfogginess
p3271
F0.0
sVempty
p3272
F2.126384894235118e-05
sVblob
p3273
F0.0
sVgtg
p3274
F0.0
sVaddison
p3275
F0.0
sVnri
p3276
F0.0
sValongside
p3277
F6.406462889862727e-05
sVflight
p3278
F6.0630420785486655e-05
sVsobriety
p3279
F0.0
sV0003
p3280
F0.0
sVfire
p3281
F4.728869674993899e-05
sVgas
p3282
F5.224245471114252e-05
sVconvert
p3283
F5.224245471114252e-05
sVgap
p3284
F0.00015672736413342754
sVamlodipine
p3285
F0.0
sVusage
p3286
F6.406462889862727e-05
sVpricey
p3287
F5.224245471114252e-05
sVgal
p3288
F5.224245471114252e-05
sVunderstand
p3289
F7.973943353381692e-05
sVliver
p3290
F0.00022422620114519545
sVsnfis
p3291
F0.0
sVdemand
p3292
F2.0210140261828886e-05
sVgag
p3293
F0.0
sVdespite
p3294
F5.911087093742374e-05
sVgad
p3295
F0.0
sVlamotrigine
p3296
F0.0
sVhonest
p3297
F0.00020210140261828886
sVscottish
p3298
F0.0
sVtrojan
p3299
F0.0
sVuncertain
p3300
F5.224245471114252e-05
sVlook
p3301
F0.00036148543201997
sVsolid
p3302
F0.00012812925779725454
sVzonegran
p3303
F0.0
sVstraight
p3304
F0.00015947886706763384
sVtip
p3305
F0.0001414709818328022
sVtolerate
p3306
F0.0
sVrat
p3307
F0.00012812925779725454
sVcrutch
p3308
F0.0
sVrecall
p3309
F0.0003656971829779976
sVhealthy
p3310
F0.000525463646807551
sVmatch
p3311
F6.0630420785486655e-05
sVbehavior
p3312
F0.0002562585155945091
sVerror
p3313
F0.00015672736413342754
sVfun
p3314
F0.0002009769611872407
sVfleet
p3315
F5.224245471114252e-05
sV3am
p3316
F0.0
sVrobin
p3317
F0.0
sVdepakote
p3318
F0.0
sVpack
p3319
F0.0002719100063121492
sVgrip
p3320
F1.1822174187484748e-05
sVpound
p3321
F0.0011211310057259772
sVstopdrinking
p3322
F0.0
sVagitation
p3323
F0.0
sVhyperactivity
p3324
F0.0
sV400
p3325
F3.2032314449313634e-05
sVeverywhere
p3326
F4.042028052365777e-05
sVdemon
p3327
F5.224245471114252e-05
sVastound
p3328
F0.0
sVjpg
p3329
F0.00016016157224656817
sVssri
p3330
F0.0
sVhydrocodone
p3331
F0.0
sVterminator
p3332
F0.0
sVtriple
p3333
F3.2032314449313634e-05
sVready
p3334
F3.189577341352677e-05
sVhydromorphone
p3335
F0.0
sVrid
p3336
F0.00012812925779725454
sVneutral
p3337
F0.00041793963768914014
sVblissful
p3338
F0.0
sVcorpse
p3339
F3.2032314449313634e-05
sVfunny
p3340
F4.728869674993899e-05
sVregulate
p3341
F0.0
sVbaseline
p3342
F0.00026121227355571257
sVanymore
p3343
F0.00024252168314194662
sVmigraine
p3344
F0.0
sVmethoxetamine
p3345
F0.0
sVapdb
p3346
F0.0
sVshorten
p3347
F5.224245471114252e-05
sVsubmission
p3348
F5.224245471114252e-05
sVshorter
p3349
F6.406462889862727e-05
sVbenign
p3350
F5.224245471114252e-05
sVruta
p3351
F0.0
sVprescribe
p3352
F0.004963033197558539
sVvirtually
p3353
F0.0
sVdeletion
p3354
F5.224245471114252e-05
sV9
p3355
F8.275521931239324e-05
sVadvise
p3356
F0.0
sVrelatively
p3357
F0.00015672736413342754
sV100x
p3358
F0.0
sVevidence
p3359
F0.0002882908300438227
sVhigher
p3360
F0.00030737652887460345
sVdevelopment
p3361
F6.406462889862727e-05
sVlid
p3362
F0.0
sVliterature
p3363
F0.00010448490942228503
sVtemporary
p3364
F0.00047018209240028266
sVdime
p3365
F5.224245471114252e-05
sVbonus
p3366
F0.00010448490942228503
sVdepersonalization
p3367
F0.0
sVpainless
p3368
F0.0
sVoverweight
p3369
F0.0
sVyesterday
p3370
F0.00020896981884457007
sValert
p3371
F6.406462889862727e-05
sVinterpersonal
p3372
F0.0
sVveeery
p3373
F0.0
sVmoment
p3374
F9.56873202405803e-05
sV000
p3375
F0.00020896981884457007
sVpurpose
p3376
F5.911087093742374e-05
sVdopamin
p3377
F0.0
sVillinois
p3378
F0.0
sV009
p3379
F0.0
sVboredom
p3380
F0.0
sVclimb
p3381
F6.406462889862727e-05
sVinfamous
p3382
F0.0
sVbuspirone
p3383
F0.0
sVexpend
p3384
F0.0
sVgene
p3385
F0.00015672736413342754
sVneverending
p3386
F0.0
sVolder
p3387
F7.093304512490848e-05
sVmemantine
p3388
F0.0
sVcortisol
p3389
F0.0
sVampa
p3390
F0.0
sVcodeine
p3391
F0.0
sViffy
p3392
F0.0
sVobviously
p3393
F0.0002627318234037755
sVbali
p3394
F0.0
sVperson
p3395
F0.0002955543546871187
sVcheer
p3396
F0.0
sVedge
p3397
F5.911087093742374e-05
sVrozerem
p3398
F0.0
sVwithdraw
p3399
F0.0012015764583562778
sVkelly
p3400
F0.0
sV60mgs
p3401
F0.0
sVskill
p3402
F0.0
sVchemistry
p3403
F0.0
sVspend
p3404
F0.0003233622441892622
sVprevention
p3405
F0.0
sVthrowaway
p3406
F0.0
sVchore
p3407
F0.0
sVabstain
p3408
F0.0
sVreliant
p3409
F0.0
sVtolerability
p3410
F0.0
sVludicrous
p3411
F0.0
sVsuffolk
p3412
F0.0
sVshape
p3413
F0.00016016157224656817
sVflexeril
p3414
F0.0
sVbehind
p3415
F1.063192447117559e-05
sVregardless
p3416
F0.00020896981884457007
sValternative
p3417
F0.00022422620114519545
sVpocinki_nonrestorative_sleep_2013_s
p3418
F0.0
sVwage
p3419
F0.00010448490942228503
sVcut
p3420
F9.56873202405803e-05
sVremission
p3421
F0.0
sVresearcher
p3422
F0.0
sVcup
p3423
F5.224245471114252e-05
sVfentanyl
p3424
F0.0
sVcuz
p3425
F0.00010448490942228503
sVtryptophan
p3426
F0.0
sVtripsit
p3427
F0.0
sVsource
p3428
F0.0003031521039274333
sVcue
p3429
F0.0
sVlocation
p3430
F6.406462889862727e-05
sVaps
p3431
F0.0
sVsnap
p3432
F4.042028052365777e-05
sVinput
p3433
F5.224245471114252e-05
sVriboflavin
p3434
F0.0
sVtransformation
p3435
F0.0
sVfrustrate
p3436
F0.0
sVluxury
p3437
F0.0
sVridiculously
p3438
F5.224245471114252e-05
sVbio
p3439
F5.224245471114252e-05
sVfubinaca
p3440
F0.0
sVapnea
p3441
F0.0
sVemergency
p3442
F0.00015672736413342754
sVformat
p3443
F5.224245471114252e-05
sV11229449
p3444
F0.0
sVbig
p3445
F5.3159622355877944e-05
sVrebound
p3446
F0.0
sVadvocate
p3447
F0.0
sVadrafinil
p3448
F0.0
sVfolk
p3449
F0.00010448490942228503
sVshitty
p3450
F0.00047018209240028266
sVgame
p3451
F9.457739349987799e-05
sVquest
p3452
F5.224245471114252e-05
sVabound
p3453
F0.0
sVguide
p3454
F5.224245471114252e-05
sVnecessary
p3455
F4.728869674993899e-05
sVbit
p3456
F5.315962235587795e-06
sVawaken
p3457
F0.0
sVrenin
p3458
F0.0
sVlike
p3459
F0.0
sVknock
p3460
F0.0004484524022903909
sVcognitive
p3461
F0.0
sVsemi
p3462
F2.0210140261828886e-05
sVspine
p3463
F5.224245471114252e-05
sVconfront
p3464
F5.224245471114252e-05
sVinterestingly
p3465
F5.224245471114252e-05
sVptst
p3466
F0.0
sVmanifest
p3467
F0.00015672736413342754
sVconstipate
p3468
F0.0
sVcollect
p3469
F0.0
sVzoloft
p3470
F0.0
sVcontinue
p3471
F0.00026008783212466447
sVunstable
p3472
F5.224245471114252e-05
sValternatively
p3473
F5.224245471114252e-05
sVpopular
p3474
F0.00010448490942228503
sVeeg
p3475
F0.0
sVdisorder
p3476
F0.0022464255525791285
sVptsd
p3477
F0.0
sVterminology
p3478
F0.0
sVgoogle
p3479
F0.00032032314449313633
sVproscaline
p3480
F0.0
sVoften
p3481
F0.0006669346286403532
sVmetabolic
p3482
F0.0
sVabsolutely
p3483
F0.00016551043862478648
sVgoddamn
p3484
F0.00020896981884457007
sV1st
p3485
F3.2032314449313634e-05
sVunloved
p3486
F0.0
sVback
p3487
F0.0003827492809623212
sVphone
p3488
F0.0002562585155945091
sVblow
p3489
F3.546652256245424e-05
sVpaxil
p3490
F0.0
sVbouncy
p3491
F0.0
sVtowards
p3492
F1.063192447117559e-05
sVoxcarbazepine
p3493
F0.0
sVb2
p3494
F0.0
sVb3
p3495
F0.0
sVcurious
p3496
F3.546652256245424e-05
sVlightning
p3497
F5.224245471114252e-05
sVamicable
p3498
F0.0
sVelectric
p3499
F6.406462889862727e-05
sVgradually
p3500
F0.0
sVculprit
p3501
F0.0
sVantichollinergic
p3502
F0.0
sVpet
p3503
F5.224245471114252e-05
sVdecision
p3504
F0.0001616811220946311
sVper
p3505
F0.00032032314449313633
sVcrisis
p3506
F0.0
sVreligion
p3507
F0.00047018209240028266
sVeliminate
p3508
F0.0
sVquote
p3509
F6.406462889862727e-05
sVpee
p3510
F5.224245471114252e-05
sVmethylphenidate
p3511
F0.0
sVminimal
p3512
F0.0
sVbuspar
p3513
F0.0
sVbd
p3514
F0.0
sVbf
p3515
F0.0
sVpatient
p3516
F0.0022464255525791285
sV300
p3517
F6.406462889862727e-05
sVclonazapam
p3518
F0.0
sVtetracyclic_antidepressant
p3519
F0.0
sVbi
p3520
F2.0210140261828886e-05
sVstem
p3521
F0.0
sVzombie
p3522
F0.0005746670018225677
sVrestrictive
p3523
F0.0
sVstep
p3524
F5.911087093742374e-05
sVturkeying
p3525
F0.0
sVnowhere
p3526
F5.224245471114252e-05
sVviibryd
p3527
F0.0
sVtaboo
p3528
F0.0
sVintense
p3529
F0.00035235545894245
sVvivid
p3530
F0.0
sVjeezus
p3531
F0.0
sVreact
p3532
F0.00032032314449313633
sVpipeline
p3533
F0.0
sVcautious
p3534
F0.00010448490942228503
sV1snri
p3535
F0.0
sVgerd
p3536
F0.0
sVanything
p3537
F0.0003508535075487945
sVnetflix
p3538
F0.0
sVreappear
p3539
F0.0
sVgod
p3540
F0.0005125170311890182
sV75
p3541
F0.00026121227355571257
sVoatmeal
p3542
F5.224245471114252e-05
sVsimulation
p3543
F0.0
sVlifeless
p3544
F0.0
sVrange
p3545
F3.546652256245424e-05
sVnicotine
p3546
F0.0
sVpediatrician
p3547
F5.224245471114252e-05
sVpsychonaut
p3548
F0.0
sV5yrs
p3549
F0.0
sVwanna
p3550
F9.609694334794091e-05
sVblock
p3551
F0.0006726786034355863
sVdissociatives
p3552
F0.0
sVppl
p3553
F0.0
sVrepair
p3554
F0.0
sVtegretal
p3555
F0.0
sVreal
p3556
F0.0
sVplenty
p3557
F0.00012812925779725454
sVgarbage
p3558
F6.406462889862727e-05
sV1056
p3559
F0.0
sVvisit
p3560
F0.00010105070130914443
sVabusive
p3561
F0.00020896981884457007
sVwithin
p3562
F0.00013004391606233223
sVnonsense
p3563
F0.0
sVdrain
p3564
F5.224245471114252e-05
sVantidepresant
p3565
F0.0
sVappropriate
p3566
F0.00041793963768914014
sVetizolam
p3567
F0.0
sVimbalance
p3568
F0.0
sVappendix
p3569
F0.0
sVprimarily
p3570
F0.0
sVsteven
p3571
F0.0
sVcontradictory
p3572
F5.224245471114252e-05
sVgreenies
p3573
F0.0
sVdelusional
p3574
F0.00010448490942228503
sVspan
p3575
F5.224245471114252e-05
sVpalinopsia
p3576
F0.0
sVdph
p3577
F0.0
sVcchrint
p3578
F0.0
sVache
p3579
F0.0
sVquestion
p3580
F0.00023644348374969495
sVlong
p3581
F0.0
sVcustom
p3582
F0.0012015764583562778
sVoverpower
p3583
F0.0
sVconsultation
p3584
F0.0
sVhumous
p3585
F0.0
sVsuit
p3586
F9.609694334794091e-05
sVforward
p3587
F0.0
sVerasmus
p3588
F0.0
sVanalyze
p3589
F0.0
sVconsiderably
p3590
F5.224245471114252e-05
sVelsewhere
p3591
F5.224245471114252e-05
sVkb
p3592
F0.0
sVposter
p3593
F5.224245471114252e-05
sVinept
p3594
F0.0
sVheart
p3595
F0.0006063042078548666
sVmanipulate
p3596
F0.0
sVdoi
p3597
F0.0
sVlink
p3598
F0.00041642008784107727
sVrepeatedly
p3599
F3.2032314449313634e-05
sVnewer
p3600
F0.00047018209240028266
sVpilling
p3601
F0.0
sVlifesaver
p3602
F0.0
sVline
p3603
F0.00011822174187484748
sVdull
p3604
F3.2032314449313634e-05
sVinfo
p3605
F0.00020896981884457007
sV115
p3606
F0.0
sVcig
p3607
F0.0
sVconsist
p3608
F0.0
sVflubpam
p3609
F0.0
sVsomedays
p3610
F0.0
sV2gram
p3611
F0.0
sVwork
p3612
F0.0
sVgeneralize
p3613
F0.0
sVuh
p3614
F2.0210140261828886e-05
sVuk
p3615
F0.00015672736413342754
sVsum
p3616
F5.224245471114252e-05
sVcontinuously
p3617
F5.224245471114252e-05
sVincidence
p3618
F0.0
sVz
p3619
F0.0003134547282668551
sVsimilar
p3620
F0.0002955543546871187
sVmedical
p3621
F0.0002627318234037755
sVdocusate
p3622
F0.0
sVinmate
p3623
F0.0
sVnucleuspf3izq7o6
p3624
F0.0
sVparoxetine
p3625
F0.0
sVimpared
p3626
F0.0
sVconstant
p3627
F0.0004804847167397046
sVexaminer
p3628
F0.0
sVlikewise
p3629
F0.0
sVinfluence
p3630
F6.0630420785486655e-05
sVhaunt
p3631
F0.0
sVdoesn
p3632
F0.0003508535075487945
sVdeprive
p3633
F0.0
sVsingle
p3634
F3.189577341352677e-05
sVcure
p3635
F0.0005746670018225677
sVcurb
p3636
F0.00020896981884457007
sVchat
p3637
F6.0630420785486655e-05
sVappetizing
p3638
F5.224245471114252e-05
sVbitch
p3639
F0.00010448490942228503
sVtransg
p3640
F0.0
sVkidney
p3641
F0.00015672736413342754
sVintact
p3642
F3.2032314449313634e-05
sVpageid
p3643
F0.0
sVpanax
p3644
F0.0
sVinsomniac
p3645
F0.0
sVnah
p3646
F5.224245471114252e-05
sVpeace
p3647
F5.224245471114252e-05
sVoccasional
p3648
F0.0
sVclub
p3649
F0.00010448490942228503
sVnap
p3650
F0.0
sVbracket
p3651
F0.0
sVb12
p3652
F0.0
sVunscheduled
p3653
F0.0
sVincome
p3654
F0.0
sVmoron
p3655
F0.00010448490942228503
sVaunt
p3656
F0.0
sVnice
p3657
F0.0
sVunderweight
p3658
F0.0
sVdraw
p3659
F1.5947886706763385e-05
sVenergetic
p3660
F0.0
sVhypomanic
p3661
F0.0
sVlucid
p3662
F0.0
sVativan
p3663
F0.0
sVresign
p3664
F0.0
sVhelpful
p3665
F0.0009403641848005653
sVdrag
p3666
F1.1822174187484748e-05
sVoregon
p3667
F0.0
sVutterly
p3668
F5.224245471114252e-05
sVclue
p3669
F3.2032314449313634e-05
sVamphetamine
p3670
F0.0
sVdesert
p3671
F3.2032314449313634e-05
sVstructure
p3672
F0.00010448490942228503
sVlane
p3673
F0.0
sVland
p3674
F5.315962235587795e-06
sVe
p3675
F9.03713580049925e-05
sVvice
p3676
F0.00010448490942228503
sVsvg
p3677
F0.0
sVage
p3678
F0.00010639956768736272
sVconfirm
p3679
F0.00012812925779725454
sVwellbeing
p3680
F0.0
sVvisual
p3681
F0.00010448490942228503
sVteca
p3682
F0.0
sVimpatient
p3683
F5.224245471114252e-05
sVlogical
p3684
F0.0
sVhella
p3685
F0.0
sV2007
p3686
F0.0
sVnarrative
p3687
F0.0
sVpsychiatry
p3688
F0.0
sVfresh
p3689
F0.00046483322602206435
sV2008
p3690
F0.0
sV2009
p3691
F0.0
sVhello
p3692
F0.00012812925779725454
sVchalk
p3693
F0.0
sVpartial
p3694
F5.224245471114252e-05
sVendocrinologist
p3695
F0.0
sVgp
p3696
F0.0
sVscratch
p3697
F9.609694334794091e-05
sVresistance
p3698
F5.224245471114252e-05
sVnoobs
p3699
F0.0
sVpsilocybin
p3700
F0.0
sVtoggle
p3701
F0.00010448490942228503
sVhyper
p3702
F0.0
sVfreakin
p3703
F5.224245471114252e-05
sVscreen
p3704
F6.406462889862727e-05
sVflashback
p3705
F0.0
sVadjustment
p3706
F0.0
sVcompose
p3707
F0.00026121227355571257
sVimproperly
p3708
F5.224245471114252e-05
sVstave
p3709
F0.0
sVyoung
p3710
F5.315962235587795e-06
sVsend
p3711
F9.457739349987799e-05
sVnose
p3712
F1.1822174187484748e-05
sVintensive
p3713
F5.224245471114252e-05
sVaaaaand
p3714
F0.0
sVchristpsychotics
p3715
F0.0
sVblaze
p3716
F0.0
sVstable
p3717
F0.0005224245471114251
sVweather
p3718
F2.0210140261828886e-05
sVworred
p3719
F0.0
sVdislike
p3720
F0.00015672736413342754
sVfatal
p3721
F3.2032314449313634e-05
sVdramatically
p3722
F5.224245471114252e-05
sVwenlafaxine
p3723
F0.0
sVrag
p3724
F0.00010448490942228503
sVfwiw
p3725
F0.0
sVrandom
p3726
F9.609694334794091e-05
sVknowledgebase
p3727
F0.0
sVtorture
p3728
F5.224245471114252e-05
sVoutside
p3729
F4.252769788470236e-05
sVgenius
p3730
F5.224245471114252e-05
sVwave
p3731
F2.0210140261828886e-05
sVunstructured
p3732
F0.0
sVfacebook
p3733
F0.0
sValcar
p3734
F0.0
sVdihydracodiene
p3735
F0.0
sVexhaustion
p3736
F5.224245471114252e-05
sVsurgeon
p3737
F0.0
sVenfp
p3738
F0.0
sVvapes
p3739
F0.0
sVwipe
p3740
F3.2032314449313634e-05
sVnausea
p3741
F0.0
sVentire
p3742
F0.00012126084157097331
sVcompulsion
p3743
F0.0
sVmagic
p3744
F6.406462889862727e-05
sVaugment
p3745
F0.0
sVantihistaminergic
p3746
F0.0
sVarray
p3747
F0.0
sVshock
p3748
F6.406462889862727e-05
sVmichael
p3749
F0.0
sVeve
p3750
F0.0
sVfewer
p3751
F0.00020896981884457007
sVonion
p3752
F0.0031867897373796935
sVtry
p3753
F0.0007654985619246424
sVbrutal
p3754
F0.0
sVqueencoyote
p3755
F0.0
sVrace
p3756
F0.00015672736413342754
sVlamatrogine
p3757
F0.0
sVimgur
p3758
F0.0
sVobesity
p3759
F0.0
sVchallenge
p3760
F5.224245471114252e-05
sVpuke
p3761
F0.00010448490942228503
sVdisclaimer
p3762
F5.224245471114252e-05
sVflash
p3763
F3.2032314449313634e-05
sVcap
p3764
F0.00010448490942228503
sVvisuals
p3765
F0.0
sVibd
p3766
F0.0
sVveeeeeery
p3767
F0.0
sVsurefire
p3768
F0.0
sVsensation
p3769
F0.0
sVmaintain
p3770
F0.00016016157224656817
sVjump
p3771
F4.042028052365777e-05
sVbevery
p3772
F0.0
sVtoday
p3773
F0.00018915478699975597
sVvideo
p3774
F6.406462889862727e-05
sVuncomfortable
p3775
F0.00010448490942228503
sVhppd
p3776
F0.0
sVacid
p3777
F0.00035235545894245
sVodd
p3778
F4.728869674993899e-05
sVclick
p3779
F2.0210140261828886e-05
sVsoulcrushing
p3780
F0.0
sVcq10
p3781
F0.0
sVindex
p3782
F5.224245471114252e-05
sVturn
p3783
F0.00030737652887460345
sV3x
p3784
F0.0
sVbusiness
p3785
F1.063192447117559e-05
sVrate
p3786
F0.00041642008784107727
sVcarthage
p3787
F0.0
sVfianc
p3788
F3.2032314449313634e-05
sVasap
p3789
F0.0
sVexacerbate
p3790
F0.0
sVpostsynaptic
p3791
F0.0
sVcell
p3792
F6.0630420785486655e-05
sVconsistently
p3793
F5.224245471114252e-05
sVredhaired
p3794
F0.0
sVbismol
p3795
F0.0
sVnonrecreational
p3796
F0.0
sVexercise
p3797
F0.0016717585507565606
sVstabilizer
p3798
F0.0
sVbody
p3799
F0.000207322527187924
sVdiazepam
p3800
F0.0
sVproliferation
p3801
F0.0
sVdegree
p3802
F0.00016016157224656817
sVleg
p3803
F0.0001414709818328022
sVmistake
p3804
F3.546652256245424e-05
sVescitralopram
p3805
F0.0
sVsuicidality
p3806
F0.0
sVmajor_depressive_disorder
p3807
F0.0
sVpunch
p3808
F0.00010448490942228503
sVnonexistent
p3809
F5.224245471114252e-05
sVhighly
p3810
F0.00012812925779725454
sVdisinhibiting
p3811
F0.0
sVaggravate
p3812
F0.0
sVpoverty
p3813
F5.224245471114252e-05
sVzopiclone
p3814
F0.0
sVothers
p3815
F0.00030737652887460345
sVlex
p3816
F0.0
sVtremor
p3817
F0.0
sVsafer
p3818
F0.0
sVfifteen
p3819
F0.00020896981884457007
sVmindset
p3820
F0.0
sVimmune
p3821
F5.224245471114252e-05
sVvoracious
p3822
F0.0
sVgreat
p3823
F0.0
sVibs
p3824
F0.0
sVoleptro
p3825
F0.0
sVnumbness
p3826
F0.0
sVreceive
p3827
F0.00010448490942228503
sV32
p3828
F2.0210140261828886e-05
sV30
p3829
F0.0004137760965619662
sV37
p3830
F3.2032314449313634e-05
sVscientology
p3831
F0.0
sV35
p3832
F0.0007367432323342136
sV34
p3833
F2.0210140261828886e-05
sVpreferentially
p3834
F0.0
sVinsulin
p3835
F0.0
sVprincipally
p3836
F0.0
sVopinion
p3837
F0.00020896981884457007
sVimplement
p3838
F5.224245471114252e-05
sVdepressant
p3839
F0.0
sVexcercise
p3840
F0.0
sVthats
p3841
F3.2032314449313634e-05
sVholmes
p3842
F0.0
sValtho
p3843
F0.0
sVstabilization
p3844
F0.0
sVcalmer
p3845
F0.0
sVvalproic
p3846
F0.0
sVrecommended_routine
p3847
F0.0
sVforbid
p3848
F5.224245471114252e-05
sVwin
p3849
F0.0003637825247129199
sVmanage
p3850
F0.000343572384451091
sVimpulsivity
p3851
F0.0
sVprivate
p3852
F2.0210140261828886e-05
sVocd
p3853
F0.0
sVsixty
p3854
F0.0
sVthiamine
p3855
F0.0
sVdecrease
p3856
F0.0005746670018225677
sVprivately
p3857
F0.0
sVmotor
p3858
F5.224245471114252e-05
sVrutaecarpine
p3859
F0.0
sVlimb
p3860
F0.0
sVapply
p3861
F0.00019219388669588182
sVcanada
p3862
F0.0
sVgateway
p3863
F3.2032314449313634e-05
sVcloud
p3864
F0.0
sVtrimipramine
p3865
F0.0
sVconfidence
p3866
F5.224245471114252e-05
sVimpotency
p3867
F0.0
sVfeb
p3868
F0.0
sVtar
p3869
F6.406462889862727e-05
sVusa
p3870
F0.00010448490942228503
sVpainkiller
p3871
F0.0
sVviagra
p3872
F5.224245471114252e-05
sVflat
p3873
F2.3644348374969496e-05
sVnext
p3874
F0.00010631924471175589
sVprocess
p3875
F0.00012812925779725454
sVdoubt
p3876
F4.728869674993899e-05
sVtypical
p3877
F0.00019219388669588182
sVbottomless
p3878
F0.0
sVnoisy
p3879
F5.224245471114252e-05
sVweirdest
p3880
F5.224245471114252e-05
sVchip
p3881
F5.224245471114252e-05
sVnimodipine
p3882
F0.0
sVbetray
p3883
F0.0
sVsort
p3884
F6.910750906264133e-05
sVconfiscate
p3885
F0.0
sVsupposedly
p3886
F5.224245471114252e-05
sVdysfunctional
p3887
F0.0
sVmusician
p3888
F0.0
sVfrighten
p3889
F5.224245471114252e-05
sVtemazapam
p3890
F0.0
sVinfection
p3891
F0.00010448490942228503
sVweened
p3892
F0.0
sVlodge
p3893
F0.0
sVnearly
p3894
F4.784366012029015e-05
sVtrain
p3895
F0.00026121227355571257
sVim_just_curious_how_many_pills_do_you_take_on_a
p3896
F0.0
sVidra21
p3897
F0.0
sVrubbish
p3898
F5.224245471114252e-05
sV90mg
p3899
F0.0
sVbaby
p3900
F6.406462889862727e-05
sV4am
p3901
F0.0
sVharvest
p3902
F5.224245471114252e-05
sVincline
p3903
F0.0
sVannoy
p3904
F0.0003656971829779976
sVtopic
p3905
F0.00012812925779725454
sVaccount
p3906
F6.406462889862727e-05
sVgeodon
p3907
F0.0
sVlopressor
p3908
F0.0
sVf
p3909
F6.406462889862727e-05
sVlapse
p3910
F0.0
sVoh
p3911
F0.0006086139745369591
sVstroke
p3912
F0.00010448490942228503
sVmodalert
p3913
F0.0
sVoutlet
p3914
F0.0
sVdonut
p3915
F5.224245471114252e-05
sVunreal
p3916
F0.0
sVobvious
p3917
F8.084056104731554e-05
sVthin
p3918
F4.042028052365777e-05
sVpraise
p3919
F0.0
sVintrovert
p3920
F0.0
sVmeet
p3921
F0.0002562585155945091
sVpozac
p3922
F0.0
sVpersonality
p3923
F6.406462889862727e-05
sVdidnt
p3924
F0.0003656971829779976
sVdissolve
p3925
F0.0
sVsublingually
p3926
F0.0
sVrefine
p3927
F0.0
sVcontrol
p3928
F0.0012812925779725453
sVweaker
p3929
F5.224245471114252e-05
sVtab
p3930
F0.00012812925779725454
sVwaaaay
p3931
F0.0
sVamoxapine
p3932
F0.0
sVcalculation
p3933
F0.00020896981884457007
sVdrugsdb
p3934
F0.0
sVpharmacologically
p3935
F0.0
sVslim
p3936
F3.2032314449313634e-05
sVhalloween
p3937
F0.0
sVdependence
p3938
F0.0
sVhigh
p3939
F0.0
sVprofessor
p3940
F5.224245471114252e-05
sVtobacco
p3941
F3.2032314449313634e-05
sVcarrot
p3942
F5.224245471114252e-05
sVsomething
p3943
F0.0003242736963708555
sVslip
p3944
F0.00015672736413342754
sVdietician
p3945
F0.0
sVwonderful
p3946
F8.084056104731554e-05
sVmjne
p3947
F0.0
sVvoice
p3948
F9.609694334794091e-05
sVrape
p3949
F5.224245471114252e-05
sVlamb
p3950
F5.224245471114252e-05
sVcitalapram
p3951
F0.0
sVsyndrome
p3952
F0.0004804847167397046
sVlame
p3953
F0.00015672736413342754
sVstrongest
p3954
F5.224245471114252e-05
sVtrazadone
p3955
F0.0
sVsix
p3956
F0.00016016157224656817
sVawake
p3957
F0.00047018209240028266
sVdelay
p3958
F3.2032314449313634e-05
sVneed
p3959
F0.0008239741465161083
sVaurorix
p3960
F0.0
sVamtriptyline
p3961
F0.0
sVattachment
p3962
F5.224245471114252e-05
sVanimal
p3963
F2.3644348374969496e-05
sVwolf
p3964
F0.0
sVcomedy
p3965
F5.224245471114252e-05
sVintelligent
p3966
F3.2032314449313634e-05
sVstock
p3967
F4.042028052365777e-05
sVprofile
p3968
F0.0014734864646684272
sVcupboard
p3969
F0.0
sVattend
p3970
F6.406462889862727e-05
sVbyetta
p3971
F0.0
sVwatch
p3972
F0.0
sVyouve
p3973
F0.0
sVcollection
p3974
F3.2032314449313634e-05
sVdc
p3975
F0.0
sVnullify
p3976
F0.0
sVdoze
p3977
F0.0
sVdiscomfort
p3978
F0.0
sVabuse
p3979
F0.0003134547282668551
sVfatigue
p3980
F0.0
sVht1a
p3981
F0.0
sVnejm
p3982
F0.0
sVpopcorn
p3983
F5.224245471114252e-05
sVphysic
p3984
F0.0
sVdatura
p3985
F0.0
sVdrop
p3986
F0.00024252168314194662
sVxyrem
p3987
F0.0
sVbind
p3988
F0.0
sVcounter
p3989
F0.00012812925779725454
sVcapsule
p3990
F0.0012015764583562778
sVelement
p3991
F2.0210140261828886e-05
sV9am
p3992
F0.0
sVredditor
p3993
F0.0
sVharshly
p3994
F0.0
sVallow
p3995
F0.00047018209240028266
sVaddiction
p3996
F0.0
sVserotonergic
p3997
F0.0
sVha
p3998
F4.042028052365777e-05
sVevolutionary
p3999
F0.0
sVmute
p4000
F5.224245471114252e-05
sVmove
p4001
F0.0005052535065457221
sV800mg
p4002
F0.0
sVpropylhexedrine
p4003
F0.0
sVreport
p4004
F0.00019219388669588182
sVemsam
p4005
F0.0
sVselftext
p4006
F0.0
sVsleepier
p4007
F0.0
sVtreshold
p4008
F0.0
sVbrittle
p4009
F0.0
sVhorny
p4010
F5.224245471114252e-05
sVbunch
p4011
F0.00012126084157097331
sVperfect
p4012
F0.00012812925779725454
sV1
p4013
F0.0002764300362505653
sVcomplicate
p4014
F0.0
sVlb
p4015
F0.0
sVantipsychotic
p4016
F0.0
sVla
p4017
F5.315962235587795e-06
sVdr
p4018
F0.00020896981884457007
sVll
p4019
F0.00042527697884702355
sVent
p4020
F0.0
sVcriticize
p4021
F0.0
sVmeantime
p4022
F5.224245471114252e-05
sVvital
p4023
F5.224245471114252e-05
sVfirmly
p4024
F5.224245471114252e-05
sVchoose
p4025
F0.00018189126235645996
sVcommunication
p4026
F0.0
sV2015
p4027
F0.0
sV2014
p4028
F0.0
sV2017
p4029
F0.0
sVbye
p4030
F5.224245471114252e-05
sV2011
p4031
F0.0
sV2010
p4032
F0.0
sVfibrymyalgia
p4033
F0.0
sV2012
p4034
F0.0
sVdad
p4035
F0.00012126084157097331
sVhalflife
p4036
F0.0
sVcrash
p4037
F0.0001616811220946311
sVgreater
p4038
F6.406462889862727e-05
sVunclear
p4039
F3.2032314449313634e-05
sVanticonvulsant
p4040
F0.0
sVspell
p4041
F9.609694334794091e-05
sVfluff
p4042
F0.0
sVship
p4043
F1.1822174187484748e-05
sVmras
p4044
F0.0
sVmention
p4045
F0.0004244129454984066
sVsonata
p4046
F0.0
sVmandate
p4047
F5.224245471114252e-05
sVfront
p4048
F4.728869674993899e-05
sVliable
p4049
F0.0
sVcircadian
p4050
F0.0
sVday
p4051
F0.0
sVemotion
p4052
F0.00047018209240028266
sVsynaptic
p4053
F0.0
sVexcitability
p4054
F0.0
sVedit
p4055
F0.0011493340036451353
sVpanic
p4056
F0.0
sVuniversity
p4057
F0.00041793963768914014
sVdextromethorphan
p4058
F0.0
sVale
p4059
F0.0
sVmesolimbic
p4060
F0.0
sVunpredictable
p4061
F0.00010448490942228503
sVziggy
p4062
F0.0
sVlamictal
p4063
F0.0
sVtruth
p4064
F0.00041642008784107727
sVtoke
p4065
F0.0
sVpromise
p4066
F6.406462889862727e-05
sVtoxic
p4067
F0.0
sVdeteriorate
p4068
F0.0
sVerratic
p4069
F3.2032314449313634e-05
sVtraz
p4070
F0.0
sV5am
p4071
F0.00015672736413342754
sVunwind
p4072
F5.224245471114252e-05
sVactivate
p4073
F0.00022422620114519545
sVbump
p4074
F0.0
sVdensity
p4075
F9.609694334794091e-05
sVcelexa
p4076
F0.0
sVuwe
p4077
F0.0
sVconstitute
p4078
F0.0
sVdeficiency
p4079
F0.0
sVmeta
p4080
F6.406462889862727e-05
sVstatic
p4081
F0.00015672736413342754
sVidiotic
p4082
F0.0
sVmeasure
p4083
F2.0210140261828886e-05
sVmeth
p4084
F0.0
sVbay
p4085
F6.406462889862727e-05
sVsexual
p4086
F0.0020374557337345584
sVwander
p4087
F5.224245471114252e-05
sVagoraphobia
p4088
F0.0
sVmight
p4089
F0.00038806524319790907
sVirritability
p4090
F0.0
sVlicense
p4091
F3.2032314449313634e-05
sVklonipin
p4092
F0.0
sVlastly
p4093
F0.0
sVfundamentally
p4094
F5.224245471114252e-05
sVborderline
p4095
F5.224245471114252e-05
sVtwice
p4096
F8.084056104731554e-05
sVtriazolam
p4097
F0.0
sVpointless
p4098
F0.00020896981884457007
sVrep
p4099
F5.224245471114252e-05
sVyup
p4100
F0.0
sVreboot
p4101
F5.224245471114252e-05
sVupset
p4102
F0.00010448490942228503
sVmate
p4103
F2.0210140261828886e-05
sVsituational
p4104
F0.0
sVsever
p4105
F5.224245471114252e-05
sVrem
p4106
F0.0
sVlecture
p4107
F0.0
sVbrilliantly
p4108
F0.0
sVcause
p4109
F0.0006644952794484743
sVreg
p4110
F0.0
sVred
p4111
F2.126384894235118e-05
sVshut
p4112
F5.911087093742374e-05
sVphilosophy
p4113
F5.224245471114252e-05
sVspectrum
p4114
F0.0
sVwithdrawal
p4115
F0.0
sV8g
p4116
F0.0
sVban
p4117
F0.0
sVunipolar
p4118
F0.0
sVect
p4119
F0.0
sVtempt
p4120
F0.0
sVregulatory
p4121
F0.0
sVanyhow
p4122
F0.0
sVimpulsive
p4123
F0.0
sVlikelihood
p4124
F0.0
sVafterward
p4125
F0.0
sVlog
p4126
F5.224245471114252e-05
sVscary
p4127
F0.0003656971829779976
sV50mg
p4128
F0.0
sVbackwards
p4129
F2.3644348374969496e-05
sVorganic
p4130
F0.0
sVpun
p4131
F5.224245471114252e-05
sVg
p4132
F0.00024252168314194662
sVfart
p4133
F3.2032314449313634e-05
sVcould
p4134
F0.0
sVcompulsive
p4135
F0.00010448490942228503
sVlitterbox
p4136
F5.224245471114252e-05
sVfeasible
p4137
F5.224245471114252e-05
sVconversation
p4138
F5.911087093742374e-05
sVsleeplessness
p4139
F0.0
sV4th
p4140
F5.224245471114252e-05
sVstickler
p4141
F0.0
sVwrist
p4142
F5.224245471114252e-05
sVretail
p4143
F0.0
sVscare
p4144
F5.224245471114252e-05
sVsouth
p4145
F2.0210140261828886e-05
sVdexedrine
p4146
F0.0
sVconsciously
p4147
F0.0
sVexam
p4148
F0.00026121227355571257
sVbenzodiazepenes
p4149
F0.0
sVunwanted
p4150
F0.00020896981884457007
sVsuffix
p4151
F5.224245471114252e-05
sVimovane
p4152
F0.0
sVpowerful
p4153
F0.00015672736413342754
sVscene
p4154
F4.042028052365777e-05
sVstrategic
p4155
F0.0
sVsorority
p4156
F5.224245471114252e-05
sVspeedball
p4157
F5.224245471114252e-05
sVhurdle
p4158
F0.0
sVsubmit
p4159
F6.406462889862727e-05
sVdrastic
p4160
F0.0
sVdrinker
p4161
F5.224245471114252e-05
sVprobation
p4162
F0.0
sVstabilize
p4163
F0.0
sVcloser
p4164
F6.406462889862727e-05
sVmanagement
p4165
F5.224245471114252e-05
sVsadly
p4166
F0.0
sVmonkey
p4167
F3.2032314449313634e-05
sVfuckery
p4168
F0.0
sVstrict
p4169
F0.00015672736413342754
sVunknown
p4170
F3.2032314449313634e-05
sVhabit
p4171
F0.0
sVaccent
p4172
F2.0210140261828886e-05
sVsystem
p4173
F0.00014186609024981696
sVclomipramine
p4174
F0.0
sVattach
p4175
F5.224245471114252e-05
sVattack
p4176
F0.00028373218049963393
sVintermediate
p4177
F0.0
sVnbome
p4178
F0.0
sVpsychedelic
p4179
F0.0
sVhighest
p4180
F0.00010448490942228503
sVdrool
p4181
F0.0
sVneurotransmitter
p4182
F0.0
sVperfectly
p4183
F4.042028052365777e-05
sVsensitivity
p4184
F0.0
sVpainful
p4185
F0.0
sVbeard
p4186
F6.406462889862727e-05
sVshell
p4187
F3.2032314449313634e-05
sVstomach
p4188
F0.00032032314449313633
sVgear
p4189
F0.0
sVdoexpin
p4190
F0.0
sVexplanation
p4191
F5.224245471114252e-05
sVnobody
p4192
F0.00012812925779725454
sVunaffected
p4193
F0.0
sVsupervision
p4194
F0.0
sVmyfitnesspal
p4195
F0.0
sVsporadically
p4196
F5.224245471114252e-05
sVclearnet
p4197
F0.0
sVdiminish
p4198
F0.0
sVbotox
p4199
F0.0
sVhaven
p4200
F0.0004728869674993899
sVblind
p4201
F3.2032314449313634e-05
sVwaist
p4202
F3.2032314449313634e-05
sVsteel
p4203
F6.406462889862727e-05
sVben
p4204
F0.0
sVpregab
p4205
F0.0
sV10x
p4206
F0.0
sVpinelake
p4207
F0.0
sVbother
p4208
F9.609694334794091e-05
sVschizophrenia
p4209
F0.0003134547282668551
sVbed
p4210
F0.0013773895213204865
sVhalcyon
p4211
F0.0
sVopiate
p4212
F0.0
sVlight
p4213
F0.00015368826443730172
sVanytime
p4214
F5.224245471114252e-05
sVdoctorate
p4215
F0.0
sVtyrosine
p4216
F0.0
sVmisunderstand
p4217
F0.0
sVitchy
p4218
F0.0
sVexhibit
p4219
F5.224245471114252e-05
sVhavr
p4220
F0.0
sVfalse
p4221
F8.084056104731554e-05
sVmflb
p4222
F0.0
sVcomfortable
p4223
F0.00016016157224656817
sVtide
p4224
F5.224245471114252e-05
sVunlikely
p4225
F0.0
sVreligiouspsychotics
p4226
F0.0
sVthroat
p4227
F3.546652256245424e-05
sVinduce
p4228
F0.0
sVdementia
p4229
F0.0
sVapparently
p4230
F0.00018189126235645996
sVclearly
p4231
F0.00010105070130914443
sVlisdexamfetamine
p4232
F0.0
sVmianserin
p4233
F0.0
sVtale
p4234
F3.2032314449313634e-05
sVhypnagogic
p4235
F0.0
sVangle
p4236
F5.224245471114252e-05
sVpsyche
p4237
F0.0
sVmin
p4238
F0.00020896981884457007
sVrout
p4239
F0.0
sVagency
p4240
F5.224245471114252e-05
sVphysique
p4241
F0.0
sVmid
p4242
F4.042028052365777e-05
sVmechanism
p4243
F0.0
sVarm
p4244
F2.0210140261828886e-05
sVmix
p4245
F0.00046483322602206435
sVlope
p4246
F0.0
sVahold
p4247
F5.224245471114252e-05
sVhonestly
p4248
F0.0004484524022903909
sVpharmacist
p4249
F0.0
sVcoke
p4250
F0.00010448490942228503
sVaccuracy
p4251
F0.0
sVphonecalls
p4252
F0.0
sVnorepenphrine
p4253
F0.0
sVmileage
p4254
F0.0
sVunless
p4255
F0.0001616811220946311
sVprednisone
p4256
F0.0
sVsfx
p4257
F0.0
sVcentre
p4258
F5.224245471114252e-05
sVflipside
p4259
F0.0
sVsfw
p4260
F0.0
sVprocure
p4261
F0.0
sVharmful
p4262
F0.0
sVuseful
p4263
F0.00047018209240028266
sVamazon435hm6h3ye
p4264
F0.0
sVht
p4265
F0.0
sVlunesta
p4266
F0.0
sVdevice
p4267
F4.042028052365777e-05
sVcabinet
p4268
F0.00010448490942228503
sVclass
p4269
F0.0004847091416868747
sVstarve
p4270
F0.00010448490942228503
sV07
p4271
F3.2032314449313634e-05
sVdeny
p4272
F0.00015672736413342754
sVplacement
p4273
F5.224245471114252e-05
sVhyperthyroidism
p4274
F0.0
sVcounteract
p4275
F0.0
sVgather
p4276
F6.406462889862727e-05
sVstronger
p4277
F0.00010448490942228503
sVdisease
p4278
F0.00012812925779725454
sVface
p4279
F9.457739349987799e-05
sVpipe
p4280
F2.0210140261828886e-05
sVgeneration
p4281
F0.0
sVballons
p4282
F0.0
sVdesvenlafaxine
p4283
F0.0
sVguinea
p4284
F0.0
sVoccasion
p4285
F9.609694334794091e-05
sVskinny
p4286
F0.00026121227355571257
sVmonotherapy
p4287
F0.0
sVnormally
p4288
F0.0002882908300438227
sVnortryptiline
p4289
F0.0
sVfact
p4290
F0.0004244129454984066
sV50
p4291
F0.0006383974061241764
sVdrunken
p4292
F0.00010448490942228503
sVatmosphere
p4293
F5.224245471114252e-05
sVtext
p4294
F0.00019219388669588182
sVindoor
p4295
F0.0011493340036451353
sVanyway
p4296
F0.0003233622441892622
sVsublingual
p4297
F0.0
sVbrother
p4298
F6.406462889862727e-05
sVvistaril
p4299
F0.0
sVbring
p4300
F6.910750906264133e-05
sVbedroom
p4301
F5.224245471114252e-05
sVrough
p4302
F0.00012812925779725454
sV2013
p4303
F0.0
sVtrivial
p4304
F0.0
sVdbt
p4305
F0.0
sVdecade
p4306
F6.406462889862727e-05
sVstaff
p4307
F5.224245471114252e-05
sVlitigation
p4308
F0.0
sVpause
p4309
F1.1822174187484748e-05
sVknowledge
p4310
F6.406462889862727e-05
sVtire
p4311
F0.0010250340623780363
sVellaborate
p4312
F0.0
sVwelbutrin
p4313
F0.0
sVnitrous
p4314
F0.0
sVclomiphene
p4315
F0.0
sVemployer
p4316
F0.0
sVprolong
p4317
F0.0
sVreactive
p4318
F0.0
sV60mg
p4319
F0.0
sVjam
p4320
F1.1822174187484748e-05
sVcombo
p4321
F0.0007836368206671378
sVfuel
p4322
F0.0
sVvarious
p4323
F0.00018189126235645996
sVamplify
p4324
F0.0
sVlocal
p4325
F6.406462889862727e-05
sVhope
p4326
F0.00014353098036087045
sVregularly
p4327
F0.00015672736413342754
sVinsight
p4328
F5.224245471114252e-05
sVhandle
p4329
F0.00010639956768736272
sV2013conference
p4330
F0.0
sVpharmacology
p4331
F0.0
sVantagonism
p4332
F0.0
sVbeat
p4333
F0.00010105070130914443
sVfamiliar
p4334
F9.609694334794091e-05
sVdope
p4335
F5.224245471114252e-05
sVcranky
p4336
F0.0
sVlucky
p4337
F0.00010105070130914443
sVgeneralise
p4338
F0.0
sVpathophysiology
p4339
F0.0
sVjoint
p4340
F0.00026121227355571257
sVholster
p4341
F0.0
sVmolasses
p4342
F0.0
sV125
p4343
F0.0
sVprobably
p4344
F0.0004492426191244204
sVclondine
p4345
F0.0
sVymmv
p4346
F0.0
sVsimpler
p4347
F5.224245471114252e-05
sVtecas
p4348
F0.0
sVantagonist
p4349
F0.0
sVendless
p4350
F3.2032314449313634e-05
sVsmash
p4351
F0.00010448490942228503
sVarmodafinil
p4352
F0.0
sVmetabolite
p4353
F0.0
sVorgan
p4354
F0.00015672736413342754
sVht2a
p4355
F0.0
sVupper
p4356
F5.224245471114252e-05
sVapproach
p4357
F0.00016016157224656817
sVstanford
p4358
F0.0
sVthalamic
p4359
F0.0
sVoptimally
p4360
F0.0
sVstuff
p4361
F0.0007275650494258398
sVblogspot
p4362
F0.0
sVgram
p4363
F0.0
sVavoidable
p4364
F0.0
sVdangerous
p4365
F0.00022231154288011772
sV2990008
p4366
F0.0
sV11am
p4367
F0.0
sVnadolol
p4368
F0.0
sVopiod
p4369
F0.0
sVgabapentin
p4370
F0.0
sVenhancer
p4371
F0.0
sVavailable
p4372
F0.0002829419636656044
sVbtw
p4373
F0.0
sVtemporarily
p4374
F5.224245471114252e-05
sVresort
p4375
F0.0
sVexpel
p4376
F0.0
sVremeronfeels
p4377
F0.0
sVframe
p4378
F3.2032314449313634e-05
sVgroggy
p4379
F0.0
sVreddit
p4380
F0.0
sVcbt
p4381
F0.0
sVintensity
p4382
F0.00015672736413342754
sVwd
p4383
F0.0
sVpowder
p4384
F0.00016016157224656817
sVdesperate
p4385
F5.224245471114252e-05
sVrecently
p4386
F0.00011822174187484748
sVdysmorphia
p4387
F0.0
sVminature
p4388
F0.0
sVbth
p4389
F0.0
sVdanger
p4390
F3.546652256245424e-05
sVinterview
p4391
F5.224245471114252e-05
sVcomputer
p4392
F0.00012812925779725454
sVdeltasone
p4393
F0.0
sVglucophage
p4394
F0.0
sVlux
p4395
F0.0
sVpattern
p4396
F0.0
sVnightmare
p4397
F0.00018189126235645996
sVhorribly
p4398
F0.0
sVsadness
p4399
F0.0
sVwillpower
p4400
F0.0
sVtend
p4401
F0.001515031186623133
sVinvega
p4402
F0.0
sVfavor
p4403
F3.2032314449313634e-05
sVstate
p4404
F0.0005860940675930377
sVlel
p4405
F0.0
sVcorrectly
p4406
F2.0210140261828886e-05
sVroutine
p4407
F0.00019219388669588182
sVprogress
p4408
F2.3644348374969496e-05
sVboundary
p4409
F0.00010448490942228503
sVemail
p4410
F6.406462889862727e-05
sVmidnight
p4411
F0.00016016157224656817
sVethic
p4412
F0.0
sVcomparable
p4413
F0.0
sVsole
p4414
F0.0
sVaddin
p4415
F0.0
sVsuperior
p4416
F0.0
sVwk
p4417
F0.0
sVcourt
p4418
F3.2032314449313634e-05
sVhowever
p4419
F0.0016336480369149953
sVmarley
p4420
F0.0
sVnegligible
p4421
F0.0
sVpsycho
p4422
F0.00010448490942228503
sVhypothesis
p4423
F5.224245471114252e-05
sVdibilitating
p4424
F0.0
sVkey
p4425
F2.0210140261828886e-05
sVdeliriant
p4426
F0.0
sVparadoxically
p4427
F0.00010448490942228503
sVlegit
p4428
F0.00010448490942228503
sVmonitor
p4429
F5.224245471114252e-05
sVintubate
p4430
F0.0
sVketo
p4431
F0.0
sVinstant
p4432
F6.406462889862727e-05
sVcareer
p4433
F3.2032314449313634e-05
sVdissonance
p4434
F0.0
sVpurple
p4435
F0.00010448490942228503
sVescape
p4436
F4.728869674993899e-05
sVequal
p4437
F0.00020896981884457007
sVcortef
p4438
F0.0
sVetc
p4439
F0.0001860586782455728
sVdeter
p4440
F0.0
sVeta
p4441
F0.0
sVgrain
p4442
F0.0
sVcover
p4443
F0.00014186609024981696
sVcatastrophic
p4444
F0.0
sVbehaviour
p4445
F3.2032314449313634e-05
sVswallow
p4446
F9.609694334794091e-05
sVplacebo
p4447
F0.0
sVsafely
p4448
F5.224245471114252e-05
sVjourney
p4449
F0.0
sVotherwise
p4450
F0.0003031521039274333
sVcomment
p4451
F0.0004804847167397046
sVstrongly
p4452
F0.0
sVinflammatory
p4453
F0.0
sVco
p4454
F0.00012812925779725454
sVwtf
p4455
F0.0
sVindica
p4456
F0.0
sVafaik
p4457
F0.0
sVpmc3894718
p4458
F0.0
sVinvasive
p4459
F0.0
sVca
p4460
F5.224245471114252e-05
sVhaloperidol
p4461
F0.0
sVwalk
p4462
F0.0003839926649747488
sVsubscribe
p4463
F0.0
sVprojector
p4464
F5.224245471114252e-05
sVlaugh
p4465
F2.0210140261828886e-05
sVstabile
p4466
F0.0
sVrespect
p4467
F0.00012126084157097331
sVpulmonary
p4468
F0.0
sVrosiglitazone
p4469
F0.0
sVprebiotics
p4470
F0.0
sV600
p4471
F3.2032314449313634e-05
sVapril
p4472
F0.0
sVshudder
p4473
F0.0
sVhawkins
p4474
F0.0
sVinhale
p4475
F0.00010448490942228503
sVyay
p4476
F0.0
sVaddition
p4477
F0.0003656971829779976
sVoxidase
p4478
F0.0
sVspike
p4479
F0.00010448490942228503
sVbbc
p4480
F5.224245471114252e-05
sVcent
p4481
F5.224245471114252e-05
sVsnort
p4482
F5.224245471114252e-05
sVshame
p4483
F3.2032314449313634e-05
sVimmense
p4484
F0.0
sVgenetic
p4485
F0.0
sVpermanent
p4486
F8.084056104731554e-05
sVslowly
p4487
F0.00012126084157097331
sVdrowsy
p4488
F0.0
sVah
p4489
F0.0
sVsars
p4490
F0.0
sVkitchen
p4491
F5.224245471114252e-05
sVsoma
p4492
F0.0
sVleague
p4493
F0.0
sVroute
p4494
F6.0630420785486655e-05
sVcruddy
p4495
F0.0
sVinformative
p4496
F5.224245471114252e-05
sVanorgasmia
p4497
F0.0
sV1200
p4498
F0.0
sVbulk
p4499
F0.0
sVdecaf
p4500
F5.224245471114252e-05
sVcontroller
p4501
F0.0
sVplanner
p4502
F3.2032314449313634e-05
sVminneapolis
p4503
F0.0
sVhobby
p4504
F0.00010448490942228503
sVprescription
p4505
F0.0
sVfellow
p4506
F5.224245471114252e-05
sVgunpowder
p4507
F5.224245471114252e-05
sVcruel
p4508
F3.2032314449313634e-05
sVspain
p4509
F0.0
sVmulti
p4510
F2.0210140261828886e-05
sVoregon_sheriff_wrote_gun_control_is_not_the
p4511
F0.0
sVirregular
p4512
F5.224245471114252e-05
sVunlike
p4513
F0.0001414709818328022
sVkava
p4514
F0.0
sVoveruse
p4515
F0.0
sVplain
p4516
F2.0210140261828886e-05
sVappearance
p4517
F4.042028052365777e-05
sVheadspace
p4518
F0.0
sVvalue
p4519
F5.911087093742374e-05
sVmiddle
p4520
F5.911087093742374e-05
sV160mg
p4521
F0.0
sVcannabinoids
p4522
F0.0
sVerowid
p4523
F0.0
sVfault
p4524
F2.3644348374969496e-05
sVvenlaxfine
p4525
F0.0
sVbathtub
p4526
F5.224245471114252e-05
sVrestless
p4527
F0.0
sVdiscontinuation
p4528
F0.0
sVbcguidelines
p4529
F0.0
sVmanicy
p4530
F0.0
sVtimolol
p4531
F0.0
sVaw
p4532
F0.0
sVhome
p4533
F0.00023644348374969495
sValmost
p4534
F0.00020200656495233618
sVvape
p4535
F0.0
sVinsanely
p4536
F0.0
sVthus
p4537
F0.00012812925779725454
sVsite
p4538
F0.0001616811220946311
sVencouragement
p4539
F0.0
sVsustenance
p4540
F0.0
sVavm
p4541
F0.0
sVinform
p4542
F5.224245471114252e-05
sVdual
p4543
F9.609694334794091e-05
sVlightweight
p4544
F5.224245471114252e-05
sVpartner
p4545
F0.00016016157224656817
sVconserve
p4546
F0.0
sVmirtazapine2dacs
p4547
F0.0
sVhappy
p4548
F0.00021279913537472543
sVpresent
p4549
F3.721173564911456e-05
sVimpossible
p4550
F0.00022422620114519545
sVgeneric
p4551
F0.0005746670018225677
sVtemptation
p4552
F3.2032314449313634e-05
sVadministration
p4553
F5.224245471114252e-05
sVcross
p4554
F2.126384894235118e-05
sVunite
p4555
F0.0
sVmember
p4556
F0.00010448490942228503
sVadverse
p4557
F0.0
sVstrange
p4558
F0.00015368826443730172
sVflower
p4559
F0.0
sVinfarction
p4560
F0.0
sV1996
p4561
F5.224245471114252e-05
sVparty
p4562
F0.0007687755467835273
sVdisorient
p4563
F0.0
sVmildly
p4564
F0.0
sVtighten
p4565
F0.0
sVball
p4566
F2.0210140261828886e-05
sVpractitioner
p4567
F0.0
sVcontext
p4568
F6.406462889862727e-05
sVemotionally
p4569
F0.0003134547282668551
sVdusk
p4570
F0.0
sVfluoxoetine
p4571
F0.0
sVdrink
p4572
F0.00020200656495233618
sVupon
p4573
F2.3644348374969496e-05
sVeffect
p4574
F0.0007973943353381692
sVfucker
p4575
F5.224245471114252e-05
sVphd
p4576
F0.0
sVberberine
p4577
F0.0
sV80
p4578
F0.0
sVtragically
p4579
F0.0
sVpsychothropic
p4580
F0.0
sVstudent
p4581
F0.00016016157224656817
sVvariance
p4582
F0.0
sVovertake
p4583
F0.0
sVdelsym
p4584
F0.0
sVphp
p4585
F0.00010448490942228503
sVbroccoli
p4586
F0.0
sVidentity
p4587
F0.0003134547282668551
sVdiabetes
p4588
F0.0008358792753782803
sVretard
p4589
F0.00015672736413342754
sVfascinate
p4590
F0.0
sVneural
p4591
F0.0
sVapprove
p4592
F0.00015672736413342754
sVespeciallyl
p4593
F0.0
sVnonetheless
p4594
F3.2032314449313634e-05
sVwell
p4595
F0.0
sVcave
p4596
F5.224245471114252e-05
sVhistamine
p4597
F0.0
sVthought
p4598
F0.00030737652887460345
sVoops
p4599
F5.224245471114252e-05
sVdeadly
p4600
F0.0
sVfirstly
p4601
F0.0
sVposition
p4602
F1.1822174187484748e-05
sVmuscle
p4603
F0.00015672736413342754
sVloss
p4604
F0.0006086139745369591
sVrush
p4605
F2.0210140261828886e-05
sVusual
p4606
F0.0005746670018225677
sVreligiouspsychotic
p4607
F0.0
sVmeathead
p4608
F5.224245471114252e-05
sVnewest
p4609
F5.224245471114252e-05
sVrocket
p4610
F0.0
sVheavily
p4611
F3.2032314449313634e-05
sVbiological
p4612
F0.0
sVpercent
p4613
F0.0002562585155945091
sVhalf
p4614
F0.00014353098036087045
sVobtain
p4615
F0.0
sVdose
p4616
F0.006948246476581955
sVclinic
p4617
F0.0
sVrecollection
p4618
F5.224245471114252e-05
sVdistant
p4619
F6.406462889862727e-05
sVloperamide
p4620
F0.0
sVlocalize
p4621
F5.224245471114252e-05
sVpaul
p4622
F0.0
sVcitalorpram
p4623
F0.0
sVtcas
p4624
F0.0
sVcoordination
p4625
F0.0
sVdistress
p4626
F5.224245471114252e-05
sVdisturbance
p4627
F5.224245471114252e-05
sVoversleep
p4628
F0.0
sVrepetitious
p4629
F0.0
sVbowl
p4630
F0.00015672736413342754
sVtheroadback
p4631
F0.0
sVpoint
p4632
F0.0002923779229573287
sVvyvanse
p4633
F0.0
sVrealize
p4634
F0.0008358792753782803
sVadd
p4635
F0.0004042028052365777
sVlower
p4636
F0.0005438200126242984
sVcombine
p4637
F0.00035235545894245
sVhydrate
p4638
F0.0
sVexempt
p4639
F0.0
sVreason
p4640
F0.0003901317481869967
sVreenact
p4641
F0.0
sVsmart
p4642
F3.2032314449313634e-05
sVkick
p4643
F0.0003031521039274333
sVidentical
p4644
F3.2032314449313634e-05
sVwont
p4645
F0.00026121227355571257
sVmyth
p4646
F5.224245471114252e-05
sVgovernment
p4647
F3.2032314449313634e-05
sVadmit
p4648
F0.0
sVcpap
p4649
F0.0
sVfyi
p4650
F0.0
sVfoster
p4651
F5.224245471114252e-05
sVinderall
p4652
F0.0
sVfive
p4653
F2.126384894235118e-05
sVknow
p4654
F0.0010312966737040321
sVimmediately
p4655
F6.0630420785486655e-05
sVnvm
p4656
F0.0
sV2nd
p4657
F9.609694334794091e-05
sVprominent
p4658
F5.224245471114252e-05
sVbenadryl
p4659
F0.0
sVtl
p4660
F0.0
sVcrisp
p4661
F5.224245471114252e-05
sVemetophobia
p4662
F0.0
sVsuccess
p4663
F0.00032032314449313633
sVsafest
p4664
F0.0
sVsofa
p4665
F0.0
sVring
p4666
F0.00012812925779725454
sV3grams
p4667
F0.0
sVcandy
p4668
F5.224245471114252e-05
sVworky
p4669
F0.0
sVrozerm
p4670
F0.0
sVtranscranial
p4671
F0.0
sVheed
p4672
F5.224245471114252e-05
sVlose
p4673
F0.00021263848942351177
sVamitryptiline
p4674
F0.0
sVbecome
p4675
F0.00016479482930322164
sVsoft
p4676
F1.1822174187484748e-05
sVconversely
p4677
F0.0
sVpersist
p4678
F0.00020896981884457007
sVtherapeutic
p4679
F0.0
sVopioid
p4680
F0.0
sVklonopin
p4681
F0.0
sVstimulate
p4682
F0.0
sVstereoisomers
p4683
F0.0
sVhereis
p4684
F0.0
sVfeast
p4685
F3.2032314449313634e-05
sVchurch
p4686
F3.2032314449313634e-05
sVbriefly
p4687
F5.224245471114252e-05
sValive
p4688
F2.3644348374969496e-05
sVphenylalanine
p4689
F0.0
sVhydrocortisone
p4690
F0.0
sVdaylight
p4691
F5.224245471114252e-05
sVfrisbee
p4692
F0.0
sVstory
p4693
F0.0004804847167397046
sVflush
p4694
F0.00010448490942228503
sVproper
p4695
F0.00011822174187484748
sVfaint
p4696
F0.00010448490942228503
sVsupportive
p4697
F0.0
sVmodulate
p4698
F0.0
sVrecognition
p4699
F5.224245471114252e-05
sVpsychoanalyst
p4700
F0.0
sVprojection
p4701
F0.0
sVpropofol
p4702
F0.0
sVlead
p4703
F0.00033102087724957296
sVesp
p4704
F0.0
sVliterally
p4705
F0.00041642008784107727
sVavoid
p4706
F0.00026008783212466447
sVextra
p4707
F0.00010105070130914443
sVconstantly
p4708
F0.0001414709818328022
sVtad
p4709
F0.0
sVsustain
p4710
F0.0
sVpassion
p4711
F2.0210140261828886e-05
sVinflammation
p4712
F0.0
sVpatricia
p4713
F0.0
sVwhereas
p4714
F0.00015672736413342754
sVtrap
p4715
F0.0
sVgratitude
p4716
F5.224245471114252e-05
sVrealise
p4717
F0.0
sVproud
p4718
F3.2032314449313634e-05
sVschedule
p4719
F0.0005224245471114251
sVjournal
p4720
F0.0
sV136lbs
p4721
F0.0
sVability
p4722
F0.00038438777339176364
sVoverall
p4723
F0.00041793963768914014
sVpressure
p4724
F0.0012015764583562778
sVhost
p4725
F2.0210140261828886e-05
sVimmature
p4726
F0.0
sValthough
p4727
F0.0002955543546871187
sVworthy
p4728
F3.2032314449313634e-05
sVorganon_international
p4729
F0.0
sVstay
p4730
F0.0003901317481869967
sVperiodically
p4731
F3.2032314449313634e-05
sVcarbamazepine
p4732
F0.0
sVstage
p4733
F2.0210140261828886e-05
sV250mics
p4734
F0.0
sVmirtazepine
p4735
F0.0
sVlifestyle
p4736
F0.00020896981884457007
sVsocket
p4737
F0.0
sV6am
p4738
F0.0
sVcolumn
p4739
F0.00010448490942228503
sVhaired
p4740
F0.00010448490942228503
sVdilaudid
p4741
F0.0
sVharder
p4742
F0.00019219388669588182
sVingest
p4743
F0.0
sVsurge
p4744
F0.0
sVdependency
p4745
F0.00026121227355571257
sVfear
p4746
F0.00012126084157097331
sVa2
p4747
F0.0
sVsweat
p4748
F0.00015672736413342754
sVgainer
p4749
F0.0
sVatheist
p4750
F0.00041793963768914014
sVtongue
p4751
F4.042028052365777e-05
sVtuesday
p4752
F0.0
sV30ml
p4753
F0.0
sVduloxetine
p4754
F0.0
sVowl
p4755
F0.0
sVequally
p4756
F0.0
sVrestorative
p4757
F0.0
sVfinal
p4758
F2.3644348374969496e-05
sVwilderness
p4759
F5.224245471114252e-05
sVperfusion
p4760
F0.0
sVpreviously
p4761
F0.00020896981884457007
sVh1
p4762
F0.0
sVyear
p4763
F0.0006432314305061231
sVfunctional
p4764
F0.00020896981884457007
sVcyclobenzaprine
p4765
F0.0
sVchronic
p4766
F0.0005746670018225677
sVdoesnt
p4767
F0.00016016157224656817
sVreceptor
p4768
F0.0
sVesteem
p4769
F5.224245471114252e-05
sVfemale
p4770
F4.042028052365777e-05
sVilegally
p4771
F0.0
sVunproductive
p4772
F0.0
sVforget
p4773
F0.00024252168314194662
sVndri
p4774
F0.0
sVwack
p4775
F5.224245471114252e-05
sVprozac
p4776
F0.0
sVcarbon
p4777
F0.0
sVadditional
p4778
F9.609694334794091e-05
sVvolinanserin
p4779
F0.0
sVtransfer
p4780
F3.2032314449313634e-05
sVoutline
p4781
F5.224245471114252e-05
sVreduction
p4782
F0.00010448490942228503
sVrcs
p4783
F0.0
sVoverestimate
p4784
F0.0
sVintention
p4785
F0.0
sVlonely
p4786
F0.00016016157224656817
sVinner
p4787
F4.042028052365777e-05
sVfrustration
p4788
F0.0
sVbiggest
p4789
F0.00016016157224656817
sVexposure
p4790
F0.0
sVuncontrollable
p4791
F0.0
sVnaturally
p4792
F5.224245471114252e-05
sVfunction
p4793
F0.0008358792753782803
sVbuy
p4794
F0.00020210140261828886
sVnorth
p4795
F2.0210140261828886e-05
sVpd
p4796
F0.0
sVdextroamphetamine
p4797
F0.0
sVpersistent
p4798
F0.00012812925779725454
sVhr
p4799
F0.00010448490942228503
sVbus
p4800
F5.224245471114252e-05
sVbrand
p4801
F6.0630420785486655e-05
sVfuture
p4802
F4.728869674993899e-05
sVcarbs
p4803
F0.00020896981884457007
sVweight
p4804
F0.002187102224684678
sVescrow
p4805
F0.0
sVvolume
p4806
F5.224245471114252e-05
sVbuh
p4807
F0.0
sVhi
p4808
F0.00010448490942228503
sVvalerian
p4809
F0.0
sVgain
p4810
F0.004965008739643614
sVnut
p4811
F0.00010448490942228503
sVlarger
p4812
F4.042028052365777e-05
sVphenelzineu
p4813
F0.0
sVear
p4814
F0.00010448490942228503
sVeat
p4815
F0.0011585730703735052
sVbud
p4816
F0.0
sVpartially
p4817
F3.2032314449313634e-05
sVcount
p4818
F0.00041642008784107727
sVweening
p4819
F0.0
sVlovely
p4820
F2.0210140261828886e-05
sVwise
p4821
F0.00015672736413342754
sVevident
p4822
F0.00020896981884457007
sVwhether
p4823
F4.784366012029015e-05
sVwish
p4824
F0.0001616811220946311
sVsmooth
p4825
F2.0210140261828886e-05
sVflip
p4826
F0.00010448490942228503
sVdistract
p4827
F0.0
sVambien
p4828
F0.0
sVrecord
p4829
F0.00012812925779725454
sVetifoxine
p4830
F0.0
sVconvince
p4831
F8.084056104731554e-05
sVlimit
p4832
F0.00016016157224656817
sVhand
p4833
F0.0
sVinvest
p4834
F0.0
sVadderall
p4835
F0.0
sVproblem
p4836
F0.0009457739349987798
sVpm
p4837
F0.0
sVantidepressives
p4838
F0.0
sVinstead
p4839
F0.0003031521039274333
sVobese
p4840
F0.00010448490942228503
sVwhatever
p4841
F0.00016551043862478648
sVrecognize
p4842
F3.2032314449313634e-05
sVeesh
p4843
F0.0
sVcontribute
p4844
F0.00010448490942228503
sVpig
p4845
F3.2032314449313634e-05
sVedronax
p4846
F0.0
sVwiki_test_kit__suppliers
p4847
F0.0
sVjudgemental
p4848
F5.224245471114252e-05
sVsneak
p4849
F0.00010448490942228503
sVeducation
p4850
F5.224245471114252e-05
sVpit
p4851
F5.224245471114252e-05
sVautism
p4852
F0.0
sVworse
p4853
F0.0002955543546871187
sVhospitalization
p4854
F0.0
sVescitlopram
p4855
F0.0
sVefficacy
p4856
F0.0
sV48
p4857
F3.2032314449313634e-05
sVvariety
p4858
F0.00012812925779725454
sVtenth
p4859
F3.2032314449313634e-05
sV45
p4860
F0.00012126084157097331
sVoffensive
p4861
F3.2032314449313634e-05
sVdetail
p4862
F0.00012812925779725454
sV40
p4863
F0.0003031521039274333
sVlately
p4864
F9.609694334794091e-05
sVsurreal
p4865
F0.0
sVfinish
p4866
F0.00012126084157097331
sVbook
p4867
F0.00016016157224656817
sVguarantee
p4868
F0.00026121227355571257
sVspecial
p4869
F1.063192447117559e-05
sVsick
p4870
F0.0010448490942228503
sVziprasidone
p4871
F0.0
sVhpa
p4872
F0.0
sVer
p4873
F0.00010105070130914443
sVstimulant
p4874
F0.0
sVconclusion
p4875
F3.2032314449313634e-05
sVloner
p4876
F0.0
sVcategory
p4877
F6.406462889862727e-05
sVbooze
p4878
F0.00010448490942228503
sVfrancisco
p4879
F0.0
sVstar
p4880
F2.0210140261828886e-05
sVmonday
p4881
F0.0
sVtraumatic
p4882
F0.0
sVworker
p4883
F0.00015672736413342754
sVthereafter
p4884
F0.0
sVjune
p4885
F0.0
sVultimately
p4886
F0.00015672736413342754
sVinherently
p4887
F0.0
sVvalproate
p4888
F0.0
sVmargaret
p4889
F0.0
sVchance
p4890
F0.00010639956768736272
sVaugmentation
p4891
F0.0
sVkinda
p4892
F0.00026121227355571257
sVidiopathic
p4893
F0.0
sVgodsend
p4894
F0.0
sVsilenor
p4895
F0.0
sVmatrix
p4896
F5.224245471114252e-05
sVcontraceptive
p4897
F0.0
sVramble
p4898
F0.0
sVrisperdal
p4899
F0.0
sVresolution
p4900
F3.2032314449313634e-05
sVmoderation
p4901
F0.0
sVrule
p4902
F0.0002882908300438227
sVaetna
p4903
F0.0
sVportion
p4904
F5.224245471114252e-05
sV_apasserby_
p4905
F0.0
sVstirrer
p4906
F0.0
sVsimpson
p4907
F0.0
sVdiagnosis
p4908
F0.0
sVnorepherine
p4909
F0.0
sVyell
p4910
F0.00026121227355571257
sVindirectly
p4911
F0.0
sVgrocery
p4912
F0.00010448490942228503
s.