(dp0
Vbloodstream
p1
F0.0008905365155209019
sVnitrazepam
p2
F0.0
sVconsider
p3
F0.0002015234135726463
sVkeep
p4
F0.00027185122782398796
sVpersonally
p5
F0.0002015234135726463
sVresults
p6
F0.0005460299645467742
sVmonth
p7
F0.0004030468271452926
sVleo_sternbach
p8
F0.0
sVtoggle
p9
F0.0017810730310418039
sVsleep
p10
F0.002067039305844767
sVper
p11
F0.0005460299645467742
sVcontroversial
p12
F0.0008905365155209019
sVtalks
p13
F0.0017810730310418039
sVappetite
p14
F0.0008905365155209019
sVresearch
p15
F0.0017810730310418039
sVpts
p16
F0.0
sVaggression
p17
F0.0
sVboxload
p18
F0.0
sVwhose
p19
F0.0002015234135726463
sVcertainly
p20
F0.0008060936542905852
sVdoom
p21
F0.0
sVwish
p22
F0.0003445065509741278
sVunconsciousness
p23
F0.0
sVside_effects
p24
F0.0
sVparticipants
p25
F0.0
sVsend
p26
F0.0002015234135726463
sVendings
p27
F0.0008905365155209019
sVfinally
p28
F0.0005460299645467742
sVautowikibot
p29
F0.0
sVequivalency
p30
F0.0
sVsafety
p31
F0.0005460299645467742
sVsorry
p32
F0.0002015234135726463
sVfatal
p33
F0.0005460299645467742
sVworth
p34
F0.0006890131019482556
sVsound
p35
F0.0002015234135726463
sVconfirmation
p36
F0.0008905365155209019
sVintense
p37
F0.0010920599290935484
sVworse
p38
F0.0004030468271452926
sVbroadly
p39
F0.0
sVbenzodiazepines
p40
F0.0
sVfar
p41
F0.0001812341518826586
sVnordazepam
p42
F0.0
sVeducated
p43
F0.0005460299645467742
sVrise
p44
F0.0005460299645467742
sVimporant
p45
F0.0
sVchoice
p46
F0.0003445065509741278
sVliability
p47
F0.0
sVmaxrows
p48
F0.0
sVworst
p49
F0.002184119858187097
sVdecide
p50
F0.0005460299645467742
sVawful
p51
F0.0006890131019482556
sVaffect
p52
F0.0008905365155209019
sVcolloquially
p53
F0.0
sVdifference
p54
F0.0005460299645467742
sVscreaming
p55
F0.0005460299645467742
sVtreating
p56
F0.0017810730310418039
sVbzcha01
p57
F0.0
sVtheanine
p58
F0.0
sVmagic
p59
F0.0005460299645467742
sVopioids
p60
F0.0
sVimmediately
p61
F0.0003445065509741278
sVdie
p62
F0.0004030468271452926
sVcommenter
p63
F0.0
sVlist
p64
F0.0006890131019482556
sVcommons
p65
F0.0
sVcorrect
p66
F0.0005460299645467742
sVlarge
p67
F0.0
sVp
p68
F0.0003445065509741278
sVsedation
p69
F0.0
sVsmall
p70
F0.0003624683037653172
sVenhance
p71
F0.0003445065509741278
sVguy
p72
F0.0006890131019482556
sVprevent
p73
F0.0005460299645467742
sVabbreviated
p74
F0.0
sVsmaller
p75
F0.0003445065509741278
sVforce
p76
F0.0003445065509741278
sVfadiman
p77
F0.0
sVoverdoses
p78
F0.0
sVhtm
p79
F0.0017810730310418039
sVgrabs
p80
F0.0006890131019482556
sVpast
p81
F0.0002015234135726463
sVgabaa_receptor
p82
F0.0
sVzero
p83
F0.0005460299645467742
sVgo
p84
F0.0
sVpass
p85
F0.0002015234135726463
sVacid
p86
F0.0005460299645467742
sVquite
p87
F0.0001812341518826586
sVeven
p88
F0.0008155536834719638
sVindex
p89
F0.0008905365155209019
sVrelieving
p90
F0.0
sVcombined
p91
F0.0005460299645467742
sVgiving
p92
F0.0002015234135726463
sVmarketed
p93
F0.0
sVbarbiturate
p94
F0.0
sV25mg
p95
F0.0
sVcurrent
p96
F0.0003445065509741278
sValprazolam
p97
F0.0
sVen
p98
F0.02566340833369839
sVever
p99
F9.06170759413293e-05
sVequivalent
p100
F0.0010920599290935484
sVphp
p101
F0.0008905365155209019
sVparadoxical
p102
F0.0
sVbody
p103
F9.06170759413293e-05
sVdiazepam
p104
F0.0
sVms
p105
F0.0008905365155209019
sVstance
p106
F0.0
sVhealthcare
p107
F0.0
sVnever
p108
F0.0
sVprescribe
p109
F0.0008905365155209019
sVleo
p110
F0.0
sVreported
p111
F0.0017810730310418039
sVcompose
p112
F0.0017810730310418039
sVgabaa
p113
F0.0
sVethanol
p114
F0.0
sVothers
p115
F0.0006045702407179389
sVbased
p116
F0.0006890131019482556
sValong
p117
F9.06170759413293e-05
sVstrong
p118
F0.0003445065509741278
sVextreme
p119
F0.0010335196529223836
sVpinazepam
p120
F0.0
sVgreat
p121
F0.0
sVclorazepate
p122
F0.0
sVtaper
p123
F0.0
sVreceive
p124
F0.0008905365155209019
sVimpacted
p125
F0.0
sVleaves
p126
F0.0002015234135726463
sVchanged
p127
F0.0006890131019482556
sVopiate
p128
F0.0
sVcompletely
p129
F0.0002015234135726463
sVexperience
p130
F0.002184119858187097
sVcontroversy
p131
F0.0008905365155209019
sVamount
p132
F0.0010335196529223836
sVhealthier
p133
F0.0
sVresulting
p134
F0.0005460299645467742
sVsituations
p135
F0.0003445065509741278
sVtoxicity
p136
F0.0
sVoptions
p137
F0.0005460299645467742
sV20mg
p138
F0.0
sVclonidine
p139
F0.0
sVuseful
p140
F0.0008905365155209019
sVwikimedia
p141
F0.0
sVnamely
p142
F0.0
sVprefer
p143
F0.0003445065509741278
sVincreased
p144
F0.0008905365155209019
sVfeelings
p145
F0.0005460299645467742
sVpsychological
p146
F0.0008905365155209019
sVlormetazepam
p147
F0.0
sVmoral
p148
F0.0005460299645467742
sVrarely
p149
F0.0
sVcrisis
p150
F0.0
sVstingy
p151
F0.0008905365155209019
sVsweating
p152
F0.0008905365155209019
sVuse
p153
F0.0005437024556479759
sVtakes
p154
F0.0002015234135726463
sVwould
p155
F0.0
sVremains
p156
F0.0003445065509741278
sVadverse_drug_reaction
p157
F0.0
sValcoholic
p158
F0.0035621460620836078
sVtwo
p159
F0.0
sVnext
p160
F0.00027185122782398796
sVgoing
p161
F0.0
sVcall
p162
F9.06170759413293e-05
sVrecommend
p163
F0.0008905365155209019
sVtaken
p164
F0.00027185122782398796
sVe2
p165
F0.0
sVtype
p166
F0.0003445065509741278
sVtell
p167
F0.0020152341357264634
sVpsoriasis
p168
F0.0
sVhoffmann
p169
F0.0
sVdoor
p170
F0.0008060936542905852
sVstarted
p171
F0.0002015234135726463
sVhoffman
p172
F0.0
sVstable
p173
F0.0017810730310418039
sVoutpatient
p174
F0.0
sVhurt
p175
F0.0008905365155209019
sVphone
p176
F0.0005460299645467742
sVtrain
p177
F0.0008905365155209019
sVbeers
p178
F0.0005460299645467742
sVmescaline
p179
F0.0
sVparticular
p180
F0.0002015234135726463
sVknown
p181
F0.0006045702407179389
sVward
p182
F0.0017810730310418039
sVhold
p183
F0.0004030468271452926
sVproducing
p184
F0.0008905365155209019
sVblocking
p185
F0.0005460299645467742
sV__bzd__
p186
F0.0
sVtopic
p187
F0.0010920599290935484
sVmg
p188
F0.0
sVlocked
p189
F0.0006890131019482556
sVroom
p190
F0.0004030468271452926
sVflubromazepam
p191
F0.0
sVestazolam
p192
F0.0
sVwork
p193
F0.0
sVteratogens
p194
F0.0
sVfollowing
p195
F0.0002015234135726463
sVexample
p196
F0.0004030468271452926
sVaddictive
p197
F0.0
sVsomething
p198
F0.00027185122782398796
sVcompare
p199
F0.0005460299645467742
sVweaker
p200
F0.0008905365155209019
sVantagonists
p201
F0.0
sVindicated
p202
F0.0008905365155209019
sVgive
p203
F0.0003624683037653172
sVpurposes
p204
F0.0
sVhigh
p205
F0.0
sVheard
p206
F0.0004030468271452926
sVdropped
p207
F0.0003445065509741278
sVwant
p208
F0.0
sVallowed
p209
F0.0002015234135726463
sV10mg
p210
F0.0
sVoccur
p211
F0.0017810730310418039
sVrisk
p212
F0.0010335196529223836
sVsis
p213
F0.0008905365155209019
sVinformation
p214
F0.0005460299645467742
sVneeds
p215
F0.0
sVend
p216
F9.06170759413293e-05
sVrecovery
p217
F0.0010920599290935484
sVbretazenil
p218
F0.0
sVprovide
p219
F0.0017810730310418039
sVdiazepine
p220
F0.0
sVfluoxetine
p221
F0.0
sV93la_roche
p222
F0.0
sVledger
p223
F0.0
sVaminobutyric_acid
p224
F0.0
sVchemical
p225
F0.0008905365155209019
sVtill
p226
F0.0010920599290935484
sVoccasionally
p227
F0.0003445065509741278
sVtoxic
p228
F0.0
sVinstead
p229
F0.0003445065509741278
sVcondemn
p230
F0.0008905365155209019
sVpanic
p231
F0.0
sVaequo
p232
F0.0
sVsensations
p233
F0.0
sVprofile
p234
F0.0005460299645467742
sVstaying
p235
F0.0005460299645467742
sVshouldnt
p236
F0.0
sVminority
p237
F0.0008905365155209019
sVmay
p238
F0.0001812341518826586
sVbarbiturates
p239
F0.0
sVstingier
p240
F0.0
sVprazepam
p241
F0.0
sVless
p242
F0.0009061707594132932
sVwrong
p243
F0.0004030468271452926
sVabuse
p244
F0.0008905365155209019
sVblood
p245
F0.0006890131019482556
sVcoming
p246
F0.0001812341518826586
sVdata
p247
F0.0008905365155209019
sVtypes
p248
F0.0003445065509741278
sVman
p249
F0.0003624683037653172
sVshort
p250
F0.0004530853797066466
sVnatural
p251
F0.0005460299645467742
sVanymore
p252
F0.0006890131019482556
sVeffective
p253
F0.004452682577604511
sVread
p254
F0.0004030468271452926
sVmaybe
p255
F0.0
sVhypnotic
p256
F0.0
sVlike
p257
F0.0
sVrather
p258
F0.0002015234135726463
sVswitch
p259
F0.002184119858187097
sVones
p260
F0.0010335196529223836
sVhonestly
p261
F0.0005460299645467742
sVshade
p262
F0.0003445065509741278
sVambulance
p263
F0.0
sVevery
p264
F0.0001812341518826586
sVaddiction
p265
F0.0
sVplaying
p266
F0.0003445065509741278
sVhalazepam
p267
F0.0
sVtypical
p268
F0.0005460299645467742
sVlsd
p269
F0.0
sVhelp
p270
F0.0003624683037653172
sVoffice
p271
F0.0003445065509741278
sVproduces
p272
F0.0008905365155209019
sVgradual
p273
F0.0
sVsoon
p274
F9.06170759413293e-05
sVyears
p275
F0.0002015234135726463
sVbrain
p276
F0.0006890131019482556
sVattitude
p277
F0.0008905365155209019
sVnsfw
p278
F0.0
sVlooks
p279
F9.06170759413293e-05
sVmentioned
p280
F0.0017810730310418039
sVhell
p281
F0.0003445065509741278
sVcold
p282
F0.0006890131019482556
sVsuffer
p283
F0.0005460299645467742
sVtrouble
p284
F9.06170759413293e-05
sVpremazepam
p285
F0.0
sVmetabolises
p286
F0.0
sV24
p287
F0.0003445065509741278
sV1
p288
F0.0004530853797066466
sV20
p289
F9.06170759413293e-05
sVthumb
p290
F0.0008905365155209019
sVla
p291
F9.06170759413293e-05
sVpersonal
p292
F0.0002015234135726463
sVinteresting
p293
F0.0006045702407179389
sVll
p294
F0.0003624683037653172
sVrecreational
p295
F0.0008905365155209019
sVreluctance
p296
F0.0
sVmidazolam
p297
F0.0
sVimo
p298
F0.0
sVactually
p299
F0.00027185122782398796
sVsymptoms
p300
F0.0
sVdifferently
p301
F0.0005460299645467742
sVflutoprazepam
p302
F0.0
sVteam
p303
F0.0017810730310418039
sVmight
p304
F9.06170759413293e-05
sVeasier
p305
F0.0006890131019482556
sVdad
p306
F0.0006890131019482556
sVwouldn
p307
F0.0002015234135726463
sVparadoxical_effect
p308
F0.0
sVsomeone
p309
F0.0
sVdeletion
p310
F0.0008905365155209019
sVcombination
p311
F0.0003445065509741278
sVseeking
p312
F0.0008905365155209019
sVmoms
p313
F0.0008905365155209019
sVantara
p314
F0.0
sVsafe
p315
F0.0003445065509741278
sVinsomnia
p316
F0.0
sVpsychomotor_agitation
p317
F0.0
sVprenatal
p318
F0.0
sV1955
p319
F0.0
sVdrinking
p320
F0.0010335196529223836
sVeffects
p321
F0.0032761797872806453
sVsonata
p322
F0.0
sVhalf
p323
F0.0005437024556479759
sVday
p324
F0.0
sVterm
p325
F0.0013780262038965113
sVmods
p326
F0.0
sVgrammar
p327
F0.0010920599290935484
sVmeat
p328
F0.0005460299645467742
sVstabilize
p329
F0.0
sVedit
p330
F0.0017810730310418039
sVpotatoes
p331
F0.0
sVclassified
p332
F0.0
sVtetrazepma
p333
F0.0
sVl
p334
F0.0003445065509741278
sVunpredictable
p335
F0.0008905365155209019
sVgood
p336
F0.0
sVanterograde_amnesia
p337
F0.0
sVaddicted
p338
F0.0008905365155209019
sVfound
p339
F9.06170759413293e-05
sVwent
p340
F9.06170759413293e-05
sVdecreasing
p341
F0.0
sVlasting
p342
F0.0008905365155209019
sVheavy
p343
F0.0006045702407179389
sVreactions
p344
F0.0
sVeveryone
p345
F0.0003445065509741278
sVmental
p346
F0.0017810730310418039
sVcloxazolam
p347
F0.0
sVeg
p348
F0.0008905365155209019
sVhard
p349
F0.0006045702407179389
sVreduce
p350
F0.0010920599290935484
sVyeah
p351
F0.0010920599290935484
sVaccidentally
p352
F0.0003445065509741278
sVengaging
p353
F0.0008905365155209019
sVused
p354
F0.0002015234135726463
sVtrading
p355
F0.0005460299645467742
sVex
p356
F0.0005460299645467742
sVdoses
p357
F0.0
sVdisinhibition
p358
F0.0
sVaids
p359
F0.0
sV80
p360
F0.0
sVmorning
p361
F0.0005460299645467742
sVstimulants
p362
F0.0
sVpills
p363
F0.0008905365155209019
sVlater
p364
F0.0003445065509741278
sVtry
p365
F9.06170759413293e-05
sVgiven
p366
F0.00027185122782398796
sVmedications
p367
F0.0
sVjackson
p368
F0.0
sValcohol
p369
F0.004914269680920968
sVsparingly
p370
F0.0
sVunnatural
p371
F0.0
sVsince
p372
F0.0003624683037653172
sVintermediate
p373
F0.0
sVfaqs
p374
F0.0
sVincrease
p375
F0.0005460299645467742
sVacting
p376
F0.004368239716374194
sVhealth
p377
F0.0017810730310418039
sV7
p378
F0.0002015234135726463
sVinternet
p379
F0.0005460299645467742
sVmedicine
p380
F0.0026716095465627063
sVtechnically
p381
F0.0005460299645467742
sVissue
p382
F0.0003445065509741278
sVsternbach
p383
F0.0
sVtingling
p384
F0.0
sVlibrium
p385
F0.0
sVcholesterol
p386
F0.0008905365155209019
sVlittle
p387
F0.0
sVstandard
p388
F0.0003445065509741278
sVdelorazepam
p389
F0.0
sVmuscle_relaxant
p390
F0.0
sVheroin
p391
F0.0008905365155209019
sVnmda
p392
F0.0
sVimgur
p393
F0.0
sVput
p394
F0.0003624683037653172
sVorg
p395
F0.04452682577604511
sVphilip
p396
F0.0
sVwanted
p397
F0.0005460299645467742
sVbusiness
p398
F9.06170759413293e-05
sVcare
p399
F0.0005460299645467742
sVzaps
p400
F0.0
sVscary
p401
F0.0017810730310418039
sVate
p402
F0.0005460299645467742
sVcouldn
p403
F0.0002015234135726463
sVthread
p404
F0.0008905365155209019
sVstarts
p405
F0.0004030468271452926
sVcould
p406
F0.0
sVdays
p407
F0.0012091404814358778
sVtimes
p408
F0.0
sVthing
p409
F0.00027185122782398796
sVnimetazepam
p410
F0.0
sVisn
p411
F9.06170759413293e-05
sVw
p412
F0.0003445065509741278
sVdosage
p413
F0.0026716095465627063
sVmisused
p414
F0.0
sVpromotion
p415
F0.0008905365155209019
sVthink
p416
F9.06170759413293e-05
sVfirst
p417
F0.00027185122782398796
sVmajor
p418
F0.0002015234135726463
sVdont
p419
F0.0005460299645467742
sV__benzos__
p420
F0.0
sVfeel
p421
F0.0003624683037653172
sVthird
p422
F9.06170759413293e-05
sVreassure
p423
F0.0
sVnumber
p424
F0.0003445065509741278
sVreferences
p425
F0.0008905365155209019
sVfast
p426
F0.0002015234135726463
sVanother
p427
F9.06170759413293e-05
sVwasn
p428
F9.06170759413293e-05
sVsober
p429
F0.0008905365155209019
sVimpossible
p430
F0.0005460299645467742
sVring
p431
F0.0010920599290935484
sVseizures
p432
F0.0026716095465627063
sVstory
p433
F0.0005460299645467742
sVhalcion
p434
F0.0
sVchecked
p435
F0.0005460299645467742
sVscript
p436
F0.0017810730310418039
sVsystem
p437
F0.0002015234135726463
sVleast
p438
F0.0
sVname
p439
F0.0001812341518826586
sVroche
p440
F0.0
sVneeded
p441
F0.0003445065509741278
sVreturns
p442
F0.0002015234135726463
sV2
p443
F9.06170759413293e-05
sVlisted
p444
F0.0005460299645467742
sVpassed
p445
F0.0004030468271452926
sVwhite
p446
F0.0002015234135726463
sVkid
p447
F0.0017810730310418039
sVstore
p448
F0.0005460299645467742
sVlisten
p449
F0.0003445065509741278
sVlot
p450
F0.0
sVseymour
p451
F0.0
sVneedle
p452
F0.0005460299645467742
sVtook
p453
F0.0001812341518826586
sVbromazepam
p454
F0.0
sVcops
p455
F0.0017810730310418039
sVsomewhat
p456
F0.0008905365155209019
sVdoctors
p457
F0.0053432190931254125
sVbelieve
p458
F0.0004030468271452926
sVminutes
p459
F0.0004030468271452926
sVneurotransmitter
p460
F0.0
sVpng
p461
F0.0008905365155209019
sVrelieves
p462
F0.0
sV10
p463
F0.00027185122782398796
sVb
p464
F0.0002015234135726463
sVlmao
p465
F0.0
sVsummary
p466
F0.0
sVlikely
p467
F0.0008905365155209019
sVproject
p468
F0.0003445065509741278
sV5mg
p469
F0.0
sVdidn
p470
F0.00027185122782398796
sVmagnesium
p471
F0.0
sVmalpractice
p472
F0.0
sVgives
p473
F0.0002015234135726463
sVsolely
p474
F0.0008905365155209019
sVresult
p475
F0.0010920599290935484
sVloprazolam
p476
F0.0
sVchoked
p477
F0.0017810730310418039
sVmodern
p478
F0.0002015234135726463
sVmind
p479
F0.0006890131019482556
sVargument
p480
F0.0005460299645467742
sVphenobarbital
p481
F0.0
sVcomfortable
p482
F0.0005460299645467742
sVtalking
p483
F0.0017810730310418039
sVsay
p484
F0.0001812341518826586
sVadvising
p485
F0.0
sVrap
p486
F0.0008905365155209019
sVadhd
p487
F0.0
sVneed
p488
F0.0003624683037653172
sVatropine
p489
F0.0
sVclearly
p490
F0.0003445065509741278
sVviewed
p491
F0.0005460299645467742
sVlie
p492
F0.0003445065509741278
sVcleft_palate
p493
F0.0
sVrelapse
p494
F0.0
sVdescribe
p495
F0.0005460299645467742
sVparamedics
p496
F0.0
sVresponsible
p497
F0.0005460299645467742
sV1960
p498
F0.0
sV1963
p499
F0.0
sVmix
p500
F0.0003445065509741278
sVrecommended
p501
F0.0017810730310418039
sVpotential
p502
F0.0035621460620836078
sVbuild
p503
F0.0002015234135726463
sVfinding
p504
F0.0002015234135726463
sVcleft
p505
F0.0
sVasshole
p506
F0.0008905365155209019
sVeffectiveness
p507
F0.0
sVimpairment
p508
F0.0
sVadjusting
p509
F0.0
sVlectures
p510
F0.0
sVplay
p511
F0.0003445065509741278
sVrisperidone
p512
F0.0
sVpain
p513
F0.0003445065509741278
sVmethadone
p514
F0.0
sVphysical_dependence
p515
F0.0
sVnormal
p516
F0.0003445065509741278
sVclonazepam
p517
F0.0
sVsfw
p518
F0.0
sVmethylphenidate
p519
F0.0
sVcns22jx
p520
F0.0
sVaddict
p521
F0.0008905365155209019
sVsignificant
p522
F0.0008905365155209019
sVnothing
p523
F9.06170759413293e-05
sVsubset
p524
F0.0
sVantabuse
p525
F0.0
sVextremely
p526
F0.0005460299645467742
sVclass
p527
F0.0002015234135726463
sV1ux484
p528
F0.0
sVcause
p529
F0.0003624683037653172
sVespecially
p530
F0.0004030468271452926
sVmedical
p531
F0.0013780262038965113
sVsometimes
p532
F0.0004030468271452926
sVstronger
p533
F0.0008905365155209019
sVvdvowpk
p534
F0.0
sVtalk
p535
F0.0006890131019482556
sVclean
p536
F9.06170759413293e-05
sVaxe
p537
F0.0017810730310418039
sVoccasion
p538
F0.0005460299645467742
sVdragged
p539
F0.0006890131019482556
sVfact
p540
F0.0006890131019482556
sVgaba
p541
F0.0
sVincreases
p542
F0.0008905365155209019
sVsaying
p543
F0.0004030468271452926
sVnewer
p544
F0.0008905365155209019
sVbutt
p545
F0.0017810730310418039
sVcheap
p546
F0.0005460299645467742
sVanyway
p547
F0.0006890131019482556
sVcelecoxib
p548
F0.0
sVdiscovered
p549
F0.0003445065509741278
sVbooze
p550
F0.0017810730310418039
sVrough
p551
F0.0005460299645467742
sVfine
p552
F0.0
sVfind
p553
F0.0
sVaccess
p554
F0.0005460299645467742
sVcoloring
p555
F0.0008905365155209019
sVgrabbed
p556
F0.0010920599290935484
sVparanoid
p557
F0.0008905365155209019
sVnervous
p558
F0.0005460299645467742
sVexplain
p559
F0.0003445065509741278
sVrohypnol
p560
F0.0
sVcdvdm9d
p561
F0.0
sVlist_of_benzodiazepines
p562
F0.0
sVunable
p563
F0.0005460299645467742
sVpretty
p564
F0.0003445065509741278
sVequivalents
p565
F0.0005460299645467742
sVdoxepin
p566
F0.0
sVsure
p567
F0.0004030468271452926
sVbenzodiazepine_withdrawal_syndrome
p568
F0.0
sVeitzolam
p569
F0.0
sVstop
p570
F0.00027185122782398796
sVpsychiatric
p571
F0.0
sVda
p572
F0.0010920599290935484
sVanxiety
p573
F0.008014828639688118
sVjail
p574
F0.0005460299645467742
sVwords
p575
F0.0002015234135726463
sVanxiolytic
p576
F0.0
sVneurobehavioural
p577
F0.0
sVcentral_nervous_system_depressants
p578
F0.0
sVdr
p579
F0.0008905365155209019
sVswear
p580
F0.0008905365155209019
sVcourse
p581
F0.0002015234135726463
sVh
p582
F0.0003445065509741278
sVmedicines
p583
F0.0
sVmedazepam
p584
F0.0
sVbad
p585
F0.0001812341518826586
sVstuff
p586
F0.0003445065509741278
sVcommon
p587
F0.0006890131019482556
sVpharmacological_properties_of_common_benzodiazepines
p588
F0.0
sVx
p589
F0.0053432190931254125
sVgabapentin
p590
F0.0
sVwiki
p591
F0.0
sVreference
p592
F0.0005460299645467742
sVnotice
p593
F0.0004030468271452926
sVpotent
p594
F0.0
sVinpatent
p595
F0.0
sVdepends
p596
F0.0010920599290935484
sVactively
p597
F0.0
sVbenzodiazepine_overdose
p598
F0.0
sVimho
p599
F0.0
sVenhanced
p600
F0.0008905365155209019
sV130lbs
p601
F0.0
sVmiserable
p602
F0.0005460299645467742
sVbest
p603
F0.0001812341518826586
sVsubject
p604
F0.0017810730310418039
sVsuccess
p605
F0.0005460299645467742
sVpractice
p606
F0.0
sVstill
p607
F0.0
sVprescriptions
p608
F0.0
sVlots
p609
F0.0006890131019482556
sVnightmare
p610
F0.0003445065509741278
sViirc
p611
F0.0
sVwikipedia
p612
F0.0
sVtend
p613
F0.0008905365155209019
sVprocedures
p614
F0.0
sV3
p615
F0.0002015234135726463
sVscore
p616
F0.0003445065509741278
sVvarious
p617
F0.0003445065509741278
sVhorrible
p618
F0.0005460299645467742
sVprobably
p619
F0.0004030468271452926
sVtolerance
p620
F0.0008905365155209019
sVanterograde
p621
F0.0
sVcravings
p622
F0.0008905365155209019
sVavailable
p623
F0.0003445065509741278
sVreddit
p624
F0.0
sVrecently
p625
F0.0002015234135726463
sVparent
p626
F0.0005460299645467742
sVmissing
p627
F0.0002015234135726463
sValcamprosate
p628
F0.0
sVlisting
p629
F0.0005460299645467742
sVhowever
p630
F0.0010920599290935484
sVkicking
p631
F0.0008905365155209019
sVquazepam
p632
F0.0
sVconcentrate
p633
F0.0008905365155209019
sVpsychoactive_drug
p634
F0.0
sVcoma
p635
F0.0008905365155209019
sVarticle
p636
F0.0003445065509741278
sVcome
p637
F0.0001812341518826586
sVimprove
p638
F0.0005460299645467742
sVcop
p639
F0.0032761797872806453
sVessentially
p640
F0.0
sVpiece
p641
F0.0003445065509741278
sVprescription
p642
F0.0
sValways
p643
F0.0
sVmany
p644
F0.0
sVtaking
p645
F0.00027185122782398796
sVbarely
p646
F0.0005460299645467742
sVphenezepamn
p647
F0.0
sVchosen
p648
F0.0003445065509741278
sVsafely
p649
F0.0008905365155209019
sVcomes
p650
F0.0017225327548706394
sVcomment
p651
F0.0010920599290935484
sVamong
p652
F0.0010920599290935484
sVpoint
p653
F0.0001812341518826586
sVsimple
p654
F9.06170759413293e-05
sVperiod
p655
F0.0004030468271452926
sVseizure
p656
F0.0
sVwalk
p657
F0.0003445065509741278
sVnewborn
p658
F0.0
sVpalate
p659
F0.0008905365155209019
sVdecreases
p660
F0.0
sVpregnancy
p661
F0.0008905365155209019
sVtable
p662
F9.06170759413293e-05
sVrefill
p663
F0.0008905365155209019
sVketazolam
p664
F0.0
sVneonatal_withdrawal
p665
F0.0
sVlol
p666
F0.0008905365155209019
sVspeak
p667
F0.0005460299645467742
sVturkey
p668
F0.0017810730310418039
sVmeantime
p669
F0.0008905365155209019
sVviolence
p670
F0.0010920599290935484
sVleads
p671
F0.0003445065509741278
sVbasis
p672
F0.0004030468271452926
sVaddition
p673
F0.0008905365155209019
sVzohydro
p674
F0.0
sVcreativity
p675
F0.0
sVthree
p676
F9.06170759413293e-05
sVtiny
p677
F0.0002015234135726463
sVquickly
p678
F0.0002015234135726463
sVreduction
p679
F0.0008905365155209019
sVhellish
p680
F0.0
sVamnesia
p681
F0.0017810730310418039
sVpi
p682
F0.0
sVcinolazepam
p683
F0.0
sVtreatment
p684
F0.004452682577604511
sVlife
p685
F0.0006343195315893053
sVprn
p686
F0.0
sV2bdelete
p687
F0.0
sVroute
p688
F0.0003445065509741278
sVconcerning
p689
F0.0
sVotc
p690
F0.0
sVdiclazepam
p691
F0.0
sVlives
p692
F0.0006890131019482556
sVdeep
p693
F0.0002015234135726463
sVneurontin
p694
F0.0
sVoverdose
p695
F0.0026716095465627063
sVhardcore
p696
F0.0008905365155209019
sVcareful
p697
F0.0010920599290935484
sVdiverted
p698
F0.0
sVcase
p699
F0.0002015234135726463
sVlook
p700
F0.00027185122782398796
sVanticonvulsant
p701
F0.0
sVstraight
p702
F9.06170759413293e-05
sVtip
p703
F0.0003445065509741278
sVvalue
p704
F0.0002015234135726463
sVn
p705
F9.06170759413293e-05
sVmedically
p706
F0.0
sVsurprised
p707
F0.0003445065509741278
sVstopping
p708
F0.0005460299645467742
sVsupervision
p709
F0.0
sVperiods
p710
F0.0008905365155209019
sV30
p711
F0.0002015234135726463
sVtecfidera
p712
F0.0
sVrole_of_chance_in_scientific_discoveries
p713
F0.0
sVagitation
p714
F0.0
sValmost
p715
F0.00027185122782398796
sVengaged
p716
F0.0008905365155209019
sVnon
p717
F9.06170759413293e-05
sValive
p718
F0.0002015234135726463
sVvs
p719
F0.0008905365155209019
sVcommonly
p720
F0.0
sVdual
p721
F0.0005460299645467742
sVpremedication
p722
F0.0
sVconfirmed
p723
F0.0005460299645467742
sVritalin
p724
F0.0
sVchoking
p725
F0.0017810730310418039
sVetc
p726
F0.0004530853797066466
sVmake
p727
F0.0003624683037653172
sVadministration
p728
F0.0008905365155209019
sVaccomplished
p729
F0.0005460299645467742
sVshorter
p730
F0.002184119858187097
sVadverse
p731
F0.0
sVtemazepam
p732
F0.0
sVpotentially
p733
F0.0008905365155209019
sVbabies
p734
F0.0008905365155209019
sVuncertainty
p735
F0.0
sV9
p736
F0.0002015234135726463
sVrelaxant
p737
F0.0
sVbenzodiazepine_a
p738
F0.0
sVdifficult
p739
F0.0006890131019482556
sVdevelopment
p740
F0.0005460299645467742
sVextended
p741
F0.0008905365155209019
sVtemporary
p742
F0.0008905365155209019
sVsee
p743
F0.0005437024556479759
sVdime
p744
F0.0008905365155209019
sVdrink
p745
F0.0001812341518826586
sVeffect
p746
F0.0001812341518826586
sVcompared
p747
F0.0002015234135726463
sVuses
p748
F0.0006890131019482556
sVzaleplon
p749
F0.0
sV009
p750
F0.0
sVdepressants
p751
F0.0
sVpredecessors
p752
F0.0
sVpyazolam
p753
F0.0
sVprescribed
p754
F0.0035621460620836078
sVmatters
p755
F0.0005460299645467742
sVmemantine
p756
F0.0
sVwell
p757
F0.0
sVfusion
p758
F0.0
sVknow
p759
F0.0004530853797066466
sVobviously
p760
F0.0003445065509741278
sVsevere
p761
F0.0005460299645467742
sVwithout
p762
F0.0
sVsolve
p763
F0.0005460299645467742
sVprescribes
p764
F0.0
sVposition
p765
F0.0002015234135726463
sVcarfluzepate
p766
F0.0
sVmuscle
p767
F0.0017810730310418039
sVweakest
p768
F0.0026716095465627063
sVdeschoroetizolam
p769
F0.0
sVworld
p770
F0.0002015234135726463
sVabilities
p771
F0.0
sVbenzo
p772
F0.0
sVable
p773
F0.0002015234135726463
sVaccurate
p774
F0.0008905365155209019
sVhands
p775
F0.0005460299645467742
sVunfair
p776
F0.0017810730310418039
sVdose
p777
F0.009795901670729924
sVimprint
p778
F0.0
sVshape
p779
F0.0010920599290935484
sVkill
p780
F0.0008060936542905852
sVthanks
p781
F0.0006890131019482556
sVask_wikibot
p782
F0.0
sVyes
p783
F9.06170759413293e-05
sVimpending
p784
F0.0
sVethyl
p785
F0.0
sVworkday
p786
F0.0
sVdeath
p787
F0.0006890131019482556
sVdissociation
p788
F0.0
sVthinking
p789
F0.0003445065509741278
sVseems
p790
F0.0001812341518826586
sVexcept
p791
F0.0002015234135726463
sVexclusively
p792
F0.0005460299645467742
sVkilled
p793
F0.0003445065509741278
sVcolor
p794
F0.0003445065509741278
sVloflazepate
p795
F0.0
sVconcerns
p796
F0.0
sVparents
p797
F0.0026716095465627063
sV4
p798
F0.00027185122782398796
sVcategorized
p799
F0.0
sVinducing
p800
F0.0
sVspasms
p801
F0.0
sVslave
p802
F0.0008905365155209019
sVpill
p803
F0.0008905365155209019
sVkick
p804
F0.0003445065509741278
sVgave
p805
F0.0005460299645467742
sVinfallible
p806
F0.0
sVaround
p807
F0.0001812341518826586
sVemergency
p808
F0.0017810730310418039
sVacute
p809
F0.0
sVsituation
p810
F0.0005460299645467742
sVbig
p811
F9.06170759413293e-05
sVpreferred
p812
F0.0008905365155209019
sVaddicts
p813
F0.0
sVpossibly
p814
F0.0002015234135726463
sVgame
p815
F0.0004030468271452926
sVsuffering
p816
F0.0003445065509741278
sVspank
p817
F0.0010920599290935484
sVmom
p818
F0.0017810730310418039
sVjudge
p819
F0.0005460299645467742
sVusing
p820
F0.0004030468271452926
sVbit
p821
F0.0001812341518826586
sVhighly
p822
F0.0005460299645467742
sVburnt
p823
F0.0005460299645467742
sVnaltrexone
p824
F0.0
sVd
p825
F0.0
sVbeers_criteria
p826
F0.0
sVloss
p827
F0.0005460299645467742
sVhelpful
p828
F0.0026716095465627063
sVtapering
p829
F0.0
sVmessage
p830
F0.0013780262038965113
sVmanual
p831
F0.0005460299645467742
sV50
p832
F0.0002015234135726463
sVspecific
p833
F0.0006890131019482556
sVmichael
p834
F0.0
sVeither
p835
F0.0001812341518826586
sVnight
p836
F0.0001812341518826586
sVpopular
p837
F0.0017810730310418039
sVbecome
p838
F9.06170759413293e-05
sVworks
p839
F0.0010335196529223836
sVdisorder
p840
F0.0008905365155209019
sVimprints
p841
F0.0
sVbenzene
p842
F0.0
sVbzequiv
p843
F0.0
sVwww
p844
F0.0032761797872806453
sVright
p845
F0.00027185122782398796
sVoften
p846
F0.0006890131019482556
sVdeal
p847
F0.0002015234135726463
sVlofendazam
p848
F0.0
sVabsolutely
p849
F0.0002015234135726463
sVbentazepam
p850
F0.0
sVback
p851
F0.0004530853797066466
sVdead
p852
F0.0002015234135726463
sVcognitive
p853
F0.0
sV115
p854
F0.0
sVpaxil
p855
F0.0
sVstrongest
p856
F0.0053432190931254125
sVexperienced
p857
F0.0008905365155209019
sVsight
p858
F0.0003445065509741278
sVescape
p859
F0.0002015234135726463
sVduration
p860
F0.0
sVunless
p861
F0.0003445065509741278
sVrazobazam
p862
F0.0
sVspasm
p863
F0.0
sVgradually
p864
F0.0
sVfor_moderators_switches_commands_and_css
p865
F0.0
sVgarage
p866
F0.0017810730310418039
sVclosest
p867
F0.0005460299645467742
sVaffects
p868
F0.0005460299645467742
sVcomments
p869
F0.0017810730310418039
sVcamazepam
p870
F0.0
sVtrack
p871
F0.0010920599290935484
sVconvulsions
p872
F0.0
sV911
p873
F0.0
sVcore
p874
F0.0003445065509741278
sVmethamphetamine
p875
F0.0
sVpower
p876
F0.0002015234135726463
sVquit
p877
F0.0010920599290935484
sVdiltiazem
p878
F0.0
sVdental
p879
F0.0008905365155209019
sVwithdrawals
p880
F0.0
sVpressure
p881
F0.0008905365155209019
sVstep
p882
F0.0004030468271452926
sValthough
p883
F0.0004030468271452926
sVrelating
p884
F0.0
sVsuper
p885
F0.0005460299645467742
sVproperties
p886
F0.0006890131019482556
sVvalium
p887
F0.0
sVcomparison
p888
F0.0010920599290935484
sVsister
p889
F0.002184119858187097
sVcautious
p890
F0.0008905365155209019
sVcentral
p891
F0.0
sVusa
p892
F0.0008905365155209019
sVanything
p893
F0.0001812341518826586
sVgetting
p894
F0.00027185122782398796
sVcolumn
p895
F0.0008905365155209019
sVdissociation_
p896
F0.0
sVmonths
p897
F0.0003445065509741278
sVfenofibrate
p898
F0.0
sVdependence
p899
F0.0
sVchop
p900
F0.0017810730310418039
sVbenzos
p901
F0.0
sVsupervised
p902
F0.0
sVrule
p903
F0.0005460299645467742
sVaminobutyric
p904
F0.0
sVmean
p905
F0.0004030468271452926
sVhospital
p906
F0.002184119858187097
sVgamma
p907
F0.0
sVprinted
p908
F0.0008905365155209019
sVseeing
p909
F0.0003445065509741278
sV__benzodiazepines__
p910
F0.0
sVimage
p911
F0.0005460299645467742
sVprofession
p912
F0.0
sVklonopin
p913
F0.0
sVdue
p914
F0.0010920599290935484
sVfinely
p915
F0.0008905365155209019
sVreceptor
p916
F0.0
sVluck
p917
F0.0006890131019482556
sVreducing
p918
F0.0
sVrevolve
p919
F0.0
sVnegotiable
p920
F0.0
sVintervention
p921
F0.0017810730310418039
sVtransfer
p922
F0.0010920599290935484
sVlong
p923
F0.0
sVnoticed
p924
F0.0002015234135726463
sVstart
p925
F0.0004030468271452926
sVclinical
p926
F0.0
sVdied
p927
F0.0016380898936403227
sVway
p928
F0.00027185122782398796
sVslowly
p929
F0.0003445065509741278
sVvague
p930
F0.0
sVexposure
p931
F0.0
sValcohol_withdrawal
p932
F0.0
sVhappy
p933
F0.0004030468271452926
sVfunction
p934
F0.0008905365155209019
sVhead
p935
F0.0001812341518826586
sVdrug_abuse
p936
F0.0
sVlorazepam
p937
F0.0
sV6
p938
F9.06170759413293e-05
sVpsychoactive
p939
F0.0
sVsubjectively
p940
F0.0
sVvalerian
p941
F0.0
sVelderly
p942
F0.0008905365155209019
sV1x013o
p943
F0.0
sVtrying
p944
F0.0006045702407179389
sVbuying
p945
F0.0008905365155209019
sVfaster
p946
F0.0003445065509741278
sVacitretin
p947
F0.0
sVmade
p948
F9.06170759413293e-05
sVimproved
p949
F0.0010920599290935484
sVhitter
p950
F0.0
sVoxazepam
p951
F0.0
sVwhether
p952
F0.00027185122782398796
sVdangerous
p953
F0.0010335196529223836
sVattenuate
p954
F0.0
sVdifferent
p955
F0.0010076170678632317
sVrecord
p956
F0.0005460299645467742
sVuk
p957
F0.0017810730310418039
sVbehavioral
p958
F0.0
sVproblem
p959
F0.0002015234135726463
sVz
p960
F0.0008905365155209019
sVsimilar
p961
F0.0006045702407179389
sVcalled
p962
F0.0008060936542905852
sVdelete
p963
F0.0010920599290935484
sVgone
p964
F9.06170759413293e-05
sVresponder
p965
F0.0
sVassociated
p966
F0.0008905365155209019
sVsleep_induction
p967
F0.0
sVrequest
p968
F0.0003445065509741278
sVyear
p969
F9.06170759413293e-05
sVdoesn
p970
F0.00027185122782398796
sVgeneral
p971
F0.0
sVwarning
p972
F0.0010335196529223836
sVdaily
p973
F0.0008905365155209019
sVfile
p974
F0.0008905365155209019
sVhome
p975
F0.0002015234135726463
sVdeterrent
p976
F0.0
sVwithdrawal
p977
F0.0
sVcheck
p978
F0.0005460299645467742
sVshit
p979
F0.0016380898936403227
sVphysical
p980
F0.0
sVnac
p981
F0.0
sVsupportive
p982
F0.0
sVdying
p983
F0.0003445065509741278
sVgenerally
p984
F0.0010335196529223836
sVpreventing
p985
F0.0008905365155209019
sVbrotizolam
p986
F0.0
sVnz
p987
F0.0
sV5
p988
F0.0001812341518826586
sVsick
p989
F0.0008905365155209019
sVbetter
p990
F0.00027185122782398796
sVnp
p991
F0.0
sVopiates
p992
F0.0026716095465627063
sVjaded
p993
F0.0
sVnsaid
p994
F0.0
sVaccidental
p995
F0.0008905365155209019
sVxanax
p996
F0.0
sVdies
p997
F0.0005460299645467742
sVfelt
p998
F0.0003445065509741278
sVproblems
p999
F0.0006045702407179389
sVativan
p1000
F0.0
sVstay
p1001
F0.0004030468271452926
sVchance
p1002
F0.0004030468271452926
sVkinda
p1003
F0.0008905365155209019
sVprofessional
p1004
F0.0010920599290935484
sVdisulfiram
p1005
F0.0
sVdetox
p1006
F0.0
sVstructure
p1007
F0.0008905365155209019
sVpsychology
p1008
F0.0008905365155209019
sV2btoggle
p1009
F0.0
sVworsened
p1010
F0.0
sVe
p1011
F0.00027185122782398796
sVlonger
p1012
F0.0006343195315893053
sVcalls
p1013
F0.0013780262038965113
sVsvg
p1014
F0.0
sVsedative
p1015
F0.0
sVtogether
p1016
F0.0
sVheath
p1017
F0.0
sVtriazolam
p1018
F0.0
sVclotiazepam
p1019
F0.0
sVweek
p1020
F0.0010335196529223836
sVbenzodiazepine
p1021
F0.0
sVswiched
p1022
F0.0
sVtime
p1023
F0.0
sVunderstand
p1024
F0.00027185122782398796
sVstarting
p1025
F0.0003445065509741278
s.