(dp0
Vsuicidal
p1
F0.0007353221443871035
sVevalyn
p2
F0.0
sVpardon
p3
F4.508607086092296e-05
sVsimilarity
p4
F0.0
sVmagnetic
p5
F0.0
sVchild
p6
F8.319963641567783e-05
sVyellow
p7
F5.689228715557478e-05
sVnarcotic
p8
F0.0
sVfour
p9
F8.230545921670704e-05
sVcatapres
p10
F0.0
sVsleep
p11
F0.01547470210631634
sVasian
p12
F0.0
sVgrandparent
p13
F0.0
sVappetite
p14
F0.0005147255010709724
sVflomax
p15
F0.0
sVhate
p16
F0.00044119328663226213
sVforget
p17
F0.00036979986651123606
sVwhose
p18
F1.663992728313557e-05
sVinstructor
p19
F0.0
sVallll
p20
F0.0
sVhealthland
p21
F0.0
sVphysiological
p22
F0.0
sVheighten
p23
F0.0
sVdisability
p24
F7.353221443871035e-05
sVboundless
p25
F0.0
sVmediation
p26
F0.0
sVhallucinate
p27
F0.0
sVswap
p28
F4.508607086092296e-05
sVwhatsoever
p29
F0.0001352582125827689
sVlord
p30
F4.508607086092296e-05
sVsorry
p31
F0.00018303920011449124
sVdependency
p32
F0.00022059664331613107
sV348
p33
F0.0
sVworth
p34
F0.0004835844408223856
sVdigit
p35
F0.0001470644288774207
sVhormone
p36
F0.0
sVrisk
p37
F0.00028446143577787387
sVdownstream
p38
F0.0
sVappal
p39
F0.0
sVhypertensive
p40
F0.0
sVdispense
p41
F0.0
sVblanket
p42
F9.017214172184592e-05
sVdutch
p43
F0.0
sVrelatively
p44
F0.0002941288577548414
sVafaik
p45
F0.0
sVredact
p46
F0.0
sVmania
p47
F0.0
sVtrileptal
p48
F0.0
sVjack
p49
F7.353221443871035e-05
sVsaari
p50
F0.0
sVaffect
p51
F0.0012500476454580759
sVcipralex
p52
F0.0
sV12hrs
p53
F0.0
sVschool
p54
F0.003603078507496807
sVcontinous
p55
F0.0
sVsolution
p56
F0.0
sVviable
p57
F0.0
sVunrelated
p58
F0.00022059664331613107
sVcrotch
p59
F7.353221443871035e-05
sVenhance
p60
F0.00014223071788893693
sVcloudiness
p61
F0.0
sVreliable
p62
F4.508607086092296e-05
sVenjoy
p63
F0.00036979986651123606
sVnuvigil
p64
F0.0
sVforce
p65
F0.0003413537229334487
sVpragmatic
p66
F0.0
sVnigh
p67
F0.0
sVconcise
p68
F0.0
sVtolerate
p69
F0.0
sVconsistent
p70
F0.00022059664331613107
sVlavender
p71
F0.0
sVempirical
p72
F0.0
sVnail
p73
F0.0001352582125827689
sVmessy
p74
F0.00022059664331613107
sVsecond
p75
F0.00016461091843341408
sVstreet
p76
F0.0002941288577548414
sVtangential
p77
F0.0
sVfollow
p78
F0.00016639927283135567
sVkratom
p79
F0.0
sVemptiness
p80
F0.0
sVworthlessness
p81
F0.0
sVeven
p82
F0.0006958552461048868
sVbromantane
p83
F0.0
sVhide
p84
F5.689228715557478e-05
sVpace
p85
F0.0
sVworsen
p86
F0.0
sVrevolver
p87
F0.0
sVliberty
p88
F7.353221443871035e-05
sVwouldnt
p89
F0.0
sVhaze
p90
F0.0
sVblur
p91
F7.353221443871035e-05
sVnew
p92
F0.0
sVmetadate
p93
F0.0
sVever
p94
F0.00023195174870162895
sVsuccumb
p95
F0.0
sVspecialist
p96
F0.0
sVjoin
p97
F1.663992728313557e-05
sVnever
p98
F0.0
sVmeh
p99
F0.0
sVjon
p100
F0.0
sVprotection
p101
F7.353221443871035e-05
sVstudio
p102
F7.353221443871035e-05
sVactive
p103
F5.689228715557478e-05
sVaftermath
p104
F0.0
sV100
p105
F0.0003129075793556613
sVdiagnostic
p106
F0.0
sVin_our_own_voice
p107
F0.0
sVsubstance
p108
F0.0
sVdaughter
p109
F3.327985456627114e-05
sVforum
p110
F0.0001470644288774207
sVtaper
p111
F0.0
sVphenelzine
p112
F0.0
sVelaborate
p113
F0.0
sVgraze
p114
F0.0
sV3nkz1u
p115
F0.0
sVcredit
p116
F3.327985456627114e-05
sVharass
p117
F0.0
sVsominex
p118
F0.0
sVsexually
p119
F7.353221443871035e-05
sVmilitary
p120
F7.353221443871035e-05
sVaka
p121
F0.0
sVapart
p122
F5.689228715557478e-05
sVclonidine
p123
F0.0
sVgolden
p124
F0.0001352582125827689
sVfantastic
p125
F4.508607086092296e-05
sVhunch
p126
F0.0
sVclassification
p127
F4.508607086092296e-05
sVscold
p128
F0.0
sVimplode
p129
F0.0
sVtreatment
p130
F0.0021324342187226003
sVhighly
p131
F0.0002705164251655378
sVpsychological
p132
F7.353221443871035e-05
sVhahahahah
p133
F0.0
sValpha
p134
F7.353221443871035e-05
sVvivid
p135
F0.0
sVtremens
p136
F0.0
sVidiosyncratic
p137
F0.0
sVfixable
p138
F0.0
sVcocaine
p139
F0.00022059664331613107
sVunit
p140
F0.0
sVplot
p141
F0.0
sVquasi
p142
F0.0
sVwould
p143
F0.0
sVarmy
p144
F4.508607086092296e-05
sVbrowse
p145
F7.353221443871035e-05
sVhospital
p146
F0.0009468074880793822
sVhungry
p147
F0.00018034428344369184
sVnegative
p148
F0.00031560249602646074
sVinsult
p149
F7.353221443871035e-05
sVconquer
p150
F0.0
sVprogram
p151
F0.00031560249602646074
sVcall
p152
F0.00020950480527889067
sVcalm
p153
F0.0007353221443871035
sVcentre
p154
F7.353221443871035e-05
sVrecommend
p155
F0.0025000952909161518
sVsurvive
p156
F7.353221443871035e-05
sVantagonism
p157
F0.0
sVtype
p158
F0.00036979986651123606
sVtell
p159
F0.000848636291439914
sVnyquil
p160
F0.0
sVbeyond
p161
F2.2446943422738285e-05
sVpaperwork
p162
F0.0
sVcomorbid
p163
F0.0
sVholy
p164
F2.844614357778739e-05
sVrelax
p165
F0.0003606885668873837
sVsuccessful
p166
F5.689228715557478e-05
sV7h45m
p167
F0.0
sVhurt
p168
F0.0005882577155096828
sVwarn
p169
F0.00019912300504451174
sVglass
p170
F2.2446943422738285e-05
sVwarm
p171
F3.327985456627114e-05
sVadult
p172
F0.00044119328663226213
sVhurl
p173
F0.0
sV91
p174
F4.508607086092296e-05
sV90
p175
F0.00031560249602646074
sVward
p176
F0.00036766107219355173
sVhold
p177
F9.983956369881342e-05
sVoutdated
p178
F4.508607086092296e-05
sV97
p179
F4.508607086092296e-05
sV96
p180
F7.353221443871035e-05
sVshoot
p181
F0.001307496054966766
sVmd
p182
F0.0
sVmg
p183
F0.0
sVcystocentesis
p184
F0.0
sVclonazapam
p185
F0.0
sVroom
p186
F0.00013311941826508455
sVpursue
p187
F0.0
sV1998
p188
F0.0
sVnoots
p189
F0.0
sVwork
p190
F0.0
sVworm
p191
F0.0001470644288774207
sVadvocacy
p192
F0.0
sVwhack
p193
F0.0
sVcuddle
p194
F7.353221443871035e-05
sVwort
p195
F7.353221443871035e-05
sVflare
p196
F0.0
sVroot
p197
F9.017214172184592e-05
sVexample
p198
F0.00013311941826508455
sVaddictive
p199
F0.0
sVvivitrol
p200
F0.0
sVhuperzin
p201
F0.0
sVvodka
p202
F7.353221443871035e-05
sV600
p203
F4.508607086092296e-05
sVunmarked
p204
F0.0
sVgive
p205
F0.0005611735855684571
sVsuicidewatch
p206
F0.0
sVhousehold
p207
F0.0
sVtable
p208
F7.482314474246095e-06
sVfax
p209
F0.0
sVinvolve
p210
F0.0
sVtitanium
p211
F0.0
sVquetiapine
p212
F0.0
sVwant
p213
F0.0
sVhonest
p214
F5.689228715557478e-05
sVlexapro
p215
F0.0
sVabsolute
p216
F9.017214172184592e-05
sVpreferably
p217
F7.353221443871035e-05
sVend
p218
F0.00021698711975313677
sVrecovery
p219
F0.0002705164251655378
sVfarce
p220
F0.0
sVjanuary
p221
F0.0
sVsertaline
p222
F0.0
sVverify
p223
F0.0002941288577548414
sVhangover
p224
F0.001470644288774207
sVfeature
p225
F0.0001352582125827689
sVrevisit
p226
F7.353221443871035e-05
sVmachine
p227
F0.00018034428344369184
sVcitalopram
p228
F0.0
sVhot
p229
F0.0002560152922000865
sVsate
p230
F0.0
sVhop
p231
F0.0005882577155096828
sVanswer
p232
F0.00014975934554822012
sVpreferable
p233
F0.0
sVwahluke
p234
F0.0
sVmassive
p235
F0.0
sVbadly
p236
F4.991978184940671e-05
sVfever
p237
F0.0
sVelizabeth
p238
F0.0
sVmess
p239
F0.00040577463774830666
sVearlier
p240
F8.319963641567783e-05
sVabdomen
p241
F0.0
sVlab
p242
F0.0
sVwholesale
p243
F0.0
sVcommander
p244
F0.0
sVhypnogogic
p245
F0.0
sVwrong
p246
F0.00019967912739762684
sVmesh
p247
F0.0
sVtackle
p248
F5.689228715557478e-05
sVlay
p249
F0.0003606885668873837
sVcuriosity
p250
F0.0001352582125827689
sVready
p251
F3.7411572371230474e-05
sVpresident
p252
F7.353221443871035e-05
sVlaw
p253
F7.353221443871035e-05
sVlap
p254
F7.353221443871035e-05
sVsmoke
p255
F0.0008566353463575363
sVattempt
p256
F0.00016639927283135567
sVeffective
p257
F0.001470644288774207
sVmanic
p258
F0.0006617899299483931
sVtetra
p259
F0.0
sVspout
p260
F0.0
sVappreciate
p261
F0.0001352582125827689
sVhypnotic
p262
F0.0
sVscare
p263
F7.353221443871035e-05
sVwink
p264
F0.0
sV89
p265
F7.353221443871035e-05
sVmaintain
p266
F0.00018034428344369184
sVbedtime
p267
F0.0
sVultimate
p268
F0.0
sVgoodbye
p269
F0.0
sVenter
p270
F4.991978184940671e-05
sVevery
p271
F0.00041900961055778133
sVpreventive
p272
F0.0
sVoperate
p273
F0.0001470644288774207
sVskyping
p274
F0.0
sVorder
p275
F0.00011223471711369142
sVwind
p276
F0.00017067686146672435
sVwine
p277
F1.663992728313557e-05
sVblind
p278
F4.508607086092296e-05
sVfetter
p279
F0.0
sVkick
p280
F0.00039824601008902347
sVoffice
p281
F0.00011378457431114956
sVcheese
p282
F4.508607086092296e-05
sVmuffin
p283
F7.353221443871035e-05
sVvary
p284
F0.00040577463774830666
sVrxconnect
p285
F0.0
sVbefall
p286
F0.0
sVbuproprion
p287
F0.0
sVhypoapnea
p288
F0.0
sVresponsive
p289
F7.353221443871035e-05
sVshorter
p290
F4.508607086092296e-05
sVbenzodiazapine
p291
F0.0
sVime
p292
F0.0001470644288774207
sVpharma
p293
F0.0
sVfit
p294
F4.991978184940671e-05
sVauditory
p295
F0.0
sVpersonal
p296
F4.991978184940671e-05
sVfix
p297
F0.0004959467794701525
sVrecreational
p298
F0.00036766107219355173
sVimo
p299
F0.0
sVcomprehend
p300
F0.0
sVbetter
p301
F0.0005013150697744884
sVawfulness
p302
F0.0
sVcomplex
p303
F8.533843073336217e-05
sVdifferently
p304
F0.00018034428344369184
sVaccusatory
p305
F0.0
sVpharms
p306
F0.0
sVprecipitate
p307
F0.0
sVyohre
p308
F0.0
sVeasier
p309
F0.00019912300504451174
sVovercome
p310
F7.353221443871035e-05
sVpleasurable
p311
F0.0
sVversus
p312
F4.508607086092296e-05
sVeventually
p313
F0.0009559187877032345
sVcoffee
p314
F0.0002254303543046148
sVcombination
p315
F0.0005689228715557477
sVpowerful
p316
F0.0001470644288774207
sVunemployed
p317
F0.0
sVdrowsiness
p318
F0.0
sVtheanine
p319
F0.0
sVhypomania
p320
F0.0
sVbreak
p321
F0.00040577463774830666
sVhypomanias
p322
F0.0
sVbang
p323
F4.508607086092296e-05
sVtherapy
p324
F0.0019853697898451796
sVhypomanic
p325
F0.0
sVlifelong
p326
F0.0
sVitchy
p327
F0.0
sVcolumbine
p328
F0.0
sVelavil
p329
F0.0
sVmeat
p330
F4.508607086092296e-05
sVusage
p331
F4.508607086092296e-05
sVedge
p332
F1.663992728313557e-05
sVreasonably
p333
F7.353221443871035e-05
sVsleepless
p334
F0.0
sVl
p335
F5.689228715557478e-05
sVneuroscientist
p336
F0.0
sVexplode
p337
F0.0
sVfrantically
p338
F4.508607086092296e-05
sVmead
p339
F0.0
sVreasonable
p340
F4.508607086092296e-05
sVfitness
p341
F7.353221443871035e-05
sVside
p342
F5.985851579396876e-05
sVbone
p343
F2.844614357778739e-05
sVmean
p344
F0.0004991978184940671
sVcandy
p345
F7.353221443871035e-05
sVsomnolent
p346
F0.0
sVconstipation
p347
F7.353221443871035e-05
sVevolve
p348
F4.508607086092296e-05
sVstabiliser
p349
F0.0
sVseries
p350
F0.00022059664331613107
sVmdd
p351
F0.0
sVaide
p352
F0.0
sVvote
p353
F7.353221443871035e-05
sVunexplained
p354
F7.353221443871035e-05
sVextract
p355
F7.353221443871035e-05
sVslew
p356
F0.0
sVclothe
p357
F0.0
sVnetwork
p358
F7.353221443871035e-05
sVgod
p359
F9.017214172184592e-05
sVcrucial
p360
F0.0
sVenviroment
p361
F0.0
sVcontent
p362
F0.0001470644288774207
sVmethaphinidate
p363
F0.0
sVdsm
p364
F0.0
sVrare
p365
F0.0002941288577548414
sVrc
p366
F7.353221443871035e-05
sVmedicine
p367
F0.001691240932090338
sVsurprise
p368
F0.00011378457431114956
sVrn
p369
F0.0
sVgov
p370
F0.00022059664331613107
sVsluggish
p371
F7.353221443871035e-05
sVgrease
p372
F7.353221443871035e-05
sVcomedown
p373
F0.0
sVassociate
p374
F0.0002705164251655378
sVfree
p375
F0.00013311941826508455
sVstandard
p376
F2.844614357778739e-05
sVnti
p377
F0.0
sVmanagement
p378
F7.353221443871035e-05
sVformation
p379
F7.353221443871035e-05
sVstruggle
p380
F0.0003606885668873837
sVnmda
p381
F0.0
sVstereotypical
p382
F0.0
sVestimate
p383
F7.353221443871035e-05
sVheat
p384
F4.508607086092296e-05
sVchlorine
p385
F0.0
sVdroop
p386
F0.0
sVdrench
p387
F0.0
sVhorseshit
p388
F0.0
sVlongterm
p389
F0.0
sVtolerant
p390
F0.0
sVfilter
p391
F4.508607086092296e-05
sValcohol
p392
F0.0008566353463575363
sVish
p393
F0.0002941288577548414
sVoppose
p394
F0.0
sVisn
p395
F0.0002992925789698438
sVsoda
p396
F0.0001470644288774207
sVregress
p397
F0.0
sVscheme
p398
F4.508607086092296e-05
sVonto
p399
F2.844614357778739e-05
sVhire
p400
F0.0001470644288774207
sVfuckin
p401
F0.0002941288577548414
sVstewart
p402
F0.0
sVlaggy
p403
F0.0
sValready
p404
F0.00016461091843341408
sVcigarette
p405
F0.00018034428344369184
sVgrade
p406
F0.0005147255010709724
sVreassure
p407
F0.0
sVprimary
p408
F0.00018034428344369184
sVthereof
p409
F0.0
sVrestrict
p410
F0.0
sVhook
p411
F2.844614357778739e-05
sVkurzgesagt
p412
F0.0
sVdeplete
p413
F0.0
sVdownside
p414
F0.0
sVanother
p415
F0.00035915109476381256
sVwasn
p416
F0.0002618810065986133
sVsober
p417
F0.00044119328663226213
sVkazmierczak
p418
F0.0
sVcalorie
p419
F7.353221443871035e-05
sVpassionflower
p420
F0.0
sVelectronic
p421
F0.0
sVphych
p422
F0.0
sVillustrate
p423
F7.353221443871035e-05
sVstimulation
p424
F0.00022059664331613107
sVfence
p425
F4.508607086092296e-05
sVservice
p426
F8.533843073336217e-05
sVsimilarly
p427
F0.0
sVneurochemical
p428
F0.0
sVfluvoxamine
p429
F0.0
sVtraumatize
p430
F0.0
sVton
p431
F0.0002941288577548414
sVfumble
p432
F0.0
sVtea
p433
F0.00014223071788893693
sVunderlie
p434
F0.0
sVinconvenient
p435
F0.0
sVjohn
p436
F0.0
sVbitter
p437
F0.00022059664331613107
sVspazzing
p438
F0.0
sVlisten
p439
F0.00017067686146672435
sVmurder
p440
F7.353221443871035e-05
sVgrowth
p441
F7.353221443871035e-05
sVcollapse
p442
F0.0001470644288774207
sVanafranil
p443
F0.0
sVgym
p444
F4.508607086092296e-05
sV2am
p445
F0.0
sVlower
p446
F0.0002828787638133047
sVtrippy
p447
F0.0001470644288774207
sVdirect
p448
F7.353221443871035e-05
sVnoodle
p449
F7.353221443871035e-05
sVpredictable
p450
F0.0
sVsomewhat
p451
F0.0005147255010709724
sVhorn
p452
F4.508607086092296e-05
sVcrawl
p453
F2.844614357778739e-05
sVsymptom
p454
F0.0
sVtoronto
p455
F0.0
sVapproximation
p456
F0.0
sVtrek
p457
F0.0
sVanxiety
p458
F0.01073570330805171
sVtarget
p459
F0.00022059664331613107
sV5ht2a
p460
F0.0
sVhike
p461
F0.0
sVolder
p462
F4.991978184940671e-05
sVcrave
p463
F0.0
sVaztec
p464
F0.0
sVfinal
p465
F1.663992728313557e-05
sVshower
p466
F0.0006617899299483931
sVmatter
p467
F0.00018303920011449124
sVsolomon
p468
F0.0
sVsilly
p469
F2.844614357778739e-05
sV1600
p470
F0.0
sVhallucination
p471
F0.0
sVsupplement
p472
F0.0
sVbridge
p473
F2.844614357778739e-05
sVfashion
p474
F0.0001470644288774207
sVentail
p475
F0.0
sVminn
p476
F0.0
sVrattle
p477
F0.0
sVprozac
p478
F0.0
sVmind
p479
F0.0007111535894446848
sVmine
p480
F0.00016639927283135567
sVreturn
p481
F4.991978184940671e-05
sVrat
p482
F4.508607086092296e-05
sVrap
p483
F7.353221443871035e-05
sVadhd
p484
F0.0
sVstomach
p485
F9.017214172184592e-05
sVseem
p486
F0.00041900961055778133
sVregulate
p487
F0.0
sVseek
p488
F6.655970913254228e-05
sVdozen
p489
F0.0001352582125827689
sVlatency
p490
F0.0
sVponder
p491
F0.0
sVstrength
p492
F5.689228715557478e-05
sVrealm
p493
F4.508607086092296e-05
sVrelapse
p494
F0.0
sVlatter
p495
F7.353221443871035e-05
sVresponsible
p496
F0.00018034428344369184
sVsnow
p497
F7.353221443871035e-05
sVthorough
p498
F0.0
sVpredominantly
p499
F0.0
sVchest
p500
F0.00011378457431114956
sVclient
p501
F4.508607086092296e-05
sVsleeper
p502
F7.353221443871035e-05
sVeffectiveness
p503
F0.0
sVgotcha
p504
F0.0
sVblue
p505
F0.00019912300504451174
sVexactly
p506
F0.00013311941826508455
sVclonazepam
p507
F0.0
sVmethylphenidate
p508
F0.0
sVobject
p509
F1.663992728313557e-05
sVneuroskeptic
p510
F0.0
sVdanysh
p511
F0.0
sVnorepinephrine
p512
F0.0
sVregular
p513
F0.0010294510021419448
sVmouth
p514
F8.533843073336217e-05
sVaddict
p515
F0.00044119328663226213
sVletter
p516
F5.689228715557478e-05
sVphase
p517
F0.00044119328663226213
sVcontain
p518
F0.0001470644288774207
sVunknowingly
p519
F0.0
sVsub
p520
F8.533843073336217e-05
sV7am
p521
F0.0
sVolanzapine
p522
F0.0
sVepisode
p523
F0.0006617899299483931
sVheartworm
p524
F0.0
sVdoc
p525
F0.001352582125827689
sVmedical
p526
F0.00039824601008902347
sVlose
p527
F0.00011223471711369142
sVflow
p528
F0.00022059664331613107
sVdog
p529
F0.0005404767279779604
sV4hrs
p530
F0.0
sVmoisturize
p531
F7.353221443871035e-05
sVdefinitely
p532
F0.0005404767279779604
sVtech
p533
F0.0008823865732645243
sVdeeply
p534
F9.017214172184592e-05
sVtoxic
p535
F0.0
sVurgency
p536
F0.0
sVbomb
p537
F7.353221443871035e-05
sVhunger
p538
F7.353221443871035e-05
sVretire
p539
F0.0
sVsubreddit
p540
F0.0
sVdaze
p541
F0.0
sVlyrica
p542
F0.0
sVdopey
p543
F0.0
sVparticipate
p544
F0.0
sVanalogue
p545
F0.0
sVrandomize
p546
F0.0
sVwisest
p547
F0.0
sVw8klnx9
p548
F0.0
sVbusy
p549
F4.991978184940671e-05
sVchamomile
p550
F0.0
sVexplain
p551
F0.00042669215366681083
sVocd
p552
F0.0
sVcripple
p553
F0.0
sVsugar
p554
F0.0002254303543046148
sVupstairs
p555
F4.508607086092296e-05
sVbush
p556
F0.0
sVbliss
p557
F0.0
sVadequate
p558
F0.0
sVboyfriend
p559
F0.00022059664331613107
sVpersonality
p560
F4.508607086092296e-05
sVmixture
p561
F0.0001470644288774207
sVwide
p562
F6.655970913254228e-05
sVuhhh
p563
F0.0
sVstop
p564
F0.00039656266713504305
sVtelevision
p565
F7.353221443871035e-05
sVpsychiatric
p566
F0.0
sVpocket
p567
F7.353221443871035e-05
sVamazon
p568
F7.353221443871035e-05
sVfuuuuuuckk
p569
F0.0
sVchristopher
p570
F0.0
sValtogether
p571
F9.017214172184592e-05
sVanxiolytic
p572
F0.0
sVnasty
p573
F4.508607086092296e-05
sVdr
p574
F0.00036766107219355173
sVibotenic
p575
F0.0
sVcomply
p576
F0.0
sVunfortunately
p577
F0.0005147255010709724
sVprofoundly
p578
F0.0
sVbar
p579
F8.533843073336217e-05
sVnicely
p580
F4.508607086092296e-05
sVofficially
p581
F0.0
sVhospitalize
p582
F0.0
sVidiotic
p583
F0.0
sVpatch
p584
F0.00018034428344369184
sVbaf
p585
F0.0
sVbag
p586
F0.0001352582125827689
sVbad
p587
F0.00035166878028956643
sVerupt
p588
F0.0
sVarchitecture
p589
F0.0
sVisolation
p590
F0.0
sVrelease
p591
F0.00017067686146672435
sVidentify
p592
F9.017214172184592e-05
sVautomatic
p593
F4.508607086092296e-05
sVrequire
p594
F0.0008088543588258138
sVfarther
p595
F7.353221443871035e-05
sVrespond
p596
F0.0002705164251655378
sVdeprenyl
p597
F0.0
sVnortryptaline
p598
F0.0
sVmandatory
p599
F0.0
sVvictim
p600
F7.353221443871035e-05
sVcrunch
p601
F0.0
sVliquor
p602
F5.689228715557478e-05
sVresist
p603
F7.353221443871035e-05
sVanalytics
p604
F0.0
sVimho
p605
F0.0
sVnontraditional
p606
F0.0
sVfail
p607
F6.655970913254228e-05
sVmiserable
p608
F0.0003606885668873837
sVdepressive
p609
F0.0
sV93
p610
F4.508607086092296e-05
sVbest
p611
F0.00021698711975313677
sV00
p612
F0.0008088543588258138
sV01
p613
F0.0001470644288774207
sV06
p614
F7.353221443871035e-05
sV07
p615
F4.508607086092296e-05
sVinappropriate
p616
F4.508607086092296e-05
sVscrap
p617
F0.0
sViirc
p618
F0.0
sVwikipedia
p619
F0.0
sVimipramine
p620
F0.0
sVgrandmother
p621
F7.353221443871035e-05
sVcarneal
p622
F0.0
sVstartle
p623
F0.0
sVscore
p624
F5.689228715557478e-05
sVfinger
p625
F2.844614357778739e-05
sVomeprazole
p626
F0.0
sVhopefully
p627
F0.0
sVtolerance
p628
F0.0011765154310193655
sVlethargic
p629
F0.0
sVpreserve
p630
F7.353221443871035e-05
sVwarrior
p631
F7.353221443871035e-05
sVreddit
p632
F0.0
sVmen
p633
F2.844614357778739e-05
sVomg
p634
F7.353221443871035e-05
sVextend
p635
F0.00018034428344369184
sVnature
p636
F7.482314474246095e-06
sVleared
p637
F0.0
sVhandful
p638
F0.0
sVweak
p639
F0.00022059664331613107
sVvitamin
p640
F0.0
sVtoothbrush
p641
F7.353221443871035e-05
sVwear
p642
F0.0004959467794701525
sVcontamination
p643
F0.0
sVcousin
p644
F7.353221443871035e-05
sVdebt
p645
F7.353221443871035e-05
sVlaze
p646
F0.0
sVimprove
p647
F0.0005861189211919985
sVpity
p648
F7.353221443871035e-05
sVcop
p649
F0.00031560249602646074
sVessentially
p650
F0.0
sVaccident
p651
F7.353221443871035e-05
sVagonist
p652
F0.0
sVresistant
p653
F0.0
sVcountry
p654
F1.663992728313557e-05
sVill
p655
F0.00011378457431114956
sVjelly
p656
F0.0
sVbrag
p657
F0.0
sVcod
p658
F7.353221443871035e-05
sVcrank
p659
F0.0
sVwoodham
p660
F0.0
sVargue
p661
F7.353221443871035e-05
sVpeacefully
p662
F0.0
sVtough
p663
F0.00011378457431114956
sVrelaxation
p664
F0.0
sVwaaay
p665
F0.0
sV2nd
p666
F4.508607086092296e-05
sVhygiene
p667
F0.0002941288577548414
sVforay
p668
F0.0
sVrotundness
p669
F0.0
sVchlorpheniramine
p670
F0.0
sVnews
p671
F8.533843073336217e-05
sVrefill
p672
F0.0008823865732645243
sVtrust
p673
F0.00018034428344369184
sVwakefulness
p674
F0.0
sVmatti
p675
F0.0
sVspeak
p676
F0.0005861189211919985
sVaccustom
p677
F0.0
sVbathroom
p678
F0.0002941288577548414
sViraq
p679
F0.0
sVabdominal
p680
F0.0
sVdrugsdb
p681
F0.0
sVrecur
p682
F0.0
sVbasis
p683
F0.00011647949098194898
sVunion
p684
F7.353221443871035e-05
sVbinge
p685
F0.0
sVsubside
p686
F0.0
sVthree
p687
F0.0001496462894849219
sVquickly
p688
F9.983956369881342e-05
sVconfident
p689
F0.0
sVbeer
p690
F0.00044119328663226213
sVtrigger
p691
F0.00044119328663226213
sVinterest
p692
F0.0008566353463575363
sVbasic
p693
F2.844614357778739e-05
sVfry
p694
F0.0001470644288774207
sVwarmth
p695
F0.0
sVteenager
p696
F0.0001470644288774207
sVdry
p697
F0.0001352582125827689
sVlife
p698
F0.00043397423950627354
sVprn
p699
F0.0
sVdeeper
p700
F7.353221443871035e-05
sVefficacy
p701
F0.0
sV900mg
p702
F0.0
sVsuppress
p703
F0.0
sVworker
p704
F0.0001470644288774207
sVuncommon
p705
F0.00018034428344369184
sVdecrepit
p706
F0.0
sVlift
p707
F0.00018034428344369184
sVpersonally
p708
F0.00018303920011449124
sVcatch
p709
F0.0001352582125827689
sVdeepen
p710
F0.0
sVspin
p711
F0.0
sVxyrem
p712
F0.0
sVchill
p713
F7.353221443871035e-05
sVphysician
p714
F0.0
sVexception
p715
F9.017214172184592e-05
sVpublicly
p716
F0.0
sVlsd_health3
p717
F0.0
sVneal
p718
F0.0
sVkentucky
p719
F0.0
sVair
p720
F4.991978184940671e-05
sVcalcium
p721
F0.0
sVnear
p722
F3.7411572371230474e-05
sVsuppose
p723
F0.0005410328503310756
sVmotorist
p724
F0.0
sVaid
p725
F0.0
sVbalance
p726
F0.00036766107219355173
sVstudy
p727
F0.000991893558940305
sVmistake
p728
F3.327985456627114e-05
sVpessimistic
p729
F0.0
sVseven
p730
F0.00018034428344369184
sVir
p731
F0.0
sVsymbyax
p732
F0.0
sViv
p733
F0.0
sVii
p734
F0.0
sVshame
p735
F0.00018034428344369184
sVcant
p736
F0.0001470644288774207
sVdizzy
p737
F0.0
sVim
p738
F0.00036766107219355173
sVmarch
p739
F0.0001470644288774207
sVuplift
p740
F0.0
sVie
p741
F7.353221443871035e-05
sVid
p742
F0.0001470644288774207
sVdisappear
p743
F4.508607086092296e-05
sVamitryptaline
p744
F0.0
sV20049305
p745
F0.0
sVseverity
p746
F0.0
sVperform
p747
F5.689228715557478e-05
sVsuggest
p748
F0.001470644288774207
sVapollo
p749
F0.0
sVrecurrent
p750
F0.0
sVwound
p751
F0.001036979629801228
sVnardil
p752
F0.0
sVtemazepam
p753
F0.0
sVpotentially
p754
F0.0002941288577548414
sVbelly
p755
F7.353221443871035e-05
sVincorrectly
p756
F7.353221443871035e-05
sVvegetable
p757
F7.353221443871035e-05
sVseveral
p758
F0.0006762910629138445
sVambien
p759
F0.0
sVeuropean
p760
F0.0
sVwheel
p761
F2.844614357778739e-05
sVfairly
p762
F0.0005861189211919985
sVnih
p763
F0.0
sVadvocate
p764
F0.0
sVallready
p765
F0.0
sVinadvertently
p766
F7.353221443871035e-05
sVunbearable
p767
F0.0
sVpick
p768
F0.00019912300504451174
sVhang
p769
F6.655970913254228e-05
sVevil
p770
F5.689228715557478e-05
sVhand
p771
F0.0
sVcessation
p772
F0.0
sVzaleplon
p773
F0.0
sVsupper
p774
F0.0
sVjealous
p775
F0.0001470644288774207
sVkid
p776
F0.0002941288577548414
sVbutter
p777
F7.353221443871035e-05
sVdylan
p778
F0.0
sVshortly
p779
F0.0001470644288774207
sVmirtazipine
p780
F0.0
sVprioritize
p781
F0.0001470644288774207
sVyoure
p782
F0.0
sVdeal
p783
F0.0003993582547952537
sVtho
p784
F0.00022059664331613107
sVacademic
p785
F7.353221443871035e-05
sVcontact
p786
F8.533843073336217e-05
sVmother
p787
F3.7411572371230474e-05
sV800
p788
F9.017214172184592e-05
sVcorporate
p789
F4.508607086092296e-05
sVseasonal
p790
F0.0
sVetiquette
p791
F0.0
sVsentence
p792
F0.00036766107219355173
sVyea
p793
F0.0
sVisolate
p794
F0.0
sVlaptop
p795
F9.017214172184592e-05
sVsleepy
p796
F0.0020589020042838897
sVunfair
p797
F7.353221443871035e-05
sVdisguise
p798
F7.353221443871035e-05
sVpsych
p799
F0.0
sVdramamine
p800
F0.0
sVhuman
p801
F0.00022756914862229912
sVdopamine
p802
F0.0
sVyep
p803
F0.00022059664331613107
sVyes
p804
F8.978777369095314e-05
sVcaregiver
p805
F0.0
sVyet
p806
F7.482314474246095e-05
sVelectronically
p807
F0.0
sVprevious
p808
F3.7411572371230474e-05
sVthyroid
p809
F0.0
sVvisualization
p810
F0.0
sVunable
p811
F0.00040577463774830666
sVantidopaminergic
p812
F0.0
sVinstance
p813
F5.689228715557478e-05
sV27th
p814
F0.0
sVease
p815
F9.017214172184592e-05
sVsnus
p816
F0.0
sVelf
p817
F7.353221443871035e-05
sVsubutex
p818
F0.0
sVxr
p819
F0.0
sVpharmacy
p820
F0.0008823865732645243
sVbp1
p821
F0.0
sVhydroxozine
p822
F0.0
sVn
p823
F2.992925789698438e-05
sVunwanted
p824
F7.353221443871035e-05
sVboard
p825
F0.00011378457431114956
sVeasy
p826
F0.0
sVprison
p827
F4.508607086092296e-05
sVweise
p828
F0.0
sVcomplainer
p829
F0.0
sVsave
p830
F0.00019912300504451174
sVhat
p831
F5.689228715557478e-05
sVtolerable
p832
F0.0
sVopt
p833
F7.353221443871035e-05
sVbrotizolam
p834
F0.0
sVelevation
p835
F0.0
sVfracture
p836
F0.0
sVinvoluntary
p837
F0.0
sVonline
p838
F0.0001352582125827689
sVpossible
p839
F0.00029951869109644025
sVpossibly
p840
F8.319963641567783e-05
sVfusion
p841
F0.0
sV3pm
p842
F0.0
sVjudge
p843
F9.017214172184592e-05
sVclickable
p844
F7.353221443871035e-05
sVshadow
p845
F4.508607086092296e-05
sVunique
p846
F0.00018034428344369184
sVmassively
p847
F0.0
sVcognitive
p848
F0.0
sVstint
p849
F0.0
sVfioricet
p850
F0.0
sVbpd
p851
F0.0
sVgift
p852
F7.353221443871035e-05
sVconcious
p853
F0.0
sVdishonest
p854
F7.353221443871035e-05
sV50
p855
F0.00033279854566271134
sVunbearably
p856
F0.0
sVintermittently
p857
F7.353221443871035e-05
sVremind
p858
F9.017214172184592e-05
sVpavement
p859
F7.353221443871035e-05
sVindoors
p860
F0.0
sVfastest
p861
F7.353221443871035e-05
sVofficer
p862
F4.508607086092296e-05
sVsparse
p863
F0.0
sVnight
p864
F0.0010849355987656837
sVinvaluable
p865
F0.0
sVaccuracy
p866
F0.0
sVprepping
p867
F0.0
sVbeneficial
p868
F0.00022059664331613107
sVright
p869
F0.00041152729608353526
sVold
p870
F0.0
sVcrowd
p871
F4.508607086092296e-05
sVurge
p872
F0.0
sVbpm
p873
F0.0
sVhindsight
p874
F0.0
sVsomehow
p875
F0.00011378457431114956
sVelderly
p876
F0.0001470644288774207
sVreevaluate
p877
F0.0
sVmileage
p878
F0.0
sVusher
p879
F7.353221443871035e-05
sVflatten
p880
F0.0
sVmarplan
p881
F0.0
sVescape
p882
F3.327985456627114e-05
sVmultiple
p883
F0.0002254303543046148
sVserquol
p884
F0.0
sVmanifest
p885
F7.353221443871035e-05
sVcreep
p886
F7.353221443871035e-05
sVwha
p887
F0.0
sVspecific
p888
F0.00022756914862229912
sVsociology
p889
F0.0
sVbottom
p890
F3.7411572371230474e-05
sVear
p891
F7.353221443871035e-05
sVopposite
p892
F0.00018034428344369184
sVjolt
p893
F0.0
sVdaytime
p894
F0.0005147255010709724
sVcreative
p895
F9.017214172184592e-05
sVforever
p896
F0.0003606885668873837
sVeverything
p897
F0.000157128603959168
sVicy
p898
F4.508607086092296e-05
sVfog
p899
F0.0
sVimodium
p900
F0.0
sVchristmas
p901
F0.0
sVbold
p902
F2.844614357778739e-05
sVburn
p903
F0.00018034428344369184
sVdiscount
p904
F0.00044119328663226213
sVbinder
p905
F0.0
sVxanex
p906
F0.0
sVmemorable
p907
F0.0
sVfastime
p908
F0.0
sVsuper
p909
F0.0005861189211919985
sVcory
p910
F0.0
sVvalium
p911
F0.0
sVfierce
p912
F0.0
sVrestlessness
p913
F0.0
sVlightheaded
p914
F0.0
sVconceal
p915
F0.0
sVinjure
p916
F0.0
sVv
p917
F0.0008088543588258138
sVo
p918
F7.482314474246095e-06
sVessential
p919
F0.0
sVsnri
p920
F0.0
sVdinner
p921
F0.00017067686146672435
sV8yrs
p922
F0.0
sVafternoon
p923
F0.00036766107219355173
sVcommit
p924
F0.00018034428344369184
sVtwitch
p925
F0.0001470644288774207
sVslightly
p926
F3.327985456627114e-05
sVbook
p927
F0.00040577463774830666
sVautomatically
p928
F0.0001352582125827689
sVmatch
p929
F5.689228715557478e-05
sVnerve
p930
F7.353221443871035e-05
sVprilosec
p931
F0.0
sVod
p932
F0.0
sVpuzzle
p933
F7.353221443871035e-05
sVhyperventilate
p934
F0.0
sVbath
p935
F7.353221443871035e-05
sVadminister
p936
F0.0
sVthankful
p937
F0.0
sVobligate
p938
F0.0
sVadventure
p939
F0.0001470644288774207
sVshite
p940
F0.0
sVdean
p941
F0.0
sVcubicle
p942
F7.353221443871035e-05
sVstumble
p943
F0.0
sVbenadryll
p944
F0.0
sVquit
p945
F0.0007213771337747673
sVrely
p946
F4.508607086092296e-05
sVprovigil
p947
F0.0
sVfairyland
p948
F0.0
sVvaccination
p949
F0.0
sVamazingly
p950
F7.353221443871035e-05
sVsupport
p951
F0.00018034428344369184
sVinitial
p952
F0.00011378457431114956
sVfight
p953
F0.00014223071788893693
sVfulminant
p954
F0.0
sVcarthage_nursing_home_shooting
p955
F0.0
sVway
p956
F0.00041900961055778133
sVmusic
p957
F1.496462894849219e-05
sVmetabolism
p958
F0.00022059664331613107
sVhappy
p959
F0.0002662388365301691
sVlowest
p960
F7.353221443871035e-05
sVstarve
p961
F7.353221443871035e-05
sVhead
p962
F0.00016461091843341408
sVsuccessfully
p963
F0.0001470644288774207
sVform
p964
F0.00031615861837957577
sVoffer
p965
F0.00017067686146672435
sVlorazepam
p966
F0.0
sVdepakote
p967
F0.0
sVbleargh
p968
F0.0
sVtendon
p969
F0.0
sVfailure
p970
F9.017214172184592e-05
sVdesipramine
p971
F0.0
sVhear
p972
F0.0003494384729458469
sVidgaf
p973
F0.0
sVsleepapnea
p974
F0.0
sVsignificantly
p975
F0.0
sVtrue
p976
F6.655970913254228e-05
sVareata
p977
F0.0
sVreset
p978
F0.00022059664331613107
sVcounsel
p979
F0.0
sVinjury
p980
F0.00022059664331613107
sVhappen
p981
F0.0005158377457772026
sVmartial
p982
F0.0001470644288774207
sVinside
p983
F2.2446943422738285e-05
sVmaximum
p984
F0.0001470644288774207
sVnicest
p985
F7.353221443871035e-05
sVentitlement
p986
F7.353221443871035e-05
sVemotional
p987
F0.0002941288577548414
sVdelete
p988
F9.017214172184592e-05
sVdiagnose
p989
F0.001691240932090338
sV150
p990
F0.0
sVlater
p991
F0.0006827074458668974
sV122
p992
F0.0
sVselegiline
p993
F0.0
sVturbo
p994
F7.353221443871035e-05
sVtoss
p995
F0.0001470644288774207
sV49
p996
F7.353221443871035e-05
sVreligiously
p997
F0.0
sVtextbook
p998
F7.353221443871035e-05
sVevidence
p999
F0.00031560249602646074
sVgland
p1000
F0.0
sVsometime
p1001
F2.844614357778739e-05
sVmostly
p1002
F0.0003413537229334487
sVcandle
p1003
F7.353221443871035e-05
sVrequest
p1004
F0.00017067686146672435
sVengeldinger
p1005
F0.0
sVawhile
p1006
F0.0001470644288774207
sVcheck
p1007
F0.0008115492754966133
sVshit
p1008
F0.001127151771523074
sVphysical
p1009
F0.0
sVapartment
p1010
F0.0005147255010709724
sV200mg
p1011
F0.0
sVnl
p1012
F7.353221443871035e-05
sVfloor
p1013
F0.0002254303543046148
sVnoooooope
p1014
F0.0
sVna
p1015
F0.0
sVwhereas
p1016
F0.0002941288577548414
sVwary
p1017
F0.0
sVgenerally
p1018
F0.0003129075793556613
sVjokela
p1019
F0.0
sVtil
p1020
F5.689228715557478e-05
sVgrammatical
p1021
F0.0
sVsetting
p1022
F1.663992728313557e-05
sVrole
p1023
F0.0001470644288774207
sVsoundly
p1024
F0.0
sVtest
p1025
F0.00042669215366681083
sVdur
p1026
F0.0
sVsmell
p1027
F9.017214172184592e-05
sVroll
p1028
F0.00022756914862229912
sVcortex
p1029
F0.0
sVsue
p1030
F7.353221443871035e-05
sVpicture
p1031
F5.689228715557478e-05
sVintend
p1032
F7.353221443871035e-05
sVtruncate
p1033
F7.353221443871035e-05
sVcanto
p1034
F0.0
sVhaha
p1035
F7.353221443871035e-05
sVfelt
p1036
F0.0011662918866892828
sVupdate
p1037
F7.353221443871035e-05
sVdiet
p1038
F0.0002941288577548414
sVdependence
p1039
F0.0
sVfell
p1040
F0.00014223071788893693
sVprofessional
p1041
F9.017214172184592e-05
sVvariable
p1042
F9.017214172184592e-05
sVneuroscience
p1043
F0.0
sVaware
p1044
F0.0
sVweekend
p1045
F0.0002254303543046148
sV125
p1046
F0.0
sVbillion
p1047
F0.0001470644288774207
sVyounger
p1048
F0.00011378457431114956
sVlonger
p1049
F0.0001496462894849219
sVbullet
p1050
F4.508607086092296e-05
sVphone
p1051
F0.0002705164251655378
sVassume
p1052
F0.0005147255010709724
sVinterval
p1053
F0.0
sVdaily
p1054
F0.0012500476454580759
sVsafe
p1055
F0.00039824601008902347
sVclassmate
p1056
F0.0
sVtime
p1057
F0.0
sVpush
p1058
F0.00045513829724459824
sVserious
p1059
F0.00019912300504451174
sVsomeplace
p1060
F7.353221443871035e-05
sVoverdue
p1061
F0.0
sVroh
p1062
F0.0
sVurinary
p1063
F0.0
sVlexipro
p1064
F0.0
sVskip
p1065
F0.0003606885668873837
sVexcellent
p1066
F0.0001470644288774207
sVrod
p1067
F0.0
sVfocus
p1068
F0.0015441765032129173
sVinvent
p1069
F7.353221443871035e-05
sVmild
p1070
F0.0
sVmile
p1071
F0.00018034428344369184
sVasymptomatic
p1072
F0.0
sVmodafinil
p1073
F0.0
sVskin
p1074
F7.482314474246095e-06
sVosa
p1075
F0.0
sVmilk
p1076
F0.00022059664331613107
sVretention
p1077
F0.0001470644288774207
sVvet
p1078
F0.0006617899299483931
sVsuicide
p1079
F0.0010294510021419448
sVdepend
p1080
F0.0007353221443871035
sVzone
p1081
F0.00011378457431114956
sVzonk
p1082
F0.0
sV95
p1083
F1.663992728313557e-05
sVpromote
p1084
F0.0002941288577548414
sVfather
p1085
F8.533843073336217e-05
sVlactolose
p1086
F0.0
sVenvironment
p1087
F0.0001352582125827689
sV0
p1088
F0.00040577463774830666
sVfinally
p1089
F0.00040577463774830666
sVcompensate
p1090
F0.0
sVrhythm
p1091
F0.00036766107219355173
sVterror
p1092
F0.0
sVgaaaahhhh
p1093
F0.0
sVmust
p1094
F0.0
sVaspx
p1095
F7.353221443871035e-05
sVbrown
p1096
F2.844614357778739e-05
sVsmartphone
p1097
F0.0
sVstring
p1098
F1.663992728313557e-05
sVjerk
p1099
F0.0001470644288774207
sVrecipe
p1100
F0.0
sVglycemic
p1101
F0.0
sVstory
p1102
F0.0004508607086092296
sVseemingly
p1103
F7.353221443871035e-05
sVchoice
p1104
F0.00022756914862229912
sVmourn
p1105
F0.0
sVanonymous
p1106
F4.508607086092296e-05
sVcook
p1107
F4.508607086092296e-05
sVword
p1108
F7.482314474246095e-05
sVtrouble
p1109
F0.0001496462894849219
sVminipress
p1110
F0.0
sVexact
p1111
F0.00019912300504451174
sVcoon
p1112
F0.0
sVminute
p1113
F0.00042669215366681083
sVcool
p1114
F0.0001470644288774207
sVaggressively
p1115
F0.0
sV39621
p1116
F0.0
sVsucky
p1117
F0.0
sVlevel
p1118
F5.985851579396876e-05
sVcooky
p1119
F0.0
sVdie
p1120
F9.983956369881342e-05
sVdig
p1121
F0.0001470644288774207
sVaccidentally
p1122
F2.844614357778739e-05
sVadderal
p1123
F0.0
sVleave
p1124
F0.0003993582547952537
sVitem
p1125
F2.844614357778739e-05
sVsettle
p1126
F2.844614357778739e-05
sVapathetic
p1127
F0.0
sVteam
p1128
F0.0001470644288774207
sVquick
p1129
F5.985851579396876e-05
sVguy
p1130
F8.533843073336217e-05
sVdip
p1131
F7.353221443871035e-05
sVround
p1132
F4.991978184940671e-05
sVwellbutrin
p1133
F0.0
sVshoe
p1134
F0.0001470644288774207
sVprevent
p1135
F0.0002254303543046148
sVspiritual
p1136
F7.353221443871035e-05
sVtremendously
p1137
F0.0
sVslower
p1138
F4.508607086092296e-05
sVregret
p1139
F9.017214172184592e-05
sVpeds
p1140
F0.0
sVporn
p1141
F0.0002941288577548414
sVsigh
p1142
F4.508607086092296e-05
sVdiscover
p1143
F0.00018034428344369184
sVagitate
p1144
F0.0
sVmilligram
p1145
F0.0
sVnorthern_illinois_university_shooting
p1146
F0.0
sVcost
p1147
F2.844614357778739e-05
sVgummies
p1148
F0.0
sVscarce
p1149
F0.0
sVetizolam
p1150
F0.0
sVhelpless
p1151
F0.0
sVcuddly
p1152
F7.353221443871035e-05
sVfear
p1153
F8.533843073336217e-05
sVsubstitute
p1154
F0.0
sVafghanistan
p1155
F0.0
sVeducate
p1156
F0.0
sVfistful
p1157
F0.0
sVappear
p1158
F0.0002254303543046148
sVpsychotropic
p1159
F0.0
sVfiller
p1160
F0.0
sVassistance
p1161
F0.0
sVmelt
p1162
F0.0
sV25mg
p1163
F0.0
sVcurrent
p1164
F0.0003129075793556613
sVacademically
p1165
F0.0
sVhealth
p1166
F0.0008823865732645243
sVsuspect
p1167
F9.017214172184592e-05
sVtemplate
p1168
F0.0
sVreply
p1169
F0.0001352582125827689
sVboost
p1170
F0.0
sVthc
p1171
F0.0
sValertness
p1172
F0.0
sVparadoxical
p1173
F0.0
sVfocalin
p1174
F0.0
sVpose
p1175
F0.0
sVmeth
p1176
F0.0
sVfuneral
p1177
F7.353221443871035e-05
sVinvoluntarily
p1178
F0.0
sVfrench
p1179
F4.508607086092296e-05
sVrug
p1180
F0.0
sVwater
p1181
F0.00019912300504451174
sVhall
p1182
F7.353221443871035e-05
sVpause
p1183
F1.663992728313557e-05
sVtopiramate
p1184
F0.0
sVaddress
p1185
F0.0002254303543046148
sValone
p1186
F0.00045513829724459824
sVpdoc
p1187
F0.0
sValong
p1188
F7.482314474246095e-05
sVteacher
p1189
F0.0010294510021419448
sVchange
p1190
F0.0006542613022891099
sVwait
p1191
F9.983956369881342e-05
sVbox
p1192
F3.327985456627114e-05
sVboy
p1193
F2.844614357778739e-05
sVtianeptine
p1194
F0.0
sVincoming
p1195
F0.0
sVnoticeable
p1196
F0.0001470644288774207
sVcanadian
p1197
F0.0
sVhealthy
p1198
F0.00022756914862229912
sVshift
p1199
F0.0002941288577548414
sVhadn
p1200
F0.00014223071788893693
sVguilty
p1201
F0.00022059664331613107
sVfinnish
p1202
F0.0
sVcommonly
p1203
F0.0
sVqueue
p1204
F0.0
sVtrial
p1205
F0.0004508607086092296
sVineffective
p1206
F0.00036766107219355173
sVtotal
p1207
F0.0003129075793556613
sVsuggestion
p1208
F0.0002254303543046148
sVusually
p1209
F0.0010525073123781334
sVweird
p1210
F0.000512030584400173
sVhistory
p1211
F0.00019912300504451174
sVpillow
p1212
F7.353221443871035e-05
sV20mg
p1213
F0.0
sVpepto
p1214
F0.0
sVteenage
p1215
F7.353221443871035e-05
sVfibro
p1216
F0.0
sVlove
p1217
F0.00016639927283135567
sVconfidentiality
p1218
F7.353221443871035e-05
sVsign
p1219
F1.496462894849219e-05
sVdefer
p1220
F0.0
sVtweak
p1221
F0.0
sVmerely
p1222
F0.0
sVprefer
p1223
F0.00014223071788893693
sVlogical
p1224
F0.0
sVbloody
p1225
F2.844614357778739e-05
sVmobic
p1226
F0.0
sVcvp06t4
p1227
F0.0
sVverge
p1228
F0.0
sVfake
p1229
F0.0001470644288774207
sVtrazodon
p1230
F0.0
sVtuesday
p1231
F0.0
sVrarely
p1232
F0.0
sVpost
p1233
F0.0007664632046356903
sVmarket
p1234
F4.508607086092296e-05
sVsympathetic
p1235
F0.0
sVterminal
p1236
F4.508607086092296e-05
sVseraquel
p1237
F0.0
sVdiscus
p1238
F0.0
sVflatline
p1239
F0.0
sVperk
p1240
F0.0
sVpositive
p1241
F0.00017067686146672435
sVangry
p1242
F0.0001352582125827689
sVvisit
p1243
F0.00022756914862229912
sVlive
p1244
F0.00022446943422738285
sVapproach
p1245
F4.508607086092296e-05
sVandy
p1246
F0.0
sVahhh
p1247
F0.0
sVtachycardia
p1248
F0.0
sVpregabalin
p1249
F0.0
sVtheoretical
p1250
F0.0
sVtoday
p1251
F0.00023295898196389796
sVaspirin
p1252
F0.0
sVdismay
p1253
F0.0
sVstrap
p1254
F7.353221443871035e-05
sVafford
p1255
F0.0001470644288774207
sVacceptable
p1256
F0.00022059664331613107
sVasa
p1257
F0.0
sVenvelope
p1258
F0.0
sVvalidity
p1259
F0.0
sVclue
p1260
F9.017214172184592e-05
sVemployee
p1261
F7.353221443871035e-05
sVvisual
p1262
F7.353221443871035e-05
sVtandem
p1263
F0.0
sVeverywhere
p1264
F5.689228715557478e-05
sVclonozapan
p1265
F0.0
sVsunscreen
p1266
F0.0
sVeffort
p1267
F7.353221443871035e-05
sVopaque
p1268
F7.353221443871035e-05
sVfly
p1269
F5.689228715557478e-05
sVimpair
p1270
F0.0
sVedible
p1271
F7.353221443871035e-05
sVopioids
p1272
F0.0
sVcar
p1273
F0.00011378457431114956
sVoriginally
p1274
F0.0002254303543046148
sVelectroconvulsive
p1275
F0.0
sVreflux
p1276
F0.0
sVsoul
p1277
F4.508607086092296e-05
sVatypical
p1278
F7.353221443871035e-05
sVhardest
p1279
F0.00036766107219355173
sVachieve
p1280
F0.0001470644288774207
sV9th
p1281
F0.0
sVcarolina
p1282
F0.0
sVdosage
p1283
F0.001911837575406469
sVoverpass
p1284
F0.0
sVcrazy
p1285
F0.0005410328503310756
sVfigure
p1286
F0.00031560249602646074
sVawesome
p1287
F7.353221443871035e-05
sVfuck
p1288
F0.0020589020042838897
sVagent
p1289
F0.00011378457431114956
sVsample
p1290
F3.327985456627114e-05
sV7pm
p1291
F0.0
sVdxm
p1292
F0.0
sVsurround
p1293
F0.0
sVbelsomra
p1294
F0.0
sVserum
p1295
F0.0
sVpink
p1296
F9.017214172184592e-05
sVproductive
p1297
F0.0002941288577548414
sVwinter
p1298
F4.508607086092296e-05
sVdiscussion
p1299
F4.508607086092296e-05
sVdelirious
p1300
F7.353221443871035e-05
sVwarfarin
p1301
F0.0
sVfph
p1302
F0.0
sVnyu
p1303
F0.0
sVchemical
p1304
F0.0005147255010709724
sVimmune
p1305
F7.353221443871035e-05
sVounce
p1306
F0.00022059664331613107
sVcriterion
p1307
F0.0
sVactual
p1308
F7.353221443871035e-05
sVpure
p1309
F1.663992728313557e-05
sVplus
p1310
F0.0002560152922000865
sVguarantee
p1311
F0.0001470644288774207
sVnye
p1312
F0.0
sVunbelievable
p1313
F0.0
sVmat
p1314
F0.0
sVcocktail
p1315
F0.0005147255010709724
sVinformation
p1316
F9.017214172184592e-05
sVmay
p1317
F0.00043397423950627354
sVmax
p1318
F0.0001470644288774207
sVwonderful
p1319
F5.689228715557478e-05
sVspot
p1320
F0.00014223071788893693
sVgrog
p1321
F0.0
sVbrazen
p1322
F0.0
sVemdr
p1323
F0.0
sV4th
p1324
F0.00022059664331613107
sVmad
p1325
F1.663992728313557e-05
sVdate
p1326
F0.0001352582125827689
sVlessen
p1327
F0.0
sVsuck
p1328
F0.0004508607086092296
sVdestructive
p1329
F7.353221443871035e-05
sVdata
p1330
F0.0009559187877032345
sVgrow
p1331
F0.00040577463774830666
sVman
p1332
F8.230545921670704e-05
sVstress
p1333
F0.001036979629801228
sVnatural
p1334
F0.0002254303543046148
sVneck
p1335
F9.017214172184592e-05
sVjohnson
p1336
F0.0
sVconscious
p1337
F0.0002941288577548414
sVwhenever
p1338
F9.017214172184592e-05
sVmaybe
p1339
F0.0
sVgoal
p1340
F7.353221443871035e-05
sVexplicit
p1341
F7.353221443871035e-05
sVrxed
p1342
F0.0
sVst
p1343
F0.0
sVtale
p1344
F4.508607086092296e-05
sVprovide
p1345
F0.00036766107219355173
sVswitch
p1346
F0.0008115492754966133
sVjail
p1347
F4.508607086092296e-05
sVprogressively
p1348
F0.0
sVlong
p1349
F0.0
sVoffend
p1350
F0.0001470644288774207
sVsa
p1351
F0.00036766107219355173
sVtalk
p1352
F0.0017921070454006056
sVnearly
p1353
F6.734083026821486e-05
sVcute
p1354
F9.017214172184592e-05
sVlsd
p1355
F0.0
sVfeb
p1356
F0.0
sVindeed
p1357
F5.689228715557478e-05
sVmianserin
p1358
F0.0
sVmidnight
p1359
F4.508607086092296e-05
sVimmodium
p1360
F0.0
sVdamage
p1361
F0.00031560249602646074
sVcourse
p1362
F0.0002828787638133047
sVshake
p1363
F9.017214172184592e-05
sVttc
p1364
F0.0
sVequip
p1365
F0.0
sVcold
p1366
F0.0002560152922000865
sVstill
p1367
F0.0
sVft
p1368
F7.353221443871035e-05
sVcola
p1369
F0.0
sVgrout
p1370
F0.0
sVderive
p1371
F0.0
sVgroup
p1372
F0.00016639927283135567
sVthank
p1373
F0.0006542613022891099
sVinternationally
p1374
F0.0
sVlackluster
p1375
F0.0
sVotherresources
p1376
F0.0
sVspy
p1377
F7.353221443871035e-05
sVstupidity
p1378
F0.0
sVhepatotoxic
p1379
F0.0
sVwindow
p1380
F3.327985456627114e-05
sVoccasionally
p1381
F0.00014223071788893693
sVsuspicion
p1382
F7.353221443871035e-05
sVwhole
p1383
F0.000512030584400173
sVmain
p1384
F2.2446943422738285e-05
sVuptake
p1385
F0.0
sVdeviant
p1386
F0.0
sVideal
p1387
F9.017214172184592e-05
sVcorrespondence
p1388
F0.0
sVnon
p1389
F0.00011223471711369142
sVgerd
p1390
F0.0
sV3
p1391
F0.001114875127970083
sVnod
p1392
F0.0001470644288774207
sVsmarter
p1393
F4.508607086092296e-05
sVkiller
p1394
F5.689228715557478e-05
sVinsomnia
p1395
F0.0
sVsooner
p1396
F7.353221443871035e-05
sVbound
p1397
F4.508607086092296e-05
sVunderneath
p1398
F1.663992728313557e-05
sVinterview
p1399
F7.353221443871035e-05
sVrexulti
p1400
F0.0
sVunimpressive
p1401
F0.0
sVhalf
p1402
F0.0002918102644955977
sVmetabolite
p1403
F0.0
sVbullshit
p1404
F0.0001470644288774207
sVwont
p1405
F0.0001470644288774207
sVrehabbbb
p1406
F0.0
sVname
p1407
F8.978777369095314e-05
sVstabilize
p1408
F0.0
sVstahl
p1409
F0.0
sVcognition
p1410
F7.353221443871035e-05
sVdidn
p1411
F0.000553691271094211
sVconcerta
p1412
F0.0
sVrealistic
p1413
F0.0
sVdysphoric
p1414
F0.0
sVrock
p1415
F8.533843073336217e-05
sVantiepileptic
p1416
F0.0
sVinstability
p1417
F0.0
sVhijack
p1418
F0.0
sVmirtazepine
p1419
F0.0
sVindividually
p1420
F4.508607086092296e-05
sVel
p1421
F7.353221443871035e-05
sVgerontology
p1422
F0.0
sVen
p1423
F0.0003606885668873837
sVeh
p1424
F2.844614357778739e-05
sVoperant
p1425
F0.0
sVed
p1426
F0.0001352582125827689
sVeg
p1427
F0.0001470644288774207
sVnightlight
p1428
F0.0
sVyeah
p1429
F0.000991893558940305
sVreplay
p1430
F0.0
sVsponsor
p1431
F0.0
sVsignage
p1432
F0.0
sVgtfo
p1433
F0.0
sVgirl
p1434
F8.319963641567783e-05
sVmorning
p1435
F0.0019387010470196873
sVsunrise
p1436
F4.508607086092296e-05
sVrelive
p1437
F7.353221443871035e-05
sVcanada
p1438
F0.0
sVultimately
p1439
F7.353221443871035e-05
sVaccomplish
p1440
F0.0
sVjackson
p1441
F0.0
sV3rd
p1442
F9.017214172184592e-05
sVspace
p1443
F0.0001352582125827689
sVfurthermore
p1444
F7.353221443871035e-05
sVsunburnt
p1445
F0.0
sVtingly
p1446
F0.0
sVincrease
p1447
F0.00121732391324492
sVseriously
p1448
F0.00014223071788893693
sVinvestigation
p1449
F7.353221443871035e-05
sVtrauma
p1450
F0.0
sVinternet
p1451
F0.00031560249602646074
sVbless
p1452
F9.017214172184592e-05
sVpocd
p1453
F0.0
sVincredibly
p1454
F0.0002254303543046148
sVcorrect
p1455
F0.00018034428344369184
sVhcl
p1456
F0.0
sVchemically
p1457
F0.0
sVmaneuver
p1458
F0.0
sVneurotrophic
p1459
F0.0
sVfacedown
p1460
F0.0
sVtheory
p1461
F0.0002941288577548414
sVampakines
p1462
F0.0
sVmiracle
p1463
F0.0
sVhoffman
p1464
F0.0
sVmillion
p1465
F0.0005882577155096828
sVromano
p1466
F0.0
sVpossibility
p1467
F0.0001352582125827689
sVquite
p1468
F0.00020202249080464456
sVcalifornia
p1469
F0.0
sVbesides
p1470
F0.0003606885668873837
sVorg
p1471
F0.0011765154310193655
sVcough
p1472
F5.689228715557478e-05
sVcard
p1473
F0.0001352582125827689
sVcare
p1474
F0.001127151771523074
sVadvance
p1475
F2.844614357778739e-05
sVcouldn
p1476
F0.0004825578912109315
sVlanguage
p1477
F5.689228715557478e-05
sVwaiter
p1478
F0.0001470644288774207
sVdunno
p1479
F4.508607086092296e-05
sVdeprivation
p1480
F0.0
sVmodest
p1481
F7.353221443871035e-05
sVbritish
p1482
F0.0
sV10mg
p1483
F0.0
sVmotion
p1484
F4.508607086092296e-05
sVthing
p1485
F0.0003367041513410743
sVlivable
p1486
F0.0
sVplace
p1487
F0.00013468166053642972
sVundesirable
p1488
F0.0
sVlactation
p1489
F7.353221443871035e-05
sVswing
p1490
F0.0001470644288774207
sVnetherlands
p1491
F0.0
sVview
p1492
F0.00011647949098194898
sVthink
p1493
F0.0008978777369095314
sVfirst
p1494
F0.0006584436737336563
sVemotion
p1495
F0.0001470644288774207
sVgunshot
p1496
F0.0
sVconstantly
p1497
F0.00014223071788893693
sVxl
p1498
F0.0
sVsafety
p1499
F0.0001352582125827689
sVquantity
p1500
F0.0
sVunisom
p1501
F0.0
sVspecifically
p1502
F0.0
sVdirectly
p1503
F5.689228715557478e-05
sVcarry
p1504
F2.2446943422738285e-05
sVimpossible
p1505
F0.0002254303543046148
sVmessage
p1506
F0.00011378457431114956
sVopen
p1507
F0.0
sVtomorrow
p1508
F0.0001470644288774207
sVzap
p1509
F0.0001470644288774207
sVsize
p1510
F1.663992728313557e-05
sVcity
p1511
F0.00019912300504451174
sVlittle
p1512
F0.0
sVnecessarily
p1513
F0.00018034428344369184
sVsheet
p1514
F5.689228715557478e-05
sVsilent
p1515
F4.508607086092296e-05
sVoccupy
p1516
F0.0
sVbite
p1517
F0.0004991978184940671
sVcarbonate
p1518
F0.0
sVanyone
p1519
F0.0002163190546807624
sVindicate
p1520
F0.00022059664331613107
sV2
p1521
F0.0004863504408259962
sV1g
p1522
F0.0
sV300mcg
p1523
F0.0
sVwhite
p1524
F3.327985456627114e-05
sVcite
p1525
F0.0
sVfriend
p1526
F0.00022446943422738285
sVapproriate
p1527
F0.0
sVspiral
p1528
F0.0001470644288774207
sVhub
p1529
F0.0
sVseason
p1530
F7.353221443871035e-05
sVprescribers
p1531
F0.0
sVoutcome
p1532
F0.0
sVshort
p1533
F0.00011223471711369142
sVprobably
p1534
F0.0007820765823073716
sVcopy
p1535
F5.689228715557478e-05
sVcleanse
p1536
F0.0
sVspecify
p1537
F0.0002941288577548414
sVinventor
p1538
F0.0
sV11
p1539
F5.237620131972267e-05
sV10
p1540
F0.00025439869212436723
sV13
p1541
F0.00019912300504451174
sV12
p1542
F0.0001421639750106758
sV15
p1543
F0.00013468166053642972
sV14
p1544
F0.0006258151587113226
sV17
p1545
F0.00017067686146672435
sV16
p1546
F0.00028446143577787387
sV19
p1547
F8.533843073336217e-05
sV18
p1548
F0.00045513829724459824
sVgotta
p1549
F0.00018034428344369184
sVunmedicated
p1550
F0.0
sVwar
p1551
F0.0001352582125827689
sVrehab
p1552
F0.0002941288577548414
sVfuture
p1553
F0.00011647949098194898
sVmagnesium
p1554
F0.0
sVcollege
p1555
F0.0005147255010709724
sVcounselor
p1556
F0.0001470644288774207
sVintraocular
p1557
F0.0
sVpre
p1558
F9.017214172184592e-05
sVillness
p1559
F0.0
sVpiece
p1560
F2.844614357778739e-05
sVsan
p1561
F0.0
sVpro
p1562
F0.0
sVcymbalta
p1563
F0.0
sVmarijuana
p1564
F0.0002941288577548414
sVinterpretation
p1565
F7.353221443871035e-05
sVinpatient
p1566
F0.0
sVsay
p1567
F0.0005087973842487345
sVpubmed
p1568
F0.0
sVtetracyclic
p1569
F0.0
sVtylenol
p1570
F0.0
sVbreakfast
p1571
F9.017214172184592e-05
sVrecover
p1572
F8.533843073336217e-05
sVsaw
p1573
F0.00022756914862229912
sVworst
p1574
F0.0004959467794701525
sVkevin
p1575
F0.0
sVshtml
p1576
F0.0
sVsandwich
p1577
F7.353221443871035e-05
sVcheerful
p1578
F0.0
sVveteran
p1579
F7.353221443871035e-05
sVdropcam
p1580
F0.0
sVforeigner
p1581
F0.0
sVaside
p1582
F0.00011378457431114956
sVnote
p1583
F0.00013311941826508455
sVrumination
p1584
F0.0
sVpotential
p1585
F0.0005147255010709724
sVdisadvantage
p1586
F0.0
sVsnris
p1587
F0.0
sVobjective
p1588
F0.0
sVdestroy
p1589
F0.0001470644288774207
sVconcern
p1590
F0.00044119328663226213
sVluvox
p1591
F0.0
sVchannel
p1592
F9.017214172184592e-05
sV200
p1593
F0.00022059664331613107
sVironically
p1594
F0.0
sVsure
p1595
F0.0006489571640422872
sVpain
p1596
F0.0003129075793556613
sVstrattera
p1597
F0.0
sVtrace
p1598
F0.0
sVnormal
p1599
F0.00045513829724459824
sVtrack
p1600
F0.0001352582125827689
sVhit
p1601
F9.983956369881342e-05
sVcorrelation
p1602
F0.0
sVmolecule
p1603
F0.0
sVclearer
p1604
F0.0
sVimportantly
p1605
F0.0
sVpair
p1606
F4.508607086092296e-05
sVgrateful
p1607
F0.0
sVamerica
p1608
F0.0
sVserequel
p1609
F0.0
sVunknowable
p1610
F0.0
sVespecially
p1611
F0.0002828787638133047
sVspirulina
p1612
F0.0
sVmarinara
p1613
F0.0
sVbore
p1614
F0.0001470644288774207
sVexciteable
p1615
F0.0
sVaverage
p1616
F0.00040577463774830666
sV8mg
p1617
F0.0
sVsteady
p1618
F0.0
sVdrive
p1619
F0.0004508607086092296
sVproperly
p1620
F3.327985456627114e-05
sVmri
p1621
F0.0
sVuncle
p1622
F7.353221443871035e-05
sVtypically
p1623
F0.00036766107219355173
sVmasturbation
p1624
F0.00022059664331613107
sVshop
p1625
F0.0001470644288774207
sVstimulator
p1626
F0.0
sVdrastically
p1627
F0.0
sVshot
p1628
F1.663992728313557e-05
sVshow
p1629
F5.985851579396876e-05
sVcheat
p1630
F7.353221443871035e-05
sVable
p1631
F0.0011315150552532187
sVcheap
p1632
F0.0001352582125827689
sVmassage
p1633
F0.0001470644288774207
sVbright
p1634
F5.689228715557478e-05
sVtherapist
p1635
F0.0011029832165806552
sVinconsistent
p1636
F4.508607086092296e-05
sVmazing
p1637
F0.0
sVhack
p1638
F7.353221443871035e-05
sVvenlafaxin
p1639
F0.0
sVcorner
p1640
F3.327985456627114e-05
sVpercs
p1641
F0.0
sVnlm
p1642
F0.0
sVinjection
p1643
F0.0
sVfifth
p1644
F0.0001470644288774207
sVground
p1645
F5.689228715557478e-05
sVrecollect
p1646
F0.0
sVslow
p1647
F0.00013311941826508455
sVsativa
p1648
F0.0
sVaripiprazole
p1649
F0.0
sVtitle
p1650
F9.017214172184592e-05
sVdick
p1651
F0.00022059664331613107
sVlopram
p1652
F0.0
sVtexture
p1653
F4.508607086092296e-05
sVconsiderable
p1654
F4.508607086092296e-05
sVwood
p1655
F3.327985456627114e-05
sVblack
p1656
F6.655970913254228e-05
sVteary
p1657
F0.0
sVclinically
p1658
F0.0
sVawareness
p1659
F0.0
sVdispute
p1660
F0.0
sVfda
p1661
F0.0
sVnootropics
p1662
F0.0
sVhostage
p1663
F0.0
sVffs
p1664
F0.0
sVhorrible
p1665
F0.0004959467794701525
sVmtx
p1666
F0.0
sVtruly
p1667
F9.017214172184592e-05
sVcannot
p1668
F0.00011647949098194898
sV2mg
p1669
F0.0
sVdistinctly
p1670
F0.0
sVsse
p1671
F0.0
sVconjunction
p1672
F0.0
sVrequip
p1673
F0.0
sVhyphenate
p1674
F0.0
sVcelebrate
p1675
F7.353221443871035e-05
sVprime
p1676
F7.353221443871035e-05
sVmanager
p1677
F4.508607086092296e-05
sVzofran
p1678
F0.0
sV5h
p1679
F0.0
sVartist
p1680
F7.353221443871035e-05
sVexplore
p1681
F0.0001470644288774207
sVseldom
p1682
F7.353221443871035e-05
sVpaducah
p1683
F0.0
sVklebold
p1684
F0.0
sVabsurdly
p1685
F0.0
sVsummary
p1686
F0.0
sVtdoc
p1687
F0.0
sVstupid
p1688
F0.00028446143577787387
sVdeferral
p1689
F0.0
sVuncover
p1690
F0.0
sVvision
p1691
F0.0
sVwiki
p1692
F0.0
sVpsychedelics
p1693
F0.0
sVallosteric
p1694
F0.0
sVhighest
p1695
F0.00022059664331613107
sVhonesty
p1696
F0.0
sVbuuuuut
p1697
F0.0
sVphysically
p1698
F0.00044119328663226213
sVactively
p1699
F0.0
sVasleep
p1700
F0.0022092174721852252
sVanyways
p1701
F9.017214172184592e-05
sVangina
p1702
F0.0
sVstigma
p1703
F0.0
sVsurgery
p1704
F0.00022059664331613107
sVsandoz
p1705
F0.0
sVwonder
p1706
F0.00039824601008902347
sVkurt
p1707
F0.0
sVdetect
p1708
F7.353221443871035e-05
sVautoincorrects
p1709
F0.0
sVsubsequent
p1710
F7.353221443871035e-05
sVreview
p1711
F0.0
sVlabel
p1712
F0.00039824601008902347
sVenough
p1713
F0.0
sVherbal
p1714
F0.00044119328663226213
sVunprescribed
p1715
F0.0
sVacross
p1716
F0.00011378457431114956
sVverification
p1717
F0.00036766107219355173
sVaffordable
p1718
F0.0
sVnotice
p1719
F0.0002662388365301691
sVmature
p1720
F2.844614357778739e-05
sVparent
p1721
F0.0005410328503310756
sVsomnolence
p1722
F0.0
sVscreen
p1723
F0.0002254303543046148
sVwednesday
p1724
F0.0
sVconcentrate
p1725
F7.353221443871035e-05
sVheal
p1726
F0.0
sVcoma
p1727
F7.353221443871035e-05
sVarticle
p1728
F2.844614357778739e-05
sVgauntlet
p1729
F0.0
sVinterfere
p1730
F0.0001470644288774207
sVcome
p1731
F0.00035166878028956643
sVreaction
p1732
F0.00040577463774830666
sVrugby
p1733
F0.0
sVncbi
p1734
F0.0
sVtopamax
p1735
F0.0
sVmany
p1736
F0.0
sVdedicate
p1737
F0.0
sVndri
p1738
F0.0
sVsomewhere
p1739
F0.00011647949098194898
sVloudly
p1740
F4.508607086092296e-05
sVtout
p1741
F0.0
sVdelirium
p1742
F0.0
sVlatuda
p1743
F0.0
sVexpression
p1744
F2.844614357778739e-05
sVbackpack
p1745
F7.353221443871035e-05
sVnearby
p1746
F4.508607086092296e-05
sVamong
p1747
F0.0001352582125827689
sVcancer
p1748
F0.00036766107219355173
sVzopidem
p1749
F0.0
sVcolor
p1750
F8.533843073336217e-05
sVpot
p1751
F0.00018034428344369184
sVperiod
p1752
F0.00016639927283135567
sVinsist
p1753
F0.0001470644288774207
sVadjudication
p1754
F0.0
sV60
p1755
F0.00031560249602646074
sVvenlafaxine
p1756
F0.0
sVlevomepromazine
p1757
F0.0
sVdiffer
p1758
F7.353221443871035e-05
sV65
p1759
F2.844614357778739e-05
sVapproval
p1760
F0.0
sVfreak
p1761
F0.00022059664331613107
sVbizarre
p1762
F0.0001470644288774207
sVactually
p1763
F0.00035915109476381256
sVhydrate
p1764
F0.0
sVboat
p1765
F7.353221443871035e-05
sVworthwhile
p1766
F7.353221443871035e-05
sVturkey
p1767
F0.0002941288577548414
sVcholestatic
p1768
F0.0
sVneurogenesis
p1769
F0.0
sVconyers
p1770
F0.0
sVwest
p1771
F0.0001470644288774207
sVskew
p1772
F0.0
sVcertify
p1773
F0.0
sVvacation
p1774
F0.0001470644288774207
sVpouch
p1775
F0.0
sVwobbly
p1776
F0.0
sVdurkheim
p1777
F0.0
sVmarx
p1778
F0.0
sV15mg
p1779
F0.0
sVdirection
p1780
F1.496462894849219e-05
sVfade
p1781
F4.508607086092296e-05
sV400
p1782
F4.508607086092296e-05
sVandrew
p1783
F0.0
sV6p
p1784
F0.0
sVdramatic
p1785
F4.508607086092296e-05
sVwake
p1786
F0.002133460768334054
sVmuscular
p1787
F4.508607086092296e-05
sV8h
p1788
F0.0
sVoverdose
p1789
F0.0005147255010709724
sVhardcore
p1790
F7.353221443871035e-05
sVcareful
p1791
F0.0002254303543046148
sVirrelevant
p1792
F7.353221443871035e-05
sVdiffuse
p1793
F7.353221443871035e-05
sV1mg
p1794
F0.0
sVcountless
p1795
F0.0
sVsound
p1796
F0.0003993582547952537
sVpredicament
p1797
F0.0
sVkappa
p1798
F0.0
sVsit
p1799
F0.00022756914862229912
sVwashington
p1800
F0.0
sVcompartmentalize
p1801
F0.0
sVpocatello
p1802
F0.0
sVmight
p1803
F0.0003666334092380587
sValter
p1804
F0.0
sVtrick
p1805
F0.00017067686146672435
sVcast
p1806
F4.991978184940671e-05
sVongoing
p1807
F0.0
sVpizza
p1808
F7.353221443871035e-05
sVcoca
p1809
F0.0
sVsituation
p1810
F0.0008115492754966133
sVsmenu_otherresources
p1811
F0.0
sVambian
p1812
F0.0
sVive
p1813
F0.0
sVviagra
p1814
F7.353221443871035e-05
sValcoholic
p1815
F0.00044119328663226213
sVprayer
p1816
F0.0
sVside_effect
p1817
F0.0
sVquiet
p1818
F8.319963641567783e-05
sVblah
p1819
F4.508607086092296e-05
sVsomeone
p1820
F0.0
sVhammad
p1821
F0.0
sVsomebody
p1822
F2.844614357778739e-05
sVprotein
p1823
F0.0
sVproperty
p1824
F8.319963641567783e-05
sVeveryday
p1825
F0.00044119328663226213
sVworry
p1826
F0.00031615861837957577
sVupregulation
p1827
F0.0
sVdead
p1828
F6.655970913254228e-05
sVdifferent
p1829
F0.0007820765823073716
sVpas
p1830
F0.0005410328503310756
sVritalin
p1831
F0.0
sVharsh
p1832
F4.508607086092296e-05
sVapril
p1833
F0.0
sVpay
p1834
F6.734083026821486e-05
sVtrip
p1835
F0.00018034428344369184
sVeverday
p1836
F0.0
sVheartbreak
p1837
F0.0
sVsuboxone
p1838
F0.0
sVacording
p1839
F0.0
sVserotinergic
p1840
F0.0
sVdocument
p1841
F9.017214172184592e-05
sVpal
p1842
F0.0
sVpan
p1843
F7.353221443871035e-05
sVweek
p1844
F0.0012516303174226451
sVexhaust
p1845
F0.0
sVoil
p1846
F4.508607086092296e-05
sVween
p1847
F0.0
sVsleepiness
p1848
F0.0
sVharris
p1849
F0.0
sVanecdotal
p1850
F0.0
sVdelicate
p1851
F7.353221443871035e-05
sVvalerian
p1852
F0.0
sVtotally
p1853
F0.00011647949098194898
sVfoggy
p1854
F7.353221443871035e-05
sVbooster
p1855
F0.0
sVbehaviorist
p1856
F0.0
sVdrain
p1857
F7.353221443871035e-05
sVrec
p1858
F7.353221443871035e-05
sVinsomniac
p1859
F0.0
sVminimize
p1860
F7.353221443871035e-05
sVantihistamine
p1861
F0.0
sVclotty
p1862
F0.0
sVroughly
p1863
F0.0
sVantianxiety
p1864
F0.0
sVaccountable
p1865
F0.0
sVwithout
p1866
F0.0
sVsolve
p1867
F0.0001352582125827689
sVrelief
p1868
F0.0
sVbottle
p1869
F0.00039824601008902347
sVbehaviorism
p1870
F0.0
sVgrumpy
p1871
F0.0
sVotherwise
p1872
F0.00019912300504451174
sVwean
p1873
F0.0
sVnah
p1874
F7.353221443871035e-05
sVsummer
p1875
F8.533843073336217e-05
sVescitalopram
p1876
F0.0
sVbenzo
p1877
F0.0
sVya
p1878
F4.508607086092296e-05
sVmoney
p1879
F0.00031560249602646074
sVtyphus
p1880
F0.0
sVgroinal
p1881
F0.0
sVrest
p1882
F0.00011223471711369142
sVfoot
p1883
F0.00011378457431114956
sVviolent
p1884
F7.353221443871035e-05
sVkill
p1885
F0.0007487967277411006
sVaspect
p1886
F9.017214172184592e-05
sVtouch
p1887
F1.663992728313557e-05
sVbehavioural
p1888
F0.0
sVspeed
p1889
F7.482314474246095e-06
sVhomeostasis
p1890
F0.0
sVketamine
p1891
F0.0
sVdeath
p1892
F0.00017067686146672435
sVhepatotoxicity
p1893
F0.0
sVapplication
p1894
F4.508607086092296e-05
sVconclude
p1895
F0.0
sVexcept
p1896
F0.0002163190546807624
sVimprovement
p1897
F4.508607086092296e-05
sVsaver
p1898
F0.0
sV4
p1899
F0.00026936332107285944
sVghostly
p1900
F0.0
sVplenty
p1901
F4.508607086092296e-05
sVcogentin
p1902
F0.0
sVdisrupt
p1903
F0.0
sVpill
p1904
F0.0026471597197935725
sVreal
p1905
F0.0
sVaround
p1906
F0.00022446943422738285
sVintermezzo
p1907
F0.0
sVread
p1908
F0.00044927803664466035
sVdiphenhydramine
p1909
F0.0
sVdiscontinue
p1910
F0.0
sVfridge
p1911
F7.353221443871035e-05
sVgonna
p1912
F8.533843073336217e-05
sVdark
p1913
F0.0
sVinhibition
p1914
F0.0
sVpop
p1915
F0.0001352582125827689
sVmom
p1916
F0.00036766107219355173
sVworld
p1917
F0.00019967912739762684
sVresentment
p1918
F0.0
sVlady
p1919
F1.663992728313557e-05
sVoverate
p1920
F0.0
sVdare
p1921
F4.508607086092296e-05
sVtegretol
p1922
F0.0
sVacute
p1923
F0.0
sVfibromyalgia
p1924
F0.0
sVstranger
p1925
F7.353221443871035e-05
sVpregnant
p1926
F7.353221443871035e-05
sVlggs1tg
p1927
F0.0
sVshrink
p1928
F9.017214172184592e-05
sVchamber
p1929
F0.0
sVbenefit
p1930
F0.0010294510021419448
sVeither
p1931
F0.00018705786185615239
sVneuronal
p1932
F0.0
sVfully
p1933
F9.983956369881342e-05
sVcompletely
p1934
F0.00019967912739762684
sVsubstandard
p1935
F7.353221443871035e-05
sVstationary
p1936
F0.0
sVwuling
p1937
F0.0
sVauditorium
p1938
F0.0001470644288774207
sVfulfil
p1939
F0.0
sVsymptomatology
p1940
F0.0
sVnodd
p1941
F0.0
sVdebilitate
p1942
F0.0
sVpronounce
p1943
F7.353221443871035e-05
sVpresentation
p1944
F0.0005882577155096828
sVparnate
p1945
F0.0
sVerase
p1946
F0.0001470644288774207
sVibuprofen
p1947
F0.0
sVduration
p1948
F0.0
sVrivotril
p1949
F0.0
sVdivine
p1950
F7.353221443871035e-05
sVbigger
p1951
F2.844614357778739e-05
sVpod
p1952
F0.0
sVgross
p1953
F0.00022059664331613107
sVwristband
p1954
F0.0
sVbenzodiazepine
p1955
F0.0
sVpoorly
p1956
F0.00036766107219355173
sVnoon
p1957
F0.00022059664331613107
sVextensively
p1958
F0.0
sVlegal
p1959
F0.00044119328663226213
sVabusable
p1960
F0.0
sVcannabis
p1961
F0.0
sVcritical
p1962
F4.508607086092296e-05
sVexit
p1963
F2.844614357778739e-05
sVinject
p1964
F7.353221443871035e-05
sVmaoi
p1965
F0.0
sVmoderate
p1966
F7.353221443871035e-05
sVsituate
p1967
F0.0
sVrefer
p1968
F7.353221443871035e-05
sVpriapism
p1969
F0.0
sVmethamphetamine
p1970
F0.0
sVdiscongruency
p1971
F0.0
sVscientific
p1972
F7.353221443871035e-05
sVpower
p1973
F3.327985456627114e-05
sVintimate
p1974
F4.508607086092296e-05
sVliquid
p1975
F7.353221443871035e-05
sVbreastfeed
p1976
F0.0
sVought
p1977
F0.0001470644288774207
sVflosser
p1978
F0.0
sVcalmer
p1979
F0.0
sVheroin
p1980
F0.0002941288577548414
sVthrow
p1981
F0.0002705164251655378
sVcomparison
p1982
F9.017214172184592e-05
sVstone
p1983
F8.533843073336217e-05
sVol
p1984
F4.508607086092296e-05
sVok
p1985
F0.0003129075793556613
sVoh
p1986
F0.0003606885668873837
sVcraft
p1987
F0.0
sVviolence
p1988
F9.017214172184592e-05
sVfavorite
p1989
F8.533843073336217e-05
sVob
p1990
F0.0
sVwaster
p1991
F0.0
sVmeal
p1992
F0.00011378457431114956
sVstretch
p1993
F0.00018034428344369184
sVsnack
p1994
F7.353221443871035e-05
sVbenzos
p1995
F0.0
sVtopeka
p1996
F0.0
sVstand
p1997
F3.327985456627114e-05
sVneighbor
p1998
F4.508607086092296e-05
sVact
p1999
F9.983956369881342e-05
sVdoze
p2000
F0.0
sVmirtazpine
p2001
F0.0
sVluck
p2002
F0.0006258151587113226
sVbackup
p2003
F7.353221443871035e-05
sVroad
p2004
F9.017214172184592e-05
sVop
p2005
F0.00036766107219355173
sVamber
p2006
F0.00044119328663226213
sVbitty
p2007
F0.0
sVoutlook
p2008
F4.508607086092296e-05
sVlocally
p2009
F7.353221443871035e-05
sVcoupon
p2010
F7.353221443871035e-05
sVimage
p2011
F0.00018034428344369184
sVskilled
p2012
F0.0
sVsnooze
p2013
F0.0
sVnicotine
p2014
F0.0
sVinbox
p2015
F0.0
sVhomeless
p2016
F7.353221443871035e-05
sVapologize
p2017
F0.0001470644288774207
sVelementary
p2018
F0.0
sVpivot
p2019
F0.0
sVlastly
p2020
F0.0
sVtheoretically
p2021
F0.0
sVtechnically
p2022
F0.0002254303543046148
sVauvinen
p2023
F0.0
sVdetox
p2024
F0.0
sVprazosin
p2025
F0.0
sVlog
p2026
F0.00022059664331613107
sVsubstitutable
p2027
F0.0
sVarea
p2028
F3.7411572371230474e-05
sVaren
p2029
F0.00010475240263944533
sVjigsaw
p2030
F0.0
sVhey
p2031
F0.00031560249602646074
sVlol
p2032
F0.0001470644288774207
sVstart
p2033
F0.0007654366550242361
sVcompliant
p2034
F7.353221443871035e-05
sVimpromptu
p2035
F0.0
sVlow
p2036
F0.0005990373821928805
sVlot
p2037
F0.0
sVzolpidem
p2038
F0.0
sVhealthinsurance
p2039
F0.0
sVheh
p2040
F2.844614357778739e-05
sVfish
p2041
F1.663992728313557e-05
sVdowner
p2042
F0.0
sVcomplete
p2043
F8.319963641567783e-05
sVnightshift
p2044
F0.0
sVcipro
p2045
F0.0
sVbuggy
p2046
F7.353221443871035e-05
sVunderdiagnosed
p2047
F0.0
sVmedium
p2048
F5.689228715557478e-05
sVcompassionate
p2049
F0.0
sVbrain
p2050
F0.0008249381637558343
sVcycle
p2051
F0.0002705164251655378
sVtexted
p2052
F7.353221443871035e-05
sVneuroleptic
p2053
F0.0
sVamplify
p2054
F0.0
sVcarthage
p2055
F0.0
sVpull
p2056
F4.991978184940671e-05
sVregimen
p2057
F0.0
sVwaste
p2058
F0.00017067686146672435
sVannihilate
p2059
F0.0
sVrage
p2060
F7.353221443871035e-05
sVhardly
p2061
F4.508607086092296e-05
sVbucket
p2062
F0.0
sVflirt
p2063
F0.0
sVdirty
p2064
F0.0001352582125827689
sVsuitcase
p2065
F0.0
sVreferral
p2066
F0.0
sVinform
p2067
F7.353221443871035e-05
sVrozerm
p2068
F0.0
sVtorso
p2069
F0.0
sVagree
p2070
F0.00011647949098194898
sVhaldol
p2071
F0.0
sVmisery
p2072
F7.353221443871035e-05
sVaa
p2073
F0.0
sVsedative
p2074
F0.0
sVad
p2075
F0.00018034428344369184
sVsubdue
p2076
F0.0
sVaf
p2077
F0.0
sVtaste
p2078
F2.844614357778739e-05
sVcertain
p2079
F7.482314474246095e-05
sVdescribe
p2080
F0.0003606885668873837
sVdeep
p2081
F0.00018303920011449124
sVgeneral
p2082
F0.0
sVap
p2083
F0.0
sVexamine
p2084
F4.508607086092296e-05
sVintro
p2085
F0.0
sVau
p2086
F7.353221443871035e-05
sVtogether
p2087
F0.0
sVcbt
p2088
F0.0
sVgirlfriend
p2089
F0.0005882577155096828
sVmelatonin
p2090
F0.0
sVjoyful
p2091
F4.508607086092296e-05
sVperscription
p2092
F0.0
sVfill
p2093
F0.0005404767279779604
sVtedious
p2094
F0.0
sVhasnt
p2095
F0.0
sVyoga
p2096
F7.353221443871035e-05
sVhydralazine
p2097
F0.0
sVyoh
p2098
F0.0
sVbiochemistry
p2099
F0.0
sVdepth
p2100
F8.533843073336217e-05
sVgraduate
p2101
F0.0001470644288774207
sVtight
p2102
F2.844614357778739e-05
sVhousework
p2103
F0.0
sV5
p2104
F0.0003367041513410743
sVdoxylamine
p2105
F0.0
sVpuppy
p2106
F0.0
sVpoor
p2107
F7.482314474246095e-06
sVfourth
p2108
F4.508607086092296e-05
sVpoop
p2109
F0.0001470644288774207
sVstandardize
p2110
F0.0
sVvocabulary
p2111
F0.0
sVxanax
p2112
F0.0
sVteeth
p2113
F0.0001352582125827689
sVdrift
p2114
F0.0
sVimportant
p2115
F0.0004959467794701525
sVpeak
p2116
F9.017214172184592e-05
sVparamedic
p2117
F0.0
sVchris
p2118
F0.0
sVspouse
p2119
F0.0001470644288774207
sVdeadline
p2120
F7.353221443871035e-05
sVunresponsive
p2121
F7.353221443871035e-05
sVbulk
p2122
F0.0
sVcarbs
p2123
F7.353221443871035e-05
sVremote
p2124
F4.508607086092296e-05
sVwife
p2125
F0.0002254303543046148
sVmask
p2126
F0.0001470644288774207
sVmash
p2127
F0.0
sVobserve
p2128
F9.017214172184592e-05
sVrinse
p2129
F7.353221443871035e-05
sVbehavioral
p2130
F0.0
sVoverseas
p2131
F0.0
sVoral
p2132
F7.353221443871035e-05
sVoriginal
p2133
F3.327985456627114e-05
sVexternal
p2134
F4.508607086092296e-05
sVheartrate
p2135
F0.0
sVconsider
p2136
F0.0004825578912109315
sVslowly
p2137
F0.00028446143577787387
sVrx
p2138
F0.0
sVallergy
p2139
F7.353221443871035e-05
sVmonth
p2140
F0.001198074764385761
sVgeneralize
p2141
F0.0
sVoxycodone
p2142
F0.0
sVzinc
p2143
F0.0
sVfairness
p2144
F0.0
sVdish
p2145
F7.353221443871035e-05
sVjason
p2146
F0.0
sVmeditation
p2147
F0.0
sVfaster
p2148
F0.00014223071788893693
sVreluctant
p2149
F0.0
sVextra
p2150
F0.00011378457431114956
sVresponsiveness
p2151
F0.0
sVice
p2152
F4.508607086092296e-05
sVtv
p2153
F0.00022059664331613107
sVmicrowave
p2154
F7.353221443871035e-05
sVthursday
p2155
F0.0
sVtl
p2156
F0.0
sVdaniel
p2157
F0.0
sVtj
p2158
F0.0
sVpresent
p2159
F2.2446943422738285e-05
sVsmile
p2160
F4.508607086092296e-05
sVc4
p2161
F0.0
sVmidwest
p2162
F0.0
sV_pixiepudding_
p2163
F0.0
sVtrim
p2164
F7.353221443871035e-05
sVwoman
p2165
F4.991978184940671e-05
sVappointment
p2166
F0.00036766107219355173
sVworse
p2167
F0.00033279854566271134
sVstraightforward
p2168
F0.0
sVfar
p2169
F0.00026936332107285944
sVperoxide
p2170
F0.0
sVpseudoephedrine
p2171
F0.0
sVfat
p2172
F0.0001352582125827689
sVutis
p2173
F0.0
sVhepatocellular
p2174
F0.0
sVfan
p2175
F0.00017067686146672435
sVdecide
p2176
F0.0005861189211919985
sVfall
p2177
F0.001397668196688612
sVfloater
p2178
F0.0
sVdifference
p2179
F0.00040577463774830666
sVcondition
p2180
F0.0002560152922000865
sVenjoyable
p2181
F7.353221443871035e-05
sVdampen
p2182
F0.0
sVrecommit
p2183
F0.0
sVlist
p2184
F0.0002560152922000865
sVt3
p2185
F0.0
sVprogesterone
p2186
F0.0
sVlarge
p2187
F0.0
sVadjust
p2188
F7.353221443871035e-05
sVmodulators
p2189
F0.0
sVsedation
p2190
F0.0
sVsmall
p2191
F8.978777369095314e-05
sVinjectable
p2192
F0.0
sVanal
p2193
F0.0
sVpsychopharmacologist
p2194
F0.0
sVblackout
p2195
F0.0
sVquicker
p2196
F0.0001470644288774207
sVneighborhood
p2197
F7.353221443871035e-05
sVremeron
p2198
F0.0
sVten
p2199
F4.991978184940671e-05
sVphenibut
p2200
F0.0
sV2012_minneapolis_workplace_shooting
p2201
F0.0
sV196
p2202
F0.0
sVdofferent
p2203
F0.0
sV190
p2204
F0.0
sVaps
p2205
F0.0
sVpast
p2206
F0.0003660784002289825
sVbattle
p2207
F0.00022059664331613107
sVrate
p2208
F0.0001352582125827689
sVperception
p2209
F0.0002941288577548414
sVperspective
p2210
F0.0
sVlawyer
p2211
F7.353221443871035e-05
sVwyeth
p2212
F0.0
sVhealer
p2213
F0.0
sVinvestment
p2214
F0.0
sVchalk
p2215
F0.0
sVdial
p2216
F4.508607086092296e-05
sVadjustment
p2217
F0.0
sVdarkness
p2218
F7.353221443871035e-05
sVsun
p2219
F3.327985456627114e-05
sVsection
p2220
F9.017214172184592e-05
sVbarbiturate
p2221
F0.0
sVcaffeine
p2222
F0.0008823865732645243
sVadinfinitim
p2223
F0.0
sVpublic
p2224
F8.533843073336217e-05
sVversion
p2225
F4.508607086092296e-05
sVrun
p2226
F0.00011971703158793753
sVnoticeably
p2227
F0.0
sVpaxil
p2228
F0.0
sVnurse
p2229
F0.0005882577155096828
sVrow
p2230
F5.689228715557478e-05
sVmethod
p2231
F0.0001470644288774207
sVeverybody
p2232
F9.017214172184592e-05
sVmovement
p2233
F5.689228715557478e-05
sVhasn
p2234
F8.319963641567783e-05
sVfull
p2235
F0.0
sVma
p2236
F7.353221443871035e-05
sVhungover
p2237
F0.0
sVloose
p2238
F2.844614357778739e-05
sVcertainly
p2239
F9.983956369881342e-05
sVlack
p2240
F0.00024959890924703353
sVshouldn
p2241
F0.00022756914862229912
sVselective
p2242
F0.0
sVindiscriminately
p2243
F0.0
sVgabab
p2244
F0.0
sVexcess
p2245
F4.508607086092296e-05
sVnovember
p2246
F0.0
sVstrong
p2247
F0.00017067686146672435
sVrespect
p2248
F2.844614357778739e-05
sVbacklash
p2249
F0.0
sVsearch
p2250
F0.0003129075793556613
sVbible
p2251
F0.0
sVextraordinary
p2252
F0.0
sVmdma
p2253
F0.0
sVcompliance
p2254
F0.0
sVprion
p2255
F0.0
sVexperience
p2256
F0.0027502503225163006
sVwhiny
p2257
F0.0
sVprior
p2258
F0.00022059664331613107
sVamount
p2259
F0.000512030584400173
sVhealthier
p2260
F0.0
sVdiscontinuation
p2261
F0.0
sVprofessor
p2262
F0.0001470644288774207
sVsocial
p2263
F9.983956369881342e-05
sVaction
p2264
F0.0003606885668873837
sVrestoril
p2265
F0.0
sVtoxicity
p2266
F0.0
sVweirder
p2267
F7.353221443871035e-05
sV240
p2268
F0.0
sVmemon
p2269
F0.0
sVvia
p2270
F0.0001470644288774207
sVtightness
p2271
F0.0
sVthankfully
p2272
F0.0
sVnooooooooo
p2273
F0.0
sVsuddenly
p2274
F1.663992728313557e-05
sVagomelatine
p2275
F0.0
sVmmj
p2276
F0.0
sVput
p2277
F0.00039656266713504305
sVsemester
p2278
F7.353221443871035e-05
sVregiment
p2279
F0.0
sVseroquel
p2280
F0.0
sVresident
p2281
F0.0
sVestablish
p2282
F0.0001470644288774207
sVeldepryl
p2283
F0.0
sVmunchies
p2284
F0.0001470644288774207
sVeye
p2285
F0.00040577463774830666
sVoccassion
p2286
F0.0
sVpup
p2287
F0.0
sVfaint
p2288
F7.353221443871035e-05
sVtwo
p2289
F0.0
sVirritate
p2290
F0.0
sVchaotic
p2291
F0.0
sVanger
p2292
F9.017214172184592e-05
sV6
p2293
F0.00017957554738190628
sVweren
p2294
F8.533843073336217e-05
sVminor
p2295
F0.00011378457431114956
sVflat
p2296
F1.663992728313557e-05
sVflaw
p2297
F0.0
sVdiamond
p2298
F4.508607086092296e-05
sVdoor
p2299
F8.319963641567783e-05
sVsplosh
p2300
F0.0
sVcompany
p2301
F1.496462894849219e-05
sVconcomitantly
p2302
F0.0
sVoutpatient
p2303
F0.0
sVexcuse
p2304
F2.844614357778739e-05
sVflag
p2305
F2.844614357778739e-05
sVoxymorphone
p2306
F0.0
sVstick
p2307
F0.0005410328503310756
sVimpulse
p2308
F0.00036766107219355173
sVparticular
p2309
F0.00013311941826508455
sVdoom
p2310
F0.0
sVglad
p2311
F0.00013311941826508455
sVtown
p2312
F2.844614357778739e-05
sVnone
p2313
F0.00011378457431114956
sVguanfacine
p2314
F0.0
sVhour
p2315
F0.0028161682142009512
sVstrain
p2316
F0.0
sVscience
p2317
F0.0001352582125827689
sVremain
p2318
F0.0001352582125827689
sVparagraph
p2319
F0.0
sVtitrate
p2320
F0.0
sVlearn
p2321
F0.0013971120743354966
sVabandon
p2322
F7.353221443871035e-05
sVmale
p2323
F2.844614357778739e-05
sVmo
p2324
F7.353221443871035e-05
sVmirtazapine
p2325
F0.0
sVbeautiful
p2326
F3.327985456627114e-05
sVallegra
p2327
F0.0
sVcompare
p2328
F0.0002254303543046148
sVatrocious
p2329
F7.353221443871035e-05
sVpsychonautwiki
p2330
F0.0
sVscan
p2331
F0.0003606885668873837
sVraisin
p2332
F7.353221443871035e-05
sVshare
p2333
F3.327985456627114e-05
sVretest
p2334
F0.0
sVaccept
p2335
F0.00014223071788893693
sVcaffeinated
p2336
F0.0
sVminimum
p2337
F0.0001352582125827689
sVsense
p2338
F7.482314474246095e-05
sVpond
p2339
F7.353221443871035e-05
sVscar
p2340
F0.0008823865732645243
sVlongest
p2341
F0.00022059664331613107
sVgarden
p2342
F4.508607086092296e-05
sVhomicide
p2343
F0.0
sVhuge
p2344
F8.978777369095314e-05
sVcourt
p2345
F0.00018034428344369184
sVadvantage
p2346
F4.508607086092296e-05
sVrather
p2347
F0.00018303920011449124
sVimminent
p2348
F0.0
sVfluoxetine
p2349
F0.0
sVutilize
p2350
F0.0001470644288774207
sVquesadilla
p2351
F7.353221443871035e-05
sVsalvia
p2352
F0.0
sVheck
p2353
F7.353221443871035e-05
sVweed
p2354
F0.00022059664331613107
sVreject
p2355
F0.0005147255010709724
sVoccur
p2356
F0.00022059664331613107
sVryu
p2357
F0.0
sViproniazid
p2358
F0.0
sVhopeless
p2359
F0.0001470644288774207
sVtinfoil
p2360
F0.0
sVsemax
p2361
F0.0
sVokay
p2362
F0.0004959467794701525
sVgiant_post_of_medications_that_really_help
p2363
F0.0
sVadvice
p2364
F0.0005882577155096828
sVreuptake
p2365
F0.0
sVbrintellix
p2366
F0.0
sVdisable
p2367
F7.353221443871035e-05
sVblood
p2368
F0.00045513829724459824
sVnumb
p2369
F0.0
sVproductivity
p2370
F0.0
sVresponse
p2371
F0.0005147255010709724
sVrefuse
p2372
F8.533843073336217e-05
sVimagery
p2373
F0.0
sVmorphine
p2374
F7.353221443871035e-05
sVresemble
p2375
F7.353221443871035e-05
sVmeticulous
p2376
F0.0
sVovernight
p2377
F0.0001470644288774207
sVanytime
p2378
F0.0001470644288774207
sVassign
p2379
F0.0
sVmislead
p2380
F0.0
sVperhaps
p2381
F0.00018034428344369184
sVshore
p2382
F4.508607086092296e-05
sVolanzipine
p2383
F0.0
sVresponsibility
p2384
F7.353221443871035e-05
sVdread
p2385
F0.0
sVmethadone
p2386
F0.0
sV10mgs
p2387
F0.0
sVstuffiness
p2388
F0.0
sVpleasure
p2389
F5.689228715557478e-05
sVdream
p2390
F0.001307496054966766
sVowsley
p2391
F0.0
sVmasturbate
p2392
F7.353221443871035e-05
sVconversation
p2393
F6.655970913254228e-05
sVpant
p2394
F0.0001470644288774207
sVseptember
p2395
F0.0
sVsertraline
p2396
F0.0
sVmayoclinic
p2397
F0.0
sVsoon
p2398
F9.727008816519924e-05
sVtramadol
p2399
F0.0
sVtrade
p2400
F2.844614357778739e-05
sVattitude
p2401
F7.353221443871035e-05
sVpaper
p2402
F0.00011378457431114956
sVffi
p2403
F0.0
sVhell
p2404
F0.00019912300504451174
sVmcdonalds
p2405
F0.0
sVsuffer
p2406
F0.0004508607086092296
sVjames_eagan_holmes
p2407
F0.0
sVlisinopril
p2408
F0.0
sV24
p2409
F0.00019912300504451174
sV25
p2410
F0.0003129075793556613
sV26
p2411
F5.689228715557478e-05
sV27
p2412
F0.00011378457431114956
sV20
p2413
F0.00010475240263944533
sV21
p2414
F0.00014223071788893693
sV22
p2415
F0.00019912300504451174
sV23
p2416
F0.00011378457431114956
sVsusceptible
p2417
F0.0
sVtreat
p2418
F0.0007964920201780469
sVpcp
p2419
F0.0
sVgreatly
p2420
F0.0001470644288774207
sV28
p2421
F9.017214172184592e-05
sVmattress
p2422
F7.353221443871035e-05
sVlate
p2423
F0.00011647949098194898
sVresort
p2424
F0.0
sVabsence
p2425
F0.0
sVhtml
p2426
F7.353221443871035e-05
sVbummer
p2427
F0.0
sVfeasible
p2428
F7.353221443871035e-05
sVamitriptyline
p2429
F0.0
sVbout
p2430
F0.0001470644288774207
sVnausea
p2431
F0.0
sVsauce
p2432
F7.353221443871035e-05
sVpolypharmacy
p2433
F0.0
sVpittman
p2434
F0.0
sVwouldn
p2435
F0.00038271832751211806
sVgood
p2436
F0.0
sVtoiletry
p2437
F0.0
sVevaluate
p2438
F0.0
sVseverely
p2439
F0.00022059664331613107
sVfood
p2440
F0.00019967912739762684
sVmisc
p2441
F7.353221443871035e-05
sVlibido
p2442
F0.0
sVsocially
p2443
F7.353221443871035e-05
sVslight
p2444
F0.0001352582125827689
sVarsenal
p2445
F0.0
sVvomit
p2446
F0.0001470644288774207
sVrank
p2447
F0.0
sVdosulepin
p2448
F0.0
sVcompound
p2449
F0.0
sVmisuse
p2450
F0.0
sVpbrs
p2451
F0.0
sVassociation
p2452
F7.353221443871035e-05
sVmystery
p2453
F0.0
sVeasily
p2454
F3.327985456627114e-05
sVerection
p2455
F0.00022059664331613107
sVwash
p2456
F7.353221443871035e-05
sValways
p2457
F0.0
sVnauseous
p2458
F0.0
sV2x
p2459
F0.0
sVrefresh
p2460
F0.0002941288577548414
sVcapability
p2461
F0.0
sVtear
p2462
F3.327985456627114e-05
sV2a
p2463
F7.353221443871035e-05
sVfiber
p2464
F0.0
sV1am
p2465
F0.0
sVmouse
p2466
F0.0001352582125827689
sVcaliber
p2467
F0.0
sVphysiologically
p2468
F0.0
sVheavy
p2469
F0.00013311941826508455
sVstatus
p2470
F5.689228715557478e-05
sVharm
p2471
F0.0
sVeveryone
p2472
F0.0003413537229334487
sVknowledgeable
p2473
F0.0
sVmental
p2474
F0.0011029832165806552
sV300mg
p2475
F0.0
sVvisually
p2476
F4.508607086092296e-05
sVorgasm
p2477
F7.353221443871035e-05
sVhouse
p2478
F0.00018303920011449124
sVenergy
p2479
F0.0007353221443871035
sVhard
p2480
F0.0005823974549097449
sVreduce
p2481
F0.0004959467794701525
sVidea
p2482
F0.00020950480527889067
sVbrother
p2483
F4.508607086092296e-05
sVbland
p2484
F0.0
sVfinish
p2485
F8.533843073336217e-05
sVexpect
p2486
F2.992925789698438e-05
sVmeasurement
p2487
F0.0
sVkansa
p2488
F0.0
sVorient
p2489
F0.0
sVterrify
p2490
F0.0
sVanxious
p2491
F0.0012500476454580759
sVditch
p2492
F0.0
sVpsychology
p2493
F0.0002941288577548414
sVftw
p2494
F0.0
sVkrokodil
p2495
F0.0
sVrobert
p2496
F0.0
sVsince
p2497
F0.000314257207918336
sVresearch
p2498
F0.0006617899299483931
sVsociological
p2499
F0.0
sVsustain
p2500
F0.0
sVhill
p2501
F4.508607086092296e-05
sV7
p2502
F0.00031615861837957577
sVprint
p2503
F4.508607086092296e-05
sVdysfunction
p2504
F0.0
sVissue
p2505
F0.0013369687481560072
sVeszopiclone
p2506
F0.0
sVpun
p2507
F7.353221443871035e-05
sVbald
p2508
F7.353221443871035e-05
sVsolvent
p2509
F0.0
sVbully
p2510
F0.0
sVlibrium
p2511
F0.0
sVtimeline
p2512
F0.0
sVfriday
p2513
F0.0
sVmotherfucker
p2514
F7.353221443871035e-05
sVdifficulty
p2515
F0.0002941288577548414
sVqualify
p2516
F0.0
sVbase
p2517
F0.00014975934554822012
sVhousebound
p2518
F0.0
sVimagine
p2519
F0.00028446143577787387
sVbuspirone
p2520
F0.0
sVteach
p2521
F0.0002941288577548414
sVinhalant
p2522
F0.0
sVbeginning
p2523
F7.482314474246095e-06
sVdmt
p2524
F0.0
sVthread
p2525
F0.0002941288577548414
sVlaunch
p2526
F7.353221443871035e-05
sVterrible
p2527
F0.0004835844408223856
sVamerican
p2528
F0.0
sVelective
p2529
F0.0
sVw
p2530
F5.689228715557478e-05
sVanecdote
p2531
F0.0
sVconsequence
p2532
F0.0
sVexistential
p2533
F7.353221443871035e-05
sVundergo
p2534
F0.0
sVzyprexa
p2535
F0.0
sVtop
p2536
F0.00031615861837957577
sVbupropion
p2537
F0.0
sVfeed
p2538
F4.508607086092296e-05
sVmajor
p2539
F0.0002163190546807624
sV05am
p2540
F0.0
sVdont
p2541
F0.0001352582125827689
sVpurport
p2542
F0.0
sVfeel
p2543
F0.0012495465171990978
sVrelate
p2544
F0.0
sVpatience
p2545
F7.353221443871035e-05
sVnumber
p2546
F0.00028446143577787387
sVhappier
p2547
F0.0002941288577548414
sVv8
p2548
F0.0
sVsmaller
p2549
F2.844614357778739e-05
sVnotify
p2550
F7.353221443871035e-05
sV40mg
p2551
F0.0
sVmiss
p2552
F5.985851579396876e-05
sVpropranolol
p2553
F0.0
sVseparation
p2554
F0.0
sVguess
p2555
F0.0004835844408223856
sVhalcion
p2556
F0.0
sVtemperature
p2557
F4.508607086092296e-05
sVscript
p2558
F0.0011029832165806552
sVdivorce
p2559
F7.353221443871035e-05
sV5th
p2560
F7.353221443871035e-05
sVsmoother
p2561
F0.0
sVmoderately
p2562
F0.0001352582125827689
sVleast
p2563
F0.0
sVstation
p2564
F0.0001470644288774207
sVpixiepudding
p2565
F0.0
sVmentally
p2566
F0.0001470644288774207
sVcompromise
p2567
F4.508607086092296e-05
sVhundred
p2568
F3.327985456627114e-05
sVsyrup
p2569
F0.0
sVstore
p2570
F0.00040577463774830666
sVwonderment
p2571
F0.0
sVoption
p2572
F0.0018383053609677587
sVrelationship
p2573
F0.00017067686146672435
sVbehind
p2574
F2.2446943422738285e-05
sVchecklist
p2575
F0.0
sVneedle
p2576
F9.017214172184592e-05
sVpark
p2577
F0.0002941288577548414
sVscarcely
p2578
F0.0
sVimmediate
p2579
F4.508607086092296e-05
sVserotonin
p2580
F0.0
sVdentist
p2581
F7.353221443871035e-05
sVpart
p2582
F0.0005657575276266094
sVdrunkenness
p2583
F0.0
sVconsult
p2584
F0.0
sVbelieve
p2585
F0.00024959890924703353
sVreliever
p2586
F0.0
sVfascinate
p2587
F0.0
sValbeit
p2588
F0.0
sVneurontin
p2589
F0.0
sVcrazyboards
p2590
F0.0
sVvalporic
p2591
F0.0
sVkindly
p2592
F7.353221443871035e-05
sVvial
p2593
F0.0
sVdouble
p2594
F0.0002705164251655378
sVanticipate
p2595
F0.0
sVinstruction
p2596
F7.353221443871035e-05
sVintuniv
p2597
F0.0
sVexcitability
p2598
F0.0
sVvocal
p2599
F0.0
sVungodly
p2600
F0.0
sVyouth
p2601
F0.0001352582125827689
sVpennsylvania
p2602
F0.0
sVgrogginess
p2603
F0.0
sVsedate
p2604
F0.001036979629801228
sVdts
p2605
F0.0
sVheadache
p2606
F0.00044119328663226213
sVrestful
p2607
F0.0
sVpriority
p2608
F0.0
sVsilence
p2609
F2.844614357778739e-05
sVmotivation
p2610
F0.0
sVbasically
p2611
F0.001470644288774207
sVwasnt
p2612
F0.0
sVhtp
p2613
F0.0
sV5x
p2614
F0.0
sV7h
p2615
F0.0
sVrandomly
p2616
F0.0002941288577548414
sVdownload
p2617
F4.508607086092296e-05
sVsubstantial
p2618
F7.353221443871035e-05
sVsquinty
p2619
F0.0
sVprefrontal
p2620
F0.0
sVmeltdown
p2621
F7.353221443871035e-05
sVlorazapam
p2622
F0.0
sVsell
p2623
F8.319963641567783e-05
sVmountain
p2624
F0.0
sVwilson
p2625
F0.0
sVbake
p2626
F0.0
sVspaghetti
p2627
F7.353221443871035e-05
sVself
p2628
F9.727008816519924e-05
sVeric
p2629
F0.0
sVsevere
p2630
F0.0006312049920529215
sVnondepressed
p2631
F0.0
sVcouch
p2632
F0.0001470644288774207
sVonset
p2633
F0.0
sVmajority
p2634
F9.017214172184592e-05
sVempirically
p2635
F0.0
sVbreeze
p2636
F7.353221443871035e-05
sVbuild
p2637
F0.00019967912739762684
sVobviously
p2638
F0.00017067686146672435
sVk9
p2639
F0.0
sVtool
p2640
F0.00036766107219355173
sVzucchini
p2641
F0.0
sVplay
p2642
F0.00014223071788893693
sVrisperidone
p2643
F0.0
sValleviate
p2644
F0.00022059664331613107
sVpopulate
p2645
F7.353221443871035e-05
sVyhat
p2646
F0.0
sV12mg
p2647
F0.0
sVreach
p2648
F0.00014223071788893693
sVwellbutrun
p2649
F0.0
sVperceptive
p2650
F0.0
sVinability
p2651
F0.0001470644288774207
sV75
p2652
F0.0001470644288774207
sV74
p2653
F0.0
sVcharm
p2654
F7.353221443871035e-05
sVplan
p2655
F0.0003413537229334487
sVsignificant
p2656
F0.0007353221443871035
sV70
p2657
F8.533843073336217e-05
sVnothing
p2658
F0.00020950480527889067
sVstressful
p2659
F0.00022059664331613107
sVextremely
p2660
F0.0006312049920529215
sVmedicate
p2661
F0.0
sVreward
p2662
F4.508607086092296e-05
sV16mg
p2663
F0.0
sVseize
p2664
F7.353221443871035e-05
sVmobile
p2665
F7.353221443871035e-05
sVdoggie
p2666
F4.508607086092296e-05
sVclear
p2667
F5.237620131972267e-05
sVsometimes
p2668
F0.0005990373821928805
sVcover
p2669
F8.319963641567783e-05
sVluckily
p2670
F0.0
sVnefazodone
p2671
F0.0
sVtraditional
p2672
F0.0001352582125827689
sV10am
p2673
F0.0
sVoverdrive
p2674
F0.0
sVclean
p2675
F6.734083026821486e-05
sVweigh
p2676
F9.017214172184592e-05
sVfwiw
p2677
F0.0
sVsubgroup
p2678
F0.0
sVorganism
p2679
F0.0
sVclinician
p2680
F0.0
sVgaba
p2681
F0.0
sVsluggishness
p2682
F7.353221443871035e-05
sVantibiotic
p2683
F0.0
sVugh
p2684
F0.0
sVparticularly
p2685
F0.00031560249602646074
sVamaze
p2686
F0.0
sVgold
p2687
F2.844614357778739e-05
sVrifle
p2688
F7.353221443871035e-05
sVtranquilizer
p2689
F0.0
sVbooze
p2690
F7.353221443871035e-05
sVsession
p2691
F0.0001470644288774207
sVrts
p2692
F0.0
sVcarefully
p2693
F7.353221443871035e-05
sVwalgreen
p2694
F0.0
sVfine
p2695
F0.0
sVfind
p2696
F0.0
sVimpact
p2697
F0.0
sVaccess
p2698
F4.508607086092296e-05
sVgiant
p2699
F4.508607086092296e-05
sVbff
p2700
F0.0
sVnorthern
p2701
F0.00022059664331613107
sValprazolam
p2702
F0.0
sVparanoid
p2703
F0.00022059664331613107
sVnervous
p2704
F4.508607086092296e-05
sVruin
p2705
F0.0001470644288774207
sV211
p2706
F0.0
sVassertion
p2707
F7.353221443871035e-05
sVenzyme
p2708
F0.0
sVexperiment
p2709
F0.0002705164251655378
sVcentral
p2710
F0.0
sVfactor
p2711
F0.00022059664331613107
sVinitally
p2712
F0.0
sV8
p2713
F0.00017957554738190628
sVinsurance
p2714
F0.0005882577155096828
sVdevastate
p2715
F0.0
sVdependent
p2716
F0.0002941288577548414
sVluke
p2717
F0.0
sVioov
p2718
F0.0
sVsunny
p2719
F4.508607086092296e-05
sVkind
p2720
F0.0
sVcheaper
p2721
F4.508607086092296e-05
sVreprocess
p2722
F0.0
sVfamous
p2723
F4.508607086092296e-05
sVremedy
p2724
F0.0
sV150mg
p2725
F0.0
sVvaluable
p2726
F0.00018034428344369184
sVclosely
p2727
F0.0
sVtreshold
p2728
F0.0
sVdose
p2729
F0.006985560371677482
sVrestart
p2730
F4.508607086092296e-05
sV5ht2c
p2731
F0.0
sVcrp
p2732
F0.0
sVresolve
p2733
F5.689228715557478e-05
sVbet
p2734
F4.991978184940671e-05
sVcry
p2735
F0.00018034428344369184
sValteration
p2736
F0.0
sVremove
p2737
F2.844614357778739e-05
sVinvestigate
p2738
F4.508607086092296e-05
sVbrush
p2739
F5.689228715557478e-05
sVcommon
p2740
F0.00039824601008902347
sVimmflamatories
p2741
F0.0
sVactivity
p2742
F0.0005147255010709724
sVsustainable
p2743
F0.0
sVx
p2744
F0.00022059664331613107
sVdizziness
p2745
F7.353221443871035e-05
sVriver
p2746
F2.844614357778739e-05
sVemployer
p2747
F0.0
sVinsane
p2748
F0.0001470644288774207
sVset
p2749
F5.985851579396876e-05
sVart
p2750
F8.533843073336217e-05
sVser
p2751
F0.0001470644288774207
sVcynical
p2752
F0.0
sVcollateral
p2753
F0.0
sVoverwhelm
p2754
F0.0
sVimpersonal
p2755
F0.0
sVgrandfather
p2756
F0.0002941288577548414
sVpotent
p2757
F0.0
sVsex
p2758
F0.0002705164251655378
sVschizophrenic
p2759
F0.0
sVculture
p2760
F0.0001470644288774207
sVsee
p2761
F0.0005237620131972266
sVdefense
p2762
F0.0
sVhydroxyzine
p2763
F0.0
sVrtms
p2764
F0.0
sVbarf
p2765
F0.0
sVclose
p2766
F0.0002560152922000865
sVexcusable
p2767
F0.0
sVhole
p2768
F3.327985456627114e-05
sVarm
p2769
F0.00014223071788893693
sVproject
p2770
F8.533843073336217e-05
sVpractice
p2771
F0.0
sVvisualize
p2772
F7.353221443871035e-05
sVexpert
p2773
F7.353221443871035e-05
sVmovie
p2774
F4.508607086092296e-05
sVwow
p2775
F0.0001470644288774207
sVcurrently
p2776
F0.0004835844408223856
sVplease
p2777
F4.489388684547657e-05
sV5mg
p2778
F0.0
sVbaadsgaard
p2779
F0.0
sVcase
p2780
F0.0003494384729458469
sVsmallest
p2781
F0.0001470644288774207
sVvarious
p2782
F0.00011378457431114956
sVguilt
p2783
F0.00022059664331613107
sVnumerous
p2784
F9.017214172184592e-05
sV9h15m
p2785
F0.0
sVeurope
p2786
F0.0
sVmilder
p2787
F0.0
sVanticholinergic
p2788
F0.0
sVunconscious
p2789
F4.508607086092296e-05
sVinitially
p2790
F0.0002705164251655378
sVattention
p2791
F0.00011647949098194898
sVincident
p2792
F0.0
sVrapid
p2793
F0.00022059664331613107
sVcodiagnosed
p2794
F0.0
sVabruptly
p2795
F0.0001470644288774207
sVineffectiveness
p2796
F0.0
sVmanerix
p2797
F0.0
sVc
p2798
F1.496462894849219e-05
sVcompazine
p2799
F0.0
sVlast
p2800
F0.000389080352660797
sVreverse
p2801
F5.689228715557478e-05
sVlicense
p2802
F4.508607086092296e-05
sVbarely
p2803
F0.0002705164251655378
sVevent
p2804
F0.00022756914862229912
sVpreviously
p2805
F0.00044119328663226213
sVsensitive
p2806
F6.655970913254228e-05
sVconnection
p2807
F0.00018034428344369184
sVzilch
p2808
F7.353221443871035e-05
sValot
p2809
F0.0001470644288774207
sVbuzz
p2810
F0.0001352582125827689
sVtoxicology
p2811
F0.0
sVbond
p2812
F4.508607086092296e-05
sVapprove
p2813
F0.0005147255010709724
sVhistamine
p2814
F0.0
sVpda
p2815
F0.0
sVload
p2816
F8.533843073336217e-05
sVchildhood
p2817
F0.0
sVconsume
p2818
F9.017214172184592e-05
sVoversleep
p2819
F0.0
sVpoint
p2820
F0.0003666334092380587
sVsimple
p2821
F2.992925789698438e-05
sVsweet
p2822
F2.844614357778739e-05
sVwhatever
p2823
F0.0002828787638133047
sVvyvanse
p2824
F0.0
sV100mg
p2825
F0.0
sVsimply
p2826
F2.844614357778739e-05
sVshutdown
p2827
F7.353221443871035e-05
sVchurch
p2828
F4.508607086092296e-05
sVthroughout
p2829
F0.0003129075793556613
sVlithium
p2830
F0.0
sVexpensive
p2831
F5.689228715557478e-05
sVbelt
p2832
F0.00044119328663226213
sVhorticulture
p2833
F0.0
sV30mg
p2834
F0.0
sVworthless
p2835
F7.353221443871035e-05
sVraise
p2836
F2.844614357778739e-05
sVpt
p2837
F7.353221443871035e-05
sVmonthly
p2838
F0.0
sVhelp
p2839
F0.0015039452093234648
sVcreate
p2840
F0.00031560249602646074
sVacceptance
p2841
F0.0
sVcreativity
p2842
F0.0
sVverse
p2843
F0.0
sVvelveeta
p2844
F0.0
sVstrategy
p2845
F0.0001470644288774207
sVstrengthen
p2846
F0.0
sVreduction
p2847
F0.0002941288577548414
sVinitiation
p2848
F0.0
sVmaintenance
p2849
F0.0
sVclinical
p2850
F0.0
sVbrick
p2851
F0.0
sVmindset
p2852
F0.0
sVempty
p2853
F2.2446943422738285e-05
sVfreshman
p2854
F7.353221443871035e-05
sVfirm
p2855
F2.844614357778739e-05
sVsuspicious
p2856
F7.353221443871035e-05
sVflight
p2857
F5.689228715557478e-05
sVsobriety
p2858
F0.0
sVfire
p2859
F0.00014975934554822012
sVgap
p2860
F7.353221443871035e-05
sVfund
p2861
F4.508607086092296e-05
sVmoderation
p2862
F0.0
sVsleepwalk
p2863
F0.0
sVawake
p2864
F0.0009559187877032345
sVliver
p2865
F0.0003606885668873837
sVdemand
p2866
F2.844614357778739e-05
sVoleptro
p2867
F0.0
sVdespite
p2868
F0.00011647949098194898
sVgad
p2869
F0.0
sVlamotrigine
p2870
F0.0
sVunnecessarily
p2871
F0.0
sVfurrow
p2872
F0.0
sVbile
p2873
F7.353221443871035e-05
sVgeorgia
p2874
F0.0
sVuncertain
p2875
F7.353221443871035e-05
sVlook
p2876
F0.0003367041513410743
sVsolid
p2877
F0.0001352582125827689
sVshitton
p2878
F0.0
sVbill
p2879
F4.508607086092296e-05
sVconvo
p2880
F0.0
sVbatch
p2881
F0.0
sVcrutch
p2882
F0.0
sVmedically
p2883
F0.0
sVsmart
p2884
F9.017214172184592e-05
sVbehavior
p2885
F4.508607086092296e-05
sVerror
p2886
F0.0001470644288774207
sVfun
p2887
F9.983956369881342e-05
sVmitchell
p2888
F0.0
sVguide
p2889
F0.0002941288577548414
sVpack
p2890
F8.319963641567783e-05
sVswim
p2891
F4.508607086092296e-05
sVpound
p2892
F0.00018034428344369184
sVagitation
p2893
F0.0
sVklonipin
p2894
F0.0
sV37
p2895
F9.017214172184592e-05
sVdemon
p2896
F0.0001470644288774207
sVdecline
p2897
F0.0001470644288774207
sVrip
p2898
F7.353221443871035e-05
sVssri
p2899
F0.0
sVhydrocodone
p2900
F0.0
sVtriple
p2901
F0.0001352582125827689
sVpromethazine
p2902
F0.0
sVhydromorphone
p2903
F0.0
sVrid
p2904
F9.017214172184592e-05
sV34
p2905
F2.844614357778739e-05
sVdysthymia
p2906
F0.0
sVconcentration
p2907
F0.0001352582125827689
sVfunny
p2908
F8.319963641567783e-05
sVlengthy
p2909
F7.353221443871035e-05
sVdrug_interactions
p2910
F0.0
sVshirt
p2911
F4.508607086092296e-05
sVanymore
p2912
F0.00028446143577787387
sVgrant
p2913
F0.0
sVmigraine
p2914
F0.0
sVmint
p2915
F4.508607086092296e-05
sVbelong
p2916
F7.353221443871035e-05
sVkinkel
p2917
F0.0
sVbenign
p2918
F7.353221443871035e-05
sVemphasize
p2919
F0.0
sVwidely
p2920
F0.0
sVgrand
p2921
F4.508607086092296e-05
sV9
p2922
F0.00023295898196389796
sVadvise
p2923
F0.0
sVray
p2924
F7.353221443871035e-05
sVcpap
p2925
F0.0
sVconflict
p2926
F0.00022059664331613107
sVhigher
p2927
F0.0002163190546807624
sVdevelopment
p2928
F9.017214172184592e-05
sVliterature
p2929
F7.353221443871035e-05
sVtemporary
p2930
F0.00022059664331613107
sVlie
p2931
F2.844614357778739e-05
sVassignment
p2932
F7.353221443871035e-05
sVoverweight
p2933
F0.0
sVyesterday
p2934
F0.00022059664331613107
sVairway
p2935
F0.0
sValert
p2936
F9.017214172184592e-05
sVmoment
p2937
F8.978777369095314e-05
sVwalmart
p2938
F0.0
sVmedicaid
p2939
F0.0
sVpurpose
p2940
F3.327985456627114e-05
sVbromo
p2941
F0.0
sVawful
p2942
F0.00022756914862229912
sVgenuine
p2943
F4.508607086092296e-05
sVstack
p2944
F7.353221443871035e-05
sVinfamous
p2945
F0.0
sVrecent
p2946
F0.0001352582125827689
sVearly
p2947
F9.983956369881342e-05
sVbacopa
p2948
F0.0
sVtask
p2949
F0.00017067686146672435
sVdeny
p2950
F0.0001470644288774207
sVinfertility
p2951
F0.0
sVdatabase
p2952
F7.353221443871035e-05
sVmemantine
p2953
F0.0
sVcortisol
p2954
F0.0
sVcodeine
p2955
F0.0
sVanybody
p2956
F7.353221443871035e-05
sVanalysis
p2957
F7.353221443871035e-05
sVgrind
p2958
F0.0
sVperson
p2959
F0.0004659179639277959
sVanime
p2960
F0.0
sVrozerem
p2961
F0.0
sVwithdraw
p2962
F0.00044119328663226213
sVy
p2963
F1.663992728313557e-05
sVentry
p2964
F4.508607086092296e-05
sVchemistry
p2965
F0.0
sVspend
p2966
F0.00028446143577787387
sVtemperamental
p2967
F0.0
sVknow
p2968
F0.0008529838500640548
sVcajon
p2969
F0.0
sVcatiously
p2970
F0.0
sVhomegroup
p2971
F0.0
sVbirthday
p2972
F4.508607086092296e-05
sVabbreviation
p2973
F0.0
sVopenly
p2974
F0.0
sVirritable
p2975
F7.353221443871035e-05
sVvigilant
p2976
F0.0
sVregardless
p2977
F0.0002941288577548414
sValternative
p2978
F0.0003606885668873837
sVdiscipline
p2979
F0.0
sVsuperficial
p2980
F4.508607086092296e-05
sVcut
p2981
F6.734083026821486e-05
sVremission
p2982
F0.0
sVtablet
p2983
F0.0006617899299483931
sVcup
p2984
F0.00044119328663226213
sVadmission
p2985
F0.0
sValternate
p2986
F0.0001352582125827689
sVcuz
p2987
F7.353221443871035e-05
sVcontractor
p2988
F0.0
sVsource
p2989
F0.00022756914862229912
sVdeliberately
p2990
F0.0
sVproblematic
p2991
F7.353221443871035e-05
sVinput
p2992
F0.0012500476454580759
sVdelerium
p2993
F0.0
sVuseless
p2994
F0.0005147255010709724
sVridiculously
p2995
F0.0001470644288774207
sVaustralia
p2996
F0.0
sVapnea
p2997
F0.0
sVemergency
p2998
F0.00022059664331613107
sVloss
p2999
F0.0004508607086092296
sVbig
p3000
F0.000157128603959168
sVrebound
p3001
F0.0
sVeducator
p3002
F0.0
sVshitty
p3003
F0.00022059664331613107
sVgame
p3004
F3.327985456627114e-05
sVquest
p3005
F7.353221443871035e-05
sVwestroads_mall_shooting
p3006
F0.0
sVwiser
p3007
F0.0
sVstep
p3008
F8.319963641567783e-05
sVawaken
p3009
F0.0
sVeffexor
p3010
F0.0
sVhelpful
p3011
F0.0007353221443871035
sVknock
p3012
F0.001307496054966766
sVoutright
p3013
F0.0
sVd
p3014
F0.0
sVsemi
p3015
F2.844614357778739e-05
sVuniversity
p3016
F0.0005147255010709724
sVadmittedly
p3017
F0.0
sVinterestingly
p3018
F0.0001470644288774207
sVpsychedelic
p3019
F0.0
sVrider
p3020
F4.508607086092296e-05
sVconstipate
p3021
F0.0
sVcollect
p3022
F0.0
sVzoloft
p3023
F0.0
sVcontinue
p3024
F0.00014975934554822012
sV80
p3025
F0.0
sVentice
p3026
F0.0
sVfuriously
p3027
F0.0
sVpopular
p3028
F7.353221443871035e-05
sVmode
p3029
F4.508607086092296e-05
sVfault
p3030
F1.663992728313557e-05
sVdisorder
p3031
F0.002353030862038731
sVptsd
p3032
F0.0
sVhallmark
p3033
F0.0
sVgoogle
p3034
F0.00031560249602646074
sVoften
p3035
F0.0009671688816447712
sVpresenter
p3036
F0.0
sVabsolutely
p3037
F8.319963641567783e-05
sVspring
p3038
F5.689228715557478e-05
sVapsychiatrist
p3039
F0.0
sVback
p3040
F0.0004564211829290118
sVbounce
p3041
F7.353221443871035e-05
sVblow
p3042
F3.327985456627114e-05
sVurgent
p3043
F0.0
sVtowards
p3044
F2.2446943422738285e-05
sVoxcarbazepine
p3045
F0.0
sVmirror
p3046
F9.017214172184592e-05
sVcurious
p3047
F1.663992728313557e-05
sVsprint
p3048
F7.353221443871035e-05
sVmispelled
p3049
F0.0
sVscale
p3050
F4.508607086092296e-05
sVweirdo
p3051
F7.353221443871035e-05
sVculprit
p3052
F0.0
sVdecision
p3053
F0.00017067686146672435
sVper
p3054
F0.00040577463774830666
sVcrisis
p3055
F0.0
sVfirsthand
p3056
F0.0
sVdischarge
p3057
F0.0
sVbehave
p3058
F9.017214172184592e-05
sVroommate
p3059
F0.00022059664331613107
sVworkup
p3060
F0.0
sVscalp
p3061
F0.0
sVquote
p3062
F4.508607086092296e-05
sVtemple
p3063
F0.0
sVminimal
p3064
F0.0
sVbuspar
p3065
F0.0
sVsledgehammer
p3066
F7.353221443871035e-05
sVruh
p3067
F0.0
sVpatient
p3068
F0.0031618852208645447
sVbc
p3069
F0.0
sV300
p3070
F4.508607086092296e-05
sVbm
p3071
F0.0
sVodor
p3072
F4.508607086092296e-05
sV4mg
p3073
F0.0
sVagreement
p3074
F2.844614357778739e-05
sV306
p3075
F0.0
sVstem
p3076
F0.0
sVzombie
p3077
F0.0001470644288774207
sVotherside
p3078
F0.0
sVbp
p3079
F0.0
sVtwenty
p3080
F5.689228715557478e-05
sVviibryd
p3081
F0.0
sVtaboo
p3082
F0.0
sVintense
p3083
F0.0004508607086092296
sVmentalhealth
p3084
F0.0
sVwalk
p3085
F0.00042669215366681083
sVreact
p3086
F0.00018034428344369184
sVpipeline
p3087
F0.0
sVcautious
p3088
F7.353221443871035e-05
sVusa
p3089
F7.353221443871035e-05
sVanything
p3090
F0.000389080352660797
sVnetflix
p3091
F0.0
sVprove
p3092
F0.0
sVgraduation
p3093
F0.0
sVpage
p3094
F0.0002254303543046148
sVailment
p3095
F0.0
sVunimpressed
p3096
F0.0
sVrange
p3097
F6.655970913254228e-05
sVcatnip
p3098
F0.0
sVidk
p3099
F0.0
sVblock
p3100
F0.00018034428344369184
sVrepair
p3101
F0.0
sVjimmy
p3102
F0.0
sVcolorado
p3103
F0.0
sVparalysis
p3104
F0.0
sVdude
p3105
F7.353221443871035e-05
sVnortriptyline
p3106
F0.0
sVwithin
p3107
F0.00016639927283135567
sVappropriate
p3108
F0.00036766107219355173
sVprimarily
p3109
F0.0
sVsteven
p3110
F0.0
sVlesson
p3111
F7.353221443871035e-05
sVdelusional
p3112
F0.0001470644288774207
sVconnexus
p3113
F0.0
sVspan
p3114
F7.353221443871035e-05
sVpalinopsia
p3115
F0.0
sVppao
p3116
F0.0
sVprobabilistic
p3117
F0.0
sVache
p3118
F0.0
sVquestion
p3119
F0.00031615861837957577
sVfast
p3120
F0.00013311941826508455
sVaccountability
p3121
F0.0
sVthirdly
p3122
F0.0
sVconsultation
p3123
F0.0
sVfaso
p3124
F0.0
sVsuit
p3125
F4.508607086092296e-05
sVforward
p3126
F0.0
sVwonderfully
p3127
F0.0
sVtranslate
p3128
F7.353221443871035e-05
sVmundane
p3129
F0.0
sVelsewhere
p3130
F0.00022059664331613107
sVwnd
p3131
F0.0
sVjewish
p3132
F0.0
sVposter
p3133
F7.353221443871035e-05
sVmemory
p3134
F0.0003129075793556613
sVmitigate
p3135
F0.0
sVpsychoactive
p3136
F0.0
sVpotency
p3137
F0.0
sVlink
p3138
F0.0002705164251655378
sVlibrary
p3139
F0.0001352582125827689
sVpromazine
p3140
F0.0
sV3am
p3141
F0.0
sVtryptophan
p3142
F0.0
sVline
p3143
F8.319963641567783e-05
sVharangue
p3144
F0.0
sVmineral
p3145
F7.353221443871035e-05
sVinfo
p3146
F0.00022059664331613107
sVmych
p3147
F0.0
sVuti
p3148
F0.0
sVpercocet
p3149
F0.0
sVpsychosis
p3150
F0.0
sVum
p3151
F4.508607086092296e-05
sVun
p3152
F1.663992728313557e-05
sVcautiously
p3153
F7.353221443871035e-05
sVuh
p3154
F8.533843073336217e-05
sVuk
p3155
F0.00022059664331613107
sVpineal
p3156
F0.0
sVhighlight
p3157
F7.353221443871035e-05
sVz
p3158
F0.0005882577155096828
sVsimilar
p3159
F0.0002163190546807624
sValarm
p3160
F0.0002705164251655378
sVparoxetine
p3161
F0.0
sVtricyclic
p3162
F0.0
sVconstant
p3163
F9.017214172184592e-05
sVmohltc
p3164
F0.0
sVmindful
p3165
F0.0
sVbarbituate
p3166
F0.0
sVnepotism
p3167
F0.0
sVrecommendation
p3168
F0.0001470644288774207
sVunsafe
p3169
F7.353221443871035e-05
sVhaunt
p3170
F0.0
sVdoesn
p3171
F0.00041900961055778133
sVdeprive
p3172
F0.0
sVsingle
p3173
F5.237620131972267e-05
sVcure
p3174
F0.00044119328663226213
sV10hours
p3175
F0.0
sVkidney
p3176
F0.0001470644288774207
sV87
p3177
F0.0
sVshaky
p3178
F0.0
sV6th
p3179
F7.353221443871035e-05
sVadjudicate
p3180
F0.0
sVuser
p3181
F0.0001352582125827689
sVoccasional
p3182
F0.0
sVclub
p3183
F0.0001470644288774207
sVnap
p3184
F0.0
sVelectrical
p3185
F7.353221443871035e-05
sVnaw
p3186
F7.353221443871035e-05
sVaunt
p3187
F0.0
sVmaisonikkoku
p3188
F0.0
sVnice
p3189
F0.0
sVunderweight
p3190
F0.0
sVdraw
p3191
F1.496462894849219e-05
sVprozasin
p3192
F0.0
sVenergetic
p3193
F0.0
sV450mg
p3194
F0.0
sVmisfill
p3195
F0.0
sVlucid
p3196
F0.0
sVunderstatement
p3197
F0.0
sVativan
p3198
F0.0
sVresign
p3199
F0.0
sVluxurious
p3200
F7.353221443871035e-05
sVinflame
p3201
F0.0
sVdrag
p3202
F8.319963641567783e-05
sVvisibility
p3203
F7.353221443871035e-05
sVutterly
p3204
F7.353221443871035e-05
sVruthlessly
p3205
F0.0
sVamphetamine
p3206
F0.0
sVstructure
p3207
F7.353221443871035e-05
sVmood
p3208
F0.0010820657006621512
sVfurthest
p3209
F0.0
sVindependently
p3210
F0.0
sVland
p3211
F2.2446943422738285e-05
sVe
p3212
F8.230545921670704e-05
sVmetabolize
p3213
F0.0
sVconfirm
p3214
F0.0002705164251655378
sValongside
p3215
F4.508607086092296e-05
sV2002
p3216
F4.508607086092296e-05
sVasap
p3217
F0.0
sVbeverage
p3218
F0.00022059664331613107
sV2007
p3219
F0.0
sV2005
p3220
F7.353221443871035e-05
sVpsychiatry
p3221
F0.0
sVfresh
p3222
F2.844614357778739e-05
sV2008
p3223
F0.0
sV2009
p3224
F0.0
sVkip
p3225
F0.0
sVgeuss
p3226
F0.0
sVcode
p3227
F9.017214172184592e-05
sVpartial
p3228
F0.0001470644288774207
sVgp
p3229
F0.0
sVpsychotic
p3230
F0.0005882577155096828
sVproduce
p3231
F9.017214172184592e-05
sVoverly
p3232
F7.353221443871035e-05
sVpsyche
p3233
F0.0
sVpsilocybin
p3234
F0.0
sVaddyi
p3235
F0.0
sVhyper
p3236
F0.0
sVhypothyroidism
p3237
F0.0
sVaugust
p3238
F0.0
sVgo
p3239
F0.0
sVflashback
p3240
F0.0
sVmoon
p3241
F0.0001352582125827689
sVgi
p3242
F0.0
sVphenomenon
p3243
F0.0
sVcruiser
p3244
F7.353221443871035e-05
sVbehoove
p3245
F7.353221443871035e-05
sVflexeril
p3246
F0.0
sVpeanut
p3247
F7.353221443871035e-05
sVyoung
p3248
F2.992925789698438e-05
sVsend
p3249
F0.00023295898196389796
sVintensive
p3250
F7.353221443871035e-05
sVculinary
p3251
F0.0
sVyuck
p3252
F0.0
sVstable
p3253
F0.00022059664331613107
sVbreach
p3254
F0.0
sVinclude
p3255
F0.0005410328503310756
sVdeficit
p3256
F0.0
sVpekka
p3257
F0.0
sVfamily
p3258
F0.0005404767279779604
sVrandom
p3259
F0.0002705164251655378
sVdebilitatingly
p3260
F0.0
sVoutside
p3261
F7.482314474246095e-05
sVwave
p3262
F5.689228715557478e-05
sVspoon
p3263
F7.353221443871035e-05
sVhomeosthasis
p3264
F0.0
sVsurgeon
p3265
F0.0
sVsyntax
p3266
F7.353221443871035e-05
sVwipe
p3267
F4.508607086092296e-05
sVarrange
p3268
F7.353221443871035e-05
sVtimely
p3269
F0.0
sVentire
p3270
F0.00017067686146672435
sVmagic
p3271
F4.508607086092296e-05
sVschoolwork
p3272
F0.0
sVantihistaminergic
p3273
F0.0
sVmarry
p3274
F2.844614357778739e-05
sVshock
p3275
F0.00018034428344369184
sVmichael
p3276
F0.0
sVfewer
p3277
F0.00022059664331613107
sVracy
p3278
F0.0
sVtry
p3279
F0.0008903954224352852
sVtenderness
p3280
F0.0
sVrace
p3281
F0.0005147255010709724
sVcongrats
p3282
F0.0
sVblabbity
p3283
F0.0
sVaffective
p3284
F0.0
sVimgur
p3285
F0.0
sVhavent
p3286
F0.0
sVride
p3287
F5.689228715557478e-05
sVdisclaimer
p3288
F7.353221443871035e-05
sVsomeday
p3289
F7.353221443871035e-05
sVcfm
p3290
F7.353221443871035e-05
sVstockpile
p3291
F0.0
sVvisuals
p3292
F0.0
sVcptsd
p3293
F0.0
sVsensation
p3294
F0.0
sVcrop
p3295
F0.0
sVdisolvable
p3296
F0.0
sVjump
p3297
F0.00011378457431114956
sVvideo
p3298
F0.0002254303543046148
sVuncomfortable
p3299
F0.0002941288577548414
sVsleepytime
p3300
F0.0
sVhppd
p3301
F0.0
sVdispensary
p3302
F0.0
sVacid
p3303
F0.00018034428344369184
sVodd
p3304
F1.663992728313557e-05
sVclick
p3305
F5.689228715557478e-05
sVfolk
p3306
F0.0001470644288774207
sVindex
p3307
F0.00022059664331613107
sVturn
p3308
F0.00016639927283135567
sV3x
p3309
F0.0
sVbusiness
p3310
F2.2446943422738285e-05
sVjunior
p3311
F0.0
sVshowcase
p3312
F0.0
sVsadden
p3313
F0.0
sVexacerbate
p3314
F0.0
sVhomwork
p3315
F0.0
sVconsistently
p3316
F0.00022059664331613107
sV500
p3317
F0.0001470644288774207
sVexercise
p3318
F0.0016177087176516276
sVthin
p3319
F2.844614357778739e-05
sVbody
p3320
F0.00016461091843341408
sVdiazepam
p3321
F0.0
sVhypothesis
p3322
F0.0001470644288774207
sVsept
p3323
F0.0
sVdegree
p3324
F0.0002254303543046148
sVleg
p3325
F0.00017067686146672435
sVbackstory
p3326
F0.0
sVdarknet
p3327
F0.0
sVprescribe
p3328
F0.006985560371677482
sVnonexistent
p3329
F7.353221443871035e-05
sVyoungest
p3330
F7.353221443871035e-05
sVgm
p3331
F0.0
sVpoverty
p3332
F7.353221443871035e-05
sVzopiclone
p3333
F0.0
sVothers
p3334
F0.00033279854566271134
sVtremor
p3335
F0.0
sVsafer
p3336
F0.0
sVphysiology
p3337
F0.0
sVextreme
p3338
F8.533843073336217e-05
sVgreat
p3339
F0.0
sVtalent
p3340
F4.508607086092296e-05
sVperscribe
p3341
F0.0
sVnumbness
p3342
F0.0
sVreceive
p3343
F0.0002941288577548414
sVaweful
p3344
F0.0
sV31
p3345
F9.017214172184592e-05
sV30
p3346
F0.0005823974549097449
sVleavenworth
p3347
F0.0
sV36
p3348
F9.017214172184592e-05
sV12am
p3349
F0.0
sVdefeat
p3350
F7.353221443871035e-05
sVprincipally
p3351
F0.0
sVopinion
p3352
F0.0002941288577548414
sVclimb
p3353
F9.017214172184592e-05
sVdepressant
p3354
F0.0
sVpajama
p3355
F0.0
sVthats
p3356
F4.508607086092296e-05
sVholmes
p3357
F0.0
sValtho
p3358
F0.0
sVstabilization
p3359
F0.0
sVheart
p3360
F0.00019912300504451174
sVwin
p3361
F0.0005973690151335351
sVcharge
p3362
F4.508607086092296e-05
sVmanage
p3363
F0.00017067686146672435
sVminnesota
p3364
F0.0
sVannoy
p3365
F0.0002941288577548414
sVdecrease
p3366
F0.0006617899299483931
sVapply
p3367
F4.508607086092296e-05
sVthick
p3368
F2.844614357778739e-05
sVcloud
p3369
F0.0
sVminuteclinic
p3370
F0.0
sVuse
p3371
F0.001114864856662668
sVtcas
p3372
F0.0
sVcrap
p3373
F0.00018034428344369184
sVstream
p3374
F7.353221443871035e-05
sVconsumption
p3375
F7.353221443871035e-05
sVreadyfill
p3376
F0.0
sVillegal
p3377
F7.353221443871035e-05
sVdruggies
p3378
F7.353221443871035e-05
sVnext
p3379
F0.0002918102644955977
sVmodicum
p3380
F0.0
sVdoubt
p3381
F9.983956369881342e-05
sVlength
p3382
F7.482314474246095e-06
sVdishevel
p3383
F0.0
sVchip
p3384
F7.353221443871035e-05
sVsort
p3385
F0.00011971703158793753
sVpfc
p3386
F0.0
sVfrighten
p3387
F7.353221443871035e-05
sVinfection
p3388
F0.0002941288577548414
sVtrail
p3389
F7.353221443871035e-05
sVtrain
p3390
F0.00036766107219355173
sV90mg
p3391
F0.0
sVbaby
p3392
F0.00018034428344369184
sV4am
p3393
F0.0
sVinattentive
p3394
F0.0001470644288774207
sViii
p3395
F0.0
sVamygdala
p3396
F0.0
sVcustomer
p3397
F7.353221443871035e-05
sVtopic
p3398
F0.00018034428344369184
sVaccount
p3399
F4.508607086092296e-05
sVgeodon
p3400
F0.0
sVf
p3401
F4.508607086092296e-05
sVchallenge
p3402
F0.0001470644288774207
sVexacerbation
p3403
F0.0
sVstroke
p3404
F7.353221443871035e-05
sVanywhere
p3405
F1.663992728313557e-05
sVobvious
p3406
F8.533843073336217e-05
sVstabilizer
p3407
F0.0
sVretreat
p3408
F7.353221443871035e-05
sVmeet
p3409
F0.0003606885668873837
sVinhibitor
p3410
F0.0
sVdidnt
p3411
F7.353221443871035e-05
sVscatter
p3412
F0.0
sVproof
p3413
F0.0
sVcontrol
p3414
F0.0016681846218541496
sVweaker
p3415
F7.353221443871035e-05
sVchlorphenimine
p3416
F0.0
sVprocess
p3417
F0.00031560249602646074
sVlock
p3418
F2.844614357778739e-05
sVmegapost
p3419
F0.0
sVhigh
p3420
F0.0
sVeffectively
p3421
F0.0
sVsomething
p3422
F0.0006060674724139337
sVslip
p3423
F0.00022059664331613107
sVdietician
p3424
F0.0
sVboner
p3425
F0.0
sVperma
p3426
F0.0
sVvoice
p3427
F0.0004508607086092296
sVdominant
p3428
F0.0
sVhesitate
p3429
F0.0
sVeducational
p3430
F0.0
sVsip
p3431
F7.353221443871035e-05
sVsyndrome
p3432
F0.0003606885668873837
sVlame
p3433
F0.0001470644288774207
sVtrazadone
p3434
F0.0
sVsix
p3435
F0.0004959467794701525
sVmadden
p3436
F0.0
sVfortunate
p3437
F0.0
sVdelay
p3438
F9.017214172184592e-05
sVarthritis
p3439
F0.0
sVoveranalyzing
p3440
F0.0
sVaurorix
p3441
F0.0
sVamtriptyline
p3442
F0.0
sVanimal
p3443
F3.327985456627114e-05
sVinstead
p3444
F0.0002560152922000865
sVcomedy
p3445
F7.353221443871035e-05
sVintelligent
p3446
F4.508607086092296e-05
sVstock
p3447
F5.689228715557478e-05
sVprofile
p3448
F0.00040577463774830666
sVde
p3449
F7.482314474246095e-06
sVlesion
p3450
F0.0
sVitty
p3451
F0.0
sVwatch
p3452
F0.0
sVphilosophy
p3453
F7.353221443871035e-05
sVneurotin
p3454
F0.0
sVhaziness
p3455
F0.0
sVnullify
p3456
F0.0
sVfart
p3457
F0.0001352582125827689
sVindependent
p3458
F4.508607086092296e-05
sVabuse
p3459
F0.00044119328663226213
sVfatigue
p3460
F0.0
sVtier
p3461
F0.0
sVdufreine
p3462
F0.0
sVphysic
p3463
F0.0
sVdrape
p3464
F0.0
sVdaycare
p3465
F7.353221443871035e-05
sVbind
p3466
F0.0
sVcounter
p3467
F0.0005861189211919985
sVcorrespond
p3468
F0.0
sVelement
p3469
F5.689228715557478e-05
sVhonestly
p3470
F0.00040577463774830666
sVhitter
p3471
F0.0
sVallow
p3472
F0.0009559187877032345
sVtamper
p3473
F0.0
sVsubsequently
p3474
F0.0
sVcampral
p3475
F0.0
sVfuckup
p3476
F0.0
sVirregularity
p3477
F0.0
sVcr
p3478
F0.00022059664331613107
sVserotonergic
p3479
F0.0
sVhouston
p3480
F0.0
sVunderstate
p3481
F0.0
sVdiminish
p3482
F0.0
sVyoun
p3483
F0.0
sVinsight
p3484
F0.0001470644288774207
sVreport
p3485
F0.0006762910629138445
sVemsam
p3486
F0.0
sVgunman
p3487
F0.0
sV135
p3488
F0.0
sVarrangement
p3489
F0.0
sVhappiest
p3490
F0.0
sVbunch
p3491
F8.533843073336217e-05
sVperfect
p3492
F4.508607086092296e-05
sVwrite
p3493
F0.0002662388365301691
sVcomplicate
p3494
F0.0
sVantipsychotic
p3495
F0.0
sVla
p3496
F2.992925789698438e-05
sVll
p3497
F0.0005985851579396876
sVshudder
p3498
F0.0
sVage
p3499
F0.0006655970913254227
sVdigoxin
p3500
F0.0
sVchoose
p3501
F0.00019912300504451174
sV2015
p3502
F0.0
sV2014
p3503
F0.0
sVholiday
p3504
F4.508607086092296e-05
sV2011
p3505
F0.0
sVerowid
p3506
F0.0
sV2012
p3507
F0.0
sVdad
p3508
F2.844614357778739e-05
sVflex
p3509
F7.353221443871035e-05
sVcrash
p3510
F0.00014223071788893693
sVgreater
p3511
F0.0003606885668873837
sVdab
p3512
F0.0
sVauto
p3513
F0.00044119328663226213
sVspell
p3514
F0.0001352582125827689
sVship
p3515
F1.663992728313557e-05
sVfunctional
p3516
F7.353221443871035e-05
sVdat
p3517
F2.844614357778739e-05
sVmention
p3518
F0.0005973690151335351
sVdaw
p3519
F0.0
sVsonata
p3520
F0.0
sVambition
p3521
F7.353221443871035e-05
sVfront
p3522
F9.983956369881342e-05
sVcircadian
p3523
F0.0
sVday
p3524
F0.0
sVfebruary
p3525
F0.0
sVprofound
p3526
F7.353221443871035e-05
sVedit
p3527
F0.0008823865732645243
sVpanic
p3528
F0.0
sVpreclude
p3529
F0.0
sVdextromethorphan
p3530
F0.0
sVflunitrazepam
p3531
F0.0
sVsufficiently
p3532
F0.0
sVcondense
p3533
F0.0
sVweather
p3534
F2.844614357778739e-05
sVtrap
p3535
F0.0
sVtruth
p3536
F0.00018034428344369184
sVreceptor
p3537
F0.0
sVpint
p3538
F0.0001470644288774207
sVtraz
p3539
F0.0
sVactivate
p3540
F4.508607086092296e-05
sVp
p3541
F5.689228715557478e-05
sVdetermine
p3542
F7.353221443871035e-05
sVmultivitamin
p3543
F0.0
sVbump
p3544
F0.0
sVcelexa
p3545
F0.0
sVstrip
p3546
F9.017214172184592e-05
sVproduct
p3547
F0.00018034428344369184
sVweening
p3548
F0.0
sVsociety
p3549
F0.0001352582125827689
sVjunkie
p3550
F7.353221443871035e-05
sVmeta
p3551
F4.508607086092296e-05
sVstatic
p3552
F0.0001470644288774207
sVmeasure
p3553
F0.00014223071788893693
sVprogrammer
p3554
F0.0
sVbay
p3555
F4.508607086092296e-05
sVsexual
p3556
F0.00044119328663226213
sVwander
p3557
F7.353221443871035e-05
sVspecial
p3558
F2.992925789698438e-05
sVirrational
p3559
F0.0
sVillegitimate
p3560
F7.353221443871035e-05
sVtwice
p3561
F0.0003413537229334487
sVspectrum
p3562
F0.0
sVkeystroke
p3563
F7.353221443871035e-05
sVrep
p3564
F7.353221443871035e-05
sVyup
p3565
F0.0
sVhypo
p3566
F0.0
sVplethora
p3567
F0.0
sVupset
p3568
F0.0001470644288774207
sVescalate
p3569
F0.0
sVhorizonal
p3570
F0.0
sVsituational
p3571
F0.0
sVrem
p3572
F0.0
sVlecture
p3573
F0.0
sVelectronics
p3574
F0.0001470644288774207
sVweeknight
p3575
F0.0
sVcause
p3576
F0.0005087973842487345
sVred
p3577
F2.992925789698438e-05
sVshut
p3578
F4.991978184940671e-05
sVworkflow
p3579
F0.0
sVwithdrawal
p3580
F0.0
sV8g
p3581
F0.0
sVpromptly
p3582
F0.0
sVfourteen
p3583
F7.353221443871035e-05
sVban
p3584
F0.0
sVunipolar
p3585
F0.0
sVect
p3586
F0.0
sVsurely
p3587
F7.353221443871035e-05
sVyork
p3588
F0.0
sVtempt
p3589
F0.0
sVafterward
p3590
F0.0
sVadditional
p3591
F4.508607086092296e-05
sVscary
p3592
F0.00022059664331613107
sV50mg
p3593
F0.0
sVinteraction
p3594
F0.0008823865732645243
sVyard
p3595
F0.0
sVg
p3596
F2.844614357778739e-05
sVcould
p3597
F0.0
sVask
p3598
F0.0004788681263517501
sVstereotype
p3599
F7.353221443871035e-05
sVkeep
p3600
F0.00039656266713504305
sVcounterpart
p3601
F0.0
sVkeen
p3602
F4.508607086092296e-05
sVsleeplessness
p3603
F0.0
sVshred
p3604
F0.0
sVneed
p3605
F0.000628514415836672
sVfacilitate
p3606
F0.0
sVstimulate
p3607
F0.0
sVsouth
p3608
F8.533843073336217e-05
sVdexedrine
p3609
F0.0
sVconsciously
p3610
F0.0
sVexam
p3611
F0.00022059664331613107
sVthird
p3612
F7.482314474246095e-05
sVconfuse
p3613
F0.0002254303543046148
sVscene
p3614
F2.844614357778739e-05
sVjesus
p3615
F0.0
sVhurdle
p3616
F0.0
sVbitch
p3617
F0.0002941288577548414
sVmglur
p3618
F0.0
sVquality
p3619
F0.00036979986651123606
sVstraight
p3620
F6.734083026821486e-05
sVpilate
p3621
F0.0
sVsadly
p3622
F0.0
sVdump
p3623
F4.508607086092296e-05
sV10x
p3624
F0.0
sVstrict
p3625
F0.0002941288577548414
sVprostate
p3626
F7.353221443871035e-05
sVhabit
p3627
F0.0
sVaccent
p3628
F5.689228715557478e-05
sVsystem
p3629
F0.0002828787638133047
sVoffset
p3630
F0.0001470644288774207
sVeighth
p3631
F7.353221443871035e-05
sVclomipramine
p3632
F0.0
sVattach
p3633
F7.353221443871035e-05
sVattack
p3634
F0.00031615861837957577
sVnbome
p3635
F0.0
sVsergeant
p3636
F0.0
sVintelligence
p3637
F0.0
sVdrool
p3638
F0.0
sVperfectly
p3639
F5.689228715557478e-05
sVenantomers
p3640
F0.0
sVpainful
p3641
F0.0
sVprone
p3642
F0.0
sVprivatehealth
p3643
F0.0
sVshell
p3644
F4.508607086092296e-05
sVaccompany
p3645
F0.0
sVmisspell
p3646
F0.0
sValopecia
p3647
F0.0
sVacademy
p3648
F7.353221443871035e-05
sVexplanation
p3649
F7.353221443871035e-05
sVnobody
p3650
F4.508607086092296e-05
sVvouch
p3651
F0.0
sVndc
p3652
F0.0
sVfuzzy
p3653
F0.0
sV192lbs
p3654
F0.0
sVhaven
p3655
F0.0003494384729458469
sVremember
p3656
F0.00025439869212436723
sVdevelop
p3657
F0.0002705164251655378
sVslack
p3658
F0.0
sVpinelake
p3659
F0.0
sVsplit
p3660
F2.844614357778739e-05
sVbother
p3661
F4.508607086092296e-05
sVyoutube
p3662
F0.0
sVclonodine
p3663
F0.0
sVdetach
p3664
F0.0
sVlight
p3665
F0.0002828787638133047
sVspurt
p3666
F0.0
sVvendor
p3667
F4.508607086092296e-05
sVtyrosine
p3668
F0.0
sVsteer
p3669
F0.0
sVresult
p3670
F0.0005861189211919985
sVbeter
p3671
F0.0
sVfalse
p3672
F2.844614357778739e-05
sVlightly
p3673
F7.353221443871035e-05
sVunchanged
p3674
F0.0
sVbipolar
p3675
F0.0007353221443871035
sVgently
p3676
F0.0001470644288774207
sVcomfortable
p3677
F0.0001352582125827689
sVtonight
p3678
F0.0002254303543046148
sVgentle
p3679
F0.00011378457431114956
sVcomfortably
p3680
F4.508607086092296e-05
sVunlikely
p3681
F0.0
sVthroat
p3682
F4.991978184940671e-05
sVinduce
p3683
F0.0
sVdementia
p3684
F0.0
sVapparently
p3685
F8.533843073336217e-05
sVclearly
p3686
F8.533843073336217e-05
sVscrew
p3687
F0.0001352582125827689
sVafraid
p3688
F9.983956369881342e-05
sVmin
p3689
F0.0002941288577548414
sVagency
p3690
F7.353221443871035e-05
sVcleveland
p3691
F0.0
sVmid
p3692
F8.533843073336217e-05
sVmechanism
p3693
F0.0
sVadjunct
p3694
F0.0
sVmix
p3695
F0.00036979986651123606
sVasshole
p3696
F0.0001470644288774207
sVpharmacist
p3697
F0.0
sVcoke
p3698
F0.0001470644288774207
sVtoughest
p3699
F0.0
sVlecturer
p3700
F0.0
sVregard
p3701
F0.0
sVunless
p3702
F0.00039824601008902347
sVprednisone
p3703
F0.0
sVcombat
p3704
F0.0
sVtaker
p3705
F7.353221443871035e-05
sVhealthcare
p3706
F0.0
sVminneapolis
p3707
F0.0
sVharmful
p3708
F0.0
sVuseful
p3709
F0.00036766107219355173
sVnarcolepsy
p3710
F7.353221443871035e-05
sVeight
p3711
F0.00011378457431114956
sVlidocaine
p3712
F0.0
sVlunesta
p3713
F0.0
sVdevice
p3714
F2.844614357778739e-05
sVaddiction
p3715
F0.0
sVpolice
p3716
F0.0002254303543046148
sVduloxetine
p3717
F0.0
sVdiscourage
p3718
F0.0
sVhyperthyroidism
p3719
F0.0
sVgather
p3720
F9.017214172184592e-05
sVstronger
p3721
F0.00044119328663226213
sVdisease
p3722
F0.00040577463774830666
sVface
p3723
F3.327985456627114e-05
sVdesvenlafaxine
p3724
F0.0
sVdistinctive
p3725
F0.0
sVnorth
p3726
F2.844614357778739e-05
sVoccasion
p3727
F9.017214172184592e-05
sVskinny
p3728
F7.353221443871035e-05
sVtypical
p3729
F0.0002254303543046148
sVnormally
p3730
F0.00018034428344369184
sVaway
p3731
F0.0
sVfact
p3732
F0.0003413537229334487
sV30pm
p3733
F0.0
sVtext
p3734
F9.017214172184592e-05
sVanyway
p3735
F0.00045513829724459824
sVsublingual
p3736
F0.0
sVvistaril
p3737
F0.0
sVbring
p3738
F8.230545921670704e-05
sVbedroom
p3739
F7.353221443871035e-05
sVrough
p3740
F9.017214172184592e-05
sV2013
p3741
F0.0
sVtrivial
p3742
F0.0
sVdbt
p3743
F0.0
sVdecade
p3744
F0.0002254303543046148
sVcostco
p3745
F0.0
sVknowledge
p3746
F9.017214172184592e-05
sVtire
p3747
F0.0007664632046356903
sVprescriber
p3748
F0.0
sVnitrous
p3749
F0.0
sVhopeful
p3750
F0.0
sVclomiphene
p3751
F0.0
sVeat
p3752
F0.0004659179639277959
sVprolong
p3753
F0.0
sV60mg
p3754
F0.0
sVjam
p3755
F4.991978184940671e-05
sVcombo
p3756
F0.0005882577155096828
sVfuel
p3757
F0.0
sVb
p3758
F8.319963641567783e-05
sVlocal
p3759
F0.0002254303543046148
sVhope
p3760
F0.0001421639750106758
sVregularly
p3761
F0.0001470644288774207
sVmove
p3762
F0.0003413537229334487
sVhandle
p3763
F0.0002163190546807624
sVpharmacology
p3764
F0.0
sVundivided
p3765
F0.0
sVbeat
p3766
F5.689228715557478e-05
sVfamiliar
p3767
F0.00018034428344369184
sVwhatnot
p3768
F0.0
sVoverall
p3769
F0.0005882577155096828
sVlucky
p3770
F0.00014223071788893693
sVbear
p3771
F9.017214172184592e-05
sV120
p3772
F0.0
sVjoint
p3773
F0.0001470644288774207
sVlittleton
p3774
F0.0
sVmalaise
p3775
F0.0
sVnonfatal
p3776
F0.0
sVjpg
p3777
F9.017214172184592e-05
sVabilify
p3778
F0.0
sVymmv
p3779
F0.0
sVhydroxizine
p3780
F0.0
sVantagonist
p3781
F0.0
sVht2b
p3782
F0.0
sVqt
p3783
F7.353221443871035e-05
sVtobacco
p3784
F9.017214172184592e-05
sVht2a
p3785
F0.0
sVupper
p3786
F0.0001470644288774207
sVh
p3787
F2.844614357778739e-05
sVsummon
p3788
F7.353221443871035e-05
sVstuff
p3789
F0.0009956150252225587
sVblogspot
p3790
F0.0
sVdallas
p3791
F0.0
sVwish
p3792
F0.0003129075793556613
sVgrab
p3793
F2.844614357778739e-05
sVpiss
p3794
F0.00036766107219355173
sVgrad
p3795
F7.353221443871035e-05
sVconduct
p3796
F0.0
sVgabapentin
p3797
F0.0
sVenhancer
p3798
F0.0
sVavailable
p3799
F0.000512030584400173
sVbtw
p3800
F0.0
sVtemporarily
p3801
F7.353221443871035e-05
sVgroggy
p3802
F0.0
sVaccord
p3803
F0.0
sVbreathe
p3804
F0.00044119328663226213
sVintensity
p3805
F7.353221443871035e-05
sVcomputer
p3806
F0.00031560249602646074
sVrecently
p3807
F0.00023295898196389796
sVdysmorphia
p3808
F0.0
sVbth
p3809
F0.0
sVdanger
p3810
F4.991978184940671e-05
sVcloset
p3811
F0.0001470644288774207
sVpattern
p3812
F0.0
sVnightmare
p3813
F0.0004835844408223856
sVillusory
p3814
F0.0
sVtend
p3815
F0.0008088543588258138
sVstate
p3816
F0.00036979986651123606
sVdoxepin
p3817
F0.0
sVcorrectly
p3818
F8.533843073336217e-05
sVroutine
p3819
F0.00031560249602646074
sVprogress
p3820
F4.991978184940671e-05
sVneither
p3821
F4.508607086092296e-05
sVsabotage
p3822
F0.0
sVmainly
p3823
F0.0001352582125827689
sVexplosive
p3824
F0.0
sVbed
p3825
F0.0026600781807944547
sVparadoxically
p3826
F7.353221443871035e-05
sVimportance
p3827
F0.0
sVjoy
p3828
F9.017214172184592e-05
sVdeliver
p3829
F4.508607086092296e-05
sVhowever
p3830
F0.001352582125827689
sVcourtyard
p3831
F0.0
sVefficiency
p3832
F0.0
sVjob
p3833
F0.00028446143577787387
sVshittiest
p3834
F7.353221443871035e-05
sVmerry
p3835
F0.0
sVdemonstrate
p3836
F7.353221443871035e-05
sVdisconnect
p3837
F7.353221443871035e-05
sVnutreal
p3838
F0.0
sVsuccesful
p3839
F0.0
sVmonitor
p3840
F0.0001470644288774207
sVempathy
p3841
F0.0
sVakathisia
p3842
F0.0
sVcareer
p3843
F4.508607086092296e-05
sVjoke
p3844
F9.017214172184592e-05
sVgram
p3845
F0.0
sVramp
p3846
F0.0
sVetc
p3847
F0.00018705786185615239
sVadmit
p3848
F0.0
sVpredispose
p3849
F0.0
sVbehaviour
p3850
F4.508607086092296e-05
sVswallow
p3851
F0.0001352582125827689
sVplacebo
p3852
F0.0
sVsafely
p3853
F7.353221443871035e-05
sVjourney
p3854
F0.0
sVreactivity
p3855
F0.0
sVcomment
p3856
F0.00040577463774830666
sVrelevant
p3857
F0.0
sVindica
p3858
F0.0
sVperiodic
p3859
F7.353221443871035e-05
sVwall
p3860
F0.0001352582125827689
sVca
p3861
F7.353221443871035e-05
sVcf
p3862
F0.0001470644288774207
sVmidazolam
p3863
F0.0
sVlaugh
p3864
F5.689228715557478e-05
sV00pm
p3865
F0.0
sVrph
p3866
F0.0
sVpulmonary
p3867
F0.0
sVcv
p3868
F0.0
sVscanner
p3869
F0.0
sVmeantime
p3870
F0.0001470644288774207
sVhawkins
p3871
F0.0
sVsari
p3872
F0.0
sVyay
p3873
F0.0
sVstupor
p3874
F0.0
sVaddition
p3875
F0.00036766107219355173
sVdecent
p3876
F5.689228715557478e-05
sVnaltrexone
p3877
F0.0
sVbbc
p3878
F7.353221443871035e-05
sVbbb
p3879
F0.0
sVcent
p3880
F0.0001470644288774207
sVsnort
p3881
F7.353221443871035e-05
sVrestless
p3882
F0.0
sVpermanent
p3883
F5.689228715557478e-05
sVhellish
p3884
F0.0
sVdrowsy
p3885
F0.0
sVah
p3886
F0.0
sVcurtain
p3887
F0.0
sVkitchen
p3888
F7.353221443871035e-05
sVpsychotherapist
p3889
F0.0
sVsufficient
p3890
F0.0
sVotc
p3891
F0.0
sVanorgasmia
p3892
F0.0
sV250mg
p3893
F0.0
sVcontroller
p3894
F0.0
sVperscribed
p3895
F0.0
sVao
p3896
F0.0
sVgun
p3897
F9.017214172184592e-05
sVhobby
p3898
F7.353221443871035e-05
sVprescription
p3899
F0.0
sVfellow
p3900
F0.00022059664331613107
sVspain
p3901
F0.0
sVvolunteer
p3902
F7.353221443871035e-05
sVmulti
p3903
F8.533843073336217e-05
sVoregon_sheriff_wrote_gun_control_is_not_the
p3904
F0.0
sVcouple
p3905
F0.00033279854566271134
sVirregular
p3906
F7.353221443871035e-05
sVunlike
p3907
F5.689228715557478e-05
sVkava
p3908
F0.0
sVplain
p3909
F2.844614357778739e-05
sVappearance
p3910
F2.844614357778739e-05
sVbreenwood
p3911
F0.0
sVvalue
p3912
F0.00014975934554822012
sVmiddle
p3913
F0.00019967912739762684
sVplateaued
p3914
F0.0
sVweber
p3915
F0.0
sVhahaha
p3916
F0.0
sVhypertension
p3917
F0.0
sVultra
p3918
F0.0
sVdecongestant
p3919
F0.0
sVwatson
p3920
F7.353221443871035e-05
sVsupply
p3921
F7.353221443871035e-05
sVva
p3922
F0.00031560249602646074
sVcell
p3923
F2.844614357778739e-05
sVmanually
p3924
F0.00022059664331613107
sValmost
p3925
F0.00013468166053642972
sVneuron
p3926
F0.0
sVthus
p3927
F9.017214172184592e-05
sVsurprisingly
p3928
F7.353221443871035e-05
sVencouragement
p3929
F0.0
sVzombified
p3930
F0.0
sVexcessively
p3931
F7.353221443871035e-05
sVdexxing
p3932
F0.0
sVpartner
p3933
F0.0001352582125827689
sVconserve
p3934
F0.0
sVavb
p3935
F0.0
sVdenial
p3936
F0.0
sVlet
p3937
F0.00023943406317587505
sVgeneric
p3938
F0.00044119328663226213
sVpristiq
p3939
F0.0
sVcross
p3940
F2.992925789698438e-05
sVcampus
p3941
F0.0001470644288774207
sVmember
p3942
F0.00022059664331613107
sVadverse
p3943
F0.0
sVstrange
p3944
F4.991978184940671e-05
sVflower
p3945
F0.0
sVparty
p3946
F0.0004508607086092296
sVdisorient
p3947
F0.0
sVdifficult
p3948
F0.00028446143577787387
sVopiate
p3949
F0.0
sVball
p3950
F2.844614357778739e-05
sVpractitioner
p3951
F0.0
sVemotionally
p3952
F0.0001470644288774207
sV3qotsj
p3953
F0.0
sVdrink
p3954
F0.0002843279500213516
sVupon
p3955
F8.319963641567783e-05
sVeffect
p3956
F0.0005013150697744884
sVphd
p3957
F0.0
sVnightly
p3958
F0.00022059664331613107
sVapp
p3959
F0.00022059664331613107
sVstudent
p3960
F0.0010820657006621512
sVdust
p3961
F7.353221443871035e-05
sVfrequently
p3962
F0.0001470644288774207
sVphp
p3963
F0.0001470644288774207
sVjudgment
p3964
F0.0001470644288774207
sVidentity
p3965
F7.353221443871035e-05
sVretard
p3966
F7.353221443871035e-05
sVcenter
p3967
F8.533843073336217e-05
sVlunch
p3968
F5.689228715557478e-05
sVshotgun
p3969
F0.0001470644288774207
sVusual
p3970
F0.0002941288577548414
sVwell
p3971
F0.0
sVthought
p3972
F0.0002163190546807624
sVidiot
p3973
F7.353221443871035e-05
sVinsurmountable
p3974
F0.0
sV1
p3975
F0.0003217395223925821
sVsecrete
p3976
F0.0
sVposition
p3977
F3.327985456627114e-05
sVpublicize
p3978
F0.0
sVaudio
p3979
F7.353221443871035e-05
sVrush
p3980
F2.844614357778739e-05
sVfetal
p3981
F0.0
sVrestore
p3982
F7.353221443871035e-05
sVnewest
p3983
F7.353221443871035e-05
sVrocket
p3984
F0.0
sVheavily
p3985
F0.0002254303543046148
sVbiological
p3986
F0.0
sVobtain
p3987
F0.0
sVdetail
p3988
F0.0002254303543046148
sVrecollection
p3989
F7.353221443871035e-05
sVskill
p3990
F0.0
sVillinois
p3991
F0.0
sVhappiness
p3992
F7.353221443871035e-05
sVtca
p3993
F0.0
sVbegin
p3994
F0.00042669215366681083
sVgenerous
p3995
F4.508607086092296e-05
sVdisturbance
p3996
F0.0001470644288774207
sV750mg
p3997
F0.0
sVfield
p3998
F7.353221443871035e-05
sVpodcast
p3999
F0.0
sVjeff
p4000
F0.0
sVsky
p4001
F4.508607086092296e-05
sVlake
p4002
F0.0001470644288774207
sVrealize
p4003
F0.0008088543588258138
sVarrest
p4004
F4.508607086092296e-05
sVadd
p4005
F0.0007395997330224721
sVkwan
p4006
F0.0
sVcombine
p4007
F0.00040577463774830666
sVcrack
p4008
F4.508607086092296e-05
sVreason
p4009
F0.00033279854566271134
sVramelteon
p4010
F0.0
sVpractise
p4011
F0.0
sVhomework
p4012
F0.00022059664331613107
sVbenzodiazepams
p4013
F0.0
sVcalarifuvatiob
p4014
F0.0
sVallforms
p4015
F0.0
sVterm
p4016
F0.0007964920201780469
sVcrux
p4017
F0.0
sVfive
p4018
F5.985851579396876e-05
sVseizure
p4019
F0.0
sVburden
p4020
F0.0
sVimmediately
p4021
F0.00017067686146672435
sVsimilair
p4022
F0.0
sVheight
p4023
F2.844614357778739e-05
sVmuscle
p4024
F0.00036766107219355173
sVbenadryl
p4025
F0.0
sVtail
p4026
F2.844614357778739e-05
sVnecessary
p4027
F0.00011647949098194898
sVlike
p4028
F0.0
sVsuccess
p4029
F0.0002705164251655378
sVsafest
p4030
F0.0
sValternatively
p4031
F0.00022059664331613107
sVring
p4032
F4.508607086092296e-05
sV11pm
p4033
F0.0
sVopenmenu
p4034
F0.0
sVloser
p4035
F0.0
sV28f
p4036
F0.0
sV24362450
p4037
F0.0
sVtranscranial
p4038
F0.0
sVnami
p4039
F0.0
sVamitryptiline
p4040
F0.0
sVbecome
p4041
F0.0001945401763303985
sVsoft
p4042
F4.991978184940671e-05
sVsprain
p4043
F0.0
sVtherapeutic
p4044
F0.0
sVdeviation
p4045
F0.0
sVklonopin
p4046
F0.0
sVdrop
p4047
F0.0002560152922000865
sVinteract
p4048
F0.00022059664331613107
sVstimulatin
p4049
F0.0
sVbriefly
p4050
F0.00022059664331613107
sValive
p4051
F1.663992728313557e-05
sVhair
p4052
F0.00014223071788893693
sVpregnancy
p4053
F0.0001470644288774207
sVrepeat
p4054
F0.00022059664331613107
sVpsyc
p4055
F0.0
sVproper
p4056
F3.327985456627114e-05
sVhome
p4057
F0.0003494384729458469
sVsupportive
p4058
F0.0
sVwerent
p4059
F0.0
sVpsychoanalyst
p4060
F0.0
sVpropofol
p4061
F0.0
sVlead
p4062
F0.00011647949098194898
sVunpredictable
p4063
F0.00022059664331613107
sVliterally
p4064
F0.0004508607086092296
sVavoid
p4065
F0.0002828787638133047
sVseparate
p4066
F0.0001352582125827689
sVinhibit
p4067
F0.0
sVpassion
p4068
F2.844614357778739e-05
sVsnuggle
p4069
F0.0
sVlamictal
p4070
F0.0
sVlocate
p4071
F7.353221443871035e-05
sVnoise
p4072
F4.991978184940671e-05
sVinaccurate
p4073
F7.353221443871035e-05
sVschedule
p4074
F0.0012500476454580759
sVslur
p4075
F0.0
sVjournal
p4076
F0.0
sVslut
p4077
F7.353221443871035e-05
sVability
p4078
F0.0001352582125827689
sVtae
p4079
F0.0
sVpressure
p4080
F0.0008088543588258138
sVhost
p4081
F2.844614357778739e-05
sVexpire
p4082
F7.353221443871035e-05
sValthough
p4083
F0.0002828787638133047
sVworthy
p4084
F4.508607086092296e-05
sVpasta
p4085
F7.353221443871035e-05
sVentirely
p4086
F3.327985456627114e-05
sVstage
p4087
F2.844614357778739e-05
sVsister
p4088
F0.0001352582125827689
sVlifestyle
p4089
F7.353221443871035e-05
sV6am
p4090
F0.0
sVfreedom
p4091
F2.844614357778739e-05
sVteepa
p4092
F0.0
sVharder
p4093
F0.0002254303543046148
sVingest
p4094
F0.0
sV125mg
p4095
F0.0
sVaminotransferase
p4096
F0.0
sVswear
p4097
F7.353221443871035e-05
sVsweat
p4098
F0.0002941288577548414
sVupward
p4099
F7.353221443871035e-05
sVnsaid
p4100
F0.0
sVsoftware
p4101
F9.017214172184592e-05
sVequally
p4102
F0.0
sVoverlook
p4103
F0.0
sV88
p4104
F7.353221443871035e-05
sVpreform
p4105
F0.0
sVblindly
p4106
F0.0
sVowe
p4107
F4.508607086092296e-05
sVpussy
p4108
F4.508607086092296e-05
sVyear
p4109
F0.0007557137618988555
sVcommitment
p4110
F7.353221443871035e-05
sVdue
p4111
F0.0007213771337747673
sVchronic
p4112
F0.00022059664331613107
sVdoesnt
p4113
F9.017214172184592e-05
sVpromise
p4114
F0.0002705164251655378
sVdividose
p4115
F0.0
sVfemale
p4116
F0.00014223071788893693
sVcouldnt
p4117
F0.0
sVpointless
p4118
F7.353221443871035e-05
sVagin
p4119
F0.0
sV1987
p4120
F0.0
sVssristories
p4121
F0.0
sVendorse
p4122
F0.0
sVcoherent
p4123
F0.0
sVaarp
p4124
F0.0
sVtransfer
p4125
F9.017214172184592e-05
sVbuckle
p4126
F7.353221443871035e-05
sVoutline
p4127
F7.353221443871035e-05
sVsleepover
p4128
F7.353221443871035e-05
sVtracker
p4129
F7.353221443871035e-05
sVfrustration
p4130
F0.0
sVbiggest
p4131
F0.0001352582125827689
sVdamn
p4132
F0.00036766107219355173
sVnaturally
p4133
F0.00022059664331613107
sVfunction
p4134
F0.001691240932090338
sVmylan
p4135
F0.0
sVbuy
p4136
F0.00017067686146672435
sVcapsule
p4137
F0.00022059664331613107
sVgluten
p4138
F0.0
sVdextroamphetamine
p4139
F0.0
sVhr
p4140
F0.00044119328663226213
sVbus
p4141
F7.353221443871035e-05
sVbrand
p4142
F8.533843073336217e-05
sVmiraculously
p4143
F0.0
sVweight
p4144
F0.0004659179639277959
sVsubjective
p4145
F0.0
sVneutral
p4146
F0.0001470644288774207
sVhi
p4147
F0.0001470644288774207
sVbun
p4148
F7.353221443871035e-05
sVgain
p4149
F0.0009017214172184592
sVnut
p4150
F7.353221443871035e-05
sVthreaten
p4151
F0.00022059664331613107
sVdomiciliary
p4152
F0.0
sVha
p4153
F0.00014223071788893693
sVsignal
p4154
F4.508607086092296e-05
sVbug
p4155
F0.0001352582125827689
sVpartially
p4156
F9.017214172184592e-05
sVcount
p4157
F0.0001352582125827689
sVpi
p4158
F0.0
sVwise
p4159
F0.0001470644288774207
sVtab
p4160
F4.508607086092296e-05
sVwhether
p4161
F6.734083026821486e-05
sVdangerous
p4162
F0.00022756914862229912
sVofficial
p4163
F4.508607086092296e-05
sVflip
p4164
F7.353221443871035e-05
sVdistract
p4165
F0.0
sVrecord
p4166
F0.00031560249602646074
sVconvince
p4167
F0.00014223071788893693
sVlimit
p4168
F0.00018034428344369184
sVentrainment
p4169
F0.0
sV3mg
p4170
F0.0
sVadderall
p4171
F0.0
sVproblem
p4172
F0.0006655970913254227
sVpm
p4173
F0.0
sVex
p4174
F0.0001352582125827689
sVhorticulturist
p4175
F0.0
sVpin
p4176
F7.353221443871035e-05
sVrecognize
p4177
F4.508607086092296e-05
sVcontribute
p4178
F7.353221443871035e-05
sVpersistent
p4179
F4.508607086092296e-05
sVfitbit
p4180
F0.0
sVjudgemental
p4181
F7.353221443871035e-05
sVsneak
p4182
F7.353221443871035e-05
sVcounteract
p4183
F0.0
sVhospitalization
p4184
F0.0
sVmushroom
p4185
F0.00022059664331613107
sVvariety
p4186
F0.0001352582125827689
sVdeadly
p4187
F0.0
sV45
p4188
F0.00019912300504451174
sVboot
p4189
F7.353221443871035e-05
sV43
p4190
F9.017214172184592e-05
sV40
p4191
F8.533843073336217e-05
sVlately
p4192
F0.00018034428344369184
sVingestion
p4193
F0.0
sVsandy
p4194
F4.508607086092296e-05
sVsick
p4195
F0.0006617899299483931
sVziprasidone
p4196
F0.0
sVoutlet
p4197
F0.0
sVer
p4198
F5.689228715557478e-05
sVstimulant
p4199
F0.0
sVconclusion
p4200
F9.017214172184592e-05
sVfrancisco
p4201
F0.0
sVstar
p4202
F8.533843073336217e-05
sVmonday
p4203
F0.0
sVtraumatic
p4204
F0.0
sVexcite
p4205
F4.508607086092296e-05
sVclass
p4206
F0.0005491176003434737
sVjune
p4207
F0.0
sVcircumspection
p4208
F0.0
sVbundle
p4209
F7.353221443871035e-05
sVstay
p4210
F0.0005990373821928805
sVchance
p4211
F0.0002163190546807624
sVaugmentation
p4212
F0.0
sVkinda
p4213
F0.0002941288577548414
sVidiopathic
p4214
F0.0
sVelse
p4215
F0.00021698711975313677
sVcontraceptive
p4216
F0.0
sVstunt
p4217
F0.0
sVrisperdal
p4218
F0.0
sVresolution
p4219
F0.00018034428344369184
sVunbridle
p4220
F0.0
sV25x
p4221
F0.0
sVrule
p4222
F0.00018034428344369184
sVtriazolam
p4223
F0.0
sVportion
p4224
F0.0001470644288774207
sV_apasserby_
p4225
F0.0
sVdiagnosis
p4226
F0.0
sVunderstand
p4227
F6.734083026821486e-05
sVtexazepam
p4228
F0.0
s.