(dp0
Vcatapres
p1
F0.0
sVpartial
p2
F0.0030803887723118424
sVswitched
p3
F0.0012591544855794954
sVtamoxifen
p4
F0.0
sVlack
p5
F0.00023235822814221454
sVfocus
p6
F0.0010267962574372807
sVnarcotic
p7
F0.0
sVfour
p8
F0.0001044822675036989
sVterazosin
p9
F0.0
sVsleep
p10
F0.0011916570439425994
sVneosar
p11
F0.0
sVmodafinil
p12
F0.0
sVgo
p13
F0.0
sVamplified
p14
F0.0
sVoldest
p15
F0.0006295772427897477
sVcauses
p16
F0.0006295772427897477
sVbiaxin
p17
F0.0
sVserotonigenic
p18
F0.0
sVsuicide
p19
F0.0010267962574372807
sVprocainamide
p20
F0.0
sVtranylcypromine
p21
F0.0
sVside_effects
p22
F0.0
sVavoid
p23
F0.0006970746844266436
sVyoung
p24
F0.0001044822675036989
sVselegiline
p25
F0.0
sVfinally
p26
F0.0012591544855794954
sVhelps
p27
F0.0012591544855794954
sVrhythm
p28
F0.0020535925148745613
sVnaprelan
p29
F0.0
sVprograf
p30
F0.0
sVsorry
p31
F0.00023235822814221454
sVworth
p32
F0.0007944380292950662
sVupdated
p33
F0.0006295772427897477
sV50mg
p34
F0.0
sVmoiety
p35
F0.0
sVworse
p36
F0.0004647164562844291
sVfluoxetine
p37
F0.0
sVlast
p38
F0.0004179290700147956
sVhorror
p39
F0.0010267962574372807
sVcapoten
p40
F0.0
sVfemara
p41
F0.0
sVwave
p42
F0.0003972190146475331
sVemergencies
p43
F0.0010267962574372807
sVprolixin
p44
F0.0
sVrifampin
p45
F0.0
sVmania
p46
F0.0
sVevery
p47
F0.0002089645350073978
sVzyban
p48
F0.0
sVtelling
p49
F0.0006970746844266436
sVgeodon
p50
F0.0
sVexact
p51
F0.0003972190146475331
sVnausea
p52
F0.0
sVtreating
p53
F0.0020535925148745613
sVleads
p54
F0.0003972190146475331
sVmade
p55
F0.0001044822675036989
sVturns
p56
F0.00023235822814221454
sVlist
p57
F0.0027805331025327314
sVnaprosyn
p58
F0.0
sVfewer
p59
F0.0010267962574372807
sVaccupril
p60
F0.0
sVclozapine
p61
F0.0
sVsolved
p62
F0.0
sVmethimazole
p63
F0.0
sVadjust
p64
F0.0010267962574372807
sVcholesterol
p65
F0.0020535925148745613
sVsavella
p66
F0.0
sVreliable
p67
F0.0006295772427897477
sVwellbutrin
p68
F0.0
sVneurotoxin
p69
F0.0
sVenjoy
p70
F0.0003972190146475331
sVprevent
p71
F0.0018887317283692432
sVsmaller
p72
F0.0003972190146475331
sVantibiotic
p73
F0.0
sVten
p74
F0.00023235822814221454
sVplexus
p75
F0.0
sVramipril
p76
F0.0
sVpulse
p77
F0.0
sVpast
p78
F0.00023235822814221454
sVlikely
p79
F0.0010267962574372807
sVvideo
p80
F0.0006295772427897477
sVlicenses
p81
F0.0
sVmigraines
p82
F0.0
sVfunctioning
p83
F0.0010267962574372807
sVcytoxan
p84
F0.0
sVeven
p85
F0.0002089645350073978
sV25ml
p86
F0.0
sVvoltaren
p87
F0.0
sVwrecked
p88
F0.0006295772427897477
sVmarketed
p89
F0.0
sV4
p90
F0.0004179290700147956
sVemotions
p91
F0.0020535925148745613
sV25mg
p92
F0.0
sVcurrent
p93
F0.0003972190146475331
sVisoptin
p94
F0.0
sVbipolar
p95
F0.004107185029749123
sVversion
p96
F0.0006295772427897477
sVissues
p97
F0.0006295772427897477
sVnew
p98
F0.0
sVever
p99
F0.0002089645350073978
sVtold
p100
F0.0003972190146475331
sVmed
p101
F0.0012591544855794954
sVfull
p102
F0.0
sVmalaria
p103
F0.0020535925148745613
sVrespectively
p104
F0.0
sVvomiting
p105
F0.0010267962574372807
sVhours
p106
F0.00023235822814221454
sVdesired
p107
F0.0
sVshouldn
p108
F0.0003972190146475331
sVselective
p109
F0.0
sVnelfinavir
p110
F0.0
sVothers
p111
F0.0018588658251377163
sVactive
p112
F0.0003972190146475331
sValong
p113
F0.00031344680251109674
sVsert
p114
F0.0
sVchange
p115
F0.0003972190146475331
sVdry
p116
F0.0012591544855794954
sVbottle
p117
F0.0003972190146475331
sVdiagnoses
p118
F0.0
sVdihydroergotamine
p119
F0.0
sVdisorders
p120
F0.0020535925148745613
sVcomplete
p121
F0.0006970746844266436
sVphenelzine
p122
F0.0
sVdates
p123
F0.0006295772427897477
sV30
p124
F0.00023235822814221454
sVguilty
p125
F0.0010267962574372807
sVterbinafine
p126
F0.0
sVexperience
p127
F0.0006295772427897477
sVpentamidine
p128
F0.0
sVamount
p129
F0.0003972190146475331
sVmigranal
p130
F0.0
sV10ish
p131
F0.0
sVusually
p132
F0.0007944380292950662
sVcouple
p133
F0.00023235822814221454
sVtoxicity
p134
F0.0
sVmakes
p135
F0.0001044822675036989
sVoptions
p136
F0.0006295772427897477
sVclonidine
p137
F0.0
sVregardless
p138
F0.0010267962574372807
sValthough
p139
F0.00023235822814221454
sVfamily
p140
F0.0003972190146475331
sVclaim
p141
F0.0003972190146475331
sVexplained
p142
F0.0010267962574372807
sVprefer
p143
F0.0003972190146475331
sVhighly
p144
F0.0006295772427897477
sVsincerely
p145
F0.0
sVmobic
p146
F0.0
sVseroquel
p147
F0.0
sVnames
p148
F0.0003972190146475331
sVorg
p149
F0.0030803887723118424
sVzocor
p150
F0.0
sVlamcital
p151
F0.0
sVmarket
p152
F0.0006295772427897477
sVtrazodone
p153
F0.0
sVderivatives
p154
F0.0
sVuse
p155
F0.0004179290700147956
sVswings
p156
F0.0010267962574372807
sVspoke
p157
F0.0006295772427897477
sVwould
p158
F0.0
sVlose
p159
F0.0001044822675036989
sVpositive
p160
F0.0003972190146475331
sVtwo
p161
F0.0
sVnext
p162
F0.00031344680251109674
sVmeloxicam
p163
F0.0
sVtherefore
p164
F0.0010267962574372807
sV6
p165
F0.00031344680251109674
sVtaken
p166
F0.0002089645350073978
sVtachycardia
p167
F0.0
sVunivasc
p168
F0.0
sVtell
p169
F0.0013941493688532872
sVtoday
p170
F0.00023235822814221454
sVaspirin
p171
F0.0
sVbreathe
p172
F0.0010267962574372807
sVlowering
p173
F0.0
sVchloroquine
p174
F0.0
sVslim
p175
F0.0006295772427897477
sVknows
p176
F0.0003972190146475331
sVlungs
p177
F0.0020535925148745613
sVstarted
p178
F0.0009294329125688582
sVbecomes
p179
F0.0003972190146475331
sVcalling
p180
F0.00023235822814221454
sVstable
p181
F0.0010267962574372807
sVergostat
p182
F0.0
sVtagamet
p183
F0.0
sVlovastatin
p184
F0.0
sVantibiotics
p185
F0.0010267962574372807
sVstick
p186
F0.0006295772427897477
sVexcellent
p187
F0.0010267962574372807
sVlifestyle
p188
F0.0010267962574372807
sVcases
p189
F0.0010267962574372807
sVtekamlo
p190
F0.0
sVhigh
p191
F0.0
sVword
p192
F0.0001044822675036989
sVace
p193
F0.0010267962574372807
sVhour
p194
F0.0003972190146475331
sVheard
p195
F0.00023235822814221454
sVpursue
p196
F0.0
sVarelan
p197
F0.0
sVwork
p198
F0.0
sVsucks
p199
F0.0006295772427897477
sVery
p200
F0.0
sVaripiprazole
p201
F0.0
sVknocked
p202
F0.0003972190146475331
sVinhibitor
p203
F0.0
sVspontaneous
p204
F0.0
sVcathinones
p205
F0.0
sVheart
p206
F0.0019860950732376657
sVcrazy
p207
F0.0006295772427897477
sVaceon
p208
F0.0
sVtab
p209
F0.0006295772427897477
sVchlorinated
p210
F0.0
sVgive
p211
F0.0001044822675036989
sVcimetidine
p212
F0.0
sVrifamate
p213
F0.0
sVdosing
p214
F0.0
sVpushed
p215
F0.0003972190146475331
sVquinapril
p216
F0.0
sVsomething
p217
F0.0010448226750369891
sVwant
p218
F0.0
sVsense
p219
F0.0001044822675036989
sVatorvastatin
p220
F0.0
sVcounseling
p221
F0.0
sV10mg
p222
F0.0
sVlexapro
p223
F0.0
sVarthrotec
p224
F0.0
sVneeds
p225
F0.0
sVend
p226
F0.0001044822675036989
sVsyndrome
p227
F0.0006295772427897477
sVdilantin
p228
F0.0
sVrather
p229
F0.00023235822814221454
sVperphenazine
p230
F0.0
sVwarfarin
p231
F0.0
sVdamage
p232
F0.0006295772427897477
sVchemical
p233
F0.0010267962574372807
sVlocated
p234
F0.0006295772427897477
sVdigoxin
p235
F0.0
sVpure
p236
F0.00023235822814221454
sVelephant
p237
F0.0010267962574372807
sVanswer
p238
F0.00023235822814221454
sVsemax
p239
F0.0
sVokay
p240
F0.0012591544855794954
sVtried
p241
F0.003574971131827798
sVcocktail
p242
F0.0010267962574372807
sVmess
p243
F0.0006295772427897477
sVsunny
p244
F0.0006295772427897477
sVtribenzor
p245
F0.0
sVstakes
p246
F0.0010267962574372807
sVfluid
p247
F0.0010267962574372807
sVless
p248
F0.00031344680251109674
sVbrintellix
p249
F0.0
sVproduce
p250
F0.0006295772427897477
sVblood
p251
F0.0011916570439425994
sVnumb
p252
F0.0
sVmessaging
p253
F0.0
sVfits
p254
F0.0010267962574372807
sVdevelop
p255
F0.0006295772427897477
sVspelling
p256
F0.0006295772427897477
sVrasagiline
p257
F0.0
sVeighth
p258
F0.0010267962574372807
sVmao
p259
F0.0
sVmellaril
p260
F0.0
sVremember
p261
F0.0002089645350073978
sVslightly
p262
F0.00023235822814221454
sVcounter
p263
F0.0018887317283692432
sVlines
p264
F0.0003972190146475331
sVsupervision
p265
F0.0
sVdiscontinued
p266
F0.0
sVequally
p267
F0.0
sVroad
p268
F0.0006295772427897477
sVmethadone
p269
F0.0
sVhealthcare
p270
F0.0
sVworst
p271
F0.0006295772427897477
sVcoumadin
p272
F0.0
sVduloxetine
p273
F0.0
sVretrieval
p274
F0.0
sVserotonergic
p275
F0.0
sVletrozole
p276
F0.0
sVhelp
p277
F0.0008358581400295912
sVcheese
p278
F0.0018887317283692432
sVsertraline
p279
F0.0
sVsoon
p280
F0.0001044822675036989
sVdelavirdine
p281
F0.0
sVtrade
p282
F0.0007944380292950662
sVbrain
p283
F0.0011916570439425994
sVemsam
p284
F0.0
sVreached
p285
F0.0003972190146475331
sVincluding
p286
F0.0003972190146475331
sVcold
p287
F0.0007944380292950662
sVsuffer
p288
F0.0006295772427897477
sVbirds
p289
F0.0006295772427897477
sVlisinopril
p290
F0.0
sVdiskets
p291
F0.0
sVdobutrex
p292
F0.0
sVpolice
p293
F0.0006295772427897477
sVexclusion
p294
F0.0
sVfit
p295
F0.00023235822814221454
sVsomewhere
p296
F0.00023235822814221454
sVlo
p297
F0.0
sVpcp
p298
F0.0
sVcompulsions
p299
F0.0
sVmidazolam
p300
F0.0
sVactually
p301
F0.0001044822675036989
sVbetter
p302
F0.0005224113375184946
sVpermanent
p303
F0.0003972190146475331
sVsymptoms
p304
F0.0
sVamitriptyline
p305
F0.0
sVmight
p306
F0.0002089645350073978
sVeasier
p307
F0.0003972190146475331
sVtheo
p308
F0.0
sVeventually
p309
F0.0010267962574372807
sVtonic
p310
F0.0
sVgood
p311
F0.0
sVmotivated
p312
F0.0010267962574372807
sVazilect
p313
F0.0
sVmellowmarsh
p314
F0.0
sV3
p315
F0.0013941493688532872
sVdocs
p316
F0.0010267962574372807
sVsafe
p317
F0.0007944380292950662
sVinsomnia
p318
F0.0
sVatomoxetine
p319
F0.0
sVcafergot
p320
F0.0
sVtoxic
p321
F0.0
sVlamisil
p322
F0.0
sVeffects
p323
F0.0012591544855794954
sVsonata
p324
F0.0
sVhalf
p325
F0.00031344680251109674
sVfront
p326
F0.00023235822814221454
sVcombo
p327
F0.0010267962574372807
sVday
p328
F0.0
sVbigger
p329
F0.0003972190146475331
sVmonopril
p330
F0.0
sVgrowing
p331
F0.0006295772427897477
sVpersonally
p332
F0.00023235822814221454
sVelavil
p333
F0.0
sVname
p334
F0.0002089645350073978
sVsidenote
p335
F0.0
sVdidn
p336
F0.0005224113375184946
sVdobutamine
p337
F0.0
sV400mg
p338
F0.0
sVsomeone
p339
F0.0
sVstopped
p340
F0.0003972190146475331
sVlamictal
p341
F0.0
sVh
p342
F0.0003972190146475331
sVfound
p343
F0.0002089645350073978
sVwent
p344
F0.00031344680251109674
sVside
p345
F0.0001044822675036989
sVmethysergide
p346
F0.0
sVluck
p347
F0.0003972190146475331
sVdaraprim
p348
F0.0
sVen
p349
F0.0018887317283692432
sV300mg
p350
F0.0
sVmavik
p351
F0.0
sVergotamine
p352
F0.0
sVcyclosporine
p353
F0.0
sVenergy
p354
F0.0010267962574372807
sVidea
p355
F0.0001044822675036989
sVrelated
p356
F0.0003972190146475331
sVliving
p357
F0.0001044822675036989
sVxr
p358
F0.0
sVextended
p359
F0.0010267962574372807
sVcloudy
p360
F0.0006295772427897477
sVtodd
p361
F0.0
sVaids
p362
F0.0
sVdoxazosin
p363
F0.0
sVpatch
p364
F0.0006295772427897477
sVsexual
p365
F0.0010267962574372807
sVtry
p366
F0.00031344680251109674
sVshown
p367
F0.0003972190146475331
sVmedications
p368
F0.0
sVvasotec
p369
F0.0
sValcohol
p370
F0.0006295772427897477
sVfactors
p371
F0.0010267962574372807
sVviracept
p372
F0.0
sVsince
p373
F0.0004179290700147956
sVresearch
p374
F0.0020535925148745613
sVincrease
p375
F0.0006295772427897477
sVmay
p376
F0.0005224113375184946
sVacting
p377
F0.0006295772427897477
sVrescriptor
p378
F0.0
sVrequip
p379
F0.0
sV7
p380
F0.00023235822814221454
sVmedicine
p381
F0.009241166316935527
sVgot
p382
F0.0002089645350073978
sVcorrect
p383
F0.0006295772427897477
sVred
p384
F0.0001044822675036989
sVshows
p385
F0.0001044822675036989
sV1987
p386
F0.0
sVtimeline
p387
F0.0
sVsparked
p388
F0.0
sVfriends
p389
F0.00023235822814221454
sVamitriptylline
p390
F0.0
sVfree
p391
F0.00023235822814221454
sVlike
p392
F0.0
sVdigitalis
p393
F0.0
sVreason
p394
F0.0004647164562844291
sVnecessarily
p395
F0.0006295772427897477
sVcomplicated
p396
F0.0010267962574372807
sVstruggle
p397
F0.0006295772427897477
sVask
p398
F0.0001044822675036989
sVquits
p399
F0.0010267962574372807
sVtheochron
p400
F0.0
sVbeginning
p401
F0.0002089645350073978
sVcare
p402
F0.0018887317283692432
sVprobio
p403
F0.0
sVdrowning
p404
F0.0
sVcured
p405
F0.0010267962574372807
sVcouldn
p406
F0.0004647164562844291
sVg
p407
F0.0015888760585901324
sVaralen
p408
F0.0
sVcould
p409
F0.0
sVdays
p410
F0.0004647164562844291
sVkeep
p411
F0.0001044822675036989
sVthing
p412
F0.0002089645350073978
sVsteroidal
p413
F0.0
sVplace
p414
F0.0001044822675036989
sVisn
p415
F0.0002089645350073978
sVrifadin
p416
F0.0
sVamazingly
p417
F0.0010267962574372807
sV130bpm
p418
F0.0
sVthink
p419
F0.0002089645350073978
sVbupropion
p420
F0.0
sVstill
p421
F0.0
sVmajor
p422
F0.00023235822814221454
sVappeals
p423
F0.0
sVdont
p424
F0.0006295772427897477
sVcelexa
p425
F0.0
sVsteroids
p426
F0.0010267962574372807
sVfeel
p427
F0.0007313758725258923
sVnuvigil
p428
F0.0
sVtwitches
p429
F0.0
sVgetting
p430
F0.0002089645350073978
sVclear
p431
F0.0002089645350073978
sVutilized
p432
F0.0
sVsandimmune
p433
F0.0
sVdone
p434
F0.0002089645350073978
sVanother
p435
F0.00031344680251109674
sVwasn
p436
F0.0004179290700147956
sVimplicated
p437
F0.0
sVsays
p438
F0.0002089645350073978
sVwouldn
p439
F0.00023235822814221454
sVpropranolol
p440
F0.0
sVsize
p441
F0.00023235822814221454
sVseizures
p442
F0.0010267962574372807
sVcity
p443
F0.0003972190146475331
sVrythmol
p444
F0.0
sVhalcion
p445
F0.0
sVcataflam
p446
F0.0
sVinteract
p447
F0.006160777544623685
sVsystem
p448
F0.0004647164562844291
sVleast
p449
F0.0
sVeuphoria
p450
F0.0
sVclomipramine
p451
F0.0
sVneeded
p452
F0.0007944380292950662
sV2
p453
F0.00031344680251109674
sVlisted
p454
F0.0006295772427897477
sVnoradrenergics
p455
F0.0
sVdeep
p456
F0.00023235822814221454
sVmessing
p457
F0.0010267962574372807
sVstore
p458
F0.0006295772427897477
sVheadache
p459
F0.0020535925148745613
sVwigraine
p460
F0.0
sVisuprel
p461
F0.0
sVlot
p462
F0.0
sVceretropic
p463
F0.0
sVreleaser
p464
F0.0
sVzomig
p465
F0.0
sVanafranil
p466
F0.0
sVritonavir
p467
F0.0
sVcontribute
p468
F0.0010267962574372807
sVtook
p469
F0.0004179290700147956
sVimmediate
p470
F0.0006295772427897477
sVchloroamphetamines
p471
F0.0
sVserotonin
p472
F0.0
sVhydroxylation
p473
F0.0
sVnifedical
p474
F0.0
sVsomewhat
p475
F0.0010267962574372807
sVdoctors
p476
F0.0010267962574372807
sVx2
p477
F0.0
sVinstitution
p478
F0.0010267962574372807
sVsymptom
p479
F0.0
sV600mg
p480
F0.0
sVprofessionals
p481
F0.0
sVgrocery
p482
F0.0010267962574372807
sVgrew
p483
F0.0010267962574372807
sV15
p484
F0.0001044822675036989
sVkindly
p485
F0.0010267962574372807
sVhadn
p486
F0.0003972190146475331
sVneoral
p487
F0.0
sV5mg
p488
F0.0
sVprocan
p489
F0.0
sVguilt
p490
F0.0010267962574372807
sVsupposed
p491
F0.0003972190146475331
sVexforge
p492
F0.0
sV800mg
p493
F0.0
sVazithromycin
p494
F0.0
sVplendil
p495
F0.0
sVisoniazid
p496
F0.0
sVtofranil
p497
F0.0
sVavoided
p498
F0.0010267962574372807
sVcymbalta
p499
F0.0
sVsmiley
p500
F0.0
sVsad
p501
F0.0003972190146475331
sVtalking
p502
F0.0010267962574372807
sVrat
p503
F0.0006295772427897477
sVmonoamine
p504
F0.0
sVadhd
p505
F0.0
sVanger
p506
F0.0006295772427897477
sVrelatively
p507
F0.0010267962574372807
sVdiazepam
p508
F0.0
sVsumatriptan
p509
F0.0
sVcoverage
p510
F0.0
sVpara
p511
F0.0
sV1964
p512
F0.0
sVadvil
p513
F0.0
sVself
p514
F0.0001044822675036989
sV1960
p515
F0.0
sV1961
p516
F0.0
sVlevofloxacin
p517
F0.0
sVnote
p518
F0.00023235822814221454
sVmix
p519
F0.0003972190146475331
sVpotential
p520
F0.0010267962574372807
sVnaproxen
p521
F0.0
sVfinding
p522
F0.00023235822814221454
sVflags
p523
F0.0010267962574372807
sVeffexor
p524
F0.0
sVdraposil
p525
F0.0
sVerythrocin
p526
F0.0
sVplay
p527
F0.0003972190146475331
sVaout
p528
F0.0
sVpain
p529
F0.0023833140878851988
sVnsaids
p530
F0.0
sVcombat
p531
F0.0
sVopposite
p532
F0.0006295772427897477
sVmethylphenidate
p533
F0.0
sVsotalol
p534
F0.0
sVnasal
p535
F0.0
sVprocardia
p536
F0.0
sVharmful
p537
F0.0
sVnorepinephrine
p538
F0.0
sVdigestive
p539
F0.0010267962574372807
sVmouth
p540
F0.0003972190146475331
sVsfk
p541
F0.0
sVletter
p542
F0.0003972190146475331
sVknowledgable
p543
F0.0
sVnothing
p544
F0.0001044822675036989
sVflector
p545
F0.0
sVtherapeutic
p546
F0.0
sVextremely
p547
F0.0006295772427897477
sVclass
p548
F0.0004647164562844291
sVtreat
p549
F0.0011916570439425994
sVzelapar
p550
F0.0
sVpropafenone
p551
F0.0
sVpotency
p552
F0.0
sVtreats
p553
F0.0010267962574372807
sVmedical
p554
F0.0003972190146475331
sVsometimes
p555
F0.00023235822814221454
sVtacrolimus
p556
F0.0
sVdefinitely
p557
F0.0007944380292950662
sVcelebrex
p558
F0.0
sVcambia
p559
F0.0
sVcame
p560
F0.0007944380292950662
sVsaying
p561
F0.0006970746844266436
sVparticularly
p562
F0.0012591544855794954
sVshow
p563
F0.0001044822675036989
sVscattered
p564
F0.0
sVsaquinavir
p565
F0.0
sVtranquilizer
p566
F0.0
sVelevate
p567
F0.0
sVattempts
p568
F0.0003972190146475331
sVrifater
p569
F0.0
sVdopey
p570
F0.0
sVstoned
p571
F0.0010267962574372807
sVneurotoxic
p572
F0.0
sVideas
p573
F0.0
sVfind
p574
F0.0
sVdecade
p575
F0.0006295772427897477
sVshoes
p576
F0.0006295772427897477
sVslow
p577
F0.00023235822814221454
sVbased
p578
F0.0003972190146475331
sVsimvastatin
p579
F0.0
sValprazolam
p580
F0.0
sVnervous
p581
F0.0006295772427897477
sVdick
p582
F0.0010267962574372807
sVocd
p583
F0.0
sVhaven
p584
F0.00023235822814221454
sVfailed
p585
F0.0012591544855794954
sVgoing
p586
F0.0
sVpretty
p587
F0.0011916570439425994
sVdeveloped
p588
F0.0
sV8
p589
F0.0002089645350073978
sVlariam
p590
F0.0
sVhope
p591
F0.0004179290700147956
sVfirst
p592
F0.0006268936050221935
sVhit
p593
F0.0009294329125688582
sVhiv
p594
F0.0
sVmeans
p595
F0.0006295772427897477
sVdependent
p596
F0.0010267962574372807
sVergot
p597
F0.0
sVbenazepril
p598
F0.0
sVwonky
p599
F0.0
sVpsychiatric
p600
F0.0
sVanxiety
p601
F0.0020535925148745613
sVlongest
p602
F0.0010267962574372807
sVtuberculosis
p603
F0.0
sVreply
p604
F0.0006295772427897477
sVbromocriptine
p605
F0.0
sVaveraged
p606
F0.0
sVdr
p607
F0.0010267962574372807
sVod
p608
F0.0
sVtrileptal
p609
F0.0
sVmetabolite
p610
F0.0
sVracing
p611
F0.0003972190146475331
sVmedicines
p612
F0.0
sVclonic
p613
F0.0
sVcardene
p614
F0.0
sVtwice
p615
F0.0007944380292950662
sVbad
p616
F0.00031344680251109674
sVmyaysd
p617
F0.0
sVerythromycin
p618
F0.0
sVfuroxone
p619
F0.0
sVactivity
p620
F0.0010267962574372807
sVrelease
p621
F0.0007944380292950662
sVpediazole
p622
F0.0
sVpioglitazone
p623
F0.0
sVexperiences
p624
F0.0006295772427897477
sVkeppra
p625
F0.0
sVview
p626
F0.00023235822814221454
sVrespond
p627
F0.0006295772427897477
sVbtw
p628
F0.0
sVvictim
p629
F0.0010267962574372807
sVfair
p630
F0.0001044822675036989
sVtesting
p631
F0.0010267962574372807
sVpotent
p632
F0.0
sVsee
p633
F0.0002089645350073978
sVercaf
p634
F0.0
sVterms
p635
F0.0003972190146475331
sVincludes
p636
F0.0015888760585901324
sVcalan
p637
F0.0
sVbest
p638
F0.0001044822675036989
sVability
p639
F0.0006295772427897477
sVmrs
p640
F0.0
sVsaid
p641
F0.0002089645350073978
sVavelox
p642
F0.0
sVlots
p643
F0.0007944380292950662
sVpattern
p644
F0.0
sVaway
p645
F0.0
sVcurrently
p646
F0.0003972190146475331
sVwikipedia
p647
F0.0
sVimipramine
p648
F0.0
sVlabel
p649
F0.0003972190146475331
sVinvega
p650
F0.0
sVenough
p651
F0.0
sVvarious
p652
F0.0003972190146475331
sVhopefully
p653
F0.0
sVherbal
p654
F0.0030803887723118424
sVbunch
p655
F0.0003972190146475331
sVtolerance
p656
F0.0020535925148745613
sVgives
p657
F0.00023235822814221454
sVcollege
p658
F0.0010267962574372807
sVrecently
p659
F0.00023235822814221454
sVticlopidine
p660
F0.0
sVvitamin
p661
F0.0
sVagencies
p662
F0.0
sVspray
p663
F0.0020535925148745613
sVsansert
p664
F0.0
sVclarithromycin
p665
F0.0
sVneurotoxicity
p666
F0.0
sVoxidase
p667
F0.0
sVabruptly
p668
F0.0010267962574372807
sVsuggested
p669
F0.0010267962574372807
sVvanatrip
p670
F0.0
sVmyoclonic
p671
F0.0
sVfeeling
p672
F0.00023235822814221454
sVprescription
p673
F0.0
sVmethadose
p674
F0.0
sVcyclophosphamide
p675
F0.0
sVtriggers
p676
F0.0010267962574372807
sVmany
p677
F0.0
sVtaking
p678
F0.0005224113375184946
sVdolophine
p679
F0.0
sVjob
p680
F0.0007944380292950662
sVcardura
p681
F0.0
sVetc
p682
F0.0002089645350073978
sVcrackpots
p683
F0.0
sVondansetron
p684
F0.0
sVmean
p685
F0.00023235822814221454
sVll
p686
F0.00031344680251109674
sVcomes
p687
F0.0003972190146475331
sVinflammatory
p688
F0.0
sVpoint
p689
F0.0002089645350073978
sVsimple
p690
F0.0001044822675036989
sVca
p691
F0.007187573802060965
sVcartia
p692
F0.0
sVseizure
p693
F0.0
sVabilify
p694
F0.0
sV100mcg
p695
F0.0
sVnicardipine
p696
F0.0
sVquinine
p697
F0.0
sVbothered
p698
F0.0
sVcontemporaneous
p699
F0.0
sVtheophylline
p700
F0.0
sVmoexipril
p701
F0.0
sVarsenic
p702
F0.0
sVsafer
p703
F0.0
sVheadaches
p704
F0.0
sVmesylate
p705
F0.0
sVps
p706
F0.0010267962574372807
sVdealt
p707
F0.0
sVsolareze
p708
F0.0
sVtrandolapril
p709
F0.0
sVcome
p710
F0.0002089645350073978
sVthree
p711
F0.0001044822675036989
sVdropping
p712
F0.0006295772427897477
sValtace
p713
F0.0
sVserpasil
p714
F0.0
sVsimultaneous
p715
F0.0
sVparents
p716
F0.0020535925148745613
sVdur
p717
F0.0
sVnorvasc
p718
F0.0
sVrimactane
p719
F0.0
sVkilled
p720
F0.0003972190146475331
sVpm
p721
F0.0
sVwebsite
p722
F0.0006295772427897477
sVphenytoin
p723
F0.0
sVlife
p724
F0.0002089645350073978
sVmoxifloxacin
p725
F0.0
sVfurazolidone
p726
F0.0
sVhospitalization
p727
F0.0
sVpimozide
p728
F0.0
sVdroperidol
p729
F0.0
sVgreat
p730
F0.0
sVanorgasmia
p731
F0.0
sVcarbamazepine
p732
F0.0
sVamlodipine
p733
F0.0
sVqualaquin
p734
F0.0
sVselank
p735
F0.0
sVibutilide
p736
F0.0
sVchild
p737
F0.00023235822814221454
sVoverdose
p738
F0.0020535925148745613
sVworked
p739
F0.0009294329125688582
sVirrelevant
p740
F0.0010267962574372807
sVprovider
p741
F0.0
sVcase
p742
F0.0009294329125688582
sVpacerone
p743
F0.0
sVserax
p744
F0.0
sVtricyclics
p745
F0.0
sVleave
p746
F0.00023235822814221454
sVstraight
p747
F0.0002089645350073978
sVtopamax
p748
F0.0
sVharder
p749
F0.0006295772427897477
sVsay
p750
F0.0001044822675036989
sVforgetting
p751
F0.0010267962574372807
sVwithdrawal
p752
F0.0
sVmelted
p753
F0.0
sVsuppose
p754
F0.0006295772427897477
sVropinirole
p755
F0.0
sVstopping
p756
F0.0012591544855794954
sVminipress
p757
F0.0
sVamisulpride
p758
F0.0
sVdue
p759
F0.0006295772427897477
sVseven
p760
F0.0006295772427897477
sVlarger
p761
F0.0003972190146475331
sVhoping
p762
F0.0010267962574372807
sVcarbatrol
p763
F0.0
sVaveraging
p764
F0.0
sVir
p765
F0.0
sVlotrel
p766
F0.0
sVnon
p767
F0.0001044822675036989
sVweighed
p768
F0.0
sVneed
p769
F0.00031344680251109674
sVevening
p770
F0.0006295772427897477
sVreports
p771
F0.0006295772427897477
sVlate
p772
F0.00023235822814221454
sVjanimine
p773
F0.0
sVcaptopril
p774
F0.0
sVeveryday
p775
F0.0010267962574372807
sVworry
p776
F0.0004647164562844291
sVincreased
p777
F0.0010267962574372807
sVdifferent
p778
F0.00023235822814221454
sVwilliams
p779
F0.0
sVbottles
p780
F0.0003972190146475331
sVcombination
p781
F0.0003972190146475331
sVtrilafon
p782
F0.0
sVmigraine
p783
F0.0
sVmake
p784
F0.0002089645350073978
sVnardil
p785
F0.0
sVrules
p786
F0.0006295772427897477
sVcomplex
p787
F0.0003972190146475331
sVunfortunate
p788
F0.0003972190146475331
sVproducts
p789
F0.0018887317283692432
sVlithium
p790
F0.0
sVzofran
p791
F0.0
sVhigher
p792
F0.0006970746844266436
sVimprove
p793
F0.0006295772427897477
sVdolasetron
p794
F0.0
sVdisopyramide
p795
F0.0
sVkiller
p796
F0.0003972190146475331
sVsickness
p797
F0.0010267962574372807
sVverapamil
p798
F0.0
sVupon
p799
F0.00023235822814221454
sVeffect
p800
F0.00031344680251109674
sVanzemet
p801
F0.0
sVamturnide
p802
F0.0
sVrunning
p803
F0.0
sVamiodarone
p804
F0.0
sVmoving
p805
F0.00023235822814221454
sVpharmd
p806
F0.0
sVdepressants
p807
F0.0
sVtotally
p808
F0.00023235822814221454
sVprescribed
p809
F0.0020535925148745613
sVlower
p810
F0.00023235822814221454
sVdepressant
p811
F0.0
sVtreximet
p812
F0.0
sVzolmitriptan
p813
F0.0
sVwell
p814
F0.0
sVthorazine
p815
F0.0
sVthought
p816
F0.00023235822814221454
sVsevere
p817
F0.0006295772427897477
sVwithout
p818
F0.0
sVzestril
p819
F0.0
sVrelief
p820
F0.0
sVprescribes
p821
F0.0
sVconsistency
p822
F0.0
sVmuscle
p823
F0.0010267962574372807
sVcelecoxib
p824
F0.0
sVticlid
p825
F0.0
sVversed
p826
F0.0
sVable
p827
F0.0006970746844266436
sVcheddar
p828
F0.0
sVbrand_names
p829
F0.0
sVquestions
p830
F0.0007944380292950662
sVyears
p831
F0.0011617911407110727
sVyes
p832
F0.0001044822675036989
sVtapazole
p833
F0.0
sVyet
p834
F0.0001044822675036989
sVhappiness
p835
F0.0010267962574372807
sVtca
p836
F0.0
sVdeath
p837
F0.0003972190146475331
sVcl
p838
F0.0
sVsky
p839
F0.0006295772427897477
sVexcept
p840
F0.0004647164562844291
sVfosinopril
p841
F0.0
sVreasons
p842
F0.0006295772427897477
sVadd
p843
F0.0003972190146475331
sVaffinity
p844
F0.0
sVfelodipine
p845
F0.0
sVcrying
p846
F0.0006295772427897477
sVwet
p847
F0.0006295772427897477
sVsnap
p848
F0.0003972190146475331
sVkick
p849
F0.0003972190146475331
sVgave
p850
F0.0012591544855794954
sVreal
p851
F0.0
sVtests
p852
F0.0020535925148745613
sVquinidine
p853
F0.0
sVaround
p854
F0.0002089645350073978
sVfate
p855
F0.0010267962574372807
sVread
p856
F0.00023235822814221454
sVbig
p857
F0.0001044822675036989
sVambien
p858
F0.0
sVpossible
p859
F0.0004647164562844291
sVindocin
p860
F0.0
sVpossibly
p861
F0.00023235822814221454
sVmods
p862
F0.0
sVknow
p863
F0.00031344680251109674
sVbackground
p864
F0.0001044822675036989
sVusing
p865
F0.0004647164562844291
sVbit
p866
F0.00031344680251109674
sVbehold
p867
F0.0010267962574372807
sVd
p868
F0.0
sVtegretol
p869
F0.0
sVmaybe
p870
F0.0
sVfibromyalgia
p871
F0.0
sVbpd
p872
F0.0
sVstranger
p873
F0.0010267962574372807
sVpounds
p874
F0.0006295772427897477
sVlipitor
p875
F0.0
sVhytrin
p876
F0.0
sV50
p877
F0.00023235822814221454
sVsanity
p878
F0.0
sVzoloft
p879
F0.0
sVmevacor
p880
F0.0
sVeither
p881
F0.0001044822675036989
sVzombies
p882
F0.0
sVnight
p883
F0.0001044822675036989
sVpopular
p884
F0.0010267962574372807
sVcardizem
p885
F0.0
sVnice
p886
F0.0
sVdisorder
p887
F0.0030803887723118424
sVreduced
p888
F0.0010267962574372807
sVbetapace
p889
F0.0
sVcaduet
p890
F0.0
sVwww
p891
F0.0006295772427897477
sVright
p892
F0.0001044822675036989
sVold
p893
F0.0
sVjibes
p894
F0.0
sVmetabolic
p895
F0.0
sVfucking
p896
F0.0010267962574372807
sVpals
p897
F0.0
sVback
p898
F0.0006268936050221935
sVthumb
p899
F0.0010267962574372807
sVfluoroamphetamines
p900
F0.0
sVparnate
p901
F0.0
sVpaxil
p902
F0.0
sVsure
p903
F0.00023235822814221454
sVdiclofenac
p904
F0.0
sVmarplan
p905
F0.0
sVibuprofen
p906
F0.0
sVcurious
p907
F0.0004647164562844291
sVthioridazine
p908
F0.0
sVcathinone
p909
F0.0
sVhappens
p910
F0.00023235822814221454
sVpronounced
p911
F0.0003972190146475331
sVcliff
p912
F0.0006295772427897477
sVmood
p913
F0.002518308971158991
sVnorvir
p914
F0.0
sVnormal
p915
F0.0003972190146475331
sVthank
p916
F0.0003972190146475331
sVkilling
p917
F0.0010267962574372807
sVnorpramine
p918
F0.0
sV35
p919
F0.0006295772427897477
sVcampfire
p920
F0.0
sVassuming
p921
F0.0
sVlevaquin
p922
F0.0
sVeldepryl
p923
F0.0
sVisocarboxazid
p924
F0.0
sVmultaq
p925
F0.0
sVmedihaler
p926
F0.0
sVturkey
p927
F0.0010267962574372807
sVknew
p928
F0.0011916570439425994
sVtomorrow
p929
F0.0010267962574372807
sVorap
p930
F0.0
sVbc
p931
F0.0
sVdiltiazem
p932
F0.0
sVproblems
p933
F0.00023235822814221454
sVprologue
p934
F0.0
sVzombie
p935
F0.0020535925148745613
sVpressure
p936
F0.0020535925148745613
sVtcas
p937
F0.0
sVrelationship
p938
F0.0003972190146475331
sVlasts
p939
F0.0006295772427897477
sVgraduated
p940
F0.0010267962574372807
sVmefloquine
p941
F0.0
sVentirely
p942
F0.00023235822814221454
sVvalium
p943
F0.0
sVprinivil
p944
F0.0
sVstone
p945
F0.0003972190146475331
sVworks
p946
F0.0003972190146475331
sVactual
p947
F0.0010267962574372807
sVworking
p948
F0.0
sVanything
p949
F0.0002089645350073978
sVface
p950
F0.00023235822814221454
sVcompared
p951
F0.00023235822814221454
sVmonths
p952
F0.0015888760585901324
sVlanoxicaps
p953
F0.0
sVpyrimethamine
p954
F0.0
sVcosts
p955
F0.0010267962574372807
sVaddition
p956
F0.0020535925148745613
sVrange
p957
F0.00023235822814221454
sVbenzos
p958
F0.0
sVplus
p959
F0.0007944380292950662
sVafternoon
p960
F0.0010267962574372807
sVcharm
p961
F0.0010267962574372807
sVwonders
p962
F0.0
sVwanna
p963
F0.0012591544855794954
sVblock
p964
F0.0006295772427897477
sVnorpace
p965
F0.0
sVdangerous
p966
F0.0003972190146475331
sVseeing
p967
F0.0003972190146475331
sVdronedarone
p968
F0.0
sVthinner
p969
F0.0006295772427897477
sVtheolair
p970
F0.0
sVsignificant
p971
F0.0010267962574372807
sVpresence
p972
F0.0004647164562844291
sVnortriptyline
p973
F0.0
sVwithin
p974
F0.00023235822814221454
sVyear
p975
F0.0002089645350073978
sVklonopin
p976
F0.0
sVgeib
p977
F0.0
sVstop
p978
F0.0001044822675036989
sVinvirase
p979
F0.0
sVreceptor
p980
F0.0
sVcordarone
p981
F0.0
sVshoots
p982
F0.0010267962574372807
sVdihydroxytryptamine
p983
F0.0
sVcomorbid
p984
F0.0
sVprozac
p985
F0.0
sVprazosin
p986
F0.0
sVjoking
p987
F0.0
sVcorvert
p988
F0.0
sVaren
p989
F0.0001044822675036989
sVmotrin
p990
F0.0
sVnebupent
p991
F0.0
sVprescriber
p992
F0.0
sVlong
p993
F0.0
sVstart
p994
F0.0009294329125688582
sVeryped
p995
F0.0
sV300mcg
p996
F0.0
sVlow
p997
F0.0006970746844266436
sVway
p998
F0.0004179290700147956
sVreserpine
p999
F0.0
sVreaching
p1000
F0.0010267962574372807
sVpermitil
p1001
F0.0
sVlanoxin
p1002
F0.0
sVhappy
p1003
F0.0004647164562844291
sVpamelor
p1004
F0.0
sVhead
p1005
F0.0001044822675036989
sVdrownings
p1006
F0.0
sVverelan
p1007
F0.0
sVwiki
p1008
F0.0
sVfluphenazine
p1009
F0.0
sVisoproterenol
p1010
F0.0
sVbrand
p1011
F0.0003972190146475331
sVrecommend
p1012
F0.004107185029749123
sVproperly
p1013
F0.00023235822814221454
sVlink
p1014
F0.0012591544855794954
sVtrying
p1015
F0.0004647164562844291
sVirreversible
p1016
F0.0
sVeat
p1017
F0.00023235822814221454
sVespecially
p1018
F0.0006970746844266436
sVnorfluoxetine
p1019
F0.0
sVquin
p1020
F0.0
sVimitrex
p1021
F0.0
sVenalapril
p1022
F0.0
sVchloride
p1023
F0.0
sVmorning
p1024
F0.0006295772427897477
sVannoying
p1025
F0.0003972190146475331
sVmaximum
p1026
F0.0010267962574372807
sVstories
p1027
F0.0006295772427897477
sVimpulsivity
p1028
F0.0
sVadderall
p1029
F0.0
sVproblem
p1030
F0.0004647164562844291
sVtikosyn
p1031
F0.0
sVcalled
p1032
F0.00023235822814221454
sVhaldol
p1033
F0.0
sVlatuda
p1034
F0.0
sVnifedipine
p1035
F0.0
sVparoxetine
p1036
F0.0
sVhaloperidol
p1037
F0.0
sVtricyclic
p1038
F0.0
sVtrisenox
p1039
F0.0
sVhorrific
p1040
F0.0
sVjantoven
p1041
F0.0
sVcertain
p1042
F0.0001044822675036989
sVdoses
p1043
F0.0
sVdopaminergics
p1044
F0.0
sVdoesn
p1045
F0.0009403404075332901
sVgeneral
p1046
F0.0
sVpronestyl
p1047
F0.0
sVchat
p1048
F0.0003972190146475331
sVpentam
p1049
F0.0
sVdepakote
p1050
F0.0
sVdofetilide
p1051
F0.0
sVcovera
p1052
F0.0
sVtrip
p1053
F0.0006295772427897477
sVscared
p1054
F0.0006295772427897477
sVchlorpromazine
p1055
F0.0
sVincorrect
p1056
F0.0010267962574372807
sV200mg
p1057
F0.0
sVfazaclo
p1058
F0.0
sVpennsaid
p1059
F0.0
sVamounts
p1060
F0.0006295772427897477
sVna
p1061
F0.0
sVwater
p1062
F0.0007944380292950662
sVparlodel
p1063
F0.0
sVactos
p1064
F0.0
sVfield
p1065
F0.0010267962574372807
sV5
p1066
F0.0001044822675036989
sVdose
p1067
F0.008214370059498245
sVziprasidone
p1068
F0.0
sV12
p1069
F0.0002089645350073978
sVsedation
p1070
F0.0
sVlimbitrol
p1071
F0.0
sVdiagnosis
p1072
F0.0
sVinapsine
p1073
F0.0
sVfelt
p1074
F0.0023833140878851988
sVmaois
p1075
F0.0
sVtrioxide
p1076
F0.0
sVperindopril
p1077
F0.0
sVtwynsta
p1078
F0.0
sVchloro
p1079
F0.0
sVxanax
p1080
F0.0
sVcommiting
p1081
F0.0
sVmediates
p1082
F0.0
sVamphetamine
p1083
F0.0
sVstructure
p1084
F0.0020535925148745613
sVbegan
p1085
F0.0006295772427897477
sVago
p1086
F0.002518308971158991
sVclozaril
p1087
F0.0
sVindependently
p1088
F0.0
sVe
p1089
F0.0004179290700147956
sVage
p1090
F0.0004647164562844291
sVsedative
p1091
F0.0
sVrule
p1092
F0.0006295772427897477
sVindomethacin
p1093
F0.0
sVtriazolam
p1094
F0.0
sVlotensin
p1095
F0.0
sVtime
p1096
F0.0
sV2009
p1097
F0.0
sVstarting
p1098
F0.0003972190146475331
sValeve
p1099
F0.0
sVbasically
p1100
F0.0010267962574372807
s.