(dp0
Vdownvoting
p1
F0.0
sVsuicidal
p2
F0.0004269482452489408
sVtelmisartan
p3
F0.0
sVpowders
p4
F0.0
sVextends
p5
F8.726070601017552e-05
sVfour
p6
F7.240729022794067e-05
sVandre
p7
F0.0
sVdisinhibits
p8
F0.0
sVsleep
p9
F0.0006606645088736571
sVasian
p10
F0.0
sVappetite
p11
F0.00028463216349929385
sVflomax
p12
F0.0
sVhate
p13
F0.0004269482452489408
sVforget
p14
F5.5055375739471425e-05
sVpasa
p15
F0.0
sVincrease
p16
F0.002181517650254388
sVseleg
p17
F0.0
sVtremors
p18
F0.0
sVpresents
p19
F8.726070601017552e-05
sVwhatsoever
p20
F8.726070601017552e-05
sVstationery
p21
F0.0
sVsorry
p22
F6.441066054140817e-05
sVworth
p23
F0.0003853876301763
sVsinking
p24
F0.00014231608174964693
sVmodstrid
p25
F0.0
sVhormone
p26
F0.0
sVrisk
p27
F0.0004954983816552428
sVkristendom
p28
F0.0
sVbattles
p29
F0.00014231608174964693
sVhypertensive
p30
F0.0
sVactivation
p31
F0.00028463216349929385
sVinhibit
p32
F0.0
sVmanic
p33
F0.0007115804087482347
sVprobability
p34
F0.0
sVmania
p35
F0.0
sVtrileptal
p36
F0.0
sVupdates
p37
F0.00014231608174964693
sVaap
p38
F0.0
sVaffect
p39
F0.0005692643269985877
sVmultiple
p40
F0.00017452141202035104
sVbaicalin
p41
F0.0
sVtheanine
p42
F0.0
sVreceiving
p43
F0.00014231608174964693
sVscholar
p44
F8.726070601017552e-05
sVeliminates
p45
F0.00014231608174964693
sVskills
p46
F8.726070601017552e-05
sVobsessive
p47
F0.0
sVcompanies
p48
F0.0
sVrisky
p49
F0.00028463216349929385
sVconvenience
p50
F0.0
sVunrelated
p51
F0.00014231608174964693
sVswallowed
p52
F0.00028463216349929385
sVenhance
p53
F0.00011011075147894285
sVmonologue
p54
F0.0
sV295
p55
F0.0
sVups
p56
F0.00017452141202035104
sVnmdar
p57
F0.0
sVforce
p58
F5.5055375739471425e-05
sVawake
p59
F0.00014231608174964693
sV10g
p60
F0.0
sVpulse
p61
F0.0
sV10x
p62
F0.0
sVstreet
p63
F0.00028463216349929385
sVn
p64
F0.000217221870683822
sVmeditation
p65
F0.0
sVeven
p66
F0.00031859207700293894
sVbromantane
p67
F0.0
sVerrors
p68
F0.00014231608174964693
sVrelieving
p69
F0.0
sVweren
p70
F5.5055375739471425e-05
sVmalleable
p71
F0.0
sVkun
p72
F0.0
sVbipolar
p73
F0.0009962125722475287
sV8429371
p74
F0.0
sVdistant
p75
F0.00017452141202035104
sVnew
p76
F0.0
sVnet
p77
F8.726070601017552e-05
sVincreasing
p78
F0.0008538964904978816
sVever
p79
F0.00014481458045588133
sVconsisting
p80
F0.0
sVtold
p81
F0.00011011075147894285
sVinjections
p82
F0.0
sVmed
p83
F0.0014834320021729838
sVsimultaneously
p84
F0.00014231608174964693
sVevaluating
p85
F0.0
sVpresynaptic
p86
F0.0
sVmeo
p87
F0.0
sVmen
p88
F0.0002202215029578857
sVflere
p89
F0.0
sVlammintausta
p90
F0.0
sVneurotoxicity
p91
F0.0
sVprotection
p92
F0.00028463216349929385
sVchina
p93
F0.0
sVpursuit
p94
F0.00014231608174964693
sVuddannelsesforvaltning
p95
F0.0
sVactive
p96
F5.5055375739471425e-05
sVpath
p97
F3.220533027070408e-05
sV100
p98
F0.0005505537573947143
sV_really_
p99
F0.0
sVbuddy
p100
F0.00014231608174964693
sVdry
p101
F0.0003490428240407021
sVcyclical
p102
F0.0
sVstrewn
p103
F0.00014231608174964693
sVforum
p104
F0.00014231608174964693
sVtaper
p105
F0.0
sVphenelzine
p106
F0.0
sVitems
p107
F8.726070601017552e-05
sVstudy
p108
F0.0008726070601017551
sVusps
p109
F0.0
sVcompletely
p110
F0.00025764264216563266
sVreports
p111
F0.00026178211803052655
sVcredit
p112
F6.441066054140817e-05
sVcrap
p113
F8.726070601017552e-05
sVsmoke
p114
F0.00017452141202035104
sVtheres
p115
F0.0
sVcatalyzed
p116
F0.0
sVchanger
p117
F0.0
sVfell
p118
F5.5055375739471425e-05
sVclonidine
p119
F0.0
sVfantastic
p120
F8.726070601017552e-05
sVplays
p121
F5.5055375739471425e-05
sVstraw
p122
F0.00017452141202035104
sVschooling
p123
F0.0
sVreplace
p124
F0.00026178211803052655
sVpsychological
p125
F0.00028463216349929385
sVpharmateutical
p126
F0.0
sVsynergized
p127
F0.0
sVhindsight
p128
F0.0
sVhablar
p129
F0.0
sVidiosyncratic
p130
F0.0
sVcocaine
p131
F0.00014231608174964693
sVobliteration
p132
F0.0
sVtrazodone
p133
F0.0
sVderivatives
p134
F0.0
sVdna
p135
F0.0
sVtte
p136
F0.0
sVwould
p137
F0.0
sVsnri
p138
F0.0
sVhospital
p139
F0.00043630353005087757
sVuddannelse
p140
F0.0
sVnegative
p141
F0.0005235642360610531
sVtela
p142
F0.0
sVmediate
p143
F0.0
sVnoting
p144
F0.00014231608174964693
sVcall
p145
F5.792583218235253e-05
sVrecommend
p146
F0.00185010906274541
sVinner
p147
F0.00011011075147894285
sVfainting
p148
F0.0
sVcare
p149
F0.00026178211803052655
sVtype
p150
F0.00033033225443682856
sVtell
p151
F0.00025764264216563266
sVreevaluate
p152
F0.0
sVtolerated
p153
F0.0
sVpaperwork
p154
F0.0
sVnootropax
p155
F0.0
sVholy
p156
F5.5055375739471425e-05
sVwary
p157
F0.0
sVsuccessful
p158
F0.00011011075147894285
sVexpose
p159
F8.726070601017552e-05
sVdisk
p160
F0.00014231608174964693
sVhurt
p161
F0.00014231608174964693
sVphone
p162
F8.726070601017552e-05
sVreversible
p163
F0.0
sVloose
p164
F5.5055375739471425e-05
sVseparates
p165
F0.0
sV91
p166
F8.726070601017552e-05
sV90
p167
F0.00017452141202035104
sVexhorbitant
p168
F0.0
sVcircumstances
p169
F8.726070601017552e-05
sV1991
p170
F0.00014231608174964693
sVsimpelthen
p171
F0.0
sVintake
p172
F0.0
sVword
p173
F5.792583218235253e-05
sVroom
p174
F6.441066054140817e-05
sVpursue
p175
F0.0
sVml
p176
F0.0
sVnoots
p177
F0.0
sVwork
p178
F0.0
sVimproperly
p179
F0.00014231608174964693
sVmk
p180
F0.00014231608174964693
sVmj
p181
F0.0
sVoxide
p182
F0.0
sVtissue
p183
F0.00028463216349929385
sVfosterbarn
p184
F0.0
sVms
p185
F0.0008538964904978816
sVakin
p186
F0.0
sVroot
p187
F0.00026178211803052655
sVexample
p188
F0.0001610266513535204
sVaddictive
p189
F0.0
sVacetylcholine
p190
F0.0
sVlavede
p191
F0.0
sVgive
p192
F0.0001737774965470576
sVindia
p193
F0.0
sVdosing
p194
F0.0
sVfoods
p195
F0.00028463216349929385
sV50mg
p196
F0.0
sVcaution
p197
F0.0004269482452489408
sVwant
p198
F0.0
sVcounseling
p199
F0.0
sVhonest
p200
F5.5055375739471425e-05
sVlooser
p201
F0.0
sVlooses
p202
F0.00014231608174964693
sVpreferably
p203
F0.00014231608174964693
sVaging
p204
F0.00014231608174964693
sVend
p205
F8.68887482735288e-05
sVknows
p206
F5.5055375739471425e-05
sVelicited
p207
F0.0
sVprovide
p208
F0.00014231608174964693
sVtravel
p209
F3.220533027070408e-05
sVdamage
p210
F0.00026178211803052655
sVrevisit
p211
F0.00014231608174964693
sVcompassion
p212
F0.00014231608174964693
sVcholine
p213
F0.0
sVanswer
p214
F9.661599081211224e-05
sVstereochemistry
p215
F0.0
sVactuality
p216
F0.0
sVpreferable
p217
F0.0
sVcvwynk4
p218
F0.0
sVgamble
p219
F0.00014231608174964693
sVeyeballs
p220
F0.00014231608174964693
sVbadly
p221
F3.220533027070408e-05
sVearlier
p222
F6.441066054140817e-05
sVdrones
p223
F0.00014231608174964693
sVwrong
p224
F3.220533027070408e-05
sVcalidad
p225
F0.0
sVlay
p226
F8.726070601017552e-05
sVcuriosity
p227
F8.726070601017552e-05
sVmeaningful
p228
F8.726070601017552e-05
sVhoras
p229
F0.0
sVtypes
p230
F0.00011011075147894285
sVlas
p231
F0.0
sVpurchase
p232
F0.00026178211803052655
sVdanny
p233
F0.0
sVanymore
p234
F0.00033033225443682856
sVthird
p235
F1.4481458045588132e-05
sVpulsate
p236
F0.0
sVlost
p237
F0.0
sVhypnotic
p238
F0.0
sVthink
p239
F0.00047788811550440833
sVcigarettes
p240
F0.00028463216349929385
sVmaintain
p241
F0.00017452141202035104
sVupside
p242
F0.00017452141202035104
sVultimate
p243
F0.0
sVkeeps
p244
F0.00011011075147894285
sVsalesperson
p245
F0.0
sVvapor
p246
F0.0
sVorder
p247
F0.00011585166436470505
sVpdoc
p248
F0.0
sVrestriction
p249
F0.0
sVmyclonus
p250
F0.0
sVoffice
p251
F5.5055375739471425e-05
sVdevote
p252
F0.0
sVwelcomed
p253
F0.0
sVtyramine
p254
F0.0
sVvary
p255
F0.00026178211803052655
sVneuron
p256
F0.0
sVjordb
p257
F0.0
sVdejes
p258
F0.0
sVthesis
p259
F0.00014231608174964693
sVresponsive
p260
F0.00014231608174964693
sVgastrointestinal
p261
F0.0
sVactivating
p262
F0.00014231608174964693
sVadolescence
p263
F0.0
sVsomnolence
p264
F0.0
sVtraer
p265
F0.0
sVime
p266
F0.00014231608174964693
sVpharma
p267
F0.0
sVncbi
p268
F0.0
sVauditory
p269
F0.0
sVpersonal
p270
F0.00022543731189492858
sVfix
p271
F8.726070601017552e-05
sVrecreational
p272
F0.0004269482452489408
sVavocado
p273
F0.00014231608174964693
sVimo
p274
F0.0
sVwriting
p275
F5.5055375739471425e-05
sVbetter
p276
F0.00041996228332205583
sVbarato
p277
F0.0
sVenefokus
p278
F0.0
sVproduction
p279
F0.00028463216349929385
sVfig
p280
F0.00014231608174964693
sVfade
p281
F0.00017452141202035104
sVpersist
p282
F0.00014231608174964693
sVfik
p283
F0.0
sVhidden
p284
F8.726070601017552e-05
sVeasier
p285
F0.00016516612721841428
sVversus
p286
F8.726070601017552e-05
sVeventually
p287
F0.0005692643269985877
sVcoffee
p288
F0.00026178211803052655
sVaffected
p289
F0.00014231608174964693
sVdiseases
p290
F0.00028463216349929385
sVcombination
p291
F0.0008808860118315428
sVlevoamphetamine
p292
F0.0
sVpowerful
p293
F0.0004269482452489408
sVdowns
p294
F0.00014231608174964693
sVdrowsiness
p295
F0.0
sVdisturb
p296
F0.00014231608174964693
sVfinish
p297
F0.00011011075147894285
sVscene
p298
F5.5055375739471425e-05
sVbreak
p299
F0.00043630353005087757
sVtherapy
p300
F0.0009962125722475287
sVeffects
p301
F0.0031413854163663186
sVsulbutiamine
p302
F0.0
sVmxe
p303
F0.0
sVsmoking
p304
F8.726070601017552e-05
sVbrokket
p305
F0.0
sVshadows
p306
F8.726070601017552e-05
sVunregistered
p307
F0.0
sVelavil
p308
F0.0
sVphenylethylamine
p309
F0.0
sVreasonably
p310
F0.00014231608174964693
sVsleepless
p311
F0.0
sVl
p312
F0.001651661272184143
sVexplode
p313
F0.0
sVnoticable
p314
F0.00014231608174964693
sVdlpa
p315
F0.0
sVreasonable
p316
F8.726070601017552e-05
sVgranted
p317
F0.00014231608174964693
sVwent
p318
F0.0001303331224102932
sVhigher
p319
F0.00041866929351915303
sVside
p320
F5.792583218235253e-05
sVluck
p321
F0.0006606645088736571
sVinserts
p322
F0.00014231608174964693
sVconstipation
p323
F0.0004269482452489408
sVevolve
p324
F8.726070601017552e-05
sVtitrating
p325
F0.0
sVlifeextension
p326
F0.0
sV24h
p327
F0.0
sVmdd
p328
F0.0
sVt3
p329
F0.0
sVsammenligner
p330
F0.0
sV2fma
p331
F0.0
sVarrives
p332
F0.00014231608174964693
sVforgot
p333
F0.00014231608174964693
sVlaboratory
p334
F0.00014231608174964693
sVrecognizable
p335
F0.0
sVextract
p336
F0.0004269482452489408
sVmessage
p337
F5.5055375739471425e-05
sVrt
p338
F0.0
sVpraksis
p339
F0.0
sVlifespan
p340
F0.0
sVumiddelbare
p341
F0.0
sV00am
p342
F0.0
sVrx
p343
F0.0
sVcontent
p344
F0.0004269482452489408
sVnu
p345
F0.00014231608174964693
sVlaid
p346
F0.00017452141202035104
sVsafety
p347
F0.0006108249420712286
sVrare
p348
F0.00014231608174964693
sVgenerics
p349
F0.0
sVmedicine
p350
F0.0005692643269985877
sVgot
p351
F0.0002461847867749983
sVrn
p352
F0.0
sVgov
p353
F0.0012808447357468224
sVcerebral
p354
F0.0
sVasleep
p355
F8.726070601017552e-05
sVcomedown
p356
F0.0
sVinos
p357
F0.0
sVgiven
p358
F4.34443741367644e-05
sVfree
p359
F0.00012882132108281633
sVstandard
p360
F5.5055375739471425e-05
sVdecent
p361
F0.00011011075147894285
sVstruggle
p362
F0.00026178211803052655
sVnmda
p363
F0.0
sVbromentane
p364
F0.0
sVchecked
p365
F0.00017452141202035104
sVinadequately
p366
F0.0
sVwanted
p367
F0.0003490428240407021
sVknit
p368
F0.0
sVfret
p369
F0.0
sVate
p370
F8.726070601017552e-05
sVwithdrawl
p371
F0.0
sVdays
p372
F0.00038646396324844897
sVlocal
p373
F8.726070601017552e-05
sValcohol
p374
F0.0008726070601017551
sVatt
p375
F0.0
sVspeedy
p376
F0.00014231608174964693
sVisn
p377
F0.000217221870683822
sVunknown
p378
F8.726070601017552e-05
sVmoving
p379
F3.220533027070408e-05
sValready
p380
F0.00018825895459264572
sVdunce
p381
F0.0
sVfeatures
p382
F0.00017452141202035104
sV200mcg
p383
F0.0
sVgrade
p384
F0.00014231608174964693
sVgiver
p385
F0.0
sVvitro
p386
F0.0
sVthereof
p387
F0.0
sVhans
p388
F0.0
sVspinning
p389
F0.0
sVcurlad
p390
F0.0
sVdownside
p391
F0.0
sVanother
p392
F0.0001737774965470576
sVwasn
p393
F0.00011585166436470505
sVsober
p394
F0.00014231608174964693
sVcomic
p395
F0.00014231608174964693
sVclarity
p396
F8.726070601017552e-05
sVelectronic
p397
F0.0
sVblunts
p398
F0.0
sVdysfunction
p399
F0.0
sVseizures
p400
F0.0005692643269985877
sVteologi
p401
F0.0
sVten
p402
F3.220533027070408e-05
sVservice
p403
F5.5055375739471425e-05
sVyngste
p404
F0.0
sVtop
p405
F0.00019323198162422449
sVbitcoin
p406
F0.0
sVapproximately
p407
F0.0
sVeuphoria
p408
F0.0
sVeldepryl
p409
F0.0
sVneeded
p410
F0.0003853876301763
sVdrugnerds
p411
F0.0
sVton
p412
F0.0005692643269985877
sVlisted
p413
F0.00017452141202035104
sVwildly
p414
F0.00017452141202035104
sVairy
p415
F0.0
sVordered
p416
F8.726070601017552e-05
sVlegs
p417
F0.00011011075147894285
sVbitter
p418
F0.00014231608174964693
sVdogs
p419
F5.5055375739471425e-05
sVenhancing
p420
F0.00028463216349929385
sV14btc
p421
F0.0
sVgym
p422
F8.726070601017552e-05
sVtook
p423
F0.000217221870683822
sVadopter
p424
F0.0
sVpalsy
p425
F0.0
sVwasted
p426
F8.726070601017552e-05
sVpeculiar
p427
F0.0
sVsymptom
p428
F0.0
sVp53
p429
F0.0
sVbegins
p430
F8.726070601017552e-05
sVsynergy
p431
F0.0
sVanxiety
p432
F0.0075427523327312885
sV5ht2c
p433
F0.0
sVshowed
p434
F0.0003490428240407021
sV3iscuo
p435
F0.0
sVlikely
p436
F0.0014231608174964693
sVmatter
p437
F6.441066054140817e-05
sV5mg
p438
F0.0
sVclasses
p439
F3.220533027070408e-05
sVguilt
p440
F0.00014231608174964693
sVendure
p441
F0.00014231608174964693
sVmemantine
p442
F0.0
sVfeeling
p443
F0.00048307995406056127
sVenhancement
p444
F0.00028463216349929385
sVmini
p445
F0.00014231608174964693
sVmodulating
p446
F0.0
sVfashion
p447
F0.00014231608174964693
sVbehavior
p448
F8.726070601017552e-05
sVprinsesser
p449
F0.0
sVexploring
p450
F0.0
sVran
p451
F5.5055375739471425e-05
sVmind
p452
F0.0005505537573947143
sVspectrum
p453
F0.0
sVginger
p454
F8.726070601017552e-05
sVraw
p455
F5.5055375739471425e-05
sVrat
p456
F8.726070601017552e-05
sVmanner
p457
F5.5055375739471425e-05
sVadhd
p458
F0.0
sVarousal
p459
F0.0
sVseen
p460
F0.00019323198162422449
sVseem
p461
F0.00028962916091176266
sVunaffected
p462
F0.0
sVcontents
p463
F8.726070601017552e-05
sVrelatively
p464
F0.0004269482452489408
sVephedrin
p465
F0.0
sVforgive
p466
F8.726070601017552e-05
sVfunctioning
p467
F0.00014231608174964693
sVapoptotic
p468
F0.0
sVthoroughly
p469
F0.0
sVlatter
p470
F0.00028463216349929385
sVresponsible
p471
F0.00017452141202035104
sVderes
p472
F0.0
sVisolated
p473
F0.0
sVchest
p474
F5.5055375739471425e-05
sVcausing
p475
F0.00017452141202035104
sVabsorbed
p476
F0.0
sVtransmit
p477
F0.0
sVcleft
p478
F0.0
sVeffectiveness
p479
F0.0
sVrides
p480
F0.00014231608174964693
sVcompleted
p481
F0.00014231608174964693
sVtidigt
p482
F0.0
sVblue
p483
F0.00011011075147894285
sVexactly
p484
F0.00022543731189492858
sVestablished
p485
F5.5055375739471425e-05
sVclonazepam
p486
F0.0
sVmethylphenidate
p487
F0.0
sVexercised
p488
F0.0
sVramblings
p489
F0.0
sVnorepinephrine
p490
F0.0
sVregular
p491
F0.0007115804087482347
sVmouth
p492
F0.00027527687869735714
sVamps
p493
F0.0
sVphase
p494
F0.00028463216349929385
sVautopsy
p495
F0.00014231608174964693
sVpromotions
p496
F0.0
sVmitigate
p497
F0.0
sVsmoked
p498
F0.00014231608174964693
sVepisode
p499
F0.002704005553243292
sVobservation
p500
F0.00014231608174964693
sVdoc
p501
F0.00026178211803052655
sVmedical
p502
F0.0002202215029578857
sVmetal
p503
F8.726070601017552e-05
sVdog
p504
F5.5055375739471425e-05
sVdoe
p505
F0.0
sVdigress
p506
F0.0
sVdrunks
p507
F0.0
sVdystonia
p508
F0.0
sVepa
p509
F0.0
sVsilencing
p510
F0.0
sVcame
p511
F0.00016516612721841428
sVreserve
p512
F0.00014231608174964693
sVbeh
p513
F0.0
sVsaying
p514
F3.220533027070408e-05
sVbomb
p515
F0.00014231608174964693
sVchecks
p516
F0.00017452141202035104
sVhedberg
p517
F0.0
sVrandom
p518
F8.726070601017552e-05
sVpns
p519
F0.0
sVsubreddit
p520
F0.0
sVprescription
p521
F0.0
sVattempts
p522
F5.5055375739471425e-05
sVpakinson
p523
F0.0
sVemotions
p524
F0.00014231608174964693
sVsubtle
p525
F0.00028463216349929385
sVtempted
p526
F0.00014231608174964693
sVcheaply
p527
F0.0
sVd2
p528
F0.0
sVd3
p529
F0.0
sV3obf2f
p530
F0.0
sVoch
p531
F0.0
sVmoriarty
p532
F0.0
sVweekends
p533
F8.726070601017552e-05
sVacne
p534
F0.0
sVocd
p535
F0.0
sVhrs
p536
F0.0
sVsugar
p537
F0.00017452141202035104
sVscreening
p538
F0.00014231608174964693
sVfolder
p539
F0.00014231608174964693
sVrice
p540
F0.00028463216349929385
sVbehond
p541
F0.0
sVpersonality
p542
F0.00017452141202035104
sVwearing
p543
F8.726070601017552e-05
sVplate
p544
F0.00014231608174964693
sVdl
p545
F0.00014231608174964693
sVmixture
p546
F0.00014231608174964693
sVcolorful
p547
F0.0
sV10
p548
F0.000217221870683822
sVde
p549
F0.00027514770286617455
sVstop
p550
F0.00018825895459264572
sVfulde
p551
F0.0
sVpreferred
p552
F0.00014231608174964693
sVyielded
p553
F0.0
sVbelviq
p554
F0.0
sVshutting
p555
F0.00014231608174964693
sVmeditate
p556
F0.00014231608174964693
sVdansk
p557
F0.0
sValtogether
p558
F8.726070601017552e-05
sVanxiolytic
p559
F0.0
sVnasty
p560
F0.00017452141202035104
sVdu
p561
F0.0004269482452489408
sVdr
p562
F0.00028463216349929385
sV17296473
p563
F0.0
sVslags
p564
F0.0
sVgranny
p565
F0.0
sVspilling
p566
F0.00014231608174964693
sVcountries
p567
F0.00014231608174964693
sVhospitalize
p568
F0.0
sVbpii
p569
F0.0
sVdisco
p570
F0.0
sVtwice
p571
F0.00033033225443682856
sVbad
p572
F0.00028962916091176266
sVtraversed
p573
F0.0
sVcarrier
p574
F0.0
sVrelease
p575
F0.0003853876301763
sVhemsamarit
p576
F0.0
sVruins
p577
F0.0
sVrespond
p578
F0.0005235642360610531
sVdeprenyl
p579
F0.0
sVresveratrol
p580
F0.0
sVvictim
p581
F0.00014231608174964693
sVfair
p582
F1.4481458045588132e-05
sVperipheral
p583
F0.0
sVlight
p584
F3.220533027070408e-05
sVbled
p585
F0.0
sVdepends
p586
F8.726070601017552e-05
sVdecided
p587
F0.00027527687869735714
sVresult
p588
F0.0003490428240407021
sVhorrendous
p589
F0.00014231608174964693
sVfail
p590
F6.441066054140817e-05
sVmiserable
p591
F8.726070601017552e-05
sVdepressive
p592
F0.0
sVfostermodern
p593
F0.0
sVkommunal
p594
F0.0
sVbest
p595
F0.0002606662448205864
sVmonoamine_oxidase_inhibitor
p596
F0.0
sV00
p597
F0.00014231608174964693
sVsaid
p598
F0.0001737774965470576
sV05
p599
F0.00017452141202035104
sVbecareful
p600
F0.0
sVaway
p601
F0.0
sViirc
p602
F0.0
sVwikipedia
p603
F0.0
sVimipramine
p604
F0.0
sVartificial
p605
F0.00014231608174964693
sVamidate
p606
F0.0
sVscore
p607
F5.5055375739471425e-05
sVhopefully
p608
F0.0
sVtolerance
p609
F0.0005692643269985877
sVlethargic
p610
F0.0
sVpreserve
p611
F0.00014231608174964693
sVreddit
p612
F0.0
sVnever
p613
F0.0
sVomg
p614
F0.00014231608174964693
sVextend
p615
F8.726070601017552e-05
sVnature
p616
F2.8962916091176263e-05
sVwean
p617
F0.0
sVweak
p618
F0.0004269482452489408
sVvitamin
p619
F0.0
sVstared
p620
F0.00014231608174964693
sVandrogen
p621
F0.0
sVdrew
p622
F0.0
sVextent
p623
F0.00014231608174964693
sVkom
p624
F0.0
sVcousin
p625
F0.00014231608174964693
sVoxidase
p626
F0.0
sVimprove
p627
F0.0003490428240407021
sVsuggested
p628
F0.0005692643269985877
sVessentially
p629
F0.0
sVproviding
p630
F0.0
sVagonist
p631
F0.0
sVbrat
p632
F0.00014231608174964693
sVresistant
p633
F0.0
sVfault
p634
F3.220533027070408e-05
sVill
p635
F0.00011011075147894285
sVsubverting
p636
F0.0
sVtracks
p637
F0.00014231608174964693
sVelse
p638
F0.00018825895459264572
sVselective
p639
F0.0
sVmildly
p640
F0.0
sVbeyond
p641
F1.4481458045588132e-05
sVaccentuated
p642
F0.0
sVproveen
p643
F0.0
sVdisappears
p644
F8.726070601017552e-05
sVasked
p645
F0.00011011075147894285
sVcon
p646
F0.0
sVtough
p647
F5.5055375739471425e-05
sVcalamus
p648
F0.0
sVdiscontinued
p649
F0.0
sVaddressing
p650
F0.0
sVanxiolytics
p651
F0.0
sVcondescending
p652
F0.00014231608174964693
sVofferings
p653
F0.00028463216349929385
sVrepresented
p654
F0.00014231608174964693
sV100mcg
p655
F0.0
sVunsubstantiated
p656
F0.0
sVloaded
p657
F8.726070601017552e-05
sVarsenic
p658
F0.0
sVtrust
p659
F0.00017452141202035104
sVpresumable
p660
F0.0
sVspeak
p661
F0.00017452141202035104
sVfra
p662
F0.0
sVreputake
p663
F0.0
sVnicer
p664
F8.726070601017552e-05
sVsource
p665
F0.00016516612721841428
sVregenerate
p666
F0.0
sVunitedpharmacies
p667
F0.0
sVthree
p668
F0.00010137020631911693
sVtiny
p669
F3.220533027070408e-05
sVquickly
p670
F0.00019323198162422449
sVting
p671
F0.00014231608174964693
sVbeer
p672
F0.00014231608174964693
sVinterest
p673
F0.0003490428240407021
sVbasic
p674
F0.00011011075147894285
sVexpected
p675
F0.00011011075147894285
sVrelearn
p676
F0.0
sVwarmth
p677
F0.0
sVduties
p678
F0.00028463216349929385
sVlocation
p679
F8.726070601017552e-05
sVwebsite
p680
F8.726070601017552e-05
sVlife
p681
F0.0004054808252764677
sVprn
p682
F0.0
sVfleeting
p683
F0.00014231608174964693
sVhospitalization
p684
F0.0
sVhospitalized
p685
F0.0
sVconcerning
p686
F0.0
sVbioavailability
p687
F0.0
sVbladder
p688
F0.00014231608174964693
sVpointing
p689
F5.5055375739471425e-05
sVselank
p690
F0.0
sVsubstance
p691
F0.0
sVpersonally
p692
F0.0001610266513535204
sVguzzle
p693
F0.0
sVworked
p694
F0.00022543731189492858
sVmct
p695
F0.0
sVspin
p696
F0.0
sV5g
p697
F0.0
sVexception
p698
F8.726070601017552e-05
sVinpatient
p699
F0.0
sVhallucinogens
p700
F0.0
sVlessen
p701
F0.0
sVspontaneously
p702
F0.00014231608174964693
sVnear
p703
F5.792583218235253e-05
sVfinder
p704
F0.00014231608174964693
sVstopping
p705
F0.00017452141202035104
sVcracked
p706
F0.00014231608174964693
sVmurders
p707
F0.0
sVamisulpride
p708
F0.0
sVdefending
p709
F0.00014231608174964693
sVupgrade
p710
F0.00014231608174964693
sVchanged
p711
F0.00016516612721841428
sVplayed
p712
F8.726070601017552e-05
sVir
p713
F0.0
sVtilfredsstillende
p714
F0.0
sVii
p715
F0.0
sVneed
p716
F0.00033307353504852705
sVeighteen
p717
F0.00014231608174964693
sVim
p718
F0.0004269482452489408
sVanhedonic
p719
F0.0
sVcook
p720
F8.726070601017552e-05
sVhighest
p721
F0.0004269482452489408
sVcurcumin
p722
F0.0
sVinsatiable
p723
F0.0
sVdisappear
p724
F0.00017452141202035104
sVsammen
p725
F0.0
sVcontaining
p726
F0.00014231608174964693
sVmas
p727
F0.0
sVbottles
p728
F5.5055375739471425e-05
sVseverity
p729
F0.0
sVminiature
p730
F0.00014231608174964693
sVsuggest
p731
F0.0009962125722475287
sVmake
p732
F0.0003041106189573508
sVrecurrent
p733
F0.0
sVdha
p734
F0.0
sVnardil
p735
F0.0
sVpotentially
p736
F0.0008538964904978816
sVdihydroxyflavone
p737
F0.0
sVunfortunate
p738
F5.5055375739471425e-05
sVincorrectly
p739
F0.00014231608174964693
sVavoids
p740
F0.0
sVsuccess
p741
F0.0003490428240407021
sVlithium
p742
F0.0
sVcouple
p743
F0.00028984797243633673
sVwheel
p744
F5.5055375739471425e-05
sVfairly
p745
F0.0005235642360610531
sVnih
p746
F0.0
sVnil
p747
F0.0
sVhang
p748
F3.220533027070408e-05
sVhand
p749
F0.0
sVireport
p750
F0.0
sVpharmacological
p751
F0.0
sVkristendomsfilologi
p752
F0.0
sVtimmersorterare
p753
F0.0
sVopportunity
p754
F0.00017452141202035104
sVthoughts
p755
F0.00017452141202035104
sVcycle
p756
F0.0005235642360610531
sVmentioning
p757
F0.00028463216349929385
sVprescribed
p758
F0.0019924251444950573
sVkept
p759
F0.00033033225443682856
sVscenario
p760
F0.0
sV1977
p761
F0.0
sVchanges
p762
F0.00027527687869735714
sVsuffering
p763
F0.00016516612721841428
sVacademic
p764
F0.00014231608174964693
sVmaterials
p765
F0.0
sVgrundlag
p766
F0.0
sVmother
p767
F2.8962916091176263e-05
sVom
p768
F0.0
sV801
p769
F0.0
sVparadigm
p770
F0.0
sVhacen
p771
F0.0
sVleft
p772
F7.240729022794067e-05
sVunfortunately
p773
F0.0009962125722475287
sVprotocol
p774
F0.00014231608174964693
sVproposed
p775
F0.0
sVlaptop
p776
F0.00017452141202035104
sVsleepy
p777
F0.00014231608174964693
sVideas
p778
F0.0
sVassigned
p779
F0.00014231608174964693
sVsedatives
p780
F0.0
sVpsych
p781
F0.0
sVthanks
p782
F0.00033033225443682856
sVhuman
p783
F0.00016516612721841428
sVdopamine
p784
F0.0
sVyep
p785
F0.00014231608174964693
sVyes
p786
F0.00010137020631911693
sVyet
p787
F0.00014481458045588133
sVprevious
p788
F1.4481458045588132e-05
sVthyroid
p789
F0.0
sVadding
p790
F0.0008538964904978816
sVham
p791
F8.726070601017552e-05
sVhan
p792
F0.0
sV1_meetingabstracts
p793
F0.0
sVxr
p794
F0.0
sVpuama
p795
F0.0
sVaffinity
p796
F0.0
sVteenager
p797
F0.00014231608174964693
sVeasy
p798
F0.0
sVrequiring
p799
F0.00014231608174964693
sVhar
p800
F0.0
sVplasma
p801
F0.00014231608174964693
sVtolerable
p802
F0.0
sVgave
p803
F0.0006108249420712286
sVajcn
p804
F0.0
sVtoxin
p805
F0.0
sVbreaks
p806
F0.00016516612721841428
sVonline
p807
F0.0005235642360610531
sVflatulence
p808
F0.0
sVpossibly
p809
F6.441066054140817e-05
sVwhichever
p810
F0.0
sVwanting
p811
F0.00014231608174964693
sVjudge
p812
F8.726070601017552e-05
sVunique
p813
F8.726070601017552e-05
sVcharacterized
p814
F0.0
sVcognitive
p815
F0.0
sVdesire
p816
F0.00028463216349929385
sVbpd
p817
F0.0
sV55
p818
F0.00014231608174964693
sVblunt
p819
F0.00014231608174964693
sVvegan
p820
F0.0004269482452489408
sV50
p821
F0.00019323198162422449
sV53
p822
F0.0003490428240407021
sVspecific
p823
F0.00027527687869735714
sVremind
p824
F8.726070601017552e-05
sVnight
p825
F1.4481458045588132e-05
sVinterestingly
p826
F0.00014231608174964693
sVwww
p827
F0.0017452141202035103
sVright
p828
F0.00020274041263823386
sVold
p829
F0.0
sVtrained
p830
F0.00014231608174964693
sVdeal
p831
F0.0001610266513535204
sVformulas
p832
F0.0
sVkunne
p833
F0.0
sVmostly
p834
F0.0005505537573947143
sVdead
p835
F0.00012882132108281633
sVoh
p836
F0.0003490428240407021
sVselectivity
p837
F0.0
sVgelatinized
p838
F0.0
sVitemsampler
p839
F0.0
sVdug
p840
F0.0
sVpain
p841
F0.0004954983816552428
sVtotal
p842
F5.5055375739471425e-05
sVindre
p843
F0.0
sVump
p844
F0.0
sVrenamed
p845
F0.00014231608174964693
sVparesthesia
p846
F0.0
sVopposite
p847
F8.726070601017552e-05
sVcomments
p848
F0.0005692643269985877
sVcreative
p849
F8.726070601017552e-05
sVeverything
p850
F0.00010137020631911693
sVfog
p851
F0.0
sVdenied
p852
F8.726070601017552e-05
sVexperimentation
p853
F0.0
sVchristmas
p854
F0.0
sVdrink
p855
F1.4481458045588132e-05
sVshakes
p856
F5.5055375739471425e-05
sVbold
p857
F5.5055375739471425e-05
sVstefan
p858
F0.0
sVfven
p859
F0.0
sVtranshumanist
p860
F0.0
sVlosing
p861
F3.220533027070408e-05
sVselvf
p862
F0.0
sVpost
p863
F0.0008726070601017551
sVmanufacturing
p864
F0.0
sVsuper
p865
F0.00017452141202035104
sVproperties
p866
F0.00016516612721841428
sVvalium
p867
F0.0
sVrestlessness
p868
F0.0
sVlightheaded
p869
F0.0
sVattacks
p870
F0.00028463216349929385
sVmonths
p871
F0.001046052139049957
sVadipose
p872
F0.0
sVo
p873
F1.4481458045588132e-05
sVessential
p874
F0.0
sVmagazine
p875
F0.00014231608174964693
sVplus
p876
F0.00016516612721841428
sVafternoon
p877
F0.00014231608174964693
sVtannic
p878
F0.00014231608174964693
sV466886
p879
F0.0
sVslightly
p880
F0.00022543731189492858
sVwiped
p881
F0.00014231608174964693
sVcroak
p882
F0.0
sVnerve
p883
F0.00028463216349929385
sVconsulting
p884
F0.0
sVwhats
p885
F0.0
sVxyz
p886
F0.0
sVhoneymoon
p887
F0.00014231608174964693
sVsom
p888
F0.0
sVbeneficial
p889
F0.00014231608174964693
sVson
p890
F6.441066054140817e-05
sVmontelukast
p891
F0.0
sVthankful
p892
F0.0
sVjatamansi
p893
F0.0
sVpaved
p894
F0.0
sVraises
p895
F8.726070601017552e-05
sVarmado
p896
F0.0
sVsoy
p897
F0.00014231608174964693
sVhallucinogenic
p898
F0.0
sVreducing
p899
F0.0
sVtrandermally
p900
F0.0
sVrely
p901
F8.726070601017552e-05
sVvaldoxan
p902
F0.0
sVpropynyl
p903
F0.0
sVchlorpromazine
p904
F0.0
sVsupport
p905
F8.726070601017552e-05
sVinitial
p906
F0.00016516612721841428
sVmutated
p907
F0.0
sVwordpress
p908
F0.0
sVway
p909
F0.00028962916091176266
sVfreebase
p910
F0.0
sVresulted
p911
F0.00014231608174964693
sVassaulted
p912
F0.00014231608174964693
sVgik
p913
F0.0
sVmetabolism
p914
F0.0007115804087482347
sVhappy
p915
F0.00019323198162422449
sVlowest
p916
F0.00014231608174964693
sVpamelor
p917
F0.0
sVhead
p918
F1.4481458045588132e-05
sVamphs
p919
F0.0
sVoffering
p920
F8.726070601017552e-05
sVmanufacturers
p921
F0.00014231608174964693
sVsomething
p922
F0.0002606662448205864
sVlorazepam
p923
F0.0
sVknoll
p924
F0.0
sVfailure
p925
F0.0003490428240407021
sVdesipramine
p926
F0.0
sVhear
p927
F3.220533027070408e-05
sVephedrine
p928
F0.0
sVsustained
p929
F0.0
sVboosts
p930
F0.00028463216349929385
sVremoved
p931
F6.441066054140817e-05
sV24hr
p932
F0.0
sVrenal
p933
F0.0
sVbypassing
p934
F0.0
sVhypomania
p935
F0.0
sVspelade
p936
F0.0
sVversions
p937
F8.726070601017552e-05
sVprevents
p938
F0.00014231608174964693
sVinside
p939
F2.8962916091176263e-05
sVmaximum
p940
F0.00028463216349929385
sVvivo
p941
F0.0
sVcomplications
p942
F0.00014231608174964693
sValguna
p943
F0.0
sVexamples
p944
F0.0015654768992461165
sV150
p945
F0.0
sVlater
p946
F0.0002202215029578857
sVflat
p947
F3.220533027070408e-05
sVrequest
p948
F5.5055375739471425e-05
sVabstract
p949
F0.00028463216349929385
sVregards
p950
F0.0
sVhistory
p951
F0.00011011075147894285
sVproven
p952
F0.00014231608174964693
sVevidence
p953
F0.00043630353005087757
sVsometime
p954
F5.5055375739471425e-05
sVexist
p955
F8.726070601017552e-05
sVaccounting
p956
F0.00014231608174964693
sVfloating
p957
F8.726070601017552e-05
sVannoying
p958
F5.5055375739471425e-05
sVtrip
p959
F0.0003490428240407021
sVshit
p960
F0.0006108249420712286
sVcomorbid
p961
F0.0
sVni
p962
F0.00014231608174964693
sVslurring
p963
F0.0
sV200mg
p964
F0.0
sVdying
p965
F0.00011011075147894285
sVaccomodating
p966
F0.0
sVgenerally
p967
F0.00011011075147894285
sVne
p968
F0.0003490428240407021
sVhanded
p969
F8.726070601017552e-05
sVreality
p970
F0.0004269482452489408
sVtil
p971
F0.00011011075147894285
sVtio
p972
F0.0
sVrole
p973
F0.00014231608174964693
sVpapers
p974
F0.00014231608174964693
sVtest
p975
F0.0006056091331341858
sVisomers
p976
F0.0
sVteologiuddannelser
p977
F0.0
sVdesvenlafaxine
p978
F0.0
sVeternity
p979
F0.00014231608174964693
sV51btc
p980
F0.0
sVdelivered
p981
F0.00014231608174964693
sVfelt
p982
F0.0006056091331341858
sVmiscellaneous
p983
F0.00014231608174964693
sVdiet
p984
F0.00185010906274541
sVdependence
p985
F0.0
sVconcurrent
p986
F0.00014231608174964693
sValleviated
p987
F0.0
sVhorribly
p988
F0.0
sVvariable
p989
F8.726070601017552e-05
sVtransporter
p990
F0.0
sVdanske
p991
F0.0
sVaware
p992
F0.0
sVomega
p993
F0.0
sVdied
p994
F0.00017452141202035104
sVstops
p995
F1.4481458045588132e-05
sVhappening
p996
F5.5055375739471425e-05
sVhippocampal
p997
F0.0
sVassume
p998
F0.0007115804087482347
sVpenge
p999
F0.0
sVinterval
p1000
F0.0
sVpseudo
p1001
F0.00014231608174964693
sVdaily
p1002
F0.002419373389743998
sVwarm
p1003
F3.220533027070408e-05
sVtime
p1004
F0.0
sVpush
p1005
F5.5055375739471425e-05
sVserious
p1006
F0.00033033225443682856
sVadrenic
p1007
F0.0
sVparcels
p1008
F0.0
sVstick
p1009
F8.726070601017552e-05
sVurinary
p1010
F0.0
sVconcept
p1011
F0.00028463216349929385
sVantipsychotics
p1012
F0.0
sVskogsarbetare
p1013
F0.0
sVrob
p1014
F8.726070601017552e-05
sVrelieve
p1015
F0.0
sValternatives
p1016
F0.00028463216349929385
sVfocus
p1017
F0.0005692643269985877
sVleads
p1018
F0.0002202215029578857
sVmild
p1019
F0.0
sVmanages
p1020
F8.726070601017552e-05
sVmodafinil
p1021
F0.0
sVskin
p1022
F2.8962916091176263e-05
sVchair
p1023
F8.726070601017552e-05
sVmilk
p1024
F0.0008538964904978816
sVretention
p1025
F0.00014231608174964693
sVheller
p1026
F0.0
sVsuicide
p1027
F0.00014231608174964693
sVdisorders
p1028
F0.0004269482452489408
sVtranylcypromine
p1029
F0.0
sVdrunkards
p1030
F0.0
sVfather
p1031
F5.5055375739471425e-05
sVblocking
p1032
F0.0003490428240407021
sV0
p1033
F0.0019197355322238614
sVfinally
p1034
F0.00017452141202035104
sVunpleasant
p1035
F0.00014231608174964693
sVdeterminations
p1036
F0.0
sVtext
p1037
F8.726070601017552e-05
sVsuffered
p1038
F0.00011011075147894285
sVmust
p1039
F0.0
sVdopa
p1040
F0.0
sVride
p1041
F0.00011011075147894285
sVmethyl
p1042
F0.0
sVnerv
p1043
F0.0
sVstring
p1044
F3.220533027070408e-05
sVadvantage
p1045
F8.726070601017552e-05
sVbenzodiazepines
p1046
F0.0
sVpropranolol
p1047
F0.0
sVtends
p1048
F0.0
sVmg
p1049
F0.0
sVunfamiliar
p1050
F0.00028463216349929385
sVchoice
p1051
F0.00016516612721841428
sVliability
p1052
F0.0
sVmyrbetriq
p1053
F0.0
sVrationality
p1054
F0.0
sVsigh
p1055
F8.726070601017552e-05
sVtrouble
p1056
F5.792583218235253e-05
sVexact
p1057
F0.00011011075147894285
sVminute
p1058
F5.5055375739471425e-05
sVcool
p1059
F0.00014231608174964693
sVpotentiates
p1060
F0.0
sVlevel
p1061
F0.00014481458045588133
sVdie
p1062
F6.441066054140817e-05
sVdig
p1063
F0.00014231608174964693
sVdecennial
p1064
F0.0
sVaccidentally
p1065
F5.5055375739471425e-05
sVisocarboxazid
p1066
F0.0
sVtravels
p1067
F0.00014231608174964693
sVp
p1068
F0.0005505537573947143
sVsoooo
p1069
F0.00014231608174964693
sVgut
p1070
F0.0005692643269985877
sVquick
p1071
F4.34443741367644e-05
sVguy
p1072
F5.5055375739471425e-05
sVperceptual
p1073
F0.0
sVaccumulation
p1074
F0.0
sVwellbutrin
p1075
F0.0
sVanesthetic
p1076
F0.0
sVprevent
p1077
F0.0003490428240407021
sVtremendously
p1078
F0.0
sVsays
p1079
F1.4481458045588132e-05
sVhindered
p1080
F0.0
sVmeasurable
p1081
F0.0
sVsign
p1082
F1.4481458045588132e-05
sVtetracyclics
p1083
F0.0
sVcost
p1084
F0.00011011075147894285
sVworn
p1085
F0.00014231608174964693
sVupped
p1086
F0.0
sVrun
p1087
F4.34443741367644e-05
sVmigraines
p1088
F0.0
sVsubstitute
p1089
F0.0
sVparachuting
p1090
F0.0
sVstands
p1091
F0.00011011075147894285
sVanecdotes
p1092
F0.0
sVaddy
p1093
F0.00014231608174964693
sV25mg
p1094
F0.0
sVcurrent
p1095
F0.00011011075147894285
sVtranscontinental
p1096
F0.0
sVgoes
p1097
F5.792583218235253e-05
sVreply
p1098
F8.726070601017552e-05
sVfalling
p1099
F8.726070601017552e-05
sVboost
p1100
F0.0
sVfilled
p1101
F6.441066054140817e-05
sVparadoxical
p1102
F0.0
sVfocalin
p1103
F0.0
sVstatistically
p1104
F0.0
sVprescriptions
p1105
F0.0
sVgenes
p1106
F0.0004269482452489408
sVinterested
p1107
F0.00012882132108281633
sVunderstanding
p1108
F0.00016516612721841428
sVwater
p1109
F0.00011011075147894285
sVmoren
p1110
F0.0
sVnemesis
p1111
F0.0
sVwitch
p1112
F0.00026178211803052655
sVgroups
p1113
F0.00028463216349929385
sVaddress
p1114
F8.726070601017552e-05
sValone
p1115
F0.0002202215029578857
sValong
p1116
F4.34443741367644e-05
sVaunque
p1117
F0.0
sVchange
p1118
F0.0004404430059157714
sVkommun
p1119
F0.0
sVbox
p1120
F3.220533027070408e-05
sVzombie
p1121
F0.00014231608174964693
sVendte
p1122
F0.0
sVnoticeable
p1123
F0.0004269482452489408
sVhealthy
p1124
F0.00016516612721841428
sVshift
p1125
F0.00014231608174964693
sVbot
p1126
F0.0
sVcommonly
p1127
F0.0
sVhusband
p1128
F8.726070601017552e-05
sVtrial
p1129
F0.0006108249420712286
sVesben
p1130
F0.0
sVsuggestion
p1131
F0.00043630353005087757
sVusually
p1132
F0.001046052139049957
sVbp
p1133
F0.0
sVnoticeably
p1134
F0.0
sVsucks
p1135
F8.726070601017552e-05
sVstudies
p1136
F0.0004269482452489408
sV20mg
p1137
F0.0
sVgenesightrx
p1138
F0.0
sVlowers
p1139
F0.00028463216349929385
sVvirker
p1140
F0.0
sVtasks
p1141
F0.0
sVlove
p1142
F0.00012882132108281633
sVextra
p1143
F0.00027527687869735714
sVinducing
p1144
F0.0
sVprefer
p1145
F0.00016516612721841428
sVmarked
p1146
F0.00011011075147894285
sVresidual
p1147
F0.00014231608174964693
sVrash
p1148
F5.5055375739471425e-05
sVayone
p1149
F0.0
sVrarely
p1150
F0.0
sVinositol
p1151
F0.0
sVsweating
p1152
F0.00028463216349929385
sVcrammed
p1153
F0.0
sVhandled
p1154
F8.726070601017552e-05
sVworking
p1155
F0.0
sVpositive
p1156
F0.00033033225443682856
sVangry
p1157
F0.00017452141202035104
sVvisit
p1158
F5.5055375739471425e-05
sVfrance
p1159
F0.0
sVlive
p1160
F2.8962916091176263e-05
sVapproach
p1161
F8.726070601017552e-05
sVpmpd
p1162
F0.0
sVwondering
p1163
F0.0004269482452489408
sVmemory
p1164
F0.0006606645088736571
sVvores
p1165
F0.0
sVscope
p1166
F0.00014231608174964693
sVsharpen
p1167
F0.0
sVthru
p1168
F0.00028463216349929385
sVtheoretical
p1169
F0.0
sVtoday
p1170
F0.00012882132108281633
sVaspirin
p1171
F0.0
sVbioperine
p1172
F0.0
sVmarbles
p1173
F0.0
sVafford
p1174
F0.00028463216349929385
sVsuggestions
p1175
F0.00011011075147894285
sVnalt
p1176
F0.0
sVenvelope
p1177
F0.0
sVatarax
p1178
F0.0
sVfuel
p1179
F0.0
sVvisual
p1180
F0.00028463216349929385
sVtandem
p1181
F0.0
sVcases
p1182
F0.0005692643269985877
sVeffort
p1183
F0.00014231608174964693
sVeasiest
p1184
F0.0
sVtobacco
p1185
F8.726070601017552e-05
sVavoiding
p1186
F0.00014231608174964693
sVelectroconvulsive
p1187
F0.0
sVbeliever
p1188
F0.0
sVatypical
p1189
F0.0017077929809957632
sVreviews
p1190
F0.00014231608174964693
sVwallet
p1191
F8.726070601017552e-05
sVvalues
p1192
F8.726070601017552e-05
sVhope
p1193
F0.00011585166436470505
sVfollowing
p1194
F0.00012882132108281633
sVmaking
p1195
F5.792583218235253e-05
sVdosage
p1196
F0.0021347412262447043
sVstimulating
p1197
F0.0
sVclaim
p1198
F5.5055375739471425e-05
sVashitaba
p1199
F0.0
sVfigure
p1200
F8.726070601017552e-05
sVattribute
p1201
F8.726070601017552e-05
sVawesome
p1202
F0.0004269482452489408
sVfuck
p1203
F0.00014231608174964693
sVagent
p1204
F0.00016516612721841428
sVsample
p1205
F6.441066054140817e-05
sVdrawer
p1206
F0.0
sVdxm
p1207
F0.0
sVpalpitations
p1208
F0.0
sVperformed
p1209
F8.726070601017552e-05
sVallowed
p1210
F9.661599081211224e-05
sVcapsules
p1211
F0.0
sVserum
p1212
F0.0
sV232
p1213
F0.0
sVpink
p1214
F0.00017452141202035104
sVrays
p1215
F0.0
sVsudddenly
p1216
F0.0
sV500mcg
p1217
F0.0
sVfortunately
p1218
F0.0
sVwrite
p1219
F3.220533027070408e-05
sVwatching
p1220
F0.00017452141202035104
sVdinner
p1221
F5.5055375739471425e-05
sVchemical
p1222
F0.00028463216349929385
sVtill
p1223
F8.726070601017552e-05
sVvital
p1224
F0.00028463216349929385
sVlexapro
p1225
F0.0
sVchrispy_chken_org_295235
p1226
F0.0
sVoptimal
p1227
F0.0
sVfirmly
p1228
F0.00014231608174964693
sVtachycardiac
p1229
F0.0
sVnonstop
p1230
F0.00014231608174964693
sVstaying
p1231
F8.726070601017552e-05
sVwhacked
p1232
F0.00014231608174964693
sVcocktail
p1233
F0.0004269482452489408
sVhuge
p1234
F4.34443741367644e-05
sVmay
p1235
F0.0007385543603249948
sVmax
p1236
F0.00014231608174964693
sVcontraindicates
p1237
F0.0
sVspot
p1238
F5.5055375739471425e-05
sVmismo
p1239
F0.0
sVproduce
p1240
F0.00026178211803052655
sVlevo
p1241
F0.0
sVdexedrine
p1242
F0.0
sVcardiac
p1243
F0.0
sVlidt
p1244
F0.0
sVrasagiline
p1245
F0.0
sVguys
p1246
F0.00028463216349929385
sVcontraindicated
p1247
F0.0
sVmao
p1248
F0.0
sVman
p1249
F0.0001303331224102932
sVtritrated
p1250
F0.0
sVstress
p1251
F0.00017452141202035104
sVnatural
p1252
F0.00017452141202035104
sVremember
p1253
F8.68887482735288e-05
sV80
p1254
F0.0
sVwhenever
p1255
F0.00017452141202035104
sVmaybe
p1256
F0.0
sVsv
p1257
F0.0
sVsu
p1258
F0.0
sVst
p1259
F0.0
sVsk
p1260
F0.0
sVswitch
p1261
F0.0006108249420712286
sVglancing
p1262
F0.0
sVsm
p1263
F0.0
sVpulled
p1264
F5.5055375739471425e-05
sVcorrectly
p1265
F5.5055375739471425e-05
sVse
p1266
F0.00043630353005087757
sV2mg
p1267
F0.0
sVimagining
p1268
F0.00014231608174964693
sVlsd
p1269
F0.0
sVserving
p1270
F0.00011011075147894285
sVseeing
p1271
F0.00016516612721841428
sVwebpage
p1272
F0.00014231608174964693
sVindeed
p1273
F0.0002202215029578857
sVpointed
p1274
F8.726070601017552e-05
sVmianserin
p1275
F0.0
sVmainly
p1276
F0.00017452141202035104
sVyears
p1277
F0.0005474906146019694
sVstability
p1278
F0.0
sVcourse
p1279
F0.00022543731189492858
sVepisodes
p1280
F0.0
sVtablets
p1281
F0.0
sVnbsp
p1282
F0.0005692643269985877
sVstatistical
p1283
F0.0
sVpitch
p1284
F0.00014231608174964693
sVweird
p1285
F0.00011011075147894285
sVcold
p1286
F0.00011011075147894285
sVfosterfadern
p1287
F0.0
sVtendency
p1288
F0.00014231608174964693
sVtore
p1289
F0.0
sVsupplemented
p1290
F0.0
sVved
p1291
F0.0
sVgroup
p1292
F3.220533027070408e-05
sVmonitor
p1293
F0.00014231608174964693
sVinteresting
p1294
F0.00019323198162422449
sVideation
p1295
F0.0
sVforms
p1296
F0.00014231608174964693
sV17646220
p1297
F0.0
sVcontinue
p1298
F6.441066054140817e-05
sVamelioration
p1299
F0.0
sVbajisimos
p1300
F0.0
sVthanx
p1301
F0.0
sVlisting
p1302
F8.726070601017552e-05
sVmail
p1303
F0.00017452141202035104
sVtachycardia
p1304
F0.0
sVmain
p1305
F1.4481458045588132e-05
sVdecades
p1306
F0.00028463216349929385
sVpuzzle
p1307
F0.0004269482452489408
sVentrada
p1308
F0.0
sVndris
p1309
F0.0
sVmodestly
p1310
F0.0
sVnon
p1311
F0.0001737774965470576
sVahi
p1312
F0.0
sVmarginally
p1313
F0.0
sVstabilizers
p1314
F0.0
sV3
p1315
F0.0006763119356847857
sVtninger
p1316
F0.0
sVkiller
p1317
F0.00011011075147894285
sVinsomnia
p1318
F0.0
sVregarding
p1319
F8.726070601017552e-05
sVsooner
p1320
F0.00014231608174964693
sVtoxic
p1321
F0.0
sVadrenaline
p1322
F0.0
sVbase
p1323
F3.220533027070408e-05
sVwoiuldn
p1324
F0.0
sVaspirations
p1325
F0.0
sVqhi
p1326
F0.0
sVnos
p1327
F0.0
sVwont
p1328
F0.00014231608174964693
sVsusceptibility
p1329
F0.0
sVterm
p1330
F0.0002202215029578857
sVname
p1331
F0.00010137020631911693
sVstabilize
p1332
F0.0
sVlies
p1333
F5.5055375739471425e-05
sVcognition
p1334
F0.00014231608174964693
sVdidn
p1335
F0.0004054808252764677
sVvaged
p1336
F0.0
sVconcerta
p1337
F0.0
sVrealistic
p1338
F0.0
sVdesde
p1339
F0.0
sVstockholm
p1340
F0.0
sVrock
p1341
F5.5055375739471425e-05
sVpharmacies
p1342
F0.0
sVentirely
p1343
F0.0001610266513535204
sVem
p1344
F3.220533027070408e-05
sVmppe
p1345
F0.0
sVen
p1346
F0.001657953414193335
sVamphetimine
p1347
F0.0
sVsignificantly
p1348
F0.0
sVed
p1349
F8.726070601017552e-05
sVyeah
p1350
F0.00017452141202035104
sVbalanced
p1351
F5.5055375739471425e-05
sVmptp
p1352
F0.0
sVpersian
p1353
F0.0
sVex
p1354
F0.00017452141202035104
sVyear
p1355
F0.0001737774965470576
sVet
p1356
F0.0004269482452489408
sVhappen
p1357
F9.661599081211224e-05
sVworried
p1358
F0.00016516612721841428
sVpills
p1359
F0.0009962125722475287
sVes
p1360
F0.00014231608174964693
sVer
p1361
F0.00033033225443682856
sVliving
p1362
F5.792583218235253e-05
sVultimately
p1363
F0.0008538964904978816
sVsystemsammenst
p1364
F0.0
sVopened
p1365
F3.220533027070408e-05
sVspace
p1366
F0.00017452141202035104
sVunderst
p1367
F0.0
sVfurthermore
p1368
F0.00014231608174964693
sVrational
p1369
F0.0
sVlooking
p1370
F0.0
sVseriously
p1371
F0.00011011075147894285
sVbeige
p1372
F0.0
sVcae
p1373
F0.0
sVemerged
p1374
F0.00014231608174964693
sVanorexia
p1375
F0.00014231608174964693
sVhemorrhagic
p1376
F0.0
sVcorrect
p1377
F0.00017452141202035104
sVhcl
p1378
F0.0
sVneurotrophic
p1379
F0.0
sVtheory
p1380
F0.00028463216349929385
sVcontain
p1381
F0.00014231608174964693
sVmechanisms
p1382
F0.0
sVquite
p1383
F0.00010137020631911693
sVantihistamines
p1384
F0.0
sVcalifornia
p1385
F0.0
sVbesides
p1386
F8.726070601017552e-05
sVldre
p1387
F0.0
sVbumpy
p1388
F0.0
sVorg
p1389
F0.0015654768992461165
sV___
p1390
F0.0
sVcard
p1391
F8.726070601017552e-05
sVgotu
p1392
F0.0
sVadvance
p1393
F5.5055375739471425e-05
sVtraining
p1394
F8.726070601017552e-05
sVgusta
p1395
F0.0
sVlifeext
p1396
F0.0
sVcouldn
p1397
F0.00012882132108281633
sVdisguised
p1398
F0.0
sVfa
p1399
F0.0
sVdiscussing
p1400
F0.00014231608174964693
sVmodest
p1401
F0.00014231608174964693
sV10mg
p1402
F0.0
sVthing
p1403
F0.0001737774965470576
sVjumping
p1404
F8.726070601017552e-05
sVplace
p1405
F5.792583218235253e-05
sVmassive
p1406
F0.0
sVroutes
p1407
F0.0
sVpromotion
p1408
F0.00014231608174964693
sVchildhood
p1409
F0.0
sVfrequent
p1410
F0.00028463216349929385
sVfirst
p1411
F0.0004489251994132321
sVblind
p1412
F8.726070601017552e-05
sVcheese
p1413
F8.726070601017552e-05
sVfw900
p1414
F0.0
sVsaving
p1415
F5.5055375739471425e-05
sVparkinson
p1416
F0.0
sVmucho
p1417
F0.0
sVamino
p1418
F0.0
sVspecifically
p1419
F0.0
sVdirectly
p1420
F0.00011011075147894285
sVspecificity
p1421
F0.0
sVcarry
p1422
F1.4481458045588132e-05
sVtransdermal
p1423
F0.0
sVsounds
p1424
F0.00043630353005087757
sVdrove
p1425
F0.00014231608174964693
sVtomorrow
p1426
F0.00028463216349929385
sVxt
p1427
F0.0
sViam
p1428
F0.0
sV1p
p1429
F0.0
sVlittle
p1430
F0.0
sVnecessarily
p1431
F8.726070601017552e-05
sVsheet
p1432
F5.5055375739471425e-05
sVsilent
p1433
F8.726070601017552e-05
sVstuck
p1434
F0.00017452141202035104
sV1x
p1435
F0.0
sVcaught
p1436
F0.00011011075147894285
sVslept
p1437
F0.00014231608174964693
sVeighths
p1438
F0.0
sVnewstar
p1439
F0.0
sVplastic
p1440
F0.00014231608174964693
sVikke
p1441
F0.0
sVpsychotic
p1442
F0.0004269482452489408
sV2
p1443
F0.00033307353504852705
sVprovigil
p1444
F0.0
sVterrifying
p1445
F0.0
sV1g
p1446
F0.0
sVmilage
p1447
F0.0
sVamphetamines
p1448
F0.0
sVfriend
p1449
F2.8962916091176263e-05
sVgives
p1450
F9.661599081211224e-05
sVnutrition
p1451
F0.0
sVeyes
p1452
F3.220533027070408e-05
sVamines
p1453
F0.0
sVreleases
p1454
F8.726070601017552e-05
sVfoolhardy
p1455
F0.0
sVbenbest
p1456
F0.0
sVaccurately
p1457
F8.726070601017552e-05
sVreleased
p1458
F0.00014231608174964693
sVshort
p1459
F4.34443741367644e-05
sVderived_neurotrophic_factor
p1460
F0.0
sVhyperthermia
p1461
F0.0
sVeliminated
p1462
F0.0
sV11
p1463
F4.34443741367644e-05
sVwide
p1464
F3.220533027070408e-05
sVtelevision
p1465
F0.00014231608174964693
sV12
p1466
F5.792583218235253e-05
sV15
p1467
F4.34443741367644e-05
sV14
p1468
F0.00011011075147894285
sV16
p1469
F5.5055375739471425e-05
sV19
p1470
F0.00011011075147894285
sVrequire
p1471
F0.0004269482452489408
sVagmatine
p1472
F0.0
sVcrossroads
p1473
F0.0
sVmutilation
p1474
F0.0
sVfuture
p1475
F0.00028984797243633673
sVmagnesium
p1476
F0.0
sVpoisoning
p1477
F0.00014231608174964693
sVsynthesis
p1478
F0.00014231608174964693
sVragey
p1479
F0.0
sVpre
p1480
F0.00017452141202035104
sVcoconut
p1481
F6.441066054140817e-05
sVillness
p1482
F0.0
sVrene
p1483
F0.0
sVpaywalls
p1484
F0.0
sVsam
p1485
F0.0
sVremained
p1486
F0.0
sVprl
p1487
F0.0
sVpro
p1488
F0.0
sVcymbalta
p1489
F0.0
sVlevomethamphetamine
p1490
F0.0
sVvoices
p1491
F0.0
sVssris
p1492
F0.0
sVsay
p1493
F0.00031859207700293894
sVpubmed
p1494
F0.0
sVpregnenolone
p1495
F0.0
sVtetracyclic
p1496
F0.0
sV20g
p1497
F0.0
sVmoclobomide
p1498
F0.0
sVanger
p1499
F0.00017452141202035104
sVinhibiting
p1500
F0.0
sVturner
p1501
F0.0
sVrecover
p1502
F5.5055375739471425e-05
sVsaw
p1503
F0.0002202215029578857
sVworst
p1504
F0.00017452141202035104
sVform
p1505
F0.00019323198162422449
sVbipolarity
p1506
F0.0
sVfucking
p1507
F0.00014231608174964693
sVoffer
p1508
F0.00016516612721841428
sVaside
p1509
F0.00011011075147894285
sVpmc514561
p1510
F0.0
sVnote
p1511
F0.00022543731189492858
sVideal
p1512
F0.0003490428240407021
sVpotential
p1513
F0.0017077929809957632
sVsnris
p1514
F0.0
sVobjective
p1515
F0.0
sVperformance
p1516
F0.0002202215029578857
sVconcern
p1517
F0.0004269482452489408
sVimpairment
p1518
F0.0
sVswitching
p1519
F0.00017452141202035104
sV200
p1520
F0.0007115804087482347
sVbegin
p1521
F0.00033033225443682856
sVdifferences
p1522
F0.00014231608174964693
sValtered
p1523
F0.00028463216349929385
sVtrace
p1524
F0.0
sVnormal
p1525
F0.0005505537573947143
sVtrack
p1526
F0.00017452141202035104
sVprice
p1527
F5.5055375739471425e-05
sVdecreasing
p1528
F0.0
sVclearer
p1529
F0.0
sVpaid
p1530
F8.726070601017552e-05
sVbeta
p1531
F0.0009962125722475287
sVpaiy
p1532
F0.0
sVsymtoms
p1533
F0.0
sVpair
p1534
F8.726070601017552e-05
sVsurmised
p1535
F0.0
sVgrateful
p1536
F0.0
sVcleared
p1537
F8.726070601017552e-05
sVespecially
p1538
F0.00025764264216563266
sVbreakthroughs
p1539
F0.0
sVconsidered
p1540
F8.726070601017552e-05
sVaverage
p1541
F0.00026178211803052655
sV8mg
p1542
F0.0
sVdrive
p1543
F0.00026178211803052655
sVsodas
p1544
F0.0
sVways
p1545
F0.00012882132108281633
sVpeptides
p1546
F0.0
sVproperly
p1547
F3.220533027070408e-05
sVwind
p1548
F5.5055375739471425e-05
sVarguably
p1549
F0.0
sVjittery
p1550
F0.0
sVdrenge
p1551
F0.0
sVtypically
p1552
F0.0008538964904978816
sVlaws
p1553
F0.00014231608174964693
sVevent
p1554
F5.5055375739471425e-05
sVwalking
p1555
F3.220533027070408e-05
sVdrastically
p1556
F0.0
sVshot
p1557
F3.220533027070408e-05
sVregulated
p1558
F0.0
sVshow
p1559
F7.240729022794067e-05
sVcheap
p1560
F0.00043630353005087757
sVgedtestingservice
p1561
F0.0
sVelevate
p1562
F0.0
sVtherapist
p1563
F0.00028463216349929385
sVdrawings
p1564
F0.0
sVtiredness
p1565
F0.0
sVnootropaxjkmrlta
p1566
F0.0
sVhace
p1567
F0.0
sVlabel
p1568
F0.00016516612721841428
sVnlm
p1569
F0.0
sVadhere
p1570
F0.0
sVaspartic
p1571
F0.0
sVslow
p1572
F0.00012882132108281633
sVratio
p1573
F0.00014231608174964693
sVbrain_dopamine_and_kinematics_of_graphomotor
p1574
F0.0
sVtitle
p1575
F8.726070601017552e-05
sVpmc
p1576
F0.0
sVvar
p1577
F0.0
sV500mg
p1578
F0.0
sVmetabolites
p1579
F0.0
sVlunde
p1580
F0.0
sVtears
p1581
F8.726070601017552e-05
sVgoing
p1582
F0.0
sVhockey
p1583
F0.0
sVstationeries
p1584
F0.0
sVsertraline
p1585
F0.0
sVdoxepin
p1586
F0.0
sVprecios
p1587
F0.0
sVawareness
p1588
F0.0
sVnootropics
p1589
F0.0
sVclosed
p1590
F3.220533027070408e-05
sVwheezy
p1591
F0.0
sVpray
p1592
F5.5055375739471425e-05
sVnogle
p1593
F0.0
sVbegging
p1594
F0.00014231608174964693
sVtruly
p1595
F0.0003490428240407021
sVrefina
p1596
F0.0
sVloath
p1597
F0.0
sVnardosinone
p1598
F0.0
sVcannot
p1599
F0.00012882132108281633
sVnearly
p1600
F2.8962916091176263e-05
sVdistinctly
p1601
F0.0
sVbromocriptine
p1602
F0.0
sVconjunction
p1603
F0.0
sVfirstborn
p1604
F0.0
sVsecondary
p1605
F5.5055375739471425e-05
sVcatecholamine
p1606
F0.0
sVhordenine
p1607
F0.0
sVdecarboxylase
p1608
F0.0
sVatomoxetine
p1609
F0.0
sVsaliva
p1610
F0.00014231608174964693
sVyield
p1611
F0.0
sVmorning
p1612
F0.00026178211803052655
sVlgelig
p1613
F0.0
sVstupid
p1614
F0.00016516612721841428
sVverticales
p1615
F0.0
sVmarred
p1616
F0.00014231608174964693
sVsurgeries
p1617
F0.0
sVvision
p1618
F0.0
sVwiki
p1619
F0.0
sVpsychedelics
p1620
F0.0
sVmedicated
p1621
F0.00014231608174964693
sVidebenone
p1622
F0.0
sVbuuuuut
p1623
F0.0
sVphysically
p1624
F0.00028463216349929385
sVattenuates
p1625
F0.0
sVnamely
p1626
F0.0
sVactively
p1627
F0.0
sVcollege
p1628
F0.00014231608174964693
sVanyways
p1629
F8.726070601017552e-05
sVeliminating
p1630
F0.0
sVstigma
p1631
F0.0
sVsurgery
p1632
F0.0004269482452489408
sVestamos
p1633
F0.0
sVwonder
p1634
F0.0002202215029578857
sVfails
p1635
F0.00028463216349929385
sVsatisfying
p1636
F0.00014231608174964693
sVinhibitory
p1637
F0.0
sVcompounds
p1638
F0.0
sVestan
p1639
F0.0
sVtalkative
p1640
F0.0
sVside_effects
p1641
F0.0
sVdefinite
p1642
F0.00028463216349929385
sVphosphatidylserine
p1643
F0.0
sVenough
p1644
F0.0
sVestar
p1645
F0.0
sVrefreshed
p1646
F0.00014231608174964693
sVherbal
p1647
F0.00014231608174964693
sVimport
p1648
F0.00014231608174964693
sVreading
p1649
F0.00022543731189492858
sVsnorted
p1650
F0.0
sVacross
p1651
F0.00011011075147894285
sVtherapies
p1652
F0.0
sVaffordable
p1653
F0.0
sVnotice
p1654
F0.0003542586329777449
sVprolintane
p1655
F0.0
sVvertical
p1656
F5.5055375739471425e-05
sVscreen
p1657
F0.00017452141202035104
sVdome
p1658
F0.0
sVkilling
p1659
F0.00028463216349929385
sVblame
p1660
F5.5055375739471425e-05
sVsympathomimetic
p1661
F0.0
sVconcentrate
p1662
F0.00028463216349929385
sVcomo
p1663
F0.0
sVhurts
p1664
F0.00028463216349929385
sVvenlafaxine
p1665
F0.0
sVrapidly
p1666
F5.5055375739471425e-05
sVgauntlet
p1667
F0.0
sVcome
p1668
F0.00014481458045588133
sVligand
p1669
F0.0
sVreaction
p1670
F0.00043630353005087757
sVsuperstar
p1671
F0.0
sValla
p1672
F0.0
sVbioactive
p1673
F0.0
sVregion
p1674
F8.726070601017552e-05
sVballpark
p1675
F0.0
sVaccording
p1676
F3.220533027070408e-05
sVmoreso
p1677
F0.0
sVbelig
p1678
F0.0
sVvilazodone
p1679
F0.0
sVjo
p1680
F0.0
sVlatuda
p1681
F0.0
sVexpression
p1682
F0.00016516612721841428
sVsheaf
p1683
F0.0
sVcomes
p1684
F0.0002202215029578857
sVzodiacs
p1685
F0.0
sVamong
p1686
F0.00026178211803052655
sVafterwards
p1687
F0.00011011075147894285
sVcancer
p1688
F0.0008538964904978816
sVtaiwan
p1689
F0.0
sVeffective
p1690
F0.003984850288990115
sVpor
p1691
F0.00014231608174964693
sVperiod
p1692
F9.661599081211224e-05
sVpop
p1693
F0.00017452141202035104
sVmonton
p1694
F0.0
sVtwin
p1695
F8.726070601017552e-05
sVtricyclic
p1696
F0.0
sVamine
p1697
F0.0
sVlearning
p1698
F0.0003490428240407021
sVarticle
p1699
F5.5055375739471425e-05
sVconstant
p1700
F8.726070601017552e-05
sVboat
p1701
F0.00014231608174964693
sVnarcissistic
p1702
F0.0
sVcramps
p1703
F0.0
sVpropyne
p1704
F0.0
sVunusual
p1705
F8.726070601017552e-05
sVcycling
p1706
F0.0017077929809957632
sVstretch
p1707
F0.00017452141202035104
sVrebuild
p1708
F0.0
sVmark
p1709
F5.5055375739471425e-05
sVbreath
p1710
F3.220533027070408e-05
sVcoinrx
p1711
F0.0
sVcombined
p1712
F0.00043630353005087757
sVmotives
p1713
F0.0
sVdangers
p1714
F0.0004269482452489408
sVnit
p1715
F0.0
sVlder
p1716
F0.0
sV15mg
p1717
F0.0
sVdifferently
p1718
F8.726070601017552e-05
sVdesmethylselegiline
p1719
F0.0
sVcolors
p1720
F8.726070601017552e-05
sVcertainly
p1721
F0.00028984797243633673
sVshopping
p1722
F0.00017452141202035104
sVgist
p1723
F0.00014231608174964693
sVinfluence
p1724
F5.5055375739471425e-05
sVoffered
p1725
F8.726070601017552e-05
sV400
p1726
F0.00017452141202035104
sVreaching
p1727
F0.00014231608174964693
sVtightened
p1728
F0.0
sVdoesn
p1729
F0.00018825895459264572
sVprecipitate
p1730
F0.0
sVoverdose
p1731
F0.0007115804087482347
sVcareful
p1732
F0.0005235642360610531
sV1mg
p1733
F0.0
sVskriver
p1734
F0.0
sVsound
p1735
F3.220533027070408e-05
sV1294791551579fdnyemsambulancefit
p1736
F0.0
sVdisconnected
p1737
F8.726070601017552e-05
sVprofiles
p1738
F0.00014231608174964693
sVtrick
p1739
F0.00011011075147894285
sVrefractory
p1740
F0.0
sVwarning
p1741
F0.00011011075147894285
sVongoing
p1742
F0.0
sVmany
p1743
F0.0
sVsituation
p1744
F0.00026178211803052655
sVcigs
p1745
F0.0
sValcoholic
p1746
F0.00014231608174964693
sVgeodon
p1747
F0.0
sVside_effect
p1748
F0.0
sVbror
p1749
F0.0
sVsudden
p1750
F0.00011011075147894285
sVconverts
p1751
F0.00014231608174964693
sVbaths
p1752
F0.0
sVironic
p1753
F0.00014231608174964693
sVprotein
p1754
F0.0
sVawhile
p1755
F0.00014231608174964693
sVworry
p1756
F3.220533027070408e-05
sVsedating
p1757
F0.0
sVpar
p1758
F0.00014231608174964693
sVritalin
p1759
F0.0
sVharsh
p1760
F8.726070601017552e-05
sVinquire
p1761
F0.00028463216349929385
sVpay
p1762
F2.8962916091176263e-05
sVlave
p1763
F0.0
sVspiraling
p1764
F0.0
sVmagyar
p1765
F0.0
sVcheck
p1766
F0.0005235642360610531
sVfiguring
p1767
F0.00014231608174964693
sVreleaser
p1768
F0.0
sVhtml
p1769
F0.0004269482452489408
sVmanila
p1770
F0.0
sVagitated
p1771
F0.0
sVlite
p1772
F0.0
sVphysical
p1773
F0.0
sVevents
p1774
F0.00026178211803052655
sVhvis
p1775
F0.0
sVbreakdown
p1776
F0.00014231608174964693
sVoil
p1777
F0.0006980856480814042
sVyo
p1778
F0.00017452141202035104
sVrunning
p1779
F0.0
sVuddannelser
p1780
F0.0
sVtotally
p1781
F9.661599081211224e-05
sVfosterfamiljen
p1782
F0.0
sVcosta
p1783
F0.0
sVcyp1a2
p1784
F0.0
sVngf
p1785
F0.0
sVlargely
p1786
F0.0
sVminimize
p1787
F0.00028463216349929385
sVantihistamine
p1788
F0.0
sVpiracetam
p1789
F0.0
sVroughly
p1790
F0.0
sVc60
p1791
F0.0
sVcosto
p1792
F0.0
sVsevere
p1793
F0.0014834320021729838
sVwithout
p1794
F0.0
sVshallower
p1795
F0.0
sVnoopept
p1796
F0.0
sVcomponents
p1797
F0.00014231608174964693
sVhubby
p1798
F0.0
sVjustify
p1799
F0.0
sVcheesing
p1800
F0.0
sV215
p1801
F0.0
sVbenzo
p1802
F0.0
sVya
p1803
F0.00026178211803052655
sVmoney
p1804
F0.00026178211803052655
sVadjustments
p1805
F0.0
sVresolution
p1806
F8.726070601017552e-05
sVrest
p1807
F1.4481458045588132e-05
sVdrivel
p1808
F0.0
sVdehydration
p1809
F0.0
sVinflammatory
p1810
F0.0
sVkill
p1811
F3.220533027070408e-05
sVanerkendte
p1812
F0.0
sVaspect
p1813
F8.726070601017552e-05
sVtouch
p1814
F9.661599081211224e-05
sVbehavioural
p1815
F0.0
sVng
p1816
F0.0
sVsatin
p1817
F0.0
sVketamine
p1818
F0.0
sVpreventing
p1819
F0.00014231608174964693
sVdeath
p1820
F0.00033033225443682856
sVgrounded
p1821
F0.0
sVender
p1822
F0.0
sVstimulation
p1823
F0.0005692643269985877
sVseems
p1824
F0.0003909993672308796
sVexcept
p1825
F0.0001610266513535204
sVimprovement
p1826
F8.726070601017552e-05
sVlets
p1827
F3.220533027070408e-05
sVfisetin
p1828
F0.0
sVpile
p1829
F8.726070601017552e-05
sV4
p1830
F0.00020274041263823386
sVversa
p1831
F0.00014231608174964693
sVelectrical
p1832
F0.00028463216349929385
sVunviable
p1833
F0.0
sVpill
p1834
F0.0012808447357468224
sVreal
p1835
F0.0
sVkalde
p1836
F0.0
sVaspects
p1837
F0.00028463216349929385
sVaround
p1838
F0.00018825895459264572
sVdesperately
p1839
F8.726070601017552e-05
sVread
p1840
F0.00038646396324844897
sVmor
p1841
F0.00028463216349929385
sVpsa
p1842
F0.0
sVinjection
p1843
F0.0
sVvirginia
p1844
F0.0
sVbuspirone
p1845
F0.0
sVtid
p1846
F0.0
sVinhibition
p1847
F0.0
sVcyp2a6
p1848
F0.0
sValldaychemist
p1849
F0.0
sVworld
p1850
F6.441066054140817e-05
sVdecomposes
p1851
F0.0
sVamt
p1852
F0.0
sVmod
p1853
F0.00014231608174964693
sVbroscience
p1854
F0.0
sVstranger
p1855
F0.00014231608174964693
sVpounds
p1856
F0.00026178211803052655
sVracetams
p1857
F0.0
sVstrictly
p1858
F8.726070601017552e-05
sVpole
p1859
F8.726070601017552e-05
sVserves
p1860
F0.0
sVoddly
p1861
F8.726070601017552e-05
sVsanity
p1862
F0.0
sVbenefit
p1863
F0.0011385286539971754
sVeither
p1864
F0.00027514770286617455
sVfully
p1865
F6.441066054140817e-05
sVpassionate
p1866
F5.5055375739471425e-05
sVreduced
p1867
F0.0005692643269985877
sVclassified
p1868
F0.0
sVburdens
p1869
F0.0
sVpapernotes
p1870
F0.0
sVpickled
p1871
F0.0
sVparnate
p1872
F0.0
sVoxazepam
p1873
F0.0
sVbiloba
p1874
F0.0
sVuden
p1875
F0.0
sVkola
p1876
F0.0
sVduration
p1877
F0.0
sVdiving
p1878
F0.0
sVtreatments
p1879
F0.0
sVmatching
p1880
F0.00014231608174964693
sVoctane
p1881
F0.0
sVviral
p1882
F0.0
sVfabricas
p1883
F0.0
sVgenetics
p1884
F0.0
sVmood
p1885
F0.0026178211803052657
sVbenzodiazepine
p1886
F0.0
sVmemories
p1887
F0.0
sVtube
p1888
F0.00014231608174964693
sVmph
p1889
F0.0
sVlegal
p1890
F0.00028463216349929385
sVnoot
p1891
F0.0
sVmaob
p1892
F0.0
sVdeficit
p1893
F0.0
sVprovides
p1894
F0.00014231608174964693
sVxten
p1895
F0.0
sVmaoi
p1896
F0.0
sVmoderate
p1897
F0.0015654768992461165
sVintravenous
p1898
F0.0
sV3meo
p1899
F0.0
sVconsidering
p1900
F0.0005235642360610531
sVmethamphetamine
p1901
F0.0
sVdesoxyn
p1902
F0.0
sVscientific
p1903
F0.00014231608174964693
sVpower
p1904
F6.441066054140817e-05
sVepsom
p1905
F0.0
sVproblems
p1906
F0.0003542586329777449
sVresiliency
p1907
F0.0
sVhyperventilated
p1908
F0.0
sVhjemme
p1909
F0.0
sVbroken
p1910
F3.220533027070408e-05
sVsixty
p1911
F0.0
sVfinicky
p1912
F0.0
sVthrow
p1913
F8.726070601017552e-05
sVmicrodose
p1914
F0.0
sVoo
p1915
F0.00014231608174964693
sVjournaling
p1916
F0.0
sVaca
p1917
F0.0
sVpaises
p1918
F0.0
sVcentral
p1919
F0.0
sVtease
p1920
F0.00014231608174964693
sVothe
p1921
F0.0
sVintolerable
p1922
F0.0
sVod
p1923
F0.0
sVaco
p1924
F0.0
sVgenerated
p1925
F0.00014231608174964693
sVneurodegenerative
p1926
F0.0
sV75mg
p1927
F0.0
sVgreatly
p1928
F0.00028463216349929385
sVact
p1929
F3.220533027070408e-05
sVmixed
p1930
F0.001657953414193335
sVbond
p1931
F8.726070601017552e-05
sVos
p1932
F0.00028463216349929385
sVreasons
p1933
F8.726070601017552e-05
sVop
p1934
F0.00028463216349929385
sVheavy
p1935
F6.441066054140817e-05
sVpurported
p1936
F0.0
sVreferenced
p1937
F0.00014231608174964693
sVdecreased
p1938
F0.0
sVdextro
p1939
F0.0
sVweighs
p1940
F8.726070601017552e-05
sVpotentiate
p1941
F0.0
sVimage
p1942
F8.726070601017552e-05
sVproblemsame
p1943
F0.0
sVvnte
p1944
F0.0
sVorganics
p1945
F0.0
sVtrustable
p1946
F0.0
sVreferences
p1947
F0.00028463216349929385
sVbedtime
p1948
F0.0
sVeinstein
p1949
F0.0
sVsker
p1950
F0.0
sVtechnically
p1951
F8.726070601017552e-05
sVpharmaceutical
p1952
F0.0
sVsmitter
p1953
F0.0
sVlog
p1954
F0.00014231608174964693
sVbarco
p1955
F0.0
sV40mcg
p1956
F0.0
sVdistracted
p1957
F0.00028463216349929385
sVmelander
p1958
F0.0
sVhey
p1959
F8.726070601017552e-05
sVlol
p1960
F0.00014231608174964693
sVsides
p1961
F8.726070601017552e-05
sVstart
p1962
F0.00038646396324844897
sVbromide
p1963
F0.0
sVlow
p1964
F0.0010305705686625307
sVlot
p1965
F0.0
sVslowly
p1966
F0.00011011075147894285
sVmarlboros
p1967
F0.0
sVtyrosine
p1968
F0.0
sVsemsame
p1969
F0.0
sVbettering
p1970
F0.0
sVcomplete
p1971
F9.661599081211224e-05
sVeksempel
p1972
F0.0
sVregard
p1973
F0.0
sVpakistan
p1974
F0.0
sVwithin
p1975
F6.441066054140817e-05
sVstrikes
p1976
F0.00014231608174964693
sVcaprylic
p1977
F0.0
sVnerve_growth_factor
p1978
F0.0
sVbrain
p1979
F0.0015415505207052
sVintoxication
p1980
F0.0
sVelimination
p1981
F0.0
sVmice
p1982
F0.0
sVorthostatic
p1983
F0.0
sVirreversible
p1984
F0.0
sVegen
p1985
F0.0
sVfaster
p1986
F5.5055375739471425e-05
sVvolume
p1987
F0.00014231608174964693
sVclockwork
p1988
F0.0
sVregimen
p1989
F0.0
sVoutliers
p1990
F0.0
sVcirculation
p1991
F0.0
sVrage
p1992
F0.00014231608174964693
sVvice
p1993
F0.00014231608174964693
sVprimarly
p1994
F0.0
sVuniversitetsavisen
p1995
F0.0
sVashwagandha
p1996
F0.0
sVhydrolase
p1997
F0.0
sVnootropic
p1998
F0.0
sVnetop
p1999
F0.0
sVagree
p2000
F3.220533027070408e-05
sVstrongly
p2001
F0.0
sVgone
p2002
F2.8962916091176263e-05
sVleaked
p2003
F0.0
sVad
p2004
F0.0006108249420712286
sVvideos
p2005
F8.726070601017552e-05
sVaf
p2006
F0.0
sVexhausted
p2007
F0.00014231608174964693
sVcertain
p2008
F0.00015929603850146947
sVcombining
p2009
F0.0007115804087482347
sVsales
p2010
F0.00014231608174964693
sVdeep
p2011
F6.441066054140817e-05
sVgeneral
p2012
F0.0
sVap
p2013
F0.0
sVexamine
p2014
F8.726070601017552e-05
sVhypertension
p2015
F0.0
sVcarved
p2016
F5.5055375739471425e-05
sVcbt
p2017
F0.0
sVformulation
p2018
F0.0
sVmelatonin
p2019
F0.0
sVwithdrawal
p2020
F0.0
sVneurotransmitters
p2021
F0.0
sVabyss
p2022
F0.00014231608174964693
sVassessing
p2023
F0.0
sVcooked
p2024
F8.726070601017552e-05
sVbiochemistry
p2025
F0.0
sVdiarrhea
p2026
F0.0004269482452489408
sVaromatic
p2027
F0.00014231608174964693
sVgraduate
p2028
F0.00014231608174964693
sVsupplementing
p2029
F0.0
sV5
p2030
F0.0002461847867749983
sVm9re
p2031
F0.0
sVforcing
p2032
F0.00014231608174964693
sVcoughing
p2033
F0.00014231608174964693
sVpoor
p2034
F1.4481458045588132e-05
sVrequested
p2035
F8.726070601017552e-05
sVeurope
p2036
F0.0
sVreleasing
p2037
F0.0004269482452489408
sVxanax
p2038
F0.0
sVpharmaceutically
p2039
F0.0
sVdrift
p2040
F0.0
sVincludes
p2041
F0.00016516612721841428
sVimportant
p2042
F0.0007853463540915797
sVfresh
p2043
F5.5055375739471425e-05
sVincluded
p2044
F0.00026178211803052655
sVhavde
p2045
F0.0
sVdeadline
p2046
F0.00014231608174964693
sVconclusive
p2047
F0.0
sVtricky
p2048
F0.00014231608174964693
sVclinically
p2049
F0.0
sVcalls
p2050
F5.5055375739471425e-05
sVoxiracetam
p2051
F0.0
sVtransporte
p2052
F0.0
sVacids
p2053
F0.0
sVpramiracetam
p2054
F0.0
sVadderrall
p2055
F0.0
sVstacks
p2056
F0.0
sVcarbolines
p2057
F0.0
sVdramatic
p2058
F8.726070601017552e-05
sVhugely
p2059
F0.0
sVbehavioral
p2060
F0.0
sVnumbing
p2061
F0.00014231608174964693
sVoverseas
p2062
F0.0
sVstarting
p2063
F0.00016516612721841428
sVnunca
p2064
F0.0
sVdepropargylated
p2065
F0.0
sVconsider
p2066
F0.00012882132108281633
sVchinese
p2067
F0.0
sVv
p2068
F0.00014231608174964693
sVcaused
p2069
F0.0005235642360610531
sVallergy
p2070
F0.00014231608174964693
sVmonth
p2071
F0.00038646396324844897
sVthoughtful
p2072
F0.00014231608174964693
sVantagonize
p2073
F0.0
sVzinc
p2074
F0.0
sVinvariably
p2075
F0.0
sVfollow
p2076
F3.220533027070408e-05
sValt
p2077
F8.726070601017552e-05
sVwakefulness
p2078
F0.0
sVstrategy
p2079
F0.00014231608174964693
sVchildren
p2080
F5.5055375739471425e-05
sVcauses
p2081
F0.0003490428240407021
sVreluctant
p2082
F0.0
sVrd
p2083
F0.0
sVreferring
p2084
F8.726070601017552e-05
sVtv
p2085
F0.00014231608174964693
sVwatch
p2086
F0.0
sVwhite
p2087
F6.441066054140817e-05
sVtr
p2088
F0.00014231608174964693
sVparticipants
p2089
F0.0
sVextraneous
p2090
F0.00014231608174964693
sVtl
p2091
F0.0
sVprogram
p2092
F8.726070601017552e-05
sVsmile
p2093
F0.00017452141202035104
sVenjoying
p2094
F8.726070601017552e-05
sVcgi
p2095
F0.00014231608174964693
sVcase
p2096
F0.0006441066054140816
sV697901
p2097
F0.0
sVok
p2098
F5.5055375739471425e-05
sVsunifiram
p2099
F0.0
sVfar
p2100
F0.0003475549930941152
sVhorror
p2101
F0.00028463216349929385
sVfaq
p2102
F0.0
sVfat
p2103
F0.00017452141202035104
sVoccasionally
p2104
F0.00011011075147894285
sVpuzzles
p2105
F0.0
sVpsychologist
p2106
F0.0
sVmirapex
p2107
F0.0
sVcorsets
p2108
F0.0
sVsublingually
p2109
F0.0
sVdecide
p2110
F0.00026178211803052655
sVfall
p2111
F8.726070601017552e-05
sVsourly
p2112
F0.0
sVdifference
p2113
F0.00017452141202035104
sVcondition
p2114
F0.00016516612721841428
sVfald
p2115
F0.0
sVtreating
p2116
F0.0009962125722475287
sVmotor
p2117
F0.00014231608174964693
sVinduced
p2118
F0.0
sVpotentiation
p2119
F0.0
sVkava
p2120
F0.0
sVlist
p2121
F0.00016516612721841428
sVapplicable
p2122
F0.0
sVnoradrenergics
p2123
F0.0
sVlarge
p2124
F0.0
sVsupplement
p2125
F0.0
sVsedation
p2126
F0.0
sVsmall
p2127
F5.792583218235253e-05
sVbiological
p2128
F0.0
sVrats
p2129
F0.0004269482452489408
sVremeron
p2130
F0.0
sVmethodical
p2131
F0.0
sVphenibut
p2132
F0.0
sVlack
p2133
F9.661599081211224e-05
sVpowdered
p2134
F0.0
sVpast
p2135
F0.00022543731189492858
sVgo
p2136
F0.0
sVzero
p2137
F0.00026178211803052655
sVfiber
p2138
F0.0
sVdesign
p2139
F8.726070601017552e-05
sVkunnet
p2140
F0.0
sVlawyer
p2141
F0.00014231608174964693
sVpass
p2142
F6.441066054140817e-05
sVwyeth
p2143
F0.0
sVturning
p2144
F8.726070601017552e-05
sVrnene
p2145
F0.0
sVlla
p2146
F0.0
sVribbon
p2147
F0.0
sVintersection
p2148
F0.0
sVsun
p2149
F9.661599081211224e-05
sVsection
p2150
F0.00017452141202035104
sVdirt
p2151
F0.00017452141202035104
sVstool
p2152
F0.00014231608174964693
sVcaffeine
p2153
F0.0017077929809957632
sVoverload
p2154
F0.0
sVdanmark
p2155
F0.0
sVversion
p2156
F8.726070601017552e-05
sVdisorienting
p2157
F0.0
sVjudicious
p2158
F0.0
sVlearned
p2159
F0.00014231608174964693
sVdiscern
p2160
F0.0
sVracing
p2161
F0.00011011075147894285
sVmethod
p2162
F0.00028463216349929385
sVextention
p2163
F0.00014231608174964693
sVmovement
p2164
F5.5055375739471425e-05
sVhasn
p2165
F6.441066054140817e-05
sVfull
p2166
F0.0
sVwrangling
p2167
F0.0
sVenantiomers
p2168
F0.0
sVhungover
p2169
F0.0
sVfuld
p2170
F0.0
sVcomponent
p2171
F0.00017452141202035104
sVsupposedly
p2172
F0.0004269482452489408
sVoveractive
p2173
F0.0
sVvomiting
p2174
F0.00014231608174964693
sVhours
p2175
F0.00038646396324844897
sVtage
p2176
F0.0
sVshouldn
p2177
F0.00011011075147894285
sVvarenicline
p2178
F0.0
sVthreads
p2179
F0.0
sVexcess
p2180
F0.00026178211803052655
sVunbinds
p2181
F0.0
sVepitome
p2182
F0.0
sVstrong
p2183
F0.0002202215029578857
sVrespect
p2184
F0.00011011075147894285
sVevery
p2185
F0.0001737774965470576
sV900
p2186
F0.0
sVantagonizing
p2187
F0.0
sVcreeps
p2188
F0.0
sVahead
p2189
F0.00016516612721841428
sVmdma
p2190
F0.0
sVske
p2191
F0.0
sVallows
p2192
F0.00014231608174964693
sVexperimenting
p2193
F0.0
sVexperience
p2194
F0.0010471284721221062
sVrefinar
p2195
F0.0
sVprior
p2196
F0.0009962125722475287
sVamount
p2197
F0.00033033225443682856
sVsupplements
p2198
F0.0
sV9mg
p2199
F0.0
sVsocial
p2200
F0.00019323198162422449
sVclinical_significance
p2201
F0.0
sVschtick
p2202
F0.0
sVtoxicity
p2203
F0.0
sVoptions
p2204
F0.00043630353005087757
sV1521307
p2205
F0.0
sVheadache
p2206
F0.0015654768992461165
sVvia
p2207
F0.00028463216349929385
sVfollowed
p2208
F5.5055375739471425e-05
sVverbose
p2209
F0.0
sVfamily
p2210
F0.00027527687869735714
sVagomelatine
p2211
F0.0
sVpsychosis
p2212
F0.0
sVglycinate
p2213
F0.0
sVvil
p2214
F0.0
sVemptied
p2215
F0.0
sVput
p2216
F0.0001737774965470576
sVseroquel
p2217
F0.0
sVvit
p2218
F0.0
sVsuits
p2219
F0.00014231608174964693
sVarmed
p2220
F0.00014231608174964693
sVreadily
p2221
F0.0
sVswastikas
p2222
F0.0
sVeye
p2223
F0.0005235642360610531
sVtakes
p2224
F0.00022543731189492858
sVtriggering
p2225
F0.0
sVprobabilities
p2226
F0.0
sVobjectives
p2227
F0.0
sVcontains
p2228
F0.0003490428240407021
sVtwo
p2229
F0.0
sVarchives
p2230
F0.0
sVensablado
p2231
F0.0
sV6
p2232
F0.00010137020631911693
sVtaken
p2233
F0.0001737774965470576
sVminor
p2234
F0.00016516612721841428
sV12333
p2235
F0.0
sVtryna
p2236
F0.00014231608174964693
sVnomas
p2237
F0.0
sVdosages
p2238
F0.0
sVsubstances
p2239
F0.0007115804087482347
sVcompany
p2240
F1.4481458045588132e-05
sVforuds
p2241
F0.0
sVsite
p2242
F5.5055375739471425e-05
sVtested
p2243
F0.00014231608174964693
sVstudere
p2244
F0.0
sVbasically
p2245
F0.0009962125722475287
sVbroke
p2246
F5.5055375739471425e-05
sVparticular
p2247
F0.00028984797243633673
sVknown
p2248
F0.00019323198162422449
sVemsamblarlos
p2249
F0.0
sVsleeping
p2250
F0.00026178211803052655
sVnineteen
p2251
F8.726070601017552e-05
sVkaraoke
p2252
F0.00014231608174964693
sVglad
p2253
F3.220533027070408e-05
sVdex
p2254
F0.0
sVweighed
p2255
F0.0
sVnone
p2256
F0.00016516612721841428
sVinclude
p2257
F0.0009598677661119307
sVhour
p2258
F0.00011011075147894285
sVdep
p2259
F0.0
sVrecall
p2260
F0.0005692643269985877
sVder
p2261
F0.0
sVdet
p2262
F0.0
sVremain
p2263
F8.726070601017552e-05
sVparagraph
p2264
F0.0
sVnine
p2265
F3.220533027070408e-05
sVsent
p2266
F1.4481458045588132e-05
sVden
p2267
F0.00043630353005087757
sVlearn
p2268
F0.00014231608174964693
sVindtil
p2269
F0.0
sVstrategies
p2270
F0.0
sVtianeptine
p2271
F0.0
sVmirtazapine
p2272
F0.0
sVcompare
p2273
F0.00017452141202035104
sVantagonists
p2274
F0.0
sVchallenging
p2275
F0.00014231608174964693
sVshare
p2276
F3.220533027070408e-05
sVashwaghanda
p2277
F0.0
sVterrible
p2278
F0.00011011075147894285
sVcollision
p2279
F0.0
sVminimum
p2280
F8.726070601017552e-05
sVnumbers
p2281
F0.00017452141202035104
sVsense
p2282
F2.8962916091176263e-05
sVexclude
p2283
F0.00014231608174964693
sVlacks
p2284
F8.726070601017552e-05
sVbpap
p2285
F0.0
sVsalts
p2286
F0.0
sVaxis
p2287
F0.0
sVchores
p2288
F0.00014231608174964693
sVinformation
p2289
F0.00043630353005087757
sVneeds
p2290
F0.0
sVstim
p2291
F0.0
sVcomponentes
p2292
F0.0
sVrather
p2293
F0.0003220533027070408
sVacts
p2294
F0.00026178211803052655
sVshipped
p2295
F0.00014231608174964693
sVnarcolepsy
p2296
F0.00014231608174964693
sVundervisningen
p2297
F0.0
sVchorea
p2298
F0.0
sVparkinsons
p2299
F0.0
sVlift
p2300
F0.0003490428240407021
sVspotted
p2301
F0.00014231608174964693
sVreject
p2302
F0.00014231608174964693
sVingesting
p2303
F0.0
sVfr
p2304
F0.00028463216349929385
sVsemax
p2305
F0.0
sVokay
p2306
F0.00017452141202035104
sVintended
p2307
F0.0
sVfx
p2308
F0.0
sVadvice
p2309
F0.00014231608174964693
sVmissions
p2310
F0.0
sVderived
p2311
F0.0
sVdifferent
p2312
F0.00041866929351915303
sVbrintellix
p2313
F0.0
sVtries
p2314
F5.5055375739471425e-05
sVmaprotiline
p2315
F0.0
sVlighting
p2316
F0.00014231608174964693
sVblood
p2317
F0.0006056091331341858
sVnumb
p2318
F0.0
sVcoming
p2319
F2.8962916091176263e-05
sVdevelop
p2320
F0.0003490428240407021
sVvidenskabeligt
p2321
F0.0
sV10btc
p2322
F0.0
sVresponse
p2323
F0.0014231608174964693
sVrefuse
p2324
F5.5055375739471425e-05
sVgithub
p2325
F0.0
sVmorphine
p2326
F0.00014231608174964693
sVselegeline
p2327
F0.0
sVenzymes
p2328
F0.0
sVplateau
p2329
F0.0
sVsupervision
p2330
F0.0
sVperhaps
p2331
F0.0008726070601017551
sVego
p2332
F0.0
sVfundamental
p2333
F0.0
sVsaphris
p2334
F0.0
sVpleasure
p2335
F0.0002202215029578857
sVlasting
p2336
F0.00014231608174964693
sVplaying
p2337
F0.00011011075147894285
sVhelp
p2338
F0.0003909993672308796
sVessence
p2339
F0.0
sVslouch
p2340
F0.0
sVsoon
p2341
F2.8962916091176263e-05
sVreverberate
p2342
F0.0
sVpaper
p2343
F0.00011011075147894285
sVrestore
p2344
F0.00014231608174964693
sVsigns
p2345
F0.00011011075147894285
sVhell
p2346
F0.00033033225443682856
sVsuffer
p2347
F0.00017452141202035104
sVconfounded
p2348
F0.0
sVcardiovascular
p2349
F0.0
sV24
p2350
F5.5055375739471425e-05
sV25
p2351
F0.0004404430059157714
sVpotentiating
p2352
F0.0
sV27
p2353
F5.5055375739471425e-05
sV20
p2354
F0.0001303331224102932
sV21
p2355
F5.5055375739471425e-05
sV22
p2356
F5.5055375739471425e-05
sVadverse
p2357
F0.0
sVsusceptible
p2358
F0.0
sVpcp
p2359
F0.0
sVsolving
p2360
F0.0
sVselenium
p2361
F0.0
sV29
p2362
F8.726070601017552e-05
sVpct
p2363
F0.0
sVactually
p2364
F0.00018825895459264572
sVsymptoms
p2365
F0.0
sVresort
p2366
F0.0
sVdetected
p2367
F0.00014231608174964693
sVpharmacotherapy
p2368
F0.0
sVargentino
p2369
F0.0
sVbypass
p2370
F0.00028463216349929385
sVneuroprotective
p2371
F0.0
sVamitriptyline
p2372
F0.0
sVhvor
p2373
F0.0
sVbout
p2374
F0.00014231608174964693
sVmight
p2375
F0.00036203645113970333
sValter
p2376
F0.0
sVally
p2377
F0.0
sVwouldn
p2378
F9.661599081211224e-05
sVgood
p2379
F0.0
sVabandons
p2380
F0.00014231608174964693
sVseeking
p2381
F0.00014231608174964693
sVfood
p2382
F0.00019323198162422449
sVlibido
p2383
F0.0
sVimpossible
p2384
F8.726070601017552e-05
sVveggie
p2385
F0.0
sVmonolaurin
p2386
F0.0
sVcompound
p2387
F0.0
sVfoot
p2388
F5.5055375739471425e-05
sVcopious
p2389
F0.0
sVcomplain
p2390
F8.726070601017552e-05
sVinstructions
p2391
F0.00014231608174964693
sVmystery
p2392
F0.0
sVeasily
p2393
F0.00019323198162422449
sVht
p2394
F0.0
sValways
p2395
F0.0
sV2x
p2396
F0.0
sVaspudden
p2397
F0.0
sVsomeone
p2398
F0.0
sV2g
p2399
F0.0
sVstopped
p2400
F0.0006606645088736571
sVturns
p2401
F6.441066054140817e-05
sVfound
p2402
F0.0003041106189573508
sV22btc
p2403
F0.0
sVincoordination
p2404
F0.0
sVdosed
p2405
F0.0
sVweek
p2406
F0.0008808860118315428
sVeveryone
p2407
F0.00011011075147894285
sVmental
p2408
F0.0007115804087482347
sV300mg
p2409
F0.0
sVneedless
p2410
F0.0
sVgeneration
p2411
F0.0
sVposts
p2412
F0.00028463216349929385
sVenergy
p2413
F0.00185010906274541
sVhard
p2414
F0.00025764264216563266
sVreduce
p2415
F0.00043630353005087757
sVidea
p2416
F7.240729022794067e-05
sVused
p2417
F0.0011915972200160511
sVorally
p2418
F0.0
sVengaging
p2419
F0.00014231608174964693
sVextended
p2420
F0.00014231608174964693
sVexpect
p2421
F2.8962916091176263e-05
sVdoses
p2422
F0.0
sVbalance
p2423
F0.0004269482452489408
sVtodo
p2424
F0.0
sVinsurance
p2425
F0.0009962125722475287
sVperfectionism
p2426
F0.0
sVovermodent
p2427
F0.0
sVpsychology
p2428
F0.00014231608174964693
sVwondered
p2429
F5.5055375739471425e-05
sVsince
p2430
F0.00031859207700293894
sVinduces
p2431
F0.0
sVresearch
p2432
F0.0014231608174964693
sVsi
p2433
F0.0
sVacting
p2434
F0.00026178211803052655
sVhealth
p2435
F0.0007115804087482347
sVresearched
p2436
F0.0
sV7
p2437
F0.00019323198162422449
sVcompounding
p2438
F0.0
sVpristiq
p2439
F0.0
sVissue
p2440
F0.00027527687869735714
sVmercury
p2441
F0.0
sVbald
p2442
F0.00014231608174964693
sVbelief
p2443
F0.0
sVcircumstance
p2444
F0.00014231608174964693
sVhydroxyzine
p2445
F0.0
sVmoclobemide
p2446
F0.0
sVribose
p2447
F0.0
sVguess
p2448
F0.00033033225443682856
sVissue_with_generic_bioequivalence
p2449
F0.0
sVeffect
p2450
F0.00033307353504852705
sVgeared
p2451
F0.0
sVdifficulty
p2452
F0.00028463216349929385
sVreason
p2453
F0.0003542586329777449
sVheroin
p2454
F0.00014231608174964693
sValzheimer
p2455
F0.0
sVask
p2456
F5.792583218235253e-05
sVtudet
p2457
F0.0
sVash
p2458
F0.0
sVbeginning
p2459
F4.34443741367644e-05
sVgenerate
p2460
F0.00028463216349929385
sVbenefits
p2461
F0.0011385286539971754
sVnortriptyline
p2462
F0.0
sVneeding
p2463
F0.00014231608174964693
sVacetyl
p2464
F0.0
sVexpecting
p2465
F5.5055375739471425e-05
sVw
p2466
F0.00027527687869735714
sVbupropion
p2467
F0.0
sVmajor
p2468
F0.00025764264216563266
sVterrifyingly
p2469
F0.0
sVfeel
p2470
F0.0002317033287294101
sVkristne
p2471
F0.0
sVnumber
p2472
F0.0002202215029578857
sVfancy
p2473
F0.00014231608174964693
sVeuphoric
p2474
F0.0
sVinstances
p2475
F0.00014231608174964693
sVtalked
p2476
F0.00028463216349929385
sVdone
p2477
F5.792583218235253e-05
sV40mg
p2478
F0.0
sVfiction
p2479
F0.00014231608174964693
sVmiss
p2480
F5.792583218235253e-05
sVseveral
p2481
F0.00043630353005087757
sVunexplained
p2482
F0.00014231608174964693
sVheads
p2483
F5.5055375739471425e-05
sVprovagil
p2484
F0.0
sVscript
p2485
F0.00014231608174964693
sVintroduction
p2486
F0.00014231608174964693
sVtwenty
p2487
F0.00011011075147894285
sVinteract
p2488
F0.0005692643269985877
sVleast
p2489
F0.0
sVtradition
p2490
F0.00014231608174964693
sVintense
p2491
F0.0003490428240407021
sVcontra
p2492
F0.0
sVinhibitions
p2493
F0.0
sVpassed
p2494
F3.220533027070408e-05
sV185
p2495
F0.0
sV189
p2496
F0.0
sVstore
p2497
F8.726070601017552e-05
sVobservations
p2498
F0.0
sVimperfect
p2499
F0.0
sVoption
p2500
F0.0004269482452489408
sVrelationship
p2501
F5.5055375739471425e-05
sVbehind
p2502
F1.4481458045588132e-05
sVpramipexole
p2503
F0.0
sVracemic
p2504
F0.0
sVpark
p2505
F0.00014231608174964693
sVdiscover
p2506
F8.726070601017552e-05
sVserotonin
p2507
F0.0
sVpart
p2508
F0.00012882132108281633
sVdrunkenness
p2509
F0.0
sVdoctors
p2510
F0.0004269482452489408
sVbelieve
p2511
F0.00019323198162422449
sValbeit
p2512
F0.0
sVkind
p2513
F0.0
sVb
p2514
F0.001159391889745347
sVyum
p2515
F0.0
sVnovel
p2516
F0.0
sVglutamate
p2517
F0.0
sVgotten
p2518
F0.00028463216349929385
sVinstruction
p2519
F0.00014231608174964693
sVgrey
p2520
F8.726070601017552e-05
sVbreakups
p2521
F0.0
sVmedicate
p2522
F0.0
sVcysteine
p2523
F0.0
sVsupposed
p2524
F0.00016516612721841428
sVsedate
p2525
F8.726070601017552e-05
sVteacrine
p2526
F0.0
sVfasoracetam
p2527
F0.0
sVtreated
p2528
F0.0004404430059157714
sVfasebj
p2529
F0.0
sVladasten
p2530
F0.0
sVtofranil
p2531
F0.0
sVmotivation
p2532
F0.0
sVb6fven
p2533
F0.0
sVpicked
p2534
F0.00014231608174964693
sVexert
p2535
F0.0
sVhtp
p2536
F0.0
sVstefan_l
p2537
F0.0
sVseleginline
p2538
F0.0
sVcategorized
p2539
F0.0
sVgten
p2540
F0.0
sVpharmacokinetics
p2541
F0.0
sVconcentration
p2542
F0.00017452141202035104
sVderfor
p2543
F0.0
sVorders
p2544
F8.726070601017552e-05
sVkarl
p2545
F0.0
sVmountain
p2546
F0.0
sVbreathing
p2547
F0.00017452141202035104
sVnights
p2548
F8.726070601017552e-05
sVmonophosphate
p2549
F0.0
sVpara
p2550
F0.0
sVpotentiated
p2551
F0.0
sVdepending
p2552
F0.002277057307994351
sV21635908
p2553
F0.0
sVself
p2554
F0.00010137020631911693
sVaccumulative
p2555
F0.0
sVlit
p2556
F8.726070601017552e-05
sVthreonate
p2557
F0.0
sVbuild
p2558
F3.220533027070408e-05
sVfinding
p2559
F6.441066054140817e-05
sVselv
p2560
F0.0
sVdrinks
p2561
F0.0005692643269985877
sVcarbidopa
p2562
F0.0
sVrelief
p2563
F0.0
sVplay
p2564
F5.5055375739471425e-05
sVadded
p2565
F0.0006108249420712286
sValleviate
p2566
F0.00028463216349929385
sV12mg
p2567
F0.0
sVreach
p2568
F0.00011011075147894285
sVkan
p2569
F0.0
sVbreaking
p2570
F3.220533027070408e-05
sVreact
p2571
F8.726070601017552e-05
sVcigarette
p2572
F0.00043630353005087757
sV75
p2573
F0.00028463216349929385
sVexperiences
p2574
F0.00017452141202035104
sVplan
p2575
F0.00033033225443682856
sVsignificant
p2576
F0.0008538964904978816
sV70
p2577
F5.5055375739471425e-05
sVpossible
p2578
F0.00025764264216563266
sValpha
p2579
F0.00028463216349929385
sVextremely
p2580
F0.0006108249420712286
sVsamtidigt
p2581
F0.0
sVselegilene
p2582
F0.0
sVbasal
p2583
F0.0
sVreward
p2584
F8.726070601017552e-05
sVkg
p2585
F0.00014231608174964693
sVmobile
p2586
F0.00028463216349929385
sVclear
p2587
F2.8962916091176263e-05
sVsometimes
p2588
F0.00019323198162422449
sVcover
p2589
F9.661599081211224e-05
sVkn
p2590
F0.0
sVtraditional
p2591
F0.00017452141202035104
sVoverdrive
p2592
F0.0
sVweigh
p2593
F8.726070601017552e-05
sVgaba
p2594
F0.0
sVscience
p2595
F8.726070601017552e-05
sVparticularly
p2596
F0.0003490428240407021
sVsomewhat
p2597
F0.0007115804087482347
sVstunned
p2598
F0.00014231608174964693
sVdisturbances
p2599
F0.0
sVtenes
p2600
F0.0
sVmuira
p2601
F0.0
sVcdn
p2602
F0.0
sVdegrades
p2603
F0.0
sVcdp
p2604
F0.0
sVcarefully
p2605
F0.0004269482452489408
sVexcessive
p2606
F0.00011011075147894285
sVfluoxetine
p2607
F0.0
sVchock
p2608
F0.0
sVfine
p2609
F0.0
sVfind
p2610
F0.0
sVimpact
p2611
F0.0
sVcardioprotective
p2612
F0.0
sVrocket
p2613
F0.0
sValprazolam
p2614
F0.0
sVjustice
p2615
F0.00014231608174964693
sVnervous
p2616
F8.726070601017552e-05
sVless
p2617
F0.00015929603850146947
sVdestabilize
p2618
F0.0
sVfailed
p2619
F8.726070601017552e-05
sVidiots
p2620
F0.00014231608174964693
sVexperiment
p2621
F0.00017452141202035104
sVpretty
p2622
F0.0008808860118315428
sVfactor
p2623
F0.0005692643269985877
sV8
p2624
F0.00015929603850146947
sVrasageline
p2625
F0.0
sVaccurate
p2626
F0.00014231608174964693
sVsure
p2627
F0.0007407225962261938
sVchronically
p2628
F0.0
sVhit
p2629
F9.661599081211224e-05
sVgains
p2630
F0.00014231608174964693
sVdependent
p2631
F0.0005692643269985877
sVbluelight
p2632
F0.0
sVgrocery
p2633
F0.00014231608174964693
sVcheaper
p2634
F0.00017452141202035104
sVmethods
p2635
F0.0004269482452489408
sVfeels
p2636
F0.00026178211803052655
sVcourage
p2637
F0.00014231608174964693
sVvaluable
p2638
F8.726070601017552e-05
sVcombinations
p2639
F0.00014231608174964693
sVtipos
p2640
F0.0
sV528
p2641
F0.0
sVmedicines
p2642
F0.0
sVadhering
p2643
F0.0
sVhypo
p2644
F0.0
sVprescribing
p2645
F0.0
sVcommon
p2646
F0.00033033225443682856
sVflushes
p2647
F0.0
sVdouble
p2648
F8.726070601017552e-05
sVsustainable
p2649
F0.0
sVx
p2650
F0.0007115804087482347
sVfundamentalister
p2651
F0.0
sVpoisoned
p2652
F0.00014231608174964693
sVrelentless
p2653
F0.0
sVderhjemme
p2654
F0.0
sVinsane
p2655
F0.00014231608174964693
sVcramp
p2656
F0.0
sVset
p2657
F7.240729022794067e-05
sVconstantly
p2658
F5.5055375739471425e-05
sVdump
p2659
F0.00017452141202035104
sVfinansieret
p2660
F0.0
sVbias
p2661
F0.0
sVintelligence
p2662
F0.0
sVpotent
p2663
F0.0
sVsex
p2664
F0.00017452141202035104
sVskulle
p2665
F0.0
sVsee
p2666
F0.0002461847867749983
sVindividual
p2667
F0.00011011075147894285
sVbare
p2668
F8.726070601017552e-05
sVthistle
p2669
F0.0
sVcleverly
p2670
F0.0
sVsen
p2671
F0.0
sVged
p2672
F0.0
sVanalog
p2673
F0.0
sVbarn
p2674
F0.0004269482452489408
sVvitamins
p2675
F0.0005692643269985877
sVseconded
p2676
F0.0
sVspeed
p2677
F1.4481458045588132e-05
sVwow
p2678
F0.0004269482452489408
sVcurrently
p2679
F0.0004954983816552428
sVplease
p2680
F0.00010137020631911693
sVvas
p2681
F0.0
sVcrossword
p2682
F0.0
sVwon
p2683
F0.0001303331224102932
sVvarious
p2684
F0.00011011075147894285
sVmodulators
p2685
F0.0
sVburned
p2686
F5.5055375739471425e-05
sVrytary
p2687
F0.0
sVnumerous
p2688
F8.726070601017552e-05
sVacutely
p2689
F0.0
sVrisks
p2690
F0.0
sVavailable
p2691
F0.0005505537573947143
sVmilder
p2692
F0.0
sVrhodiola
p2693
F0.0
sVrecently
p2694
F0.00019323198162422449
sVresponses
p2695
F0.0
sVinvestigated
p2696
F0.0
sVfidgety
p2697
F0.0
sVprocesses
p2698
F0.00014231608174964693
sVsold
p2699
F0.00014231608174964693
sVattention
p2700
F9.661599081211224e-05
sVdermatillomania
p2701
F0.0
sVpams
p2702
F0.0
sValertness
p2703
F0.0
sVsneakier
p2704
F0.0
sValters
p2705
F0.0
sV750mg
p2706
F0.0
sVc
p2707
F4.34443741367644e-05
sVtoward
p2708
F0.00026178211803052655
sVimproved
p2709
F0.0003490428240407021
sVreverse
p2710
F5.5055375739471425e-05
sVmega
p2711
F0.0
sVtapered
p2712
F0.0
sVbarely
p2713
F0.00017452141202035104
sVthinking
p2714
F0.00011011075147894285
sVconnection
p2715
F8.726070601017552e-05
sVbecame
p2716
F0.0003490428240407021
sVbuzz
p2717
F8.726070601017552e-05
sVpdf
p2718
F0.0004269482452489408
sVmean
p2719
F6.441066054140817e-05
sVwhole
p2720
F0.00011011075147894285
sVdopaminergic
p2721
F0.0
sVexperimental
p2722
F0.0
sVddes
p2723
F0.0
sVliked
p2724
F0.0003490428240407021
sVregulates
p2725
F0.0
sVsamme
p2726
F0.0
sVpoint
p2727
F0.00010137020631911693
sVsimple
p2728
F4.34443741367644e-05
sVunremitting
p2729
F0.0
sVevaluate
p2730
F0.0
sVlbs
p2731
F0.0
sVcommunity
p2732
F0.0
sV100mg
p2733
F0.0
sVoxidative
p2734
F0.00028463216349929385
sVmstn
p2735
F0.0
sVdietary
p2736
F0.0
sVsimply
p2737
F5.5055375739471425e-05
sVlikes
p2738
F5.5055375739471425e-05
sVunsuccessful
p2739
F0.00014231608174964693
sVthroughout
p2740
F5.5055375739471425e-05
sVmission
p2741
F0.0
sVexpensive
p2742
F0.00033033225443682856
sVheadaches
p2743
F0.0
sV30mg
p2744
F0.0
sVconsuming
p2745
F0.00014231608174964693
sVdescribed
p2746
F0.00017452141202035104
sVraise
p2747
F0.00016516612721841428
sVdealt
p2748
F0.0
sVjackoffknifefighter
p2749
F0.0
sVnader
p2750
F0.0
sVcreate
p2751
F0.00017452141202035104
sVacceptance
p2752
F0.0
sVdue
p2753
F0.0013089105901526329
sVnachr
p2754
F0.0
sVdropping
p2755
F0.00026178211803052655
sVnother
p2756
F0.0
sVmaintenance
p2757
F0.0
sVdonde
p2758
F0.0
sVhtr2a
p2759
F0.0
sVwait
p2760
F0.0001610266513535204
sVempty
p2761
F2.8962916091176263e-05
sVtreatment
p2762
F0.0035579020437411734
sVfirm
p2763
F5.5055375739471425e-05
sVgenerating
p2764
F0.00017452141202035104
sValongside
p2765
F8.726070601017552e-05
sVpartly
p2766
F8.726070601017552e-05
sVj04kim
p2767
F0.0
sVvinegar
p2768
F8.726070601017552e-05
sVfire
p2769
F6.441066054140817e-05
sVyeesh
p2770
F0.0
sVgap
p2771
F0.0004269482452489408
sVwhatever
p2772
F6.441066054140817e-05
sVunderstand
p2773
F2.8962916091176263e-05
sVliver
p2774
F0.0006108249420712286
sVdemand
p2775
F5.5055375739471425e-05
sVprices
p2776
F0.0
sVdespite
p2777
F0.00012882132108281633
sVlamotrigine
p2778
F0.0
sVstruck
p2779
F0.00014231608174964693
sVk2
p2780
F0.0
sVintriguing
p2781
F0.00014231608174964693
sVadvocating
p2782
F0.0
sVlook
p2783
F0.00018825895459264572
sVtalking
p2784
F0.0007115804087482347
sVsolid
p2785
F0.00026178211803052655
sVstraight
p2786
F1.4481458045588132e-05
sVtolerate
p2787
F0.0
sVeuthymia
p2788
F0.0
sVcoq10
p2789
F0.0
sVsesame
p2790
F0.00014231608174964693
sVprecursor
p2791
F0.0
sVcyp2c19
p2792
F0.0
sVhomework
p2793
F0.00014231608174964693
sVrigour
p2794
F0.0
sVerror
p2795
F0.00014231608174964693
sVfun
p2796
F3.220533027070408e-05
sVvirgina
p2797
F0.0
sVpack
p2798
F6.441066054140817e-05
sVscheduled
p2799
F0.00028463216349929385
sV30
p2800
F0.0003220533027070408
sVhoping
p2801
F0.0005692643269985877
sVagitation
p2802
F0.0
sVcents
p2803
F0.00014231608174964693
sVguilty
p2804
F0.00014231608174964693
sVoverlooked
p2805
F0.0
sVbinding
p2806
F0.00026178211803052655
sVjpg
p2807
F0.00017452141202035104
sVdestabilization
p2808
F0.0
sVneurons
p2809
F0.00014231608174964693
sVstubbornly
p2810
F0.0
sVeczema
p2811
F0.0
sVdmt
p2812
F0.0
sVrid
p2813
F8.726070601017552e-05
sVadulted
p2814
F0.0
sVbdnf
p2815
F0.0
sVbaseline
p2816
F0.0005692643269985877
sVldrene
p2817
F0.0
sVsuggests
p2818
F0.00017452141202035104
sVmigraine
p2819
F0.0
sVwhiny
p2820
F0.0
sVelevated
p2821
F0.0
sVfading
p2822
F0.00014231608174964693
sVbenign
p2823
F0.00014231608174964693
sVstimulated
p2824
F0.0
sVautopsies
p2825
F0.0
sV9
p2826
F0.00022543731189492858
sVadvise
p2827
F0.0
sVattack
p2828
F0.0001610266513535204
sVyucca
p2829
F0.0
sVinsulin
p2830
F0.0
sVdevelopment
p2831
F8.726070601017552e-05
sVliterature
p2832
F0.00014231608174964693
sVslyr
p2833
F0.0
sVfatty
p2834
F0.00014231608174964693
sVlie
p2835
F5.5055375739471425e-05
sVcomprehensive
p2836
F0.0
sVdepersonalization
p2837
F0.0
sVassessment
p2838
F0.00028463216349929385
sVyesterday
p2839
F0.0004269482452489408
sVcrushed
p2840
F0.00014231608174964693
sVprincipally
p2841
F0.0
sVmoment
p2842
F5.792583218235253e-05
sVlevels
p2843
F0.00185010906274541
sVuses
p2844
F0.0002202215029578857
sVcleaning
p2845
F8.726070601017552e-05
sVbromo
p2846
F0.0
sVrobust
p2847
F8.726070601017552e-05
sVstack
p2848
F0.0011385286539971754
sVrecent
p2849
F0.00017452141202035104
sVhows
p2850
F0.0
sVsafe
p2851
F0.0004404430059157714
sVgene
p2852
F0.00028463216349929385
sVolder
p2853
F6.441066054140817e-05
sVrules
p2854
F8.726070601017552e-05
sVurgency
p2855
F0.0
sVanalysis
p2856
F0.00014231608174964693
sVmaker
p2857
F0.0
sVperson
p2858
F0.0001610266513535204
sVedge
p2859
F3.220533027070408e-05
sVy
p2860
F0.00019323198162422449
sVentry
p2861
F0.00026178211803052655
sVclearance
p2862
F0.0
sVgrossly
p2863
F0.0
sVknow
p2864
F0.0005937397798691134
sVchord
p2865
F0.00014231608174964693
sVslc6a4
p2866
F0.0
sVsnow
p2867
F0.00014231608174964693
sVinactive
p2868
F0.00014231608174964693
sVquestions
p2869
F0.00011011075147894285
sVusing
p2870
F0.00038646396324844897
sVregardless
p2871
F0.00028463216349929385
sValternative
p2872
F0.0005235642360610531
sVbliver
p2873
F0.0
sVcut
p2874
F4.34443741367644e-05
sVhelping
p2875
F0.00016516612721841428
sVreaders
p2876
F0.0
sVhated
p2877
F0.00014231608174964693
sVworkers
p2878
F8.726070601017552e-05
sVlongecity
p2879
F0.0
sVguaranteed
p2880
F0.0
sVindoktrineret
p2881
F0.0
sVsignals
p2882
F0.00014231608174964693
sVeager
p2883
F0.0
sVbenzedrine
p2884
F0.0
sVsubjects
p2885
F0.0
sVparents
p2886
F0.00014231608174964693
sVquestioned
p2887
F0.0
sVcrying
p2888
F8.726070601017552e-05
sVproblematic
p2889
F0.00014231608174964693
sVintruding
p2890
F0.0
sVganglia
p2891
F0.0
sVe_for_ecstasy
p2892
F0.0
sVsurprised
p2893
F5.5055375739471425e-05
sVuseless
p2894
F0.00028463216349929385
sVvictims
p2895
F0.0
sVemergency
p2896
F0.0004269482452489408
sVacute
p2897
F0.0
sVbig
p2898
F2.8962916091176263e-05
sVbid
p2899
F8.726070601017552e-05
sVadvocate
p2900
F0.0
sVadrafinil
p2901
F0.0
sVjudgement
p2902
F0.00014231608174964693
sVshitty
p2903
F0.00014231608174964693
sVexpecially
p2904
F0.0
sVhallucinations
p2905
F0.0
sVnecessary
p2906
F6.441066054140817e-05
sVbit
p2907
F0.00018825895459264572
sVstable
p2908
F0.00014231608174964693
sVeffexor
p2909
F0.0
sVhelpful
p2910
F0.0008538964904978816
sVstimulators
p2911
F0.0
sVmodifications
p2912
F0.00014231608174964693
sVpromising
p2913
F0.00028463216349929385
sVd
p2914
F0.0
sVenvisioned
p2915
F0.0
sVsignal
p2916
F8.726070601017552e-05
sVseemingly
p2917
F0.00014231608174964693
sVmanifest
p2918
F0.00014231608174964693
sVcollect
p2919
F0.0
sVzoloft
p2920
F0.0
sVindividuals
p2921
F0.0
sVunstable
p2922
F0.00028463216349929385
sVpopular
p2923
F0.00028463216349929385
sVprrvious
p2924
F0.0
sVdisorder
p2925
F0.0007115804087482347
sVptsd
p2926
F0.0
sVmcts
p2927
F0.0
sVmathematical
p2928
F0.0
sVgoogle
p2929
F0.00026178211803052655
sVoften
p2930
F0.0002202215029578857
sVabsolutely
p2931
F0.00012882132108281633
sVspring
p2932
F5.5055375739471425e-05
sVnmethyl_npropynyl2phenylethylamine_mppe_a
p2933
F0.0
sVback
p2934
F0.000217221870683822
sVautophagy
p2935
F0.0
sVunderstood
p2936
F0.00028463216349929385
sVstrongest
p2937
F0.00014231608174964693
sVtowards
p2938
F5.792583218235253e-05
sVpricing
p2939
F0.0
sVcurious
p2940
F9.661599081211224e-05
sVdisinclines
p2941
F0.0
sVvenderlo
p2942
F0.0
sVsufficient
p2943
F0.0
sVeasygoing
p2944
F0.00014231608174964693
sVpronounced
p2945
F5.5055375739471425e-05
sVgradually
p2946
F0.0
sVscale
p2947
F0.00017452141202035104
sVpet
p2948
F0.00014231608174964693
sVaffects
p2949
F8.726070601017552e-05
sVdecision
p2950
F5.5055375739471425e-05
sVintegration
p2951
F0.00014231608174964693
sVper
p2952
F0.0008726070601017551
sVcrisis
p2953
F0.0
sVenergic
p2954
F0.0
sVsolidified
p2955
F0.0
sVbehave
p2956
F8.726070601017552e-05
sVticking
p2957
F0.0
sVquote
p2958
F8.726070601017552e-05
sVprod
p2959
F0.0
sVpea
p2960
F0.0015654768992461165
sVminimal
p2961
F0.0
sVbuspar
p2962
F0.0
sVinhibitors
p2963
F0.0
sVvarying
p2964
F0.00014231608174964693
sVreplaced
p2965
F8.726070601017552e-05
sVpatient
p2966
F0.00014231608174964693
sVprofessionals
p2967
F0.0
sVtaxing
p2968
F0.0
sVlose
p2969
F4.34443741367644e-05
sVsubconscious
p2970
F0.0
sVstep
p2971
F3.220533027070408e-05
sVtcas
p2972
F0.0
sVordning
p2973
F0.0
sVnowhere
p2974
F0.00014231608174964693
sVlasts
p2975
F8.726070601017552e-05
sVbecome
p2976
F2.8962916091176263e-05
sVbuccal
p2977
F0.0
sVrelearned
p2978
F0.0
sVhypomanias
p2979
F0.0
sVoptimize
p2980
F0.0
sV3t39ar
p2981
F0.0
sVprimrose
p2982
F0.0
sVpipeline
p2983
F0.0
sVanything
p2984
F0.000217221870683822
sVglaucoma
p2985
F0.0
sVrange
p2986
F9.661599081211224e-05
sVlinezolid
p2987
F0.0
sVnicotine
p2988
F0.0
sVinhibits
p2989
F0.0
sVillegal
p2990
F0.00014231608174964693
sVwonders
p2991
F0.0
sVmodaf
p2992
F0.0
sVndet
p2993
F0.0
sVsilence
p2994
F5.5055375739471425e-05
sVrecommended
p2995
F0.00028463216349929385
sVinte
p2996
F0.0
sVnsi
p2997
F0.0
sVmaca
p2998
F0.0
sVdude
p2999
F0.00014231608174964693
sVmommy
p3000
F0.00014231608174964693
sVscripts
p3001
F0.00014231608174964693
sVnonsense
p3002
F0.0
sVnothing
p3003
F0.0001737774965470576
sVappropriate
p3004
F0.00028463216349929385
sVmitochondrial
p3005
F0.0
sVgeneralized
p3006
F0.00014231608174964693
sVprimarily
p3007
F0.0
sVveggiefitness
p3008
F0.0
sVmethylene
p3009
F0.0
sVreabsorbed
p3010
F0.0
sVspan
p3011
F0.00014231608174964693
sVklynke
p3012
F0.0
sVtasting
p3013
F8.726070601017552e-05
sVspending
p3014
F0.00014231608174964693
sVunorthodox
p3015
F0.0
sVquestion
p3016
F0.0001610266513535204
sVfast
p3017
F0.00012882132108281633
sVapproved
p3018
F0.0
sVdealing
p3019
F0.0004269482452489408
sVvendors
p3020
F0.0
sVtransdermally
p3021
F0.0
sVforward
p3022
F0.0
sVgrew
p3023
F0.00014231608174964693
sVpodes
p3024
F0.0
sVswapped
p3025
F0.00014231608174964693
sVfiles
p3026
F0.00028463216349929385
sVadjusting
p3027
F0.0
sVpsychoactive
p3028
F0.0
sVginkgo
p3029
F0.0
sVsubjectively
p3030
F0.0
sVlink
p3031
F0.00026178211803052655
sVrepeatedly
p3032
F8.726070601017552e-05
sVnewer
p3033
F0.0004269482452489408
sVsick
p3034
F0.00028463216349929385
sVline
p3035
F6.441066054140817e-05
sV985
p3036
F0.0
sVconsiderable
p3037
F8.726070601017552e-05
sVraising
p3038
F8.726070601017552e-05
sVinfo
p3039
F0.0011385286539971754
sVinverse
p3040
F0.00014231608174964693
sVdicearx
p3041
F0.0
sVrejection
p3042
F0.0
sVnoradrenaline
p3043
F0.0
sVus
p3044
F0.00011585166436470505
sVprep
p3045
F0.0
sVpaired
p3046
F0.0
sVun
p3047
F9.661599081211224e-05
sVaccustomed
p3048
F0.0
sVuh
p3049
F0.00011011075147894285
sVuk
p3050
F0.00028463216349929385
sVischemic
p3051
F0.0
sVsimilar
p3052
F0.00025764264216563266
sVcalled
p3053
F0.0001610266513535204
sVparoxetine
p3054
F0.0
sVludiomil
p3055
F0.0
sVassociated
p3056
F0.0017077929809957632
sVhinanden
p3057
F0.0
sVanhedonia
p3058
F0.0
sVunsafe
p3059
F0.00014231608174964693
sVtogether
p3060
F0.0
sVmetals
p3061
F0.0
sVsingle
p3062
F5.792583218235253e-05
sVcure
p3063
F0.00028463216349929385
sVevening
p3064
F0.00026178211803052655
sVreuptake
p3065
F0.0
sVpsychopath
p3066
F0.0
sVstruggled
p3067
F0.0
sVtyskland
p3068
F0.0
sVtic
p3069
F0.0
sVamounts
p3070
F0.00043630353005087757
sVeller
p3071
F0.0
sVnah
p3072
F0.00014231608174964693
sVmellem
p3073
F0.0
sVoccasional
p3074
F0.0
sVmydriasis
p3075
F0.0
sVawoke
p3076
F0.0
sVdefinitely
p3077
F0.0003853876301763
sVb12
p3078
F0.0
sVellen
p3079
F0.0
sVdepartment
p3080
F0.00028463216349929385
sVnice
p3081
F0.0
sVusers
p3082
F0.00028463216349929385
sVmaois
p3083
F0.0
sVativan
p3084
F0.0
sVpharmacologist
p3085
F0.0
sVregulations
p3086
F0.00014231608174964693
sVritalins
p3087
F0.0
sVeks
p3088
F0.0
sVallowing
p3089
F5.5055375739471425e-05
sVclue
p3090
F8.726070601017552e-05
sVamphetamine
p3091
F0.0
sVmeals
p3092
F0.00014231608174964693
sVfeasible
p3093
F0.00014231608174964693
sVago
p3094
F0.0008726070601017551
sVe
p3095
F0.00010137020631911693
sVffat
p3096
F0.0
sVmetabolize
p3097
F0.0
sVrequired
p3098
F0.00017452141202035104
sVresolving
p3099
F0.00014231608174964693
sVimpatient
p3100
F0.00014231608174964693
sV2003
p3101
F8.726070601017552e-05
sV2007
p3102
F0.0
sVenzymated
p3103
F0.0
sVbroad
p3104
F8.726070601017552e-05
sVfailures
p3105
F0.00014231608174964693
sVjoining
p3106
F8.726070601017552e-05
sVscroll
p3107
F0.00014231608174964693
sVinitiating
p3108
F0.0
sVcode
p3109
F8.726070601017552e-05
sVpartial
p3110
F0.0004269482452489408
sVresults
p3111
F0.0006980856480814042
sVexisting
p3112
F0.00014231608174964693
sVhelped
p3113
F0.0011343891781322817
sVhepatitis
p3114
F0.00014231608174964693
sVcoluracetam
p3115
F0.0
sVedu
p3116
F0.00028463216349929385
sVpdocs
p3117
F0.0
sVpsycho
p3118
F0.00014231608174964693
sVconversation
p3119
F3.220533027070408e-05
sVcenters
p3120
F0.00014231608174964693
sVissues
p3121
F0.0006980856480814042
sVseemed
p3122
F0.00022543731189492858
sVcompose
p3123
F0.00014231608174964693
sVprodrug
p3124
F0.0
sVconcerned
p3125
F0.00017452141202035104
sVanergic
p3126
F0.0
sVyoung
p3127
F1.4481458045588132e-05
sVsend
p3128
F9.661599081211224e-05
sVmisanthropic
p3129
F0.0
sVlower
p3130
F0.00028984797243633673
sVtopic
p3131
F8.726070601017552e-05
sVsqueezing
p3132
F0.00014231608174964693
sVhelps
p3133
F0.0006108249420712286
sVlate
p3134
F3.220533027070408e-05
sVmonoamine
p3135
F0.0
sVfatal
p3136
F0.00026178211803052655
sVunsettling
p3137
F0.0
sVresources
p3138
F0.00017452141202035104
sVinflammation
p3139
F0.0
sVconfirmation
p3140
F0.00014231608174964693
sVmainstream
p3141
F0.00014231608174964693
sVtorture
p3142
F0.00014231608174964693
sVoutside
p3143
F4.34443741367644e-05
sVcostos
p3144
F0.0
sVconditions
p3145
F0.00014231608174964693
sVwe00523152
p3146
F0.0
sVheard
p3147
F0.00025764264216563266
sVstabilized
p3148
F0.0
sVputting
p3149
F3.220533027070408e-05
sValcar
p3150
F0.0
sVmixing
p3151
F0.00028463216349929385
sVartery
p3152
F0.0
sVdrinking
p3153
F0.00011011075147894285
sVenfp
p3154
F0.0
sVcontinued
p3155
F0.0
sVcategories
p3156
F0.0
sVnausea
p3157
F0.0
sVentire
p3158
F0.00016516612721841428
sVfastfood
p3159
F0.0
sVantihistaminergic
p3160
F0.0
sVexperiencing
p3161
F0.0
sVforpligtelser
p3162
F0.0
sVtrd
p3163
F0.0
sVfewer
p3164
F0.00028463216349929385
sVtry
p3165
F0.0005213324896411728
sVthreat
p3166
F0.0
sVswallow
p3167
F0.00017452141202035104
sVcar
p3168
F5.5055375739471425e-05
sVinhibtion
p3169
F0.0
sVefficacious
p3170
F0.0
sVlimitations
p3171
F0.0
sVsmaller
p3172
F5.5055375739471425e-05
sVplows
p3173
F0.0
sVeducators
p3174
F0.0
sVbleeding
p3175
F0.00028463216349929385
sVtemporary
p3176
F0.0004269482452489408
sVods
p3177
F0.0
sVmalice
p3178
F0.0
sVwaking
p3179
F0.00017452141202035104
sVequation
p3180
F0.0
sVhindu
p3181
F0.0
sVlogistica
p3182
F0.0
sVuncomfortable
p3183
F0.0004269482452489408
sVruled
p3184
F0.00028463216349929385
sVacid
p3185
F0.0008726070601017551
sVodd
p3186
F0.00012882132108281633
sVsina
p3187
F0.0
sVturn
p3188
F6.441066054140817e-05
sV10bpm
p3189
F0.0
sVdeveloped
p3190
F0.0
sVbusiness
p3191
F1.4481458045588132e-05
sVrate
p3192
F0.0003490428240407021
sVgiving
p3193
F3.220533027070408e-05
sVmarketed
p3194
F0.0
sVskr
p3195
F0.0
sVexacerbate
p3196
F0.0
sVoverwhelmed
p3197
F0.00014231608174964693
sVunhelpful
p3198
F8.726070601017552e-05
sVconsistently
p3199
F0.00014231608174964693
sVwaiting
p3200
F3.220533027070408e-05
sVindian
p3201
F0.0
sVhuperzine
p3202
F0.0
sVpristine
p3203
F0.0
sVsastre
p3204
F0.0
sVgamle
p3205
F0.0
sVoriginalpostsearcher
p3206
F0.0
sVbody
p3207
F0.00018825895459264572
sVrdagen
p3208
F0.0
sVchose
p3209
F0.00014231608174964693
sVdegree
p3210
F0.00017452141202035104
sVescitralopram
p3211
F0.0
sVpushing
p3212
F3.220533027070408e-05
sVprescribe
p3213
F0.00028463216349929385
sVnonexistent
p3214
F0.00014231608174964693
sVforney
p3215
F0.0
sVhighly
p3216
F0.0006980856480814042
sVradicals
p3217
F0.0
sVexplore
p3218
F0.00014231608174964693
sVaggravate
p3219
F0.0
sVlet
p3220
F4.34443741367644e-05
sVsink
p3221
F0.00011011075147894285
sVothers
p3222
F0.00038646396324844897
sVdouchey
p3223
F0.0
sVsing
p3224
F8.726070601017552e-05
sVsafer
p3225
F0.0
sVfifteen
p3226
F0.00014231608174964693
sVimplicit
p3227
F0.0
sVextreme
p3228
F0.00016516612721841428
sVrdt
p3229
F0.0
sVgreat
p3230
F0.0
sVoleptro
p3231
F0.0
sVbitterness
p3232
F0.00014231608174964693
sVproducto
p3233
F0.0
sVinvolved
p3234
F0.00017452141202035104
sV31
p3235
F8.726070601017552e-05
sVlarger
p3236
F0.00027527687869735714
sVforeg
p3237
F0.0
sVparanoid
p3238
F0.00014231608174964693
sVdextrotatory
p3239
F0.0
sVvalgt
p3240
F0.0
sVexistent
p3241
F0.00028463216349929385
sVopinion
p3242
F0.0004269482452489408
sVdepressant
p3243
F0.0
sVmakes
p3244
F0.00011585166436470505
sVhonor
p3245
F8.726070601017552e-05
sVapple
p3246
F3.220533027070408e-05
sVheart
p3247
F0.0006056091331341858
sVaps
p3248
F0.0
sVmanage
p3249
F0.00016516612721841428
sVimpulsivity
p3250
F0.0
sVprivate
p3251
F5.5055375739471425e-05
sVmicrodosing
p3252
F0.0
sVaddressed
p3253
F0.0
sVdecrease
p3254
F0.00028463216349929385
sVmening
p3255
F0.0
sVapply
p3256
F0.00017452141202035104
sVuse
p3257
F0.0005068510315955847
sVmethamp
p3258
F0.0
sVviibryd
p3259
F0.0
sVnauseated
p3260
F0.0
sVconsumption
p3261
F0.00028463216349929385
sVrecalling
p3262
F0.0
sVchi
p3263
F0.0
sVenzyme
p3264
F0.0
sVnext
p3265
F8.68887482735288e-05
sVhypersomnia
p3266
F0.0
sVdoubt
p3267
F9.661599081211224e-05
sVhjemsamtalen
p3268
F0.0
sVkunde
p3269
F0.0
sVtypical
p3270
F0.00017452141202035104
sVfadern
p3271
F0.0
sVsort
p3272
F5.792583218235253e-05
sVpfc
p3273
F0.0
sVclever
p3274
F5.5055375739471425e-05
sVheinonen
p3275
F0.0
sVcomparison
p3276
F8.726070601017552e-05
sVstarted
p3277
F0.00041866929351915303
sVbecomes
p3278
F0.00016516612721841428
sVgi
p3279
F0.0
sVremission
p3280
F0.0
sVoccurred
p3281
F0.00014231608174964693
sVinfection
p3282
F0.00014231608174964693
sVbodily
p3283
F0.00028463216349929385
sVmeant
p3284
F0.00011011075147894285
sVtransient
p3285
F0.0
sVprinser
p3286
F0.0
sVvuelta
p3287
F0.0
sV4am
p3288
F0.0
sVadequate
p3289
F0.0
sVfan
p3290
F5.5055375739471425e-05
sVmeeting_abstract
p3291
F0.0
sVcrosses
p3292
F8.726070601017552e-05
sVanimals
p3293
F0.00017452141202035104
sVf
p3294
F0.00017452141202035104
sVdullness
p3295
F0.0
sVchallenge
p3296
F0.00028463216349929385
sVpackage
p3297
F5.5055375739471425e-05
sVinsists
p3298
F0.00014231608174964693
sVstroke
p3299
F0.00014231608174964693
sVcentrophenoxine
p3300
F0.0
sVog
p3301
F0.0
sVbutterknife
p3302
F0.0
sVanywhere
p3303
F3.220533027070408e-05
sVobvious
p3304
F0.0006606645088736571
sVstabilizer
p3305
F0.0
sVfetzima
p3306
F0.0
sVpulling
p3307
F5.5055375739471425e-05
sVinhibitor
p3308
F0.0
sVdissolve
p3309
F0.0
sVavoided
p3310
F0.00014231608174964693
sVcontrol
p3311
F0.0006108249420712286
sVporque
p3312
F0.0
sVkenny
p3313
F0.0
sVbent
p3314
F8.726070601017552e-05
sVstimulatory
p3315
F0.0
sVprocess
p3316
F0.00043630353005087757
sVfavorite
p3317
F5.5055375739471425e-05
sVpurposes
p3318
F0.0
sVpieces
p3319
F5.5055375739471425e-05
sVhigh
p3320
F0.0
sVeffectively
p3321
F0.0
sVproceso
p3322
F0.0
sVglade
p3323
F0.0
sVslip
p3324
F0.00014231608174964693
sVsought
p3325
F0.00014231608174964693
sVserial
p3326
F0.0
sVmade
p3327
F0.000217221870683822
sVtai
p3328
F0.0
sVgtens
p3329
F0.0
sVsyndrome
p3330
F0.0006980856480814042
sVschedule
p3331
F0.00028463216349929385
sVsit
p3332
F5.5055375739471425e-05
sVyielding
p3333
F0.0
sVsix
p3334
F0.0003490428240407021
sVstruggles
p3335
F0.00014231608174964693
sVoccur
p3336
F0.00014231608174964693
sVregions
p3337
F0.0
sVneuroprotection
p3338
F0.0
sVsig
p3339
F0.0
sVanimal
p3340
F6.441066054140817e-05
sVinstead
p3341
F0.0006056091331341858
sVinstinctively
p3342
F0.0
sVtoddler
p3343
F0.00014231608174964693
sVpanic
p3344
F0.0
sVsin
p3345
F0.00028463216349929385
sVstock
p3346
F0.00011011075147894285
sVprofile
p3347
F0.0003490428240407021
sVtension
p3348
F0.0
sVklar
p3349
F0.0
sVoutlier
p3350
F0.0
sV80mg
p3351
F0.0
sVclostridium
p3352
F0.0
sVbestemt
p3353
F0.0
sVcollection
p3354
F8.726070601017552e-05
sVimpulsive
p3355
F0.0
sVconcentrations
p3356
F0.0
sVfatigue
p3357
F0.0
sVtraumer
p3358
F0.0
sVfits
p3359
F0.00014231608174964693
sVgammal
p3360
F0.0
sVpsychedelic
p3361
F0.0
sVrealized
p3362
F0.00028463216349929385
sVintroduced
p3363
F8.726070601017552e-05
sVpurely
p3364
F8.726070601017552e-05
sVbind
p3365
F0.0
sVpraktiseres
p3366
F0.0
sVkillswitch
p3367
F0.0
sVlauric
p3368
F0.0
sVhonestly
p3369
F0.0003490428240407021
sVoxybutinin
p3370
F0.0
sVallow
p3371
F0.00014231608174964693
sVcrawling
p3372
F0.00014231608174964693
sVaddiction
p3373
F0.0
sVduloxetine
p3374
F0.0
sVserotonergic
p3375
F0.0
sVunsolved
p3376
F0.0
sVunselective
p3377
F0.0
sVproduces
p3378
F0.00028463216349929385
sVwedding
p3379
F5.5055375739471425e-05
sVbyproducts
p3380
F0.0
sV800mg
p3381
F0.0
sVuniversiteter
p3382
F0.0
sVincluding
p3383
F0.00011011075147894285
sVlooks
p3384
F4.34443741367644e-05
sVuniversitetet
p3385
F0.0
sVmentioned
p3386
F0.0007115804087482347
sVnuke
p3387
F0.0
sVhorny
p3388
F0.00014231608174964693
sVbadges
p3389
F0.0
sVperfect
p3390
F0.00017452141202035104
sVpakker
p3391
F0.0
sVld
p3392
F0.0
sVh2o2
p3393
F0.0
sVla
p3394
F7.240729022794067e-05
sVchosen
p3395
F5.5055375739471425e-05
sVlo
p3396
F0.0
sVll
p3397
F0.0003041106189573508
sVoctopamine
p3398
F0.0
sVli
p3399
F0.0006980856480814042
sVage
p3400
F6.441066054140817e-05
sVaurorix
p3401
F0.0
sVasking
p3402
F0.00011011075147894285
sV2015
p3403
F0.0
sV2014
p3404
F0.0
sV2011
p3405
F0.0
sVdad
p3406
F0.00011011075147894285
sVdag
p3407
F0.0
sVmitigates
p3408
F0.0
sVunclear
p3409
F8.726070601017552e-05
sVfrontal
p3410
F0.00017452141202035104
sVnada
p3411
F0.00014231608174964693
sVpractice
p3412
F0.0
sVmras
p3413
F0.0
sVdat
p3414
F0.00011011075147894285
sVmention
p3415
F0.0002202215029578857
sVmitigated
p3416
F0.0
sVhands
p3417
F0.00017452141202035104
sVfront
p3418
F3.220533027070408e-05
sVimpaired
p3419
F0.00014231608174964693
sVday
p3420
F0.0
sVsynaptic
p3421
F0.0
sVecstacy
p3422
F0.0
sVburritos
p3423
F0.00014231608174964693
sVedit
p3424
F0.0014231608174964693
sVcider
p3425
F0.0
sVunfrequent
p3426
F0.0
sV13btc
p3427
F0.0
sVsufficiently
p3428
F0.0
sVrdh
p3429
F0.0
sVlamictal
p3430
F0.0
sVinvolvement
p3431
F0.0
sVmethamphatmine
p3432
F0.0
sVtraces
p3433
F0.00014231608174964693
sVconvulsant
p3434
F0.0
sVglasses
p3435
F8.726070601017552e-05
sVtrichotillomania
p3436
F0.0
sVexacerbated
p3437
F0.0
sVbeginner
p3438
F0.0
sVdensity
p3439
F0.00017452141202035104
sVproduct
p3440
F0.00026178211803052655
sVrelated
p3441
F0.00016516612721841428
sVdeficiency
p3442
F0.0
sVfrequency
p3443
F0.00014231608174964693
sVstatic
p3444
F0.00014231608174964693
sVloses
p3445
F0.00017452141202035104
sVmeasure
p3446
F5.5055375739471425e-05
sVmeth
p3447
F0.0
sVpatch
p3448
F0.0019197355322238614
sVsexual
p3449
F0.0009962125722475287
sV87
p3450
F0.0
sVspecial
p3451
F2.8962916091176263e-05
sVirritability
p3452
F0.0
sVlastly
p3453
F0.0
sVcrashes
p3454
F8.726070601017552e-05
sVelectronica
p3455
F0.0
sV100323
p3456
F0.0
sVinvestigate
p3457
F8.726070601017552e-05
sVmechanism
p3458
F0.0
sVvcu
p3459
F0.0
sV6mg
p3460
F0.0
sVintervention
p3461
F0.00014231608174964693
sVcause
p3462
F0.00036203645113970333
sVred
p3463
F1.4481458045588132e-05
sVdmaa
p3464
F0.0
sVuppv
p3465
F0.0
sVinteractions
p3466
F0.0
sVactivity
p3467
F0.0008538964904978816
sVanyone
p3468
F0.00019323198162422449
sVapproaches
p3469
F0.00011011075147894285
sVect
p3470
F0.0
sVque
p3471
F0.0
sVearly
p3472
F3.220533027070408e-05
sVanyhow
p3473
F0.0
sVdizziness
p3474
F0.0009962125722475287
sVscary
p3475
F0.0004269482452489408
sVinteraction
p3476
F0.00014231608174964693
sVg
p3477
F0.00033033225443682856
sVcould
p3478
F0.0
sVdrugabuse
p3479
F0.0
sVtimes
p3480
F0.0
sVcounterpart
p3481
F0.0
sVaren
p3482
F0.0001303331224102932
sVlength
p3483
F2.8962916091176263e-05
sVwrote
p3484
F0.00026178211803052655
sVtysk
p3485
F0.0
sVscare
p3486
F0.00028463216349929385
sVsouth
p3487
F5.5055375739471425e-05
sVblown
p3488
F0.00014231608174964693
sVpostsynaptic
p3489
F0.0
sVredefine
p3490
F0.0
sVethylphenidate
p3491
F0.0
sVhypomanic
p3492
F0.0
sVrandomized
p3493
F0.0
sVimprovements
p3494
F0.0004269482452489408
sVreached
p3495
F0.00011011075147894285
sVblows
p3496
F8.726070601017552e-05
sVkidding
p3497
F0.00014231608174964693
sVquality
p3498
F0.00016516612721841428
sVreliable
p3499
F8.726070601017552e-05
sVlong
p3500
F0.0
sVrolls
p3501
F8.726070601017552e-05
sVlos
p3502
F0.0
sVdata
p3503
F0.00014231608174964693
sVtinkering
p3504
F0.0
sVsystem
p3505
F6.441066054140817e-05
sVpriority
p3506
F0.0
sVutallige
p3507
F0.0
sVsyster
p3508
F0.0
sVdelusions
p3509
F0.00028463216349929385
sVlifting
p3510
F0.00026178211803052655
sVlifetimes
p3511
F0.0
sVdopac
p3512
F0.0
sVneurotransmitter
p3513
F0.0
sVperfectly
p3514
F5.5055375739471425e-05
sVsensitivity
p3515
F0.0
sVpainful
p3516
F0.0
sVprone
p3517
F0.0
sVlipoic
p3518
F0.0
sVsixteenth
p3519
F0.0
sVstomach
p3520
F8.726070601017552e-05
sVexplanation
p3521
F0.00014231608174964693
sVnobody
p3522
F8.726070601017552e-05
sVogs
p3523
F0.0
sVenvironmental
p3524
F0.0
sVchemicals
p3525
F0.0
sVsporadically
p3526
F0.00014231608174964693
sVadjusts
p3527
F0.0
sVclearnet
p3528
F0.0
sVfuzzy
p3529
F0.0
sVbotox
p3530
F0.0
sVhaven
p3531
F0.00022543731189492858
sVcolleagues
p3532
F0.0
sVcounteract
p3533
F0.0
sVamide
p3534
F0.0
sVarbetade
p3535
F0.0
sVmeasured
p3536
F0.0
sVschizophrenia
p3537
F0.00014231608174964693
sVbed
p3538
F0.00026178211803052655
sVpatients
p3539
F0.0
sVprobiotics
p3540
F0.0
sVvat
p3541
F0.0
sVloves
p3542
F8.726070601017552e-05
sVdaydreams
p3543
F0.0
sVoverindulge
p3544
F0.0
sVallergic
p3545
F0.00014231608174964693
sVworthless
p3546
F0.00014231608174964693
sVbet
p3547
F9.661599081211224e-05
sVimho
p3548
F0.0
sVdrunk
p3549
F0.00011011075147894285
sVirreversibly
p3550
F0.0
sVfalse
p3551
F0.00011011075147894285
sVbiologiska
p3552
F0.0
sVtabs
p3553
F0.0006980856480814042
sVpoisons
p3554
F0.0
sVfirstworldanimeproblemsamirite
p3555
F0.0
sVtonight
p3556
F8.726070601017552e-05
sVgentle
p3557
F5.5055375739471425e-05
sVblir
p3558
F0.0
sVunlikely
p3559
F0.0
sVdictate
p3560
F0.0
sVclose
p3561
F0.00027527687869735714
sVinduce
p3562
F0.0
sVdementia
p3563
F0.0
sVapparently
p3564
F0.00016516612721841428
sVclearly
p3565
F0.00011011075147894285
sVscrew
p3566
F8.726070601017552e-05
sVafraid
p3567
F9.661599081211224e-05
sVtriggered
p3568
F0.00028463216349929385
sVmin
p3569
F0.00028463216349929385
sVnamenda
p3570
F0.0
sVtldr
p3571
F0.0
sVable
p3572
F6.441066054140817e-05
sVrerne
p3573
F0.0
sVmig
p3574
F0.0
sVcontact
p3575
F0.00016516612721841428
sVadjunct
p3576
F0.0
sVmix
p3577
F0.0002202215029578857
sVconcerns
p3578
F0.0
sVpicamilon
p3579
F0.0
sV1521307_lg
p3580
F0.0
sVpharmacist
p3581
F0.0
sVcoke
p3582
F0.00014231608174964693
sVmileage
p3583
F0.0
sVunless
p3584
F0.0003853876301763
sVkhan
p3585
F0.0
sVhealthcare
p3586
F0.0
sVstefans
p3587
F0.0
sVmimics
p3588
F0.0
sVuseful
p3589
F0.0008538964904978816
sV01
p3590
F0.00028463216349929385
sValts
p3591
F0.0
sVpreliminary
p3592
F0.00014231608174964693
sVsedan
p3593
F0.0
sValtos
p3594
F0.0
sVaniracetam
p3595
F0.0
sVclass
p3596
F0.0003220533027070408
sVpolice
p3597
F8.726070601017552e-05
sVsubjective
p3598
F0.0
sVreduces
p3599
F0.0
sV96btc
p3600
F0.0
sVstronger
p3601
F0.00028463216349929385
sVdisease
p3602
F0.0005235642360610531
sVface
p3603
F6.441066054140817e-05
sVlooked
p3604
F8.726070601017552e-05
sVlots
p3605
F5.5055375739471425e-05
sVsnapshot
p3606
F0.0
sVtalk
p3607
F0.0002202215029578857
sVnailed
p3608
F0.0
sVmonotherapy
p3609
F0.0
sVnormally
p3610
F0.0003490428240407021
sVfact
p3611
F0.00027527687869735714
sVgoals
p3612
F0.0
sVachieve
p3613
F0.00014231608174964693
sVchances
p3614
F8.726070601017552e-05
sVcontaminant
p3615
F0.0
sVcognitively
p3616
F0.0
sVsupported
p3617
F0.00014231608174964693
sVanyway
p3618
F0.0005505537573947143
sVsublingual
p3619
F0.0
sVvistaril
p3620
F0.0
sVbring
p3621
F1.4481458045588132e-05
sVseaweed
p3622
F0.00014231608174964693
sVneurotoxic
p3623
F0.0
sVunconnected
p3624
F0.0
sVfear
p3625
F5.5055375739471425e-05
sVlonger
p3626
F0.00010137020631911693
sVtrivial
p3627
F0.0
sVprincipal
p3628
F0.0
sVexercise
p3629
F0.00014231608174964693
sVtrying
p3630
F0.00048307995406056127
sVbased
p3631
F0.00033033225443682856
sVknowledge
p3632
F0.00026178211803052655
sVexacerbating
p3633
F0.0
sVmute
p3634
F0.00014231608174964693
sVreceptors
p3635
F0.0011385286539971754
sVldte
p3636
F0.0
sVdarknet_deals_for_the_week_of_october_11_2015
p3637
F0.0
sVbrighter
p3638
F0.00014231608174964693
sV60mg
p3639
F0.0
sVunable
p3640
F8.726070601017552e-05
sVcombo
p3641
F0.0017077929809957632
sVemployee
p3642
F0.00014231608174964693
sVriding
p3643
F3.220533027070408e-05
sVthousands
p3644
F0.00014231608174964693
sVhangover
p3645
F0.00014231608174964693
sVinferior
p3646
F0.00028463216349929385
sVregularly
p3647
F0.00028463216349929385
sVphenylpiracetam
p3648
F0.0
sVrighteousness
p3649
F0.0
sVmove
p3650
F0.00011011075147894285
sVhandle
p3651
F6.441066054140817e-05
sVklassiske
p3652
F0.0
sVpharmacology
p3653
F0.0
sVmeans
p3654
F0.00043630353005087757
sVlobe
p3655
F0.0
sVmidnight
p3656
F8.726070601017552e-05
sVglutamine
p3657
F0.0
sVoverall
p3658
F0.0005692643269985877
sVarrhythmia
p3659
F0.0
sVbear
p3660
F0.00017452141202035104
sVoffentlige
p3661
F0.0
sV120
p3662
F0.0
sVones
p3663
F0.0002202215029578857
sVbodybuilders
p3664
F0.0
sVprobably
p3665
F0.0006763119356847857
sVganske
p3666
F0.0
sVprocedures
p3667
F0.0
sVtecas
p3668
F0.0
sVantagonist
p3669
F0.0
sVworkin
p3670
F0.00014231608174964693
sVproduced
p3671
F8.726070601017552e-05
sVarmodafinil
p3672
F0.0
sVmetabolite
p3673
F0.0
sVmolybdenum
p3674
F0.0
sVended
p3675
F0.00026178211803052655
sVh
p3676
F0.00033033225443682856
sVfixes
p3677
F0.00014231608174964693
sVganan
p3678
F0.0
sVcalling
p3679
F3.220533027070408e-05
sVstuff
p3680
F0.0005505537573947143
sVgram
p3681
F0.0
sVwish
p3682
F5.5055375739471425e-05
sVcycler
p3683
F0.0
sVcycles
p3684
F0.00028463216349929385
sVgabapentin
p3685
F0.0
sVenhancer
p3686
F0.0
sVknowing
p3687
F0.00011011075147894285
sVexists
p3688
F8.726070601017552e-05
sVthankfully
p3689
F0.0
sVacquired
p3690
F0.0
sVsmooth
p3691
F5.5055375739471425e-05
sVimmigrant
p3692
F0.00014231608174964693
sVintensity
p3693
F0.0004269482452489408
sVrelatable
p3694
F0.0
sVpowder
p3695
F0.00043630353005087757
sVenhanced
p3696
F0.00014231608174964693
sVterms
p3697
F0.0002202215029578857
sVgyp2d6
p3698
F0.0
sVtextiles
p3699
F0.0
sVcreating
p3700
F5.5055375739471425e-05
sVegentlig
p3701
F0.0
sVtripping
p3702
F0.0
sVstill
p3703
F0.0
sVcomputer
p3704
F8.726070601017552e-05
sVnemlig
p3705
F0.0
sVpattern
p3706
F0.0
sVcried
p3707
F0.00014231608174964693
sVcreatine
p3708
F0.0
sVprofessorerne
p3709
F0.0
sVtend
p3710
F0.0009962125722475287
sVgenius
p3711
F0.00014231608174964693
sVstate
p3712
F0.0004404430059157714
sVmethionine
p3713
F0.0
sVrouting
p3714
F0.0
sVaction
p3715
F0.00026178211803052655
sVhorrible
p3716
F8.726070601017552e-05
sVebola
p3717
F0.0
sVlimit
p3718
F0.00017452141202035104
sVneither
p3719
F0.00017452141202035104
sV150mg
p3720
F0.0
sVemail
p3721
F0.0003490428240407021
sVbought
p3722
F3.220533027070408e-05
sVcomparable
p3723
F0.0
sVweighing
p3724
F0.0
sVability
p3725
F0.00026178211803052655
sVopening
p3726
F3.220533027070408e-05
sVjoy
p3727
F8.726070601017552e-05
sVbeverages
p3728
F0.0
sVdeliver
p3729
F8.726070601017552e-05
sVhowever
p3730
F0.0015706927081831593
sVnegligible
p3731
F0.0
sVjob
p3732
F0.0002202215029578857
sVhypothesis
p3733
F0.00028463216349929385
sVparadoxically
p3734
F0.00014231608174964693
sVprecious
p3735
F8.726070601017552e-05
sVboss
p3736
F0.00028463216349929385
sVlegit
p3737
F0.00014231608174964693
sVantipsychotic
p3738
F0.0
sVrestrictions
p3739
F0.0015654768992461165
sVinterpretations
p3740
F0.0
sVketo
p3741
F0.0
sVfluorenol
p3742
F0.0
sVcareer
p3743
F0.00017452141202035104
sVgoal
p3744
F0.00014231608174964693
sVtaking
p3745
F0.0006371841540058779
sVtrips
p3746
F0.00017452141202035104
sVsunnersta
p3747
F0.0
sVetc
p3748
F0.00011585166436470505
sVinsidious
p3749
F0.0
sVatleast
p3750
F0.0
sVpaxil
p3751
F0.0
sVvinpocetine
p3752
F0.0
sVuncaught
p3753
F0.00014231608174964693
sVpassing
p3754
F1.4481458045588132e-05
sVplacebo
p3755
F0.0
sVsafely
p3756
F0.00014231608174964693
sV1926
p3757
F0.0
sVotherwise
p3758
F0.00016516612721841428
sVcomment
p3759
F0.00026178211803052655
sVrelevant
p3760
F0.0
sVco
p3761
F0.0003490428240407021
sVspliff
p3762
F0.0
sVcarboline
p3763
F0.0
sVadderral
p3764
F0.0
sVlivsstilssygdomme
p3765
F0.0
sVrecognized
p3766
F8.726070601017552e-05
sV00pm
p3767
F0.0
sVcr
p3768
F0.0005692643269985877
sVelectrocardiogram
p3769
F0.0
sV600
p3770
F8.726070601017552e-05
sVklare
p3771
F0.0
sVquit
p3772
F0.00017452141202035104
sVtread
p3773
F0.0
sVsecond
p3774
F7.240729022794067e-05
sVtransferase
p3775
F0.0
sVaddition
p3776
F0.0017077929809957632
sVdisintegrate
p3777
F0.0
sVwindow
p3778
F6.441066054140817e-05
sVinertia
p3779
F0.0
sVrestless
p3780
F0.0
sVgenetic
p3781
F0.0
sVpermanent
p3782
F0.00011011075147894285
sVhellish
p3783
F0.0
sVtreat
p3784
F0.0009359413875710144
sVssri
p3785
F0.0
sVbewildering
p3786
F0.0
sVpropargyl
p3787
F0.0
sVmandarlos
p3788
F0.0
sVhelvede
p3789
F0.0
sVchoose
p3790
F0.00011011075147894285
sV1272
p3791
F0.0
sVshoulders
p3792
F0.0
sVproblemet
p3793
F0.0
sVcontrolled
p3794
F0.00028463216349929385
sVwanna
p3795
F8.726070601017552e-05
sVoxidants
p3796
F0.0
sVroute
p3797
F5.5055375739471425e-05
sVinterrupts
p3798
F0.00014231608174964693
sVreplenishment
p3799
F0.0
sVarginine
p3800
F0.0
sVanorgasmia
p3801
F0.0
sV250mg
p3802
F0.0
sVhmm
p3803
F5.5055375739471425e-05
sVcontroller
p3804
F0.0
sVc8
p3805
F0.0
sVcovered
p3806
F9.661599081211224e-05
sVc3
p3807
F0.0
sVlast
p3808
F0.0002606662448205864
sVdreng
p3809
F0.0
sVpresent
p3810
F2.8962916091176263e-05
sVhypotension
p3811
F0.0
sVlaser
p3812
F0.00014231608174964693
sVunlike
p3813
F0.00033033225443682856
sVtricyclics
p3814
F0.0
sVuptake
p3815
F0.0
sVharder
p3816
F8.726070601017552e-05
sVvalue
p3817
F9.661599081211224e-05
sVchoices
p3818
F0.0004269482452489408
sVexterno
p3819
F0.0
sVaccesible
p3820
F0.00014231608174964693
sVhappened
p3821
F9.661599081211224e-05
sVfrustrating
p3822
F0.0
sVndret
p3823
F0.0
sVinulin
p3824
F0.0
sVsupply
p3825
F0.00014231608174964693
sVva
p3826
F8.726070601017552e-05
sVvb
p3827
F0.0
sVgame
p3828
F9.661599081211224e-05
sValmost
p3829
F0.000217221870683822
sVvi
p3830
F0.0004269482452489408
sVtilsvarende
p3831
F0.0
sVthus
p3832
F0.0003490428240407021
sVsurprisingly
p3833
F0.00014231608174964693
sVroll
p3834
F0.00011011075147894285
sVvp
p3835
F0.0
sVdespues
p3836
F0.0
sVvs
p3837
F0.00014231608174964693
sVtransmucosal
p3838
F0.0
sVmaladaptive
p3839
F0.0
sVcrash
p3840
F0.00033033225443682856
sVgpc
p3841
F0.0
sVcylcyclohexylamine
p3842
F0.0
sVazilect
p3843
F0.0
sVwatchful
p3844
F0.00014231608174964693
sVtailandia
p3845
F0.0
sVinsight
p3846
F0.00014231608174964693
sVdiets
p3847
F0.0
sVnok
p3848
F0.0
sVadministration
p3849
F0.0005692643269985877
sVcross
p3850
F2.8962916091176263e-05
sVunderwhelmed
p3851
F0.0
sVcoronary
p3852
F0.0
sVcontraindications
p3853
F0.0
sVbuddhism
p3854
F0.0
sVparty
p3855
F0.00043630353005087757
sVdownregulation
p3856
F0.0
sVgets
p3857
F0.00033033225443682856
sVinfer
p3858
F0.0
sVgrandeur
p3859
F0.0
sVdifficult
p3860
F0.0002202215029578857
sVexperimented
p3861
F0.0
sVemotionally
p3862
F0.00014231608174964693
sVcompetir
p3863
F0.0
sVabsorb
p3864
F0.00014231608174964693
sVreporting
p3865
F0.00014231608174964693
sVupon
p3866
F3.220533027070408e-05
sVprimary
p3867
F0.00026178211803052655
sV11btc
p3868
F0.0
sViop
p3869
F0.0
sVblockers
p3870
F0.00014231608174964693
sVrosea
p3871
F0.0
sVintroduce
p3872
F0.00014231608174964693
sVpiribedil
p3873
F0.0
sVfrequently
p3874
F0.0004269482452489408
sVspree
p3875
F0.0
sVphp
p3876
F0.00028463216349929385
sVkeep
p3877
F0.0001737774965470576
sVlethargy
p3878
F0.0
sVcenter
p3879
F5.5055375739471425e-05
sVture
p3880
F0.0
sVwell
p3881
F0.0
sVvidenskabelig
p3882
F0.0
sVhistamine
p3883
F0.0
sVthought
p3884
F0.00038646396324844897
sVpatterns
p3885
F0.0
sVsheer
p3886
F0.00014231608174964693
sV1
p3887
F0.00031859207700293894
sVanxiogenic
p3888
F0.0
sVsupplementation
p3889
F0.0
sVloss
p3890
F0.00026178211803052655
sVusual
p3891
F0.00028463216349929385
sVload
p3892
F0.00011011075147894285
sVroutinely
p3893
F0.0
sVglycine
p3894
F0.0
sVflesh
p3895
F8.726070601017552e-05
sVmoments
p3896
F0.00014231608174964693
sVproximity
p3897
F0.0
sVhalf
p3898
F0.0001737774965470576
sVdomestic
p3899
F0.00014231608174964693
sVobtain
p3900
F0.0
sVmistaken
p3901
F0.0
sVdose
p3902
F0.00740043625098164
sVsources
p3903
F0.00014231608174964693
sVstored
p3904
F8.726070601017552e-05
sVbenzos
p3905
F0.0
sVringtone
p3906
F0.00014231608174964693
sVoverstimulation
p3907
F0.0
sVexcellent
p3908
F0.00028463216349929385
sVuntested
p3909
F0.0
sVhappiness
p3910
F0.0005692643269985877
sVemoxypine
p3911
F0.0
sVweb
p3912
F5.5055375739471425e-05
sVrapid
p3913
F0.0009962125722475287
sVads
p3914
F0.0009962125722475287
sV30am
p3915
F0.0
sVabsorption
p3916
F0.0
sVheaded
p3917
F5.5055375739471425e-05
sVjare
p3918
F0.0
sVvyvanse
p3919
F0.0
sVadf
p3920
F0.0
sVarrest
p3921
F8.726070601017552e-05
sVadd
p3922
F0.0004404430059157714
sVcombine
p3923
F8.726070601017552e-05
sVadc
p3924
F0.0
sVshowers
p3925
F0.00014231608174964693
sVwet
p3926
F8.726070601017552e-05
sVusage
p3927
F0.00017452141202035104
sVc12
p3928
F0.0
sVhurry
p3929
F3.220533027070408e-05
sVwarrant
p3930
F0.00014231608174964693
sVsmart
p3931
F8.726070601017552e-05
sVkirke
p3932
F0.0
sVpoisonings
p3933
F0.0
sVtests
p3934
F0.00028463216349929385
sVincreased
p3935
F0.0009962125722475287
sVarticles
p3936
F0.00014231608174964693
sVoverdoses
p3937
F0.0
sVutan
p3938
F0.0
sVfyi
p3939
F0.0
sVferritin
p3940
F0.0
sVincreases
p3941
F0.0012808447357468224
sVseizure
p3942
F0.0
sVfacial
p3943
F0.00014231608174964693
sVimmediately
p3944
F0.00011011075147894285
sVabilify
p3945
F0.0
sVmuscle
p3946
F0.00028463216349929385
sVinsert
p3947
F0.00028463216349929385
sVcontroling
p3948
F0.0
sVshowing
p3949
F3.220533027070408e-05
sVlike
p3950
F0.0
sVonion
p3951
F0.0008538964904978816
sVfingerprints
p3952
F0.0
sVcandy
p3953
F0.00014231608174964693
sV230pm
p3954
F0.0
sVchemist
p3955
F0.0
sVjames
p3956
F0.00014231608174964693
sVagents
p3957
F0.0008538964904978816
sVworks
p3958
F0.0004404430059157714
sVpage
p3959
F0.00017452141202035104
sVtherapeutic
p3960
F0.0
sVklonopin
p3961
F0.0
sVlateral
p3962
F0.0
sVselgin
p3963
F0.0
sVschool
p3964
F0.0004269482452489408
sValive
p3965
F6.441066054140817e-05
sVphenylalanine
p3966
F0.0
sVmotive
p3967
F0.0
sVgrowth
p3968
F0.0004269482452489408
sVocks
p3969
F0.0
sVstory
p3970
F8.726070601017552e-05
sVnuvigil
p3971
F0.0
sVproper
p3972
F6.441066054140817e-05
sVhome
p3973
F6.441066054140817e-05
sV250
p3974
F0.00028463216349929385
sVhappens
p3975
F3.220533027070408e-05
sVdage
p3976
F0.0
sVsureplastik
p3977
F0.0
sVtms
p3978
F0.0
sVfocused
p3979
F8.726070601017552e-05
sVlead
p3980
F0.0001610266513535204
sVunpredictable
p3981
F0.00014231608174964693
sVjump
p3982
F5.5055375739471425e-05
sVliterally
p3983
F0.00017452141202035104
sVavoid
p3984
F0.00028984797243633673
sVseparate
p3985
F8.726070601017552e-05
sVreligionsvidenskabelig
p3986
F0.0
sVfedex
p3987
F0.0
sVdextroamphetmine
p3988
F0.0
sVrewarding
p3989
F0.0
sVmutation
p3990
F0.0
sVfanns
p3991
F0.0
sVeso
p3992
F0.0
sVda
p3993
F0.0006980856480814042
sVblurry
p3994
F0.0
sVfabriksarbetare
p3995
F0.0
sVlocate
p3996
F0.00014231608174964693
sVbiology
p3997
F0.0
sVnoise
p3998
F3.220533027070408e-05
sVcoated
p3999
F0.0
sVmayoria
p4000
F0.0
sVslight
p4001
F0.0003490428240407021
sVpueda
p4002
F0.0
sVfordi
p4003
F0.0
sVdarknetmarkets
p4004
F0.0
sVlightly
p4005
F0.00014231608174964693
sVstellar
p4006
F0.0
sVpressure
p4007
F0.0011385286539971754
sValthough
p4008
F0.0003220533027070408
sVgeneric
p4009
F0.0015654768992461165
sVmetabolized
p4010
F0.0
sVpanel
p4011
F8.726070601017552e-05
sVgained
p4012
F8.726070601017552e-05
sViris
p4013
F0.0
sVsister
p4014
F8.726070601017552e-05
sVactual
p4015
F0.00014231608174964693
sVtestosterone
p4016
F0.0
sVextension
p4017
F0.0005692643269985877
sVgetting
p4018
F0.0001303331224102932
sVidra
p4019
F0.0
sVgazing
p4020
F0.0
sVbasis
p4021
F9.661599081211224e-05
sVavsnittet
p4022
F0.0
sVshipping
p4023
F0.0005692643269985877
sVdependency
p4024
F0.00028463216349929385
sVseeds
p4025
F0.00014231608174964693
sVpakkede
p4026
F0.0
sVbloodstream
p4027
F0.00014231608174964693
sVupdate
p4028
F0.0004269482452489408
sVsoftware
p4029
F8.726070601017552e-05
sVequally
p4030
F0.0
sVel
p4031
F0.00028463216349929385
sVfunctional
p4032
F0.00014231608174964693
sVcorea
p4033
F0.0
sVchronic
p4034
F0.00014231608174964693
sVdoesnt
p4035
F8.726070601017552e-05
sVreceptor
p4036
F0.0
sVmichaellustgarten
p4037
F0.0
sVfemale
p4038
F0.00011011075147894285
sVroads
p4039
F0.00014231608174964693
sVadditions
p4040
F0.00014231608174964693
sVmanaging
p4041
F0.00014231608174964693
sVpointless
p4042
F0.00028463216349929385
sVmere
p4043
F0.00028463216349929385
sVndri
p4044
F0.0
sVkontraintuitivt
p4045
F0.0
sVknuckles
p4046
F0.00014231608174964693
sVprozac
p4047
F0.0
sVadditional
p4048
F0.00017452141202035104
sVtrackmystack
p4049
F0.0
sV16413604
p4050
F0.0
sVpcl
p4051
F0.0
sVspots
p4052
F0.00014231608174964693
sVnoticed
p4053
F0.00022543731189492858
sVricin
p4054
F0.0
sVmisguided
p4055
F0.0
sVskole
p4056
F0.0
sVuridine
p4057
F0.0
sVbiggest
p4058
F0.00017452141202035104
sVtroubling
p4059
F0.0
sVtouted
p4060
F0.0
sVa2
p4061
F0.0
sVfunction
p4062
F0.0005692643269985877
sVbuilding
p4063
F5.5055375739471425e-05
sVspells
p4064
F8.726070601017552e-05
sVbuy
p4065
F5.5055375739471425e-05
sVfrisk
p4066
F0.0
sVdextroamphetamine
p4067
F0.0
sVhr
p4068
F0.00014231608174964693
sVbus
p4069
F0.00014231608174964693
sVbrand
p4070
F0.0004404430059157714
sVweight
p4071
F0.0003220533027070408
sVdelivery
p4072
F0.00014231608174964693
sVreminds
p4073
F8.726070601017552e-05
sVhi
p4074
F0.00014231608174964693
sVgain
p4075
F0.0006980856480814042
sVmethmeds
p4076
F0.0
sVphenelzineu
p4077
F0.0
sVoverflow
p4078
F0.00014231608174964693
sVha
p4079
F5.5055375739471425e-05
sVcapitalize
p4080
F0.0
sVeat
p4081
F6.441066054140817e-05
sVcount
p4082
F0.00017452141202035104
sVterritory
p4083
F0.00014231608174964693
sVevident
p4084
F0.00014231608174964693
sVsociety
p4085
F8.726070601017552e-05
sVwhether
p4086
F8.68887482735288e-05
sVdangerous
p4087
F0.0005505537573947143
sVwife
p4088
F0.00017452141202035104
sVvariations
p4089
F0.0
sVambien
p4090
F0.0
sVrecord
p4091
F8.726070601017552e-05
sVcomt
p4092
F0.0
sVsupplant
p4093
F0.0
sVstories
p4094
F8.726070601017552e-05
sVhuden
p4095
F0.0
sVcake
p4096
F8.726070601017552e-05
sVadderall
p4097
F0.0
sVproblem
p4098
F0.0003220533027070408
sVpm
p4099
F0.0
sVminutes
p4100
F9.661599081211224e-05
sVmindste
p4101
F0.0
sVblock
p4102
F0.0005235642360610531
sVmarketplace
p4103
F0.0
sVmitochondria
p4104
F0.0
sVhorrific
p4105
F0.0
sVcontribute
p4106
F0.00014231608174964693
sVdopaminergics
p4107
F0.0
sVsarcosine
p4108
F0.0
sVlasted
p4109
F0.0004269482452489408
sVlived
p4110
F0.00043630353005087757
sVind
p4111
F0.0
sVsollefte
p4112
F0.0
sVtitration
p4113
F0.0
sVanesthesia
p4114
F0.0
sVworse
p4115
F0.00028984797243633673
sVtick
p4116
F8.726070601017552e-05
sVcompared
p4117
F0.00012882132108281633
sVimproving
p4118
F0.0003490428240407021
sVvariety
p4119
F0.00017452141202035104
sVstimulants
p4120
F0.0
sV45
p4121
F5.5055375739471425e-05
sVpercent
p4122
F8.726070601017552e-05
sV40
p4123
F0.0006056091331341858
sVdetails
p4124
F0.00014231608174964693
sVunaccounted
p4125
F0.0
sVincredibly
p4126
F0.00017452141202035104
sVexpel
p4127
F0.0
sVstimulant
p4128
F0.0
sVjunk
p4129
F8.726070601017552e-05
sVrepeat
p4130
F0.00028463216349929385
sVdexmethylphenidate
p4131
F0.0
sVecstatic
p4132
F0.0
sVtraumatic
p4133
F0.0
sVfeelings
p4134
F0.00017452141202035104
sVshown
p4135
F0.00027527687869735714
sVstay
p4136
F3.220533027070408e-05
sVspouts
p4137
F0.0
sVchance
p4138
F3.220533027070408e-05
sVmedications
p4139
F0.0
sVaugmentation
p4140
F0.0
sVpathways
p4141
F0.0
sVtiden
p4142
F0.0
sVmetabolizes
p4143
F0.0
sVlongevityman
p4144
F0.0
sVfriends
p4145
F6.441066054140817e-05
sVsignalling
p4146
F0.0
sVtamox
p4147
F0.0
sVexposure
p4148
F0.0
sV4x
p4149
F0.0
sVeod
p4150
F0.0
sVoral
p4151
F0.0004269482452489408
sVpode
p4152
F0.0
sVfactors
p4153
F0.0004269482452489408
sVhvert
p4154
F0.0
sVcoherent
p4155
F0.0
sVrule
p4156
F8.726070601017552e-05
sVrer
p4157
F0.0
sV_apasserby_
p4158
F0.0
sVinhibtits
p4159
F0.0
sVdiagnosis
p4160
F0.0
sV4f
p4161
F0.0
sVlives
p4162
F0.00016516612721841428
sVindirectly
p4163
F0.0
s.