(dp0
Vlimited
p1
F0.00014207346225493043
sVsuicidal
p2
F0.0007103673112746522
sVevalyn
p3
F0.0
sVpardon
p4
F4.355597227403996e-05
sVsimilarity
p5
F0.0
sVmagnetic
p6
F0.0
sVdoubts
p7
F7.103673112746521e-05
sVyellow
p8
F5.496151770685052e-05
sVnarcotic
p9
F0.0
sVfour
p10
F7.951223584559729e-05
sVvisualization
p11
F0.0
sVwoods
p12
F4.355597227403996e-05
sVsleep
p13
F0.012173976172067391
sVasian
p14
F0.0
sVappetite
p15
F0.0004972571178922565
sVflomax
p16
F0.0
sVhate
p17
F0.00042622038676479125
sVforget
p18
F0.00010992303541370104
sVrelationships
p19
F7.103673112746521e-05
sVwhose
p20
F1.6075213420614695e-05
sVinstructor
p21
F0.0
sVallll
p22
F0.0
sVpatches
p23
F4.355597227403996e-05
sVhealthland
p24
F0.0
sVphysiological
p25
F0.0
sVtremors
p26
F0.0
sVdisability
p27
F7.103673112746521e-05
sVseriously
p28
F0.0001374037942671263
sVcloset
p29
F0.00014207346225493043
sVskipping
p30
F8.711194454807991e-05
sVlist
p31
F0.00019236531197397682
sVbays
p32
F0.0
sVwhatsoever
p33
F0.00013066791682211988
sVintros
p34
F0.0
sVlord
p35
F4.355597227403996e-05
sVsorry
p36
F0.0001768273476267616
sVdependency
p37
F0.00021311019338239562
sV348
p38
F0.0
sVsaver
p39
F0.0
sValternating
p40
F0.0
sVhormone
p41
F0.0
sVrisk
p42
F0.00021984607082740207
sVdownstream
p43
F0.0
sVhypertensive
p44
F0.0
sVmemories
p45
F0.0
sVblanket
p46
F4.355597227403996e-05
sVdutch
p47
F0.0
sVrelatively
p48
F0.00028414692450986085
sVsplitting
p49
F0.0
sVmanic
p50
F0.0006393305801471869
sVmania
p51
F0.0
sVtrileptal
p52
F0.0
sVjack
p53
F7.103673112746521e-05
sVmessy
p54
F0.00021311019338239562
sVsaari
p55
F0.0
sVaffect
p56
F0.0004972571178922565
sVcipralex
p57
F0.0
sV12hrs
p58
F0.0
sVsuccumbing
p59
F0.0
sVdetoxed
p60
F0.0
sVschool
p61
F0.003480799825245795
sVbaking
p62
F7.103673112746521e-05
sVinsomniac
p63
F0.0
sVskills
p64
F4.355597227403996e-05
sVcontinous
p65
F0.0
sVcompanies
p66
F0.0
sVsolution
p67
F0.0
sVviable
p68
F0.0
sVdelivered
p69
F7.103673112746521e-05
sVunrelated
p70
F0.00021311019338239562
sVcrotch
p71
F7.103673112746521e-05
sVenhance
p72
F8.244227656027577e-05
sVartist
p73
F7.103673112746521e-05
sVheading
p74
F3.215042684122939e-05
sVclothes
p75
F8.711194454807991e-05
sVenjoy
p76
F0.0003297691062411031
sVwinded
p77
F0.0
sVforce
p78
F0.0001374037942671263
sVpragmatic
p79
F0.0
sVnigh
p80
F0.0
sVtired
p81
F0.00046717290050822936
sVtolerate
p82
F0.0
sVconsistent
p83
F0.00021311019338239562
sVlavender
p84
F0.0
sVapproximation
p85
F0.0
sVsurrounding
p86
F8.711194454807991e-05
sVsecond
p87
F0.00013733931646057714
sVstreet
p88
F0.00021311019338239562
sVtangential
p89
F0.0
sViraq
p90
F0.0
sVfollow
p91
F1.6075213420614695e-05
sVwriting
p92
F0.0001374037942671263
sVkratom
p93
F0.0
sVscraped
p94
F7.103673112746521e-05
sVmachines
p95
F4.355597227403996e-05
sVworthlessness
p96
F0.0
sVeven
p97
F0.0006360978867647783
sVbromantane
p98
F0.0
sVerrors
p99
F7.103673112746521e-05
sVhide
p100
F2.748075885342526e-05
sVclinicians
p101
F0.0
sVpace
p102
F0.0
sVworsen
p103
F0.0
sVsaved
p104
F5.496151770685052e-05
sVantagonism
p105
F0.0
sVworkflow
p106
F0.0
sVcontributed
p107
F0.0
sVfingers
p108
F4.355597227403996e-05
sVlights
p109
F4.355597227403996e-05
sVhaze
p110
F0.0
sVconduct
p111
F0.0
sVnew
p112
F0.0
sVincreasing
p113
F0.00028414692450986085
sVever
p114
F0.0002240799373830469
sVtold
p115
F0.0004946536593616546
sVinjections
p116
F0.0
sVmed
p117
F0.0005662276395625195
sVkicked
p118
F0.00013066791682211988
sVromano
p119
F0.0
sVnever
p120
F0.0
sVmeh
p121
F0.0
sVhundreds
p122
F0.0
sVjon
p123
F0.0
sVreported
p124
F0.0005682938490197217
sVprotection
p125
F7.103673112746521e-05
sVstudio
p126
F7.103673112746521e-05
sVactions
p127
F0.00021311019338239562
sVactive
p128
F5.496151770685052e-05
sVaftermath
p129
F0.0
sV100
p130
F0.00030228834738767787
sVdiagnostic
p131
F0.0
sVfriday
p132
F0.0
sVdry
p133
F0.00013066791682211988
sVkids
p134
F0.00013066791682211988
sVdaughter
p135
F3.215042684122939e-05
sVtaper
p136
F0.0
sVphenelzine
p137
F0.0
sVitems
p138
F4.355597227403996e-05
sVelaborate
p139
F0.0
sVchanged
p140
F0.00016488455312055155
sVneuroleptics
p141
F0.0
sVaffective
p142
F0.0
sVreports
p143
F0.00013066791682211988
sVguide
p144
F7.103673112746521e-05
sVamitryptaline
p145
F0.0
sVcredit
p146
F3.215042684122939e-05
sVcrap
p147
F0.00017422388909615983
sVhorrible
p148
F0.0004791156950144395
sVsominex
p149
F0.0
sVstressed
p150
F0.00028414692450986085
sVtranquilizers
p151
F0.0
sVmilitary
p152
F7.103673112746521e-05
sVaka
p153
F0.0
sVadverse
p154
F0.0
sVchanges
p155
F0.00016488455312055155
sVclonidine
p156
F0.0
sVgolden
p157
F0.00013066791682211988
sVfantastic
p158
F4.355597227403996e-05
sVplays
p159
F2.748075885342526e-05
sVhunch
p160
F0.0
sVclassification
p161
F4.355597227403996e-05
sVexplained
p162
F0.0004972571178922565
sVexcuse
p163
F2.748075885342526e-05
sVhighly
p164
F0.00026133583364423976
sVbrought
p165
F2.1685155230617443e-05
sVhahahahah
p166
F0.0
sValpha
p167
F7.103673112746521e-05
sVvivid
p168
F0.0
sVmeats
p169
F0.0
sVtremens
p170
F0.0
sVidiosyncratic
p171
F0.0
sVfixable
p172
F0.0
sVcocaine
p173
F0.00014207346225493043
sVforums
p174
F0.00014207346225493043
sVunit
p175
F0.0
sVneuroscientists
p176
F0.0
sVplot
p177
F0.0
sVcheating
p178
F7.103673112746521e-05
sVspoke
p179
F4.355597227403996e-05
sVwould
p180
F0.0
sVarmy
p181
F4.355597227403996e-05
sVbrowse
p182
F7.103673112746521e-05
sValongside
p183
F4.355597227403996e-05
sVabbreviations
p184
F0.0
sVcomments
p185
F0.00014207346225493043
sVarms
p186
F8.244227656027577e-05
sVlessening
p187
F0.0
sVconquer
p188
F0.0
sVklonipin
p189
F0.0
sVnoting
p190
F7.103673112746521e-05
sVcall
p191
F4.3370310461234886e-05
sVcalm
p192
F0.00042622038676479125
sVbeats
p193
F7.103673112746521e-05
sVrecommend
p194
F0.0014207346225493043
sVetizolam
p195
F0.0
sVfainting
p196
F0.0
sVcare
p197
F0.0010017873623029189
sVtype
p198
F0.0002473268296808273
sVtell
p199
F0.00043403076235659665
sVnyquil
p200
F0.0
sVbugs
p201
F8.711194454807991e-05
sVdumped
p202
F7.103673112746521e-05
sVpaperwork
p203
F0.0
sVstandardized
p204
F0.0
sVholy
p205
F2.748075885342526e-05
sVwary
p206
F0.0
sVsuccessful
p207
F5.496151770685052e-05
sVbrings
p208
F4.355597227403996e-05
sVprints
p209
F7.103673112746521e-05
sV7h45m
p210
F0.0
sVhurt
p211
F0.0004972571178922565
sVwarn
p212
F5.496151770685052e-05
sVglass
p213
F7.228385076872482e-06
sVwarm
p214
F3.215042684122939e-05
sVpsilocybin
p215
F0.0
sVadult
p216
F0.00028414692450986085
sVhurl
p217
F0.0
sV91
p218
F4.355597227403996e-05
sV90
p219
F0.00026133583364423976
sVward
p220
F0.0003551836556373261
sVhold
p221
F6.430085368245878e-05
sV95
p222
F1.6075213420614695e-05
sV97
p223
F4.355597227403996e-05
sV96
p224
F7.103673112746521e-05
sVworst
p225
F0.0004791156950144395
sVmd
p226
F0.0
sVmg
p227
F0.0
sVcystocentesis
p228
F0.0
sVlocked
p229
F2.748075885342526e-05
sVroom
p230
F0.00012860170736491756
sVdivorced
p231
F7.103673112746521e-05
sVrights
p232
F4.355597227403996e-05
sVpursue
p233
F0.0
sV1998
p234
F0.0
sVnoots
p235
F0.0
sVwork
p236
F0.0
sVworn
p237
F7.103673112746521e-05
sVworth
p238
F0.00046717290050822936
sVimpromptu
p239
F0.0
sVcuddle
p240
F7.103673112746521e-05
sVwort
p241
F7.103673112746521e-05
sVdunno
p242
F4.355597227403996e-05
sVexceptions
p243
F7.103673112746521e-05
sVexperts
p244
F0.0
sVroot
p245
F8.711194454807991e-05
sVexample
p246
F0.00012860170736491756
sVaddictive
p247
F0.0
sVvivitrol
p248
F0.0
sVhuperzin
p249
F0.0
sVvodka
p250
F7.103673112746521e-05
sVunmarked
p251
F0.0
sVindicated
p252
F0.00021311019338239562
sVgive
p253
F0.00020962316722930198
sVsuicidewatch
p254
F0.0
sVhousehold
p255
F0.0
sVpreserving
p256
F4.355597227403996e-05
sVreach
p257
F0.00010992303541370104
sVdosing
p258
F0.0
sVtitanium
p259
F0.0
sVfoods
p260
F7.103673112746521e-05
sVquetiapine
p261
F0.0
sVwant
p262
F0.0
sVscheduling
p263
F0.0
sVcounseling
p264
F0.0
sVhonest
p265
F5.496151770685052e-05
sVlexapro
p266
F0.0
sVabsolute
p267
F8.711194454807991e-05
sVpreferably
p268
F7.103673112746521e-05
sVsought
p269
F7.103673112746521e-05
sVend
p270
F0.00010842577615308721
sVrecovery
p271
F0.00026133583364423976
sVfarce
p272
F0.0
sVjanuary
p273
F0.0
sVsertaline
p274
F0.0
sVverify
p275
F0.00021311019338239562
sVhangover
p276
F0.0012076244291669086
sVdamage
p277
F0.00021777986137019978
sVstint
p278
F0.0
sVmachine
p279
F0.00013066791682211988
sVcitalopram
p280
F0.0
sVtwitching
p281
F7.103673112746521e-05
sVsate
p282
F0.0
sVanswer
p283
F8.037606710307347e-05
sVrecord
p284
F8.711194454807991e-05
sVscaring
p285
F7.103673112746521e-05
sVpreferable
p286
F0.0
sVwahluke
p287
F0.0
sVmassive
p288
F0.0
sV125mg
p289
F0.0
sVbadly
p290
F4.822564026184408e-05
sVfever
p291
F0.0
sVelizabeth
p292
F0.0
sVfunny
p293
F8.037606710307347e-05
sVmess
p294
F0.00021777986137019978
sVmalaise
p295
F0.0
sVearlier
p296
F8.037606710307347e-05
sVabdomen
p297
F0.0
sVlab
p298
F0.0
sVwholesale
p299
F0.0
sVhypnogogic
p300
F0.0
sVwrong
p301
F0.0001929025610473763
sVmesh
p302
F0.0
sVtackle
p303
F5.496151770685052e-05
sVlay
p304
F0.00017422388909615983
sVcuriosity
p305
F0.00013066791682211988
sVready
p306
F3.6141925384362405e-05
sVpresident
p307
F7.103673112746521e-05
sVlap
p308
F7.103673112746521e-05
sVexcited
p309
F4.355597227403996e-05
sVtypes
p310
F5.496151770685052e-05
sVlas
p311
F0.0
sVsunscreen
p312
F0.0
sVsmoke
p313
F0.0003048918059182797
sVattempt
p314
F6.430085368245878e-05
sVanymore
p315
F0.0002748075885342526
sVeffective
p316
F0.0014207346225493043
sVoccasions
p317
F0.0
sVtetra
p318
F0.0
sVspout
p319
F0.0
sVappreciate
p320
F0.00013066791682211988
sVlost
p321
F0.0
sVhypnotic
p322
F0.0
sVthink
p323
F0.0006288695016879058
sVcigarettes
p324
F0.00021311019338239562
sV89
p325
F7.103673112746521e-05
sVmaintain
p326
F0.00013066791682211988
sVbedtime
p327
F0.0
sVultimate
p328
F0.0
sVgoodbye
p329
F0.0
sVkeeps
p330
F0.0001374037942671263
sVevery
p331
F0.000404789564304859
sVpreventive
p332
F0.0
sVoperate
p333
F7.103673112746521e-05
sVskyping
p334
F0.0
sVorder
p335
F8.674062092246977e-05
sVfillers
p336
F0.0
sVwine
p337
F1.6075213420614695e-05
sVblind
p338
F4.355597227403996e-05
sVinterpretation
p339
F7.103673112746521e-05
sVoffice
p340
F8.244227656027577e-05
sVcheese
p341
F4.355597227403996e-05
sVmuffin
p342
F7.103673112746521e-05
sVvary
p343
F0.00021777986137019978
sVsandy
p344
F4.355597227403996e-05
sVrxconnect
p345
F0.0
sVbefall
p346
F0.0
sVbuproprion
p347
F0.0
sVhypoapnea
p348
F0.0
sVbanged
p349
F0.0
sVresponsive
p350
F7.103673112746521e-05
sVresidents
p351
F0.0
sVpriapism
p352
F0.0
sVshorter
p353
F4.355597227403996e-05
sVbenzodiazapine
p354
F0.0
sVime
p355
F0.00014207346225493043
sVpharma
p356
F0.0
sVfit
p357
F3.215042684122939e-05
sVauditory
p358
F0.0
sVpersonal
p359
F4.822564026184408e-05
sVfix
p360
F0.00034844777819231966
sVrecreational
p361
F0.0003551836556373261
sVimo
p362
F0.0
sVcocaines
p363
F0.0
sVbetter
p364
F0.0004843018001504562
sVawfulness
p365
F0.0
sVcomplex
p366
F8.244227656027577e-05
sVdifferently
p367
F0.00017422388909615983
sVaccusatory
p368
F0.0
sVpharms
p369
F0.0
sVyohre
p370
F0.0
sVeasier
p371
F0.00019236531197397682
sVovercome
p372
F7.103673112746521e-05
sVpleasurable
p373
F0.0
sVversus
p374
F4.355597227403996e-05
sVeventually
p375
F0.0009234775046570477
sVcoffee
p376
F0.00021777986137019978
sVaffected
p377
F0.00014207346225493043
sVwoken
p378
F0.0
sVcombination
p379
F0.00046717290050822936
sVprevented
p380
F0.0
sV150
p381
F0.0
sVunemployed
p382
F0.0
sVdrowsiness
p383
F0.0
sVtheanine
p384
F0.0
sVfinish
p385
F2.748075885342526e-05
sVbreak
p386
F0.00034844777819231966
sV9
p387
F0.00022505298788860572
sVroommate
p388
F0.00021311019338239562
sVtherapy
p389
F0.0019179917404415605
sVeffects
p390
F0.0017857948632356382
sVhypomanic
p391
F0.0
sVlifelong
p392
F0.0
sVadvise
p393
F0.0
sVsaddened
p394
F0.0
sVcolumbine
p395
F0.0
sVshadows
p396
F4.355597227403996e-05
sVelavil
p397
F0.0
sVrecommitted
p398
F0.0
sVrandomized
p399
F0.0
sVnorth
p400
F2.748075885342526e-05
sVedge
p401
F1.6075213420614695e-05
sVqueues
p402
F0.0
sVsleepless
p403
F0.0
sVarrested
p404
F4.355597227403996e-05
sVl
p405
F5.496151770685052e-05
sVexplode
p406
F0.0
sVfrantically
p407
F4.355597227403996e-05
sVcharged
p408
F2.748075885342526e-05
sVmead
p409
F0.0
sVreasonable
p410
F4.355597227403996e-05
sVfitness
p411
F7.103673112746521e-05
sVaddicted
p412
F7.103673112746521e-05
sVwent
p413
F0.00024576509261366435
sVhigher
p414
F0.00020897777446799101
sVside
p415
F5.7827080614979855e-05
sVmisspellings
p416
F0.0
sVmean
p417
F0.00027327862815044974
sVcandy
p418
F7.103673112746521e-05
sVlifted
p419
F0.00014207346225493043
sVsomnolent
p420
F0.0
sVlogs
p421
F0.0
sVfairly
p422
F0.0005662276395625195
sVstabiliser
p423
F0.0
sVseries
p424
F0.00021311019338239562
sVtitrating
p425
F0.0
sVdoomed
p426
F8.711194454807991e-05
sVpsyche
p427
F0.0
sVmdd
p428
F0.0
sVaide
p429
F0.0
sVvote
p430
F7.103673112746521e-05
sVtaught
p431
F5.496151770685052e-05
sVcatapres
p432
F0.0
sVforgot
p433
F0.0004972571178922565
sVaids
p434
F0.0
sVunexplained
p435
F7.103673112746521e-05
sVextract
p436
F7.103673112746521e-05
sVslew
p437
F0.0
sVputs
p438
F6.430085368245878e-05
sVsprints
p439
F0.0
sVreminding
p440
F7.103673112746521e-05
sVnetwork
p441
F7.103673112746521e-05
sVdriving
p442
F0.00013066791682211988
sVrestricted
p443
F7.103673112746521e-05
sVrx
p444
F0.0
sVenviroment
p445
F0.0
sVcounselors
p446
F0.0
sVcontent
p447
F7.103673112746521e-05
sVmethaphinidate
p448
F0.0
sVlaid
p449
F4.355597227403996e-05
sVdsm
p450
F0.0
sVrare
p451
F0.00028414692450986085
sVrc
p452
F7.103673112746521e-05
sVmedicine
p453
F0.0014207346225493043
sVmisfill
p454
F0.0
sVrn
p455
F0.0
sVgov
p456
F0.00021311019338239562
sVsluggish
p457
F7.103673112746521e-05
sVsubsiding
p458
F0.0
sVmistakes
p459
F7.103673112746521e-05
sVgrease
p460
F7.103673112746521e-05
sVturning
p461
F0.00013066791682211988
sVwritten
p462
F8.711194454807991e-05
sVthreatened
p463
F7.103673112746521e-05
sVokayed
p464
F7.103673112746521e-05
sVfree
p465
F0.00012860170736491756
sVstandard
p466
F2.748075885342526e-05
sVnti
p467
F0.0
sVdecent
p468
F5.496151770685052e-05
sVmanagement
p469
F7.103673112746521e-05
sVvets
p470
F0.0
sVstruggle
p471
F0.00017422388909615983
sVnmda
p472
F0.0
sVstereotypical
p473
F0.0
sVdetecting
p474
F4.355597227403996e-05
sVwanted
p475
F0.0005226716672884795
sVheat
p476
F4.355597227403996e-05
sVchlorine
p477
F0.0
sVswimming
p478
F4.355597227403996e-05
sVzaps
p479
F0.0
sVate
p480
F8.711194454807991e-05
sVallergies
p481
F7.103673112746521e-05
sVbuys
p482
F7.103673112746521e-05
sVrecovering
p483
F7.103673112746521e-05
sVcreated
p484
F0.00014207346225493043
sVhorseshit
p485
F0.0
sVstarts
p486
F1.6075213420614695e-05
sVlongterm
p487
F0.0
sVdays
p488
F0.0008680615247131933
sVups
p489
F0.00013066791682211988
sVfilter
p490
F4.355597227403996e-05
sValcohol
p491
F0.0008275634732067592
sVshipped
p492
F7.103673112746521e-05
sVish
p493
F0.00028414692450986085
sVisn
p494
F0.00028913540307489924
sVsoda
p495
F0.00014207346225493043
sVregress
p496
F0.0
sVmedicaid
p497
F0.0
sVscheme
p498
F4.355597227403996e-05
sVmessaged
p499
F7.103673112746521e-05
sVresetting
p500
F0.0
sVhire
p501
F7.103673112746521e-05
sVfuckin
p502
F0.00028414692450986085
sVstewart
p503
F0.0
sVlaggy
p504
F0.0
sValready
p505
F0.00015902447169119458
sVfeatures
p506
F0.00013066791682211988
sVcigarette
p507
F4.355597227403996e-05
sVgrade
p508
F0.00021311019338239562
sVaccent
p509
F5.496151770685052e-05
sVcoding
p510
F7.103673112746521e-05
sVprimary
p511
F0.00017422388909615983
sVthereof
p512
F0.0
sVhearing
p513
F0.00017422388909615983
sVspinning
p514
F0.0
sVkurzgesagt
p515
F0.0
sVibuprofen
p516
F0.0
sVdownside
p517
F0.0
sVanother
p518
F0.0003469624836898791
sVwasn
p519
F0.00025299347769053683
sVsober
p520
F0.00042622038676479125
sVkazmierczak
p521
F0.0
sVthick
p522
F2.748075885342526e-05
sVditch
p523
F0.0
sVelectronic
p524
F0.0
sVphych
p525
F0.0
sVresearched
p526
F0.0
sVpristiq
p527
F0.0
sVseizures
p528
F7.103673112746521e-05
sVstimulation
p529
F0.00021311019338239562
sVservice
p530
F8.244227656027577e-05
sVsimilarly
p531
F0.0
sVneurochemical
p532
F0.0
sVfluvoxamine
p533
F0.0
sVtop
p534
F0.00027327862815044974
sVconcise
p535
F0.0
sVgirls
p536
F0.00013066791682211988
sVneeded
p537
F0.0006045766947753557
sVton
p538
F0.00021311019338239562
sVlisted
p539
F4.355597227403996e-05
sVphones
p540
F7.103673112746521e-05
sVinconvenient
p541
F0.0
sVlegs
p542
F0.00010992303541370104
sVbitter
p543
F0.00021311019338239562
sVdogs
p544
F5.496151770685052e-05
sVdamaging
p545
F0.0
sVlisten
p546
F0.00010992303541370104
sVmentioning
p547
F0.00014207346225493043
sVrewards
p548
F7.103673112746521e-05
sVcollapse
p549
F7.103673112746521e-05
sVenhancing
p550
F7.103673112746521e-05
sVmetabolites
p551
F0.0
sVanafranil
p552
F0.0
sVgym
p553
F4.355597227403996e-05
sV2am
p554
F0.0
sVregulate
p555
F0.0
sVtook
p556
F0.0004264747195354764
sVtrippy
p557
F0.00014207346225493043
sVdirect
p558
F7.103673112746521e-05
sVpredictable
p559
F0.0
sVsomewhat
p560
F0.0004972571178922565
sVwasted
p561
F4.355597227403996e-05
sVshortly
p562
F0.00014207346225493043
sVabandoning
p563
F0.0
sVcrawl
p564
F2.748075885342526e-05
sVwhite
p565
F3.215042684122939e-05
sVsymptom
p566
F0.0
sVtoronto
p567
F0.0
sVnail
p568
F4.355597227403996e-05
sVtrek
p569
F0.0
sVanxiety
p570
F0.010016179088972595
sVtarget
p571
F0.00021311019338239562
sVshowed
p572
F8.711194454807991e-05
sV5ht2a
p573
F0.0
sVmirtazipine
p574
F0.0
sVlikely
p575
F0.0007103673112746522
sVaztec
p576
F0.0
sVcombating
p577
F0.0
sVshower
p578
F0.0004972571178922565
sVmatter
p579
F9.645128052368816e-05
sVsolomon
p580
F0.0
sVclasses
p581
F8.037606710307347e-05
sVsilly
p582
F2.748075885342526e-05
sVfriend
p583
F0.00010119739107621475
sV1600
p584
F0.0
sVjoy
p585
F8.711194454807991e-05
sVfeeling
p586
F0.0005465572563008995
sVsupplement
p587
F0.0
sVinterests
p588
F4.355597227403996e-05
sVfashion
p589
F0.00014207346225493043
sVsees
p590
F1.6075213420614695e-05
sVhundred
p591
F1.6075213420614695e-05
sVminn
p592
F0.0
sVrattle
p593
F0.0
sVprozac
p594
F0.0
sVmind
p595
F0.0006595382124822062
sVmine
p596
F0.00016075213420614694
sVanybody
p597
F7.103673112746521e-05
sVreturn
p598
F3.215042684122939e-05
sVtalking
p599
F0.0008524407735295825
sVrat
p600
F4.355597227403996e-05
sVadhd
p601
F0.0
sVseen
p602
F9.645128052368816e-05
sVseem
p603
F0.0001517960866143221
sVmins
p604
F7.103673112746521e-05
sVseek
p605
F4.822564026184408e-05
sVtells
p606
F2.748075885342526e-05
sVdozen
p607
F8.711194454807991e-05
sVforced
p608
F0.0003048918059182797
sVemptiness
p609
F0.0
sVrealm
p610
F4.355597227403996e-05
sVrelapse
p611
F0.0
sVthreatening
p612
F0.00014207346225493043
sVregretting
p613
F0.0
sVparamedics
p614
F0.0
sVlatter
p615
F7.103673112746521e-05
sVresponsible
p616
F0.00017422388909615983
sVslowly
p617
F0.0002748075885342526
sVsnow
p618
F7.103673112746521e-05
sVthorough
p619
F0.0
sVindexes
p620
F0.0
sVoriented
p621
F0.0
sVxr
p622
F0.0
sVfitting
p623
F0.0
sVcausing
p624
F0.00026133583364423976
sVdoors
p625
F8.711194454807991e-05
sVsleeper
p626
F7.103673112746521e-05
sVpreform
p627
F0.0
sVeffectiveness
p628
F0.0
sVgotcha
p629
F0.0
sVblue
p630
F0.00016488455312055155
sVfinding
p631
F6.430085368245878e-05
sVprescribes
p632
F0.0
sVclonazepam
p633
F0.0
sVprioritize
p634
F0.00014207346225493043
sVmethylphenidate
p635
F0.0
sVmother
p636
F3.6141925384362405e-05
sVneuroskeptic
p637
F0.0
sVbucket
p638
F0.0
sVdanysh
p639
F0.0
sVnorepinephrine
p640
F0.0
sVregular
p641
F0.000994514235784513
sVmouth
p642
F8.244227656027577e-05
sVaddict
p643
F0.00021311019338239562
sVletter
p644
F2.748075885342526e-05
sVscripts
p645
F0.0004972571178922565
sVphase
p646
F0.0003551836556373261
sVmashes
p647
F0.0
sVcontain
p648
F0.00014207346225493043
sVwasnt
p649
F0.0
sVunknowingly
p650
F0.0
sVdarkness
p651
F7.103673112746521e-05
sV7am
p652
F0.0
sVolanzapine
p653
F0.0
sVepisode
p654
F0.00042622038676479125
sVtreats
p655
F7.103673112746521e-05
sVneighborhoods
p656
F7.103673112746521e-05
sVheartworm
p657
F0.0
sVdoc
p658
F0.0012631231959471588
sVmedical
p659
F0.00038473062394795365
sVlose
p660
F2.1685155230617443e-05
sVflow
p661
F0.00014207346225493043
sVdog
p662
F0.00046717290050822936
sVspend
p663
F5.496151770685052e-05
sVmoisturize
p664
F7.103673112746521e-05
sVpsychology
p665
F0.00028414692450986085
sVdefinitely
p666
F0.0005221344182150799
sVtech
p667
F0.0003551836556373261
sVdeeply
p668
F8.711194454807991e-05
sVdos
p669
F0.0
sVresponded
p670
F0.0
sVurgency
p671
F0.0
sVsaying
p672
F8.037606710307347e-05
sVlesions
p673
F7.103673112746521e-05
sVcontacted
p674
F0.0
sVhunger
p675
F7.103673112746521e-05
sVmeetings
p676
F4.355597227403996e-05
sVrandom
p677
F0.00026133583364423976
sVpiss
p678
F7.103673112746521e-05
sVsubreddit
p679
F0.0
sVbloody
p680
F2.748075885342526e-05
sVprescription
p681
F0.0
sVattempts
p682
F8.244227656027577e-05
sVlyrica
p683
F0.0
sVsolutions
p684
F0.0
sVdopey
p685
F0.0
sVparticipate
p686
F0.0
sVconclusion
p687
F8.711194454807991e-05
sVtempted
p688
F7.103673112746521e-05
sVadinfinitim
p689
F0.0
sVimploded
p690
F0.0
sVenjoyed
p691
F4.355597227403996e-05
sVwisest
p692
F0.0
sVw8klnx9
p693
F0.0
sVbusy
p694
F4.822564026184408e-05
sVchamomile
p695
F0.0
sVsituations
p696
F0.00021984607082740207
sVexplain
p697
F0.00016488455312055155
sVversed
p698
F0.0
sVocd
p699
F0.0
sVhrs
p700
F0.0
sVsugar
p701
F0.00021777986137019978
sVupstairs
p702
F4.355597227403996e-05
sVbush
p703
F0.0
sVbliss
p704
F0.0
sVscreening
p705
F7.103673112746521e-05
sVpursuing
p706
F0.00014207346225493043
sVfolks
p707
F0.00014207346225493043
sVadequate
p708
F0.0
sVboyfriend
p709
F0.00021311019338239562
sVnullified
p710
F0.0
sVstores
p711
F8.711194454807991e-05
sVpersonality
p712
F4.355597227403996e-05
sVwearing
p713
F0.00013066791682211988
sVcortex
p714
F0.0
sVmixture
p715
F0.00014207346225493043
sV10
p716
F0.00024576509261366435
sVair
p717
F4.822564026184408e-05
sVuhhh
p718
F0.0
sVstop
p719
F0.00015902447169119458
sVtelevision
p720
F7.103673112746521e-05
sVpsychiatric
p721
F0.0
sVpocket
p722
F7.103673112746521e-05
sVamazon
p723
F7.103673112746521e-05
sVfuuuuuuckk
p724
F0.0
sVchristopher
p725
F0.0
sValtogether
p726
F8.711194454807991e-05
sVanxiolytic
p727
F0.0
sVknocks
p728
F0.00028414692450986085
sVnasty
p729
F4.355597227403996e-05
sVdr
p730
F0.0003551836556373261
sVibotenic
p731
F0.0
sVcomply
p732
F0.0
sVunfortunately
p733
F0.0004972571178922565
sVhall
p734
F7.103673112746521e-05
sVchild
p735
F1.6075213420614695e-05
sVmetadate
p736
F0.0
sVbar
p737
F5.496151770685052e-05
sVcovering
p738
F4.355597227403996e-05
sVnicely
p739
F4.355597227403996e-05
sVofficially
p740
F0.0
sVwheeling
p741
F0.0
sVextends
p742
F4.355597227403996e-05
sVidiotic
p743
F0.0
sVpatch
p744
F8.711194454807991e-05
sVbaf
p745
F0.0
sVbag
p746
F0.00013066791682211988
sVbad
p747
F0.0003397340986130066
sVintervals
p748
F0.0
sVarchitecture
p749
F0.0
sVshots
p750
F4.355597227403996e-05
sVboring
p751
F8.711194454807991e-05
sVrelease
p752
F0.00010992303541370104
sVidentify
p753
F4.355597227403996e-05
sVautomatic
p754
F4.355597227403996e-05
sVflagged
p755
F0.0
sVthanks
p756
F0.00043969214165480414
sVrespond
p757
F0.00017422388909615983
sVdeprenyl
p758
F0.0
sVnortryptaline
p759
F0.0
sVmandatory
p760
F0.0
sVvictim
p761
F7.103673112746521e-05
sVfascinating
p762
F0.00014207346225493043
sVspecialist
p763
F0.0
sVnut
p764
F7.103673112746521e-05
sVtesting
p765
F0.00021311019338239562
sValterations
p766
F0.0
sVminimal
p767
F0.0
sVanalytics
p768
F0.0
sVdepends
p769
F4.355597227403996e-05
sVdecided
p770
F0.00021984607082740207
sVimho
p771
F0.0
sVnontraditional
p772
F0.0
sVfail
p773
F3.215042684122939e-05
sVmiserable
p774
F0.00034844777819231966
sVdepressive
p775
F0.0
sVresigned
p776
F0.0
sVbest
p777
F0.00020962316722930198
sV00
p778
F0.0007814040424021173
sVsaid
p779
F0.0002023947821524295
sV06
p780
F7.103673112746521e-05
sV07
p781
F4.355597227403996e-05
sVinappropriate
p782
F4.355597227403996e-05
sVlots
p783
F0.00019236531197397682
sVaway
p784
F0.0
sViirc
p785
F0.0
sVwikipedia
p786
F0.0
sVimipramine
p787
F0.0
sVgrandmother
p788
F7.103673112746521e-05
sVcarneal
p789
F0.0
sVscore
p790
F2.748075885342526e-05
sVlimits
p791
F7.103673112746521e-05
sVomeprazole
p792
F0.0
sVinjectable
p793
F0.0
sVsorts
p794
F8.711194454807991e-05
sVtolerance
p795
F0.0011365876980394434
sVlethargic
p796
F0.0
sVmagnesium
p797
F0.0
sVletting
p798
F0.00021311019338239562
sVreddit
p799
F0.0
sVmen
p800
F2.748075885342526e-05
sVomg
p801
F7.103673112746521e-05
sVwears
p802
F8.711194454807991e-05
sVnature
p803
F7.228385076872482e-06
sVleared
p804
F0.0
sVhandful
p805
F0.0
sVcombining
p806
F0.00021311019338239562
sVvitamin
p807
F0.0
sVstared
p808
F7.103673112746521e-05
sVnightmares
p809
F0.0
sVtripled
p810
F0.0
sVwear
p811
F0.00017422388909615983
sVcontamination
p812
F0.0
sVtendons
p813
F0.0
sVcousin
p814
F7.103673112746521e-05
sVpicking
p815
F4.355597227403996e-05
sVdebt
p816
F7.103673112746521e-05
sVlaze
p817
F0.0
sVimprove
p818
F0.00026133583364423976
sVsuggested
p819
F0.0004972571178922565
sVhours
p820
F0.001253866646807946
sVessentially
p821
F0.0
sVaccident
p822
F7.103673112746521e-05
sVsurviving
p823
F0.0
sVtextures
p824
F0.0
sVagonist
p825
F0.0
sVmet
p826
F8.244227656027577e-05
sVresistant
p827
F0.0
sVcountry
p828
F1.6075213420614695e-05
sVill
p829
F0.00010992303541370104
sVwounding
p830
F0.00042622038676479125
sVadventures
p831
F0.0
sVnegative
p832
F0.0003048918059182797
sVbrag
p833
F0.0
sVbet
p834
F4.822564026184408e-05
sVcrank
p835
F0.0
sVwoodham
p836
F0.0
sVrequests
p837
F0.00013066791682211988
sVargue
p838
F7.103673112746521e-05
sVasked
p839
F0.0002748075885342526
sVpeacefully
p840
F0.0
sVsuggest
p841
F0.0007103673112746522
sVrejects
p842
F0.0
sVtough
p843
F0.00010992303541370104
sVdiscontinued
p844
F0.0
sVrelaxation
p845
F0.0
sVwaaay
p846
F0.0
sV2nd
p847
F4.355597227403996e-05
sVhygiene
p848
F0.00028414692450986085
sVforay
p849
F0.0
sVrotundness
p850
F0.0
sVchlorpheniramine
p851
F0.0
sVnews
p852
F8.244227656027577e-05
sVrefill
p853
F0.0007814040424021173
sVtrust
p854
F0.00013066791682211988
sVgrazing
p855
F0.0
sVmatti
p856
F0.0
sVspeak
p857
F0.00026133583364423976
sVareata
p858
F0.0
sVbathroom
p859
F0.00028414692450986085
sVstrong
p860
F0.00016488455312055155
sVabdominal
p861
F0.0
sVdrugsdb
p862
F0.0
sVbilling
p863
F4.355597227403996e-05
sVbasis
p864
F0.00011252649394430286
sVunion
p865
F7.103673112746521e-05
sVbinge
p866
F0.0
sVdusting
p867
F0.0
sVsubside
p868
F0.0
sVthree
p869
F0.00014456770153744962
sVquickly
p870
F9.645128052368816e-05
sVconfident
p871
F0.0
sVbeer
p872
F0.00028414692450986085
sVstartled
p873
F0.0
sVpasta
p874
F7.103673112746521e-05
sVinterest
p875
F4.355597227403996e-05
sVbasic
p876
F2.748075885342526e-05
sVexpected
p877
F5.496151770685052e-05
sVdeliberately
p878
F0.0
sVfry
p879
F7.103673112746521e-05
sVdozens
p880
F0.0
sVwarmth
p881
F0.0
sV5h
p882
F0.0
sVin_our_own_voice
p883
F0.0
sVlife
p884
F0.00041924633445860395
sVprn
p885
F0.0
sVdeeper
p886
F7.103673112746521e-05
sVefficacy
p887
F0.0
sV900mg
p888
F0.0
sVquantities
p889
F0.0
sVworker
p890
F0.00014207346225493043
sVuncommon
p891
F0.00017422388909615983
sVafternoons
p892
F0.0
sVdecrepit
p893
F0.0
sVsubstance
p894
F0.0
sVpersonally
p895
F0.0001768273476267616
sVcatch
p896
F0.00013066791682211988
sVdeepen
p897
F0.0
sVworked
p898
F0.0005787076831421289
sVreassuring
p899
F0.0
sVxyrem
p900
F0.0
sVchill
p901
F7.103673112746521e-05
sVphysician
p902
F0.0
sVexception
p903
F4.355597227403996e-05
sVterrible
p904
F0.00046717290050822936
sVharms
p905
F0.0
sVpublicly
p906
F0.0
sVssris
p907
F0.0
sVorgasms
p908
F7.103673112746521e-05
sVlsd_health3
p909
F0.0
sVneal
p910
F0.0
sVsafest
p911
F0.0
sVkentucky
p912
F0.0
sVn
p913
F2.8913540307489927e-05
sVcalcium
p914
F0.0
sVnear
p915
F3.6141925384362405e-05
sVcomfortably
p916
F4.355597227403996e-05
sVmotorist
p917
F0.0
sVleaves
p918
F1.6075213420614695e-05
sVstopping
p919
F0.00021777986137019978
sVaid
p920
F0.0
sV12am
p921
F0.0
sVbalance
p922
F0.0003551836556373261
sVchemicals
p923
F0.0
sVstudy
p924
F0.00043555972274039956
sVlaunched
p925
F7.103673112746521e-05
sVmistake
p926
F1.6075213420614695e-05
sVremembering
p927
F0.00014207346225493043
sVseven
p928
F0.00017422388909615983
sVcompliance
p929
F0.0
sVsexually
p930
F7.103673112746521e-05
sVplayed
p931
F4.355597227403996e-05
sVir
p932
F0.0
sVsymbyax
p933
F0.0
sViv
p934
F0.0
sVii
p935
F0.0
sVshame
p936
F0.00017422388909615983
sVcant
p937
F0.00014207346225493043
sVdizzy
p938
F0.0
sVim
p939
F0.0003551836556373261
sVcravings
p940
F0.00014207346225493043
sVapnea
p941
F0.0
sVuplift
p942
F0.0
sVie
p943
F7.103673112746521e-05
sVid
p944
F0.00014207346225493043
sVtrusted
p945
F0.0
sVblabbity
p946
F0.0
sVgrown
p947
F0.00010992303541370104
sV3nkz1u
p948
F0.0
sVdamaged
p949
F0.0
sV20049305
p950
F0.0
sVbottles
p951
F0.00019236531197397682
sVseverity
p952
F0.0
sVperform
p953
F5.496151770685052e-05
sVsaw
p954
F0.00021984607082740207
sVmake
p955
F0.000404789564304859
sVrecurrent
p956
F0.0
sVwound
p957
F8.711194454807991e-05
sVhydrated
p958
F0.0
sVlinked
p959
F0.00028414692450986085
sVnardil
p960
F0.0
sV1
p961
F0.0003108205583055167
sVhomegroup
p962
F0.0
sVpotentially
p963
F0.00028414692450986085
sVbelly
p964
F7.103673112746521e-05
sVincorrectly
p965
F7.103673112746521e-05
sV80s
p966
F7.103673112746521e-05
sVseveral
p967
F0.0006533395841105994
sVlacks
p968
F4.355597227403996e-05
sVcouple
p969
F0.00030542905499167914
sVeuropean
p970
F0.0
sVclicking
p971
F7.103673112746521e-05
sVevolve
p972
F4.355597227403996e-05
sVnih
p973
F0.0
sVadvocate
p974
F0.0
sVallready
p975
F0.0
sVinadvertently
p976
F7.103673112746521e-05
sVunbearable
p977
F0.0
sVmedicating
p978
F0.00021311019338239562
sVkip
p979
F0.0
sVhang
p980
F4.822564026184408e-05
sVevil
p981
F5.496151770685052e-05
sVhand
p982
F0.0
sVliberties
p983
F0.0
sVcessation
p984
F0.0
sVfridays
p985
F0.0
sVzaleplon
p986
F0.0
sVsupper
p987
F0.0
sVjealous
p988
F0.00014207346225493043
sVstrength
p989
F5.496151770685052e-05
sVinsisted
p990
F7.103673112746521e-05
sVreligiously
p991
F0.0
sVthoughts
p992
F0.0005662276395625195
sVkid
p993
F7.103673112746521e-05
sVbutter
p994
F7.103673112746521e-05
sVprescribed
p995
F0.0054698282968148205
sVdylan
p996
F0.0
sVkept
p997
F0.00021984607082740207
sVmatters
p998
F0.00013066791682211988
sVsettled
p999
F7.103673112746521e-05
sVfailing
p1000
F7.103673112746521e-05
sVsmokes
p1001
F0.00014207346225493043
sVoptions
p1002
F0.0008275634732067592
sVtho
p1003
F0.00021311019338239562
sVacademic
p1004
F7.103673112746521e-05
sVcontact
p1005
F2.748075885342526e-05
sVacid
p1006
F0.00017422388909615983
sVqualities
p1007
F7.103673112746521e-05
sVprescriber
p1008
F0.0
sValarms
p1009
F7.103673112746521e-05
sVinjuring
p1010
F0.0
sV800
p1011
F8.711194454807991e-05
sVcorporate
p1012
F4.355597227403996e-05
sVoverlooked
p1013
F0.0
sVleft
p1014
F5.0598695538107374e-05
sVseasonal
p1015
F0.0
sVopinions
p1016
F7.103673112746521e-05
sVdropcam
p1017
F0.0
sVsentence
p1018
F0.00021311019338239562
sVyea
p1019
F0.0
sVable
p1020
F0.001093114512601799
sVlaptop
p1021
F8.711194454807991e-05
sVsleepy
p1022
F0.001989028471569026
sVunfair
p1023
F7.103673112746521e-05
sVgerd
p1024
F0.0
sVideas
p1025
F0.0
sVassigned
p1026
F0.00021311019338239562
sVdisguise
p1027
F7.103673112746521e-05
sVgrades
p1028
F0.0
sVsedatives
p1029
F0.0
sVpsych
p1030
F0.0
sVdramamine
p1031
F0.0
sVhuman
p1032
F0.00021984607082740207
sVdopamine
p1033
F0.0
sVyep
p1034
F0.00021311019338239562
sVyes
p1035
F8.674062092246977e-05
sVcaregiver
p1036
F0.0
sVyet
p1037
F7.228385076872481e-05
sVelectronically
p1038
F0.0
sVprevious
p1039
F3.6141925384362405e-05
sVthyroid
p1040
F0.0
sVadding
p1041
F0.00028414692450986085
sVunique
p1042
F0.00017422388909615983
sVmonitored
p1043
F0.0
sV5x
p1044
F0.0
sVantidopaminergic
p1045
F0.0
sVinstance
p1046
F5.496151770685052e-05
sV27th
p1047
F0.0
sVease
p1048
F8.711194454807991e-05
sVnooooooooo
p1049
F0.0
sVsubutex
p1050
F0.0
sVpatching
p1051
F0.0
sVpharmacy
p1052
F0.0007814040424021173
sVbp1
p1053
F0.0
sVissues
p1054
F0.0013937911127692786
sVhydroxozine
p1055
F0.0
sVgreatly
p1056
F0.00014207346225493043
sVunwanted
p1057
F7.103673112746521e-05
sVretreat
p1058
F7.103673112746521e-05
sVeasy
p1059
F0.0
sVprison
p1060
F4.355597227403996e-05
sVweise
p1061
F0.0
sVcomplainer
p1062
F0.0
sVsave
p1063
F8.244227656027577e-05
sVtolerable
p1064
F0.0
sVgave
p1065
F0.0007840075009327192
sVbrotizolam
p1066
F0.0
sVelevation
p1067
F0.0
sVfracture
p1068
F0.0
sVmelting
p1069
F0.0
sVinvoluntary
p1070
F0.0
sVonline
p1071
F0.00013066791682211988
sVposed
p1072
F0.0
sVpossible
p1073
F0.00028935384157106447
sVchanneling
p1074
F0.0
sVpossibly
p1075
F8.037606710307347e-05
sVfusion
p1076
F0.0
sVetiquette
p1077
F0.0
sV3pm
p1078
F0.0
sVjudge
p1079
F8.711194454807991e-05
sVclickable
p1080
F7.103673112746521e-05
sVapart
p1081
F5.496151770685052e-05
sVposes
p1082
F0.0
sVoxcarbazepine
p1083
F0.0
sVmassively
p1084
F0.0
sVcognitive
p1085
F0.0
sVpsychological
p1086
F7.103673112746521e-05
sVfioricet
p1087
F0.0
sVappearing
p1088
F2.748075885342526e-05
sVbpd
p1089
F0.0
sVtapering
p1090
F0.0
sVconcious
p1091
F0.0
sVelves
p1092
F0.0
sVcool
p1093
F0.00014207346225493043
sVgifted
p1094
F0.0
sVdishonest
p1095
F7.103673112746521e-05
sV50
p1096
F0.0003215042684122939
sVluvox
p1097
F0.0
sVintermittently
p1098
F7.103673112746521e-05
sVremind
p1099
F4.355597227403996e-05
sVpavement
p1100
F7.103673112746521e-05
sVindoors
p1101
F0.0
sVsteps
p1102
F2.748075885342526e-05
sVofficer
p1103
F4.355597227403996e-05
sVsparse
p1104
F0.0
sVnight
p1105
F0.0009180049047628051
sVhung
p1106
F2.748075885342526e-05
sVinvaluable
p1107
F0.0
sVrevisiting
p1108
F0.0
sVaccuracy
p1109
F0.0
sVprepping
p1110
F0.0
sVtowards
p1111
F2.1685155230617443e-05
sVwww
p1112
F0.0006533395841105994
sVright
p1113
F0.00039033279415111397
sVold
p1114
F0.0
sVdeal
p1115
F0.0002411282013092204
sVtruncated
p1116
F7.103673112746521e-05
sVunderstand
p1117
F5.0598695538107374e-05
sVbpm
p1118
F0.0
sVhindsight
p1119
F0.0
sVsomehow
p1120
F0.00010992303541370104
sVelderly
p1121
F0.00014207346225493043
sVoh
p1122
F0.00034844777819231966
sVmileage
p1123
F0.0
sVmarplan
p1124
F0.0
sVparagraphs
p1125
F7.103673112746521e-05
sVmultiple
p1126
F0.00021777986137019978
sVserquol
p1127
F0.0
sVmanifest
p1128
F7.103673112746521e-05
sVconfusing
p1129
F4.355597227403996e-05
sVspecific
p1130
F0.00021984607082740207
sVsociology
p1131
F0.0
sVfloaters
p1132
F0.0
sVbottom
p1133
F3.6141925384362405e-05
sVteepa
p1134
F0.0
sVarmed
p1135
F7.103673112746521e-05
sVear
p1136
F7.103673112746521e-05
sVopposite
p1137
F0.00017422388909615983
sVmicrowave
p1138
F7.103673112746521e-05
sVcreative
p1139
F8.711194454807991e-05
sVeverything
p1140
F0.0001517960866143221
sVicy
p1141
F4.355597227403996e-05
sVfog
p1142
F0.0
sVimodium
p1143
F0.0
sVpondered
p1144
F0.0
sVoffices
p1145
F0.0
sVchristmas
p1146
F0.0
sVshakes
p1147
F2.748075885342526e-05
sVsubstitutes
p1148
F0.0
sVbold
p1149
F2.748075885342526e-05
sVpost
p1150
F0.0005226716672884795
sVburn
p1151
F4.355597227403996e-05
sVliver
p1152
F0.00034844777819231966
sVdisappeared
p1153
F2.748075885342526e-05
sVdiscount
p1154
F0.00042622038676479125
sVbinder
p1155
F0.0
sVxanex
p1156
F0.0
sVshifting
p1157
F7.103673112746521e-05
sVshutting
p1158
F0.00014207346225493043
sVlosing
p1159
F4.822564026184408e-05
sVmemorable
p1160
F0.0
sVfastime
p1161
F0.0
sVsuper
p1162
F0.0005662276395625195
sVproperties
p1163
F0.00010992303541370104
sVvalium
p1164
F0.0
sVparalysis
p1165
F0.0
sVrestlessness
p1166
F0.0
sVlightheaded
p1167
F0.0
sVconceal
p1168
F0.0
sVmonths
p1169
F0.0012091533895507115
sVv
p1170
F0.00042622038676479125
sVo
p1171
F7.228385076872482e-06
sVessential
p1172
F0.0
sVsnri
p1173
F0.0
sVdinner
p1174
F0.00016488455312055155
sVmisleading
p1175
F7.103673112746521e-05
sV8yrs
p1176
F0.0
sVafternoon
p1177
F0.00028414692450986085
sV450mg
p1178
F0.0
sVcommit
p1179
F4.355597227403996e-05
sVtwitch
p1180
F7.103673112746521e-05
sVslightly
p1181
F3.215042684122939e-05
sVhospital
p1182
F0.0008711194454807991
sVautomatically
p1183
F0.00013066791682211988
sVnerve
p1184
F7.103673112746521e-05
sVconsulting
p1185
F0.0
sVprilosec
p1186
F0.0
sVsubs
p1187
F0.00021311019338239562
sVod
p1188
F0.0
sVpuzzle
p1189
F7.103673112746521e-05
sVpushes
p1190
F4.355597227403996e-05
sVobtaining
p1191
F0.0
sVhyperventilate
p1192
F0.0
sVchooses
p1193
F0.0
sVdenied
p1194
F8.711194454807991e-05
sVpresenters
p1195
F0.0
sVobligate
p1196
F0.0
sVraises
p1197
F4.355597227403996e-05
sVdean
p1198
F0.0
sVreducing
p1199
F0.0
sVcubicle
p1200
F7.103673112746521e-05
sVbenadryll
p1201
F0.0
sVmethods
p1202
F7.103673112746521e-05
sVremeron
p1203
F0.0
sVquit
p1204
F0.0006097836118365594
sVrely
p1205
F4.355597227403996e-05
sVamerica
p1206
F0.0
sVstereotype
p1207
F7.103673112746521e-05
sVvaccination
p1208
F0.0
sVamazingly
p1209
F7.103673112746521e-05
sVsupport
p1210
F8.711194454807991e-05
sVinitial
p1211
F0.00010992303541370104
sVavailable
p1212
F0.0004946536593616546
sVdiseases
p1213
F0.00014207346225493043
sVraped
p1214
F4.355597227403996e-05
sVstuck
p1215
F0.0003048918059182797
sVfulminant
p1216
F0.0
sVcarthage_nursing_home_shooting
p1217
F0.0
sVserequel
p1218
F0.0
sVway
p1219
F0.0003397340986130066
sVrefills
p1220
F0.0
sVmusic
p1221
F1.4456770153744964e-05
sVempathy
p1222
F0.0
sVmetabolism
p1223
F0.00021311019338239562
sVhappy
p1224
F0.0002572034147298351
sVlowest
p1225
F7.103673112746521e-05
sVhead
p1226
F0.00013011093138370466
sVsuccessfully
p1227
F0.00014207346225493043
sVform
p1228
F0.00020897777446799101
sVoffer
p1229
F0.0001374037942671263
sVtaboo
p1230
F0.0
sVforming
p1231
F0.0
sVlorazepam
p1232
F0.0
sVdepakote
p1233
F0.0
sVbleargh
p1234
F0.0
sVforever
p1235
F0.00034844777819231966
sV30pm
p1236
F0.0
sVfailure
p1237
F8.711194454807991e-05
sVdesipramine
p1238
F0.0
sVneedles
p1239
F0.0
sVhear
p1240
F9.645128052368816e-05
sVlows
p1241
F0.0
sVlearned
p1242
F0.0007814040424021173
sVsleepapnea
p1243
F0.0
sVapproval
p1244
F0.0
sVsignificantly
p1245
F0.0
sVtrue
p1246
F6.430085368245878e-05
sVrefreshing
p1247
F8.711194454807991e-05
sVreset
p1248
F0.00014207346225493043
sVhypomanias
p1249
F0.0
sVmtx
p1250
F0.0
sVresponding
p1251
F7.103673112746521e-05
sVportions
p1252
F0.0
sVspirulina
p1253
F0.0
sVhappen
p1254
F0.0001768273476267616
sVmartial
p1255
F0.00014207346225493043
sVprevents
p1256
F0.00014207346225493043
sVinside
p1257
F2.1685155230617443e-05
sVmorning
p1258
F0.0017422388909615982
sVattached
p1259
F2.748075885342526e-05
sVbounds
p1260
F7.103673112746521e-05
sVdevices
p1261
F0.0
sVruined
p1262
F4.355597227403996e-05
sVnicest
p1263
F7.103673112746521e-05
sVentitlement
p1264
F7.103673112746521e-05
sVemotional
p1265
F0.00028414692450986085
sVfetters
p1266
F0.0
sVdelete
p1267
F8.711194454807991e-05
sVdiagnose
p1268
F7.103673112746521e-05
sVreevaluate
p1269
F0.0
sVlater
p1270
F0.0006595382124822062
sVproved
p1271
F4.355597227403996e-05
sVselegiline
p1272
F0.0
sVlowering
p1273
F0.0
sVtoss
p1274
F7.103673112746521e-05
sVescape
p1275
F1.6075213420614695e-05
sVhistory
p1276
F0.00019236531197397682
sVtextbook
p1277
F7.103673112746521e-05
sVhungry
p1278
F0.00017422388909615983
sVgland
p1279
F0.0
sVclonazapam
p1280
F0.0
sVsometime
p1281
F2.748075885342526e-05
sVmostly
p1282
F0.0003297691062411031
sVcandle
p1283
F7.103673112746521e-05
sVrequest
p1284
F5.496151770685052e-05
sVengeldinger
p1285
F0.0
sVawhile
p1286
F0.00014207346225493043
sVannoying
p1287
F5.496151770685052e-05
sVcheck
p1288
F0.0006097836118365594
sVshit
p1289
F0.001045343334576959
sVcomorbid
p1290
F0.0
sVapartment
p1291
F0.0004972571178922565
sV200mg
p1292
F0.0
sVweaned
p1293
F0.0
sVdying
p1294
F5.496151770685052e-05
sVfloor
p1295
F0.00021777986137019978
sVnoooooope
p1296
F0.0
sVna
p1297
F0.0
sVwhereas
p1298
F0.00028414692450986085
sVrelax
p1299
F0.00013066791682211988
sVgenerally
p1300
F0.00030228834738767787
sVjokela
p1301
F0.0
sVtopped
p1302
F0.0
sVtil
p1303
F5.496151770685052e-05
sVgrammatical
p1304
F0.0
sVinterested
p1305
F9.645128052368816e-05
sVrole
p1306
F0.00014207346225493043
sVsoundly
p1307
F0.0
sVtest
p1308
F0.00021984607082740207
sVdur
p1309
F0.0
sVsmell
p1310
F4.355597227403996e-05
sVroll
p1311
F0.00016488455312055155
sVmri
p1312
F0.0
sVscored
p1313
F0.0
sVpicture
p1314
F2.748075885342526e-05
sVintend
p1315
F7.103673112746521e-05
sVcanto
p1316
F0.0
sVhaha
p1317
F7.103673112746521e-05
sVfelt
p1318
F0.0011267111129904357
sVconvincing
p1319
F0.0
sVupdate
p1320
F7.103673112746521e-05
sVdiet
p1321
F0.00028414692450986085
sVstrangers
p1322
F4.355597227403996e-05
sVfell
p1323
F0.0001374037942671263
sVprofessional
p1324
F4.355597227403996e-05
sVrolling
p1325
F2.748075885342526e-05
sVneuroscience
p1326
F0.0
sVaware
p1327
F0.0
sVweekend
p1328
F0.00013066791682211988
sVdied
p1329
F8.711194454807991e-05
sVturbo
p1330
F7.103673112746521e-05
sVyounger
p1331
F0.00010992303541370104
sVhappening
p1332
F0.0003297691062411031
sVbullet
p1333
F4.355597227403996e-05
sVphone
p1334
F0.00021777986137019978
sVassume
p1335
F0.00042622038676479125
sVinterval
p1336
F0.0
sVantibiotics
p1337
F0.00021311019338239562
sVdaily
p1338
F0.0012076244291669086
sVuncovered
p1339
F0.0
sVgroinal
p1340
F0.0
sVsafe
p1341
F0.00038473062394795365
sVtime
p1342
F0.0
sVpush
p1343
F0.00021984607082740207
sVserious
p1344
F0.00019236531197397682
sVmasturbation
p1345
F0.00021311019338239562
sVrestored
p1346
F7.103673112746521e-05
sVoverdue
p1347
F0.0
sVroh
p1348
F0.0
sVurinary
p1349
F0.0
sVmanaged
p1350
F8.711194454807991e-05
sVantipsychotics
p1351
F0.0
sVlexipro
p1352
F0.0
sVswitched
p1353
F0.00034844777819231966
sVhangovers
p1354
F0.0
sVskip
p1355
F0.00017422388909615983
sVexcellent
p1356
F0.00014207346225493043
sVacademically
p1357
F0.0
sVsouls
p1358
F4.355597227403996e-05
sVinvent
p1359
F7.103673112746521e-05
sVleads
p1360
F2.748075885342526e-05
sVmanager
p1361
F4.355597227403996e-05
sVmile
p1362
F4.355597227403996e-05
sVasymptomatic
p1363
F0.0
sVgrateful
p1364
F0.0
sVskin
p1365
F7.228385076872482e-06
sVosa
p1366
F0.0
sVapollo
p1367
F0.0
sV93
p1368
F4.355597227403996e-05
sVretention
p1369
F0.00014207346225493043
sVnl
p1370
F7.103673112746521e-05
sVvet
p1371
F0.0003551836556373261
sVsuicide
p1372
F0.0009234775046570477
sVdisorders
p1373
F0.0005682938490197217
sVzonk
p1374
F0.0
sVoutdated
p1375
F4.355597227403996e-05
sVpromote
p1376
F7.103673112746521e-05
sVfather
p1377
F8.244227656027577e-05
sVcruces
p1378
F0.0
sVlactolose
p1379
F0.0
sVenvironment
p1380
F0.00013066791682211988
sV0
p1381
F0.0003920037504663596
sVfinally
p1382
F0.0003920037504663596
sVasking
p1383
F0.00030228834738767787
sVpromoting
p1384
F0.0
sVrhythm
p1385
F0.0003551836556373261
sVdiscovering
p1386
F7.103673112746521e-05
sVstabilizing
p1387
F0.0
sVgaaaahhhh
p1388
F0.0
sVmust
p1389
F0.0
sVveterans
p1390
F0.0
sVbrown
p1391
F2.748075885342526e-05
sVsmartphone
p1392
F0.0
sVjerk
p1393
F0.00014207346225493043
sVbenzodiazepines
p1394
F0.0
sVhappens
p1395
F6.430085368245878e-05
sVrecipe
p1396
F0.0
sVglycemic
p1397
F0.0
sVnone
p1398
F0.00010992303541370104
sVseemingly
p1399
F7.103673112746521e-05
sVchoice
p1400
F0.0001374037942671263
sVemergencies
p1401
F7.103673112746521e-05
sValcoholics
p1402
F0.0
sVfatigued
p1403
F0.0
sVanonymous
p1404
F4.355597227403996e-05
sVstays
p1405
F7.103673112746521e-05
sVpivoting
p1406
F0.0
sVtrouble
p1407
F0.00013011093138370466
sVminipress
p1408
F0.0
sVexact
p1409
F0.00019236531197397682
sVcoon
p1410
F0.0
sVminute
p1411
F0.0001374037942671263
sVwore
p1412
F7.103673112746521e-05
sVaggressively
p1413
F0.0
sV39621
p1414
F0.0
sVsucky
p1415
F0.0
sVlevel
p1416
F5.7827080614979855e-05
sValtering
p1417
F7.103673112746521e-05
sVdie
p1418
F3.215042684122939e-05
sVdig
p1419
F7.103673112746521e-05
sVaccidentally
p1420
F2.748075885342526e-05
sVadderal
p1421
F0.0
sVskewed
p1422
F0.0
sVleave
p1423
F0.00020897777446799101
sVp
p1424
F2.748075885342526e-05
sVplanning
p1425
F0.0
sVannihilates
p1426
F0.0
sVteam
p1427
F0.00014207346225493043
sVquick
p1428
F5.7827080614979855e-05
sVloads
p1429
F4.355597227403996e-05
sVerections
p1430
F0.0
sVdip
p1431
F7.103673112746521e-05
sVround
p1432
F4.822564026184408e-05
sVwellbutrin
p1433
F0.0
sVprevent
p1434
F8.711194454807991e-05
sVspiritual
p1435
F7.103673112746521e-05
sVtremendously
p1436
F0.0
sVsays
p1437
F3.6141925384362405e-05
sVregret
p1438
F4.355597227403996e-05
sVpeds
p1439
F0.0
sVporn
p1440
F0.00028414692450986085
sVdealing
p1441
F0.0005682938490197217
sVdisolvable
p1442
F0.0
sVstrattera
p1443
F0.0
sVmilligram
p1444
F0.0
sVnorthern_illinois_university_shooting
p1445
F0.0
sVgummies
p1446
F0.0
sVadvocacy
p1447
F0.0
sVscarce
p1448
F0.0
sVagonists
p1449
F0.0
sVpatient
p1450
F0.0009234775046570477
sVhelpless
p1451
F0.0
sVcuddly
p1452
F7.103673112746521e-05
sVfear
p1453
F8.244227656027577e-05
sVsubstitute
p1454
F0.0
sVdrinks
p1455
F0.00014207346225493043
sVafghanistan
p1456
F0.0
sVwellbutrun
p1457
F0.0
sVfistful
p1458
F0.0
sVappear
p1459
F0.00013066791682211988
sVpsychotropic
p1460
F0.0
sVheres
p1461
F0.0
sVnlm
p1462
F0.0
sVassistance
p1463
F0.0
sVanecdotes
p1464
F0.0
sV25mg
p1465
F0.0
sVcurrent
p1466
F0.00030228834738767787
sVremembered
p1467
F2.748075885342526e-05
sVirritating
p1468
F0.0
sVsuspect
p1469
F4.355597227403996e-05
sVtemplate
p1470
F0.0
sVview
p1471
F8.037606710307347e-05
sVeaten
p1472
F4.355597227403996e-05
sVreply
p1473
F4.355597227403996e-05
sVfalling
p1474
F0.00043555972274039956
sVground
p1475
F2.748075885342526e-05
sVboost
p1476
F0.0
sVthc
p1477
F0.0
sVfilled
p1478
F3.215042684122939e-05
sVparadoxical
p1479
F0.0
sVfocalin
p1480
F0.0
sVprescriptions
p1481
F0.0
sVheavily
p1482
F0.00021777986137019978
sVgrandparents
p1483
F7.103673112746521e-05
sVendorse
p1484
F0.0
sVinvoluntarily
p1485
F0.0
sVfrench
p1486
F4.355597227403996e-05
sVunderstanding
p1487
F2.748075885342526e-05
sVwater
p1488
F0.00019236531197397682
sVpause
p1489
F1.6075213420614695e-05
sVtopiramate
p1490
F0.0
sVobsessing
p1491
F0.0
sVaddress
p1492
F0.00013066791682211988
sValone
p1493
F0.00043969214165480414
sVsativa
p1494
F0.0
sValong
p1495
F7.228385076872481e-05
sVrefused
p1496
F0.00014207346225493043
sVpopular
p1497
F7.103673112746521e-05
sVappears
p1498
F1.6075213420614695e-05
sVchange
p1499
F0.0002473268296808273
sVwait
p1500
F4.822564026184408e-05
sVbox
p1501
F3.215042684122939e-05
sVboy
p1502
F2.748075885342526e-05
sVdiagnoses
p1503
F0.0
sVtianeptine
p1504
F0.0
sVincoming
p1505
F0.0
sVnoticeable
p1506
F0.00014207346225493043
sVbattling
p1507
F0.0
sVhealthy
p1508
F0.00021984607082740207
sVshift
p1509
F0.00021311019338239562
sVrecollected
p1510
F0.0
sVstudied
p1511
F0.00028414692450986085
sVguilty
p1512
F0.00021311019338239562
sVfinnish
p1513
F0.0
sVcommonly
p1514
F0.0
sVqueue
p1515
F0.0
sVtrial
p1516
F0.00026133583364423976
sVaccomplished
p1517
F4.355597227403996e-05
sVineffective
p1518
F0.0003551836556373261
sVtotal
p1519
F0.00030228834738767787
sVdiagnosed
p1520
F0.0
sVsuggestion
p1521
F0.00013066791682211988
sVusually
p1522
F0.0010167880775767346
sVweird
p1523
F0.0004946536593616546
sVmirtazapine
p1524
F0.0
sVstudies
p1525
F0.00021311019338239562
sVmassage
p1526
F0.00014207346225493043
sVlowers
p1527
F7.103673112746521e-05
sVspurts
p1528
F0.0
sVteenage
p1529
F7.103673112746521e-05
sVtasks
p1530
F0.0
sVlove
p1531
F0.00011252649394430286
sVconfidentiality
p1532
F7.103673112746521e-05
sVhiking
p1533
F0.0
sVdefer
p1534
F0.0
sVtweak
p1535
F0.0
sVmerely
p1536
F0.0
sVprefer
p1537
F0.0001374037942671263
sVlogical
p1538
F0.0
sVjolt
p1539
F0.0
sVmobic
p1540
F0.0
sVcvp06t4
p1541
F0.0
sVclomiphene
p1542
F0.0
sVverge
p1543
F0.0
sVfake
p1544
F0.00014207346225493043
sVtrazodon
p1545
F0.0
sVtuesday
p1546
F0.0
sVswallowed
p1547
F0.00014207346225493043
sVlistened
p1548
F0.0
sVrelating
p1549
F0.0
sVmarket
p1550
F4.355597227403996e-05
sVsympathetic
p1551
F0.0
sVterminal
p1552
F4.355597227403996e-05
sVundergone
p1553
F0.0
sVmentalhealth
p1554
F0.0
sVworking
p1555
F0.0
sVflatline
p1556
F0.0
sVunimpressed
p1557
F0.0
sVpositive
p1558
F0.00016488455312055155
sVangry
p1559
F0.00013066791682211988
sVstated
p1560
F0.00014207346225493043
sVvisit
p1561
F0.00019236531197397682
sVcory
p1562
F0.0
sVmasturbating
p1563
F7.103673112746521e-05
sVlive
p1564
F7.951223584559729e-05
sVapproach
p1565
F4.355597227403996e-05
sVandy
p1566
F0.0
sVopposed
p1567
F8.711194454807991e-05
sVwondering
p1568
F0.00014207346225493043
sVahhh
p1569
F0.0
sVbelieving
p1570
F0.0
sVtachycardia
p1571
F0.0
sVminnesota
p1572
F0.0
sVlessened
p1573
F0.0
sVtoday
p1574
F0.00022505298788860572
sVaspirin
p1575
F0.0
sVhooked
p1576
F7.103673112746521e-05
sVfierce
p1577
F0.0
sVsessions
p1578
F7.103673112746521e-05
sVafford
p1579
F0.00014207346225493043
sVshare
p1580
F3.215042684122939e-05
sVacceptable
p1581
F0.00021311019338239562
sVasa
p1582
F0.0
sVenvelope
p1583
F0.0
sVvalidity
p1584
F0.0
sVclue
p1585
F8.711194454807991e-05
sVfuel
p1586
F0.0
sVvisual
p1587
F7.103673112746521e-05
sVtandem
p1588
F0.0
sVeverywhere
p1589
F5.496151770685052e-05
sVsit
p1590
F0.00010992303541370104
sVclonozapan
p1591
F0.0
sVcases
p1592
F0.00028414692450986085
sVgiven
p1593
F0.00013011093138370466
sVeffort
p1594
F7.103673112746521e-05
sVopaque
p1595
F7.103673112746521e-05
sVinsights
p1596
F0.0
sVfly
p1597
F2.748075885342526e-05
sVimpair
p1598
F0.0
sVedible
p1599
F7.103673112746521e-05
sVopioids
p1600
F0.0
sVbeers
p1601
F8.711194454807991e-05
sVavoiding
p1602
F0.00028414692450986085
sVoriginally
p1603
F0.00021777986137019978
sVdepressants
p1604
F0.0
sVreflux
p1605
F0.0
sVhyphenated
p1606
F0.0
sVinflamed
p1607
F0.0
sVbelieves
p1608
F7.103673112746521e-05
sVovernight
p1609
F0.00014207346225493043
sVattacks
p1610
F0.000994514235784513
sVhardest
p1611
F0.0003551836556373261
sVdrags
p1612
F4.355597227403996e-05
sVachieve
p1613
F0.00014207346225493043
sVaripiprazole
p1614
F0.0
sVbelieved
p1615
F0.0
sVmaking
p1616
F0.00013733931646057714
sVdetached
p1617
F0.0
sVcarolina
p1618
F0.0
sVdosage
p1619
F0.0012786611602943739
sVstimulating
p1620
F0.0
sVregularly
p1621
F0.00014207346225493043
sVcrazy
p1622
F0.0005226716672884795
sVreasonably
p1623
F7.103673112746521e-05
sVstream
p1624
F7.103673112746521e-05
sVawesome
p1625
F7.103673112746521e-05
sVfuck
p1626
F0.0008524407735295825
sVagent
p1627
F5.496151770685052e-05
sVtopic
p1628
F0.00017422388909615983
sVheard
p1629
F0.00016075213420614694
sVdxm
p1630
F0.0
sVslows
p1631
F7.103673112746521e-05
sVyard
p1632
F0.0
sVallowed
p1633
F0.00016075213420614694
sVcapsules
p1634
F0.0
sVbelsomra
p1635
F0.0
sVoccur
p1636
F7.103673112746521e-05
sVpink
p1637
F8.711194454807991e-05
sVconflict
p1638
F0.00014207346225493043
sVproductive
p1639
F0.00028414692450986085
sVwinter
p1640
F4.355597227403996e-05
sVswitches
p1641
F7.103673112746521e-05
sVdiscussion
p1642
F4.355597227403996e-05
sVdelirious
p1643
F7.103673112746521e-05
sVwarfarin
p1644
F0.0
sVfph
p1645
F0.0
sVnyu
p1646
F0.0
sVchemical
p1647
F0.00021311019338239562
sVimmune
p1648
F7.103673112746521e-05
sVcatnip
p1649
F0.0
sVactual
p1650
F7.103673112746521e-05
sVpure
p1651
F1.6075213420614695e-05
sVpins
p1652
F0.0
sVplus
p1653
F0.0002473268296808273
sVguarantee
p1654
F0.00014207346225493043
sVnye
p1655
F0.0
sVstaying
p1656
F0.0003048918059182797
sVflirting
p1657
F7.103673112746521e-05
sVwhacked
p1658
F7.103673112746521e-05
sVirrational
p1659
F0.0
sVcocktail
p1660
F0.0004972571178922565
sVinformation
p1661
F8.711194454807991e-05
sVmay
p1662
F0.00041924633445860395
sVmax
p1663
F0.00014207346225493043
sVbarbiturates
p1664
F0.0
sVfed
p1665
F4.355597227403996e-05
sVspot
p1666
F0.00010992303541370104
sVgrog
p1667
F0.0
sVbrazen
p1668
F0.0
sVailments
p1669
F0.0
sVemdr
p1670
F0.0
sVapplications
p1671
F7.103673112746521e-05
sVexplored
p1672
F0.0
sVmad
p1673
F1.6075213420614695e-05
sVseeing
p1674
F0.0002748075885342526
sVimproving
p1675
F0.00013066791682211988
sVlessen
p1676
F0.0
sVsuck
p1677
F0.00013066791682211988
sVdestructive
p1678
F7.103673112746521e-05
sVdata
p1679
F0.0009234775046570477
sVgrow
p1680
F0.00013066791682211988
sVlifting
p1681
F8.711194454807991e-05
sVman
p1682
F7.951223584559729e-05
sVstress
p1683
F0.0008275634732067592
sVnatural
p1684
F0.00021777986137019978
sVneck
p1685
F8.711194454807991e-05
sVjohnson
p1686
F0.0
sVconscious
p1687
F0.00028414692450986085
sVwhenever
p1688
F8.711194454807991e-05
sVmaybe
p1689
F0.0
sVgoal
p1690
F7.103673112746521e-05
sVexplicit
p1691
F7.103673112746521e-05
sVrxed
p1692
F0.0
sVquotes
p1693
F4.355597227403996e-05
sVst
p1694
F0.0
sVtale
p1695
F4.355597227403996e-05
sVprovide
p1696
F0.00014207346225493043
sVswitch
p1697
F0.00021777986137019978
sVcannot
p1698
F0.00011252649394430286
sVjail
p1699
F4.355597227403996e-05
sVcrept
p1700
F0.0
sVsa
p1701
F0.0003551836556373261
sVincrease
p1702
F0.00043555972274039956
sVpulled
p1703
F2.748075885342526e-05
sVtalk
p1704
F0.001071749595283585
sV2mg
p1705
F0.0
sVimagining
p1706
F7.103673112746521e-05
sVcute
p1707
F8.711194454807991e-05
sVlsd
p1708
F0.0
sVbreaking
p1709
F1.6075213420614695e-05
sVshoes
p1710
F8.711194454807991e-05
sVcorrelation
p1711
F0.0
sVindeed
p1712
F5.496151770685052e-05
sVpointed
p1713
F0.00017422388909615983
sVmianserin
p1714
F0.0
sVmidnight
p1715
F4.355597227403996e-05
sVimmodium
p1716
F0.0
sVyears
p1717
F0.0009323623783956522
sVsuccesful
p1718
F0.0
sVcourse
p1719
F0.00027327862815044974
sVepisodes
p1720
F0.0
sVexperiments
p1721
F0.0
sVtablets
p1722
F0.0
sVshake
p1723
F4.355597227403996e-05
sVttc
p1724
F0.0
sV122
p1725
F0.0
sVcold
p1726
F0.0002473268296808273
sVstill
p1727
F0.0
sVft
p1728
F7.103673112746521e-05
sVcited
p1729
F0.0
sVgrout
p1730
F0.0
sVaccepted
p1731
F0.00013066791682211988
sVpolice
p1732
F0.00021777986137019978
sVthank
p1733
F0.00019236531197397682
sVinternationally
p1734
F0.0
sVlackluster
p1735
F0.0
sVinteresting
p1736
F0.0001768273476267616
sVotherresources
p1737
F0.0
sVtroubles
p1738
F0.0
sVamazing
p1739
F0.0003048918059182797
sVdecreases
p1740
F0.0
sVconvince
p1741
F2.748075885342526e-05
sVforms
p1742
F7.103673112746521e-05
sVwindow
p1743
F1.6075213420614695e-05
sVoffers
p1744
F1.6075213420614695e-05
sVsuspicion
p1745
F7.103673112746521e-05
sVdecreased
p1746
F0.0
sVmain
p1747
F2.1685155230617443e-05
sVuptake
p1748
F0.0
sVnortriptyline
p1749
F0.0
sVdeviant
p1750
F0.0
sVhappened
p1751
F6.430085368245878e-05
sVcorrespondence
p1752
F0.0
sVnon
p1753
F0.00010842577615308721
sVjohns
p1754
F0.0
sVstabilizers
p1755
F0.0
sVviews
p1756
F4.355597227403996e-05
sVimpulses
p1757
F0.0
sVsmarter
p1758
F4.355597227403996e-05
sVkiller
p1759
F2.748075885342526e-05
sVinsomnia
p1760
F0.0
sVsooner
p1761
F7.103673112746521e-05
sVunderneath
p1762
F1.6075213420614695e-05
sVrecords
p1763
F0.0003551836556373261
sVqualified
p1764
F7.103673112746521e-05
sVrexulti
p1765
F0.0
sVunimpressive
p1766
F0.0
sVhalf
p1767
F0.00028190701799802676
sVps
p1768
F7.103673112746521e-05
sVsorted
p1769
F7.103673112746521e-05
sVbath
p1770
F7.103673112746521e-05
sVkilled
p1771
F0.0006320574536287809
sVmaintaining
p1772
F7.103673112746521e-05
sVwont
p1773
F0.00014207346225493043
sVrehabbbb
p1774
F0.0
sVryu
p1775
F0.0
sVname
p1776
F7.951223584559729e-05
sVstabilize
p1777
F0.0
sVstahl
p1778
F0.0
sVcognition
p1779
F7.103673112746521e-05
sVdidn
p1780
F0.0005349004956885636
sVrolls
p1781
F4.355597227403996e-05
sVflown
p1782
F0.0
sVestablishing
p1783
F7.103673112746521e-05
sVrealistic
p1784
F0.0
sVdysphoric
p1785
F0.0
sVrock
p1786
F8.244227656027577e-05
sVantiepileptic
p1787
F0.0
sVpharmacies
p1788
F0.0
sVentirely
p1789
F3.215042684122939e-05
sVmirtazepine
p1790
F0.0
sVrepaired
p1791
F0.0
sVlast
p1792
F0.0003035921732286442
sVindividually
p1793
F4.355597227403996e-05
sVel
p1794
F7.103673112746521e-05
sVgerontology
p1795
F0.0
sVen
p1796
F0.00034844777819231966
sVeh
p1797
F2.748075885342526e-05
sVpopulated
p1798
F7.103673112746521e-05
sVsploshing
p1799
F0.0
sVed
p1800
F4.355597227403996e-05
sVeg
p1801
F0.00014207346225493043
sVgrowths
p1802
F0.0
sVnightlight
p1803
F0.0
sVyeah
p1804
F0.000958231390028879
sVinstability
p1805
F0.0
sVchallenges
p1806
F0.0
sVreplay
p1807
F0.0
sVhypothesis
p1808
F0.00014207346225493043
sVex
p1809
F0.00013066791682211988
sVbegun
p1810
F0.00014207346225493043
sVsignage
p1811
F0.0
sVgtfo
p1812
F0.0
sVgirl
p1813
F3.215042684122939e-05
sVworried
p1814
F0.00016488455312055155
sVpills
p1815
F0.0013496978914218389
sVsunrise
p1816
F4.355597227403996e-05
sVer
p1817
F5.496151770685052e-05
sVcanada
p1818
F0.0
sVliving
p1819
F7.951223584559729e-05
sVultimately
p1820
F7.103673112746521e-05
sVmedications
p1821
F0.0
sVjackson
p1822
F0.0
sVopened
p1823
F0.00011252649394430286
sVbrags
p1824
F0.0
sVfactors
p1825
F7.103673112746521e-05
sVfurthermore
p1826
F7.103673112746521e-05
sVsunburnt
p1827
F0.0
sVactivities
p1828
F0.0
sVtingly
p1829
F0.0
sVsomeplace
p1830
F7.103673112746521e-05
sVboundless
p1831
F0.0
sVinvestigation
p1832
F7.103673112746521e-05
sVtrauma
p1833
F0.0
sVsmells
p1834
F4.355597227403996e-05
sVhacked
p1835
F4.355597227403996e-05
sVinternet
p1836
F0.0003048918059182797
sVsuggesting
p1837
F0.00013066791682211988
sVbless
p1838
F4.355597227403996e-05
sVpocd
p1839
F0.0
sVcorrect
p1840
F8.711194454807991e-05
sVhcl
p1841
F0.0
sVchemically
p1842
F0.0
sVmaneuver
p1843
F0.0
sVneurotrophic
p1844
F0.0
sVfacedown
p1845
F0.0
sVtheory
p1846
F0.00028414692450986085
sVstate
p1847
F0.0001374037942671263
sVimprovement
p1848
F4.355597227403996e-05
sVmillion
p1849
F0.0005682938490197217
sVmechanisms
p1850
F0.0
sVpossibility
p1851
F0.00013066791682211988
sVquite
p1852
F0.00019516639707555699
sVantihistamines
p1853
F0.0
sVbatches
p1854
F0.0
sVadvantages
p1855
F0.0
sVdemanding
p1856
F7.103673112746521e-05
sVbesides
p1857
F0.00034844777819231966
sVcounteracted
p1858
F0.0
sVstrips
p1859
F4.355597227403996e-05
sVorg
p1860
F0.0011365876980394434
sVcough
p1861
F5.496151770685052e-05
sVaweful
p1862
F0.0
sVcard
p1863
F8.711194454807991e-05
sVfairyland
p1864
F0.0
sVtraining
p1865
F0.00017422388909615983
sVcycles
p1866
F7.103673112746521e-05
sVcouldn
p1867
F0.0004661811891978261
sVlanguage
p1868
F5.496151770685052e-05
sVteachers
p1869
F0.0
sVwaiter
p1870
F0.00014207346225493043
sVflare
p1871
F0.0
sVdeprivation
p1872
F0.0
sVpictures
p1873
F4.355597227403996e-05
sVcalories
p1874
F7.103673112746521e-05
sVcontented
p1875
F0.0
sVbritish
p1876
F0.0
sV10mg
p1877
F0.0
sVmotion
p1878
F4.355597227403996e-05
sVthing
p1879
F0.00032527732845926164
sVlivable
p1880
F0.0
sVplace
p1881
F7.951223584559729e-05
sVundesirable
p1882
F0.0
sVlactation
p1883
F7.103673112746521e-05
sVnetherlands
p1884
F0.0
sVraisins
p1885
F0.0
sVrisks
p1886
F0.0
sVwarning
p1887
F2.748075885342526e-05
sVchildhood
p1888
F0.0
sVfirst
p1889
F0.0006360978867647783
sVemotion
p1890
F7.103673112746521e-05
sVgunshot
p1891
F0.0
sVconstantly
p1892
F0.0001374037942671263
sVsaving
p1893
F5.496151770685052e-05
sVnumb
p1894
F0.0
sVxl
p1895
F0.0
sVguessing
p1896
F4.355597227403996e-05
sVspoken
p1897
F0.00014207346225493043
sVvariables
p1898
F7.103673112746521e-05
sV22
p1899
F0.00019236531197397682
sVsafety
p1900
F0.00013066791682211988
sVflipping
p1901
F0.0
sVunisom
p1902
F0.0
sVamericans
p1903
F0.0
sVspecifically
p1904
F0.0
sVdirectly
p1905
F5.496151770685052e-05
sVcarry
p1906
F7.228385076872482e-06
sVimpossible
p1907
F0.00021777986137019978
sVsounds
p1908
F0.0007404515286586793
sVfight
p1909
F8.244227656027577e-05
sVopen
p1910
F0.0
sVtomorrow
p1911
F0.00014207346225493043
sVdischarged
p1912
F0.0
sVsize
p1913
F1.6075213420614695e-05
sVcity
p1914
F8.244227656027577e-05
sVlittle
p1915
F0.0
sVnecessarily
p1916
F0.00017422388909615983
sVsheet
p1917
F2.748075885342526e-05
sVsilent
p1918
F4.355597227403996e-05
sVquality
p1919
F0.0003297691062411031
sVbite
p1920
F1.6075213420614695e-05
sVslept
p1921
F0.0013496978914218389
sVcarbonate
p1922
F0.0
sVvendors
p1923
F0.0
sVanyone
p1924
F0.00020897777446799101
sVpsychotic
p1925
F0.0005682938490197217
sVteacher
p1926
F0.0006393305801471869
sV2
p1927
F0.0004698450299967113
sVterrifying
p1928
F0.0
sVstuffed
p1929
F4.355597227403996e-05
sVtyping
p1930
F8.711194454807991e-05
sV300mcg
p1931
F0.0
sVamphetamines
p1932
F0.0
sVspeaking
p1933
F0.00017422388909615983
sVgives
p1934
F0.00012860170736491756
sVeyes
p1935
F9.645128052368816e-05
sVgroggy
p1936
F0.0
sVspiral
p1937
F7.103673112746521e-05
sVreleases
p1938
F4.355597227403996e-05
sVhypnotics
p1939
F0.0
sVseason
p1940
F7.103673112746521e-05
sVhallucinate
p1941
F0.0
sVscrewing
p1942
F0.0
sVprescribers
p1943
F0.0
sVcops
p1944
F7.103673112746521e-05
sVavoided
p1945
F0.00021311019338239562
sVeyed
p1946
F4.355597227403996e-05
sVprobably
p1947
F0.0007555350307688906
sVcopy
p1948
F5.496151770685052e-05
sVcleanse
p1949
F0.0
sVmessage
p1950
F8.244227656027577e-05
sVspecify
p1951
F7.103673112746521e-05
sVinventor
p1952
F0.0
sV11
p1953
F5.0598695538107374e-05
sVwide
p1954
F6.430085368245878e-05
sV13
p1955
F0.00019236531197397682
sV12
p1956
F0.00013733931646057714
sV15
p1957
F0.00013011093138370466
sV14
p1958
F0.0006045766947753557
sV17
p1959
F0.00016488455312055155
sV16
p1960
F0.0002748075885342526
sV19
p1961
F8.244227656027577e-05
sV18
p1962
F0.00043969214165480414
sVgotta
p1963
F0.00017422388909615983
sVspazzing
p1964
F0.0
sVwar
p1965
F0.00013066791682211988
sVrehab
p1966
F0.00028414692450986085
sVfuture
p1967
F0.00011252649394430286
sVbooted
p1968
F0.0
sVcards
p1969
F4.355597227403996e-05
sVcollege
p1970
F0.0004972571178922565
sVcounselor
p1971
F7.103673112746521e-05
sVwandering
p1972
F7.103673112746521e-05
sVmeticulous
p1973
F0.0
sVpre
p1974
F8.711194454807991e-05
sVaddressing
p1975
F0.0
sVillness
p1976
F0.0
sVsan
p1977
F0.0
sVoverdosing
p1978
F0.0
sVpro
p1979
F0.0
sVcymbalta
p1980
F0.0
sVturned
p1981
F2.1685155230617443e-05
sVmarijuana
p1982
F0.00028414692450986085
sVvoices
p1983
F0.0
sVwinding
p1984
F0.0
sVsay
p1985
F0.00021685155230617443
sVpubmed
p1986
F0.0
sVtetracyclic
p1987
F0.0
sVtylenol
p1988
F0.0
sVbreakfast
p1989
F8.711194454807991e-05
sVrecover
p1990
F5.496151770685052e-05
sVoccupied
p1991
F0.0
sVkevin
p1992
F0.0
sVsat
p1993
F7.103673112746521e-05
sVshtml
p1994
F0.0
sVsandwich
p1995
F7.103673112746521e-05
sVwink
p1996
F0.0
sVwarriors
p1997
F0.0
sVfucking
p1998
F0.0006393305801471869
sVanswering
p1999
F4.355597227403996e-05
sVnuvigil
p2000
F0.0
sVaside
p2001
F0.00010992303541370104
sVshocked
p2002
F0.00013066791682211988
sVnote
p2003
F6.430085368245878e-05
sVdamn
p2004
F0.0003551836556373261
sVrumination
p2005
F0.0
sVpotential
p2006
F0.0004972571178922565
sVdisadvantage
p2007
F0.0
sVattempted
p2008
F0.00014207346225493043
sVresembling
p2009
F0.0
sVdestroy
p2010
F0.00014207346225493043
sVswitching
p2011
F0.00017422388909615983
sVchannel
p2012
F4.355597227403996e-05
sV200
p2013
F0.00021311019338239562
sVironically
p2014
F0.0
sVsure
p2015
F0.000626933323403973
sVpain
p2016
F0.0002748075885342526
sVnsaids
p2017
F0.0
sVtrace
p2018
F0.0
sVnormal
p2019
F0.00043969214165480414
sVtrack
p2020
F8.711194454807991e-05
sVhit
p2021
F8.037606710307347e-05
sVdecreasing
p2022
F0.0
sVphases
p2023
F0.0
sVpaid
p2024
F8.711194454807991e-05
sVimportantly
p2025
F0.0
sVslurred
p2026
F0.0
sVfreshman
p2027
F7.103673112746521e-05
sVcleared
p2028
F4.355597227403996e-05
sVpages
p2029
F8.711194454807991e-05
sVinvolving
p2030
F4.355597227403996e-05
sVoverwhelming
p2031
F0.0
sVunknowable
p2032
F0.0
sVespecially
p2033
F0.00027327862815044974
sVsurprising
p2034
F4.355597227403996e-05
sVfills
p2035
F4.355597227403996e-05
sVconsidered
p2036
F0.00034844777819231966
sVexciteable
p2037
F0.0
sVaverage
p2038
F0.00034844777819231966
sV8mg
p2039
F0.0
sVinfections
p2040
F7.103673112746521e-05
sVdrive
p2041
F0.00021777986137019978
sVdefeating
p2042
F0.0
sVproperly
p2043
F3.215042684122939e-05
sVwind
p2044
F5.496151770685052e-05
sVsubsequent
p2045
F7.103673112746521e-05
sVuncle
p2046
F7.103673112746521e-05
sVexacerbation
p2047
F0.0
sVtypically
p2048
F0.0003551836556373261
sVcuz
p2049
F7.103673112746521e-05
sVlaws
p2050
F7.103673112746521e-05
sVevent
p2051
F0.00016488455312055155
sVstimulator
p2052
F0.0
sVdrastically
p2053
F0.0
sVshot
p2054
F0.0003536546952535232
sVregulated
p2055
F0.0
sVshow
p2056
F3.6141925384362405e-05
sVcheap
p2057
F0.00013066791682211988
sVdiscovered
p2058
F8.244227656027577e-05
sV20mg
p2059
F0.0
sVbright
p2060
F5.496151770685052e-05
sVtherapist
p2061
F0.0008524407735295825
sVinconsistent
p2062
F4.355597227403996e-05
sVmazing
p2063
F0.0
sVbuilds
p2064
F4.355597227403996e-05
sVvenlafaxin
p2065
F0.0
sVcorner
p2066
F3.215042684122939e-05
sVpercs
p2067
F0.0
sVinhibitors
p2068
F0.0
sVimagined
p2069
F7.103673112746521e-05
sVinjection
p2070
F0.0
sVfifth
p2071
F0.00014207346225493043
sVrealizing
p2072
F0.0
sVslow
p2073
F9.645128052368816e-05
sVfarting
p2074
F0.00021311019338239562
sVtitle
p2075
F4.355597227403996e-05
sVnodded
p2076
F0.0
sVzombie
p2077
F0.00014207346225493043
sVdick
p2078
F0.00021311019338239562
sVlopram
p2079
F0.0
sVconsiderable
p2080
F4.355597227403996e-05
sVtears
p2081
F8.711194454807991e-05
sVgoing
p2082
F0.0
sVblack
p2083
F4.822564026184408e-05
sVworthwhile
p2084
F7.103673112746521e-05
sVequipped
p2085
F0.0
sVteary
p2086
F0.0
sVwatching
p2087
F0.00013066791682211988
sVdreaded
p2088
F0.00021311019338239562
sVclinically
p2089
F0.0
sVawareness
p2090
F0.0
sVdispute
p2091
F0.0
sVbridge
p2092
F2.748075885342526e-05
sVfda
p2093
F0.0
sVnootropics
p2094
F0.0
sVcorrectly
p2095
F8.244227656027577e-05
sVhostage
p2096
F0.0
sVffs
p2097
F0.0
sVatypical
p2098
F7.103673112746521e-05
sVdiamonds
p2099
F7.103673112746521e-05
sVcountered
p2100
F0.0
sVtruly
p2101
F8.711194454807991e-05
sVherbal
p2102
F0.00028414692450986085
sVkillers
p2103
F0.0
sVnearly
p2104
F6.505546569185233e-05
sVdistinctly
p2105
F0.0
sVsse
p2106
F0.0
sVconjunction
p2107
F0.0
sVrequip
p2108
F0.0
sVcelebrate
p2109
F7.103673112746521e-05
sVfreaking
p2110
F7.103673112746521e-05
sVprime
p2111
F7.103673112746521e-05
sVregarding
p2112
F4.355597227403996e-05
sVzofran
p2113
F0.0
sVcar
p2114
F0.00010992303541370104
sVsmoking
p2115
F0.0003048918059182797
sVsettings
p2116
F7.103673112746521e-05
sVseldom
p2117
F7.103673112746521e-05
sVmych
p2118
F0.0
sVklebold
p2119
F0.0
sVabsurdly
p2120
F0.0
sVchecks
p2121
F0.00013066791682211988
sVjokes
p2122
F4.355597227403996e-05
sVtdoc
p2123
F0.0
sVstupid
p2124
F0.0002748075885342526
sVdeferral
p2125
F0.0
sVbombs
p2126
F4.355597227403996e-05
sVworries
p2127
F0.00013066791682211988
sVpants
p2128
F0.00014207346225493043
sVworrying
p2129
F0.0
sVvision
p2130
F0.0
sVwiki
p2131
F0.0
sVpsychedelics
p2132
F0.0
sVallosteric
p2133
F0.0
sVmedicated
p2134
F0.00021311019338239562
sVhighest
p2135
F0.00021311019338239562
sVhonesty
p2136
F0.0
sVbuuuuut
p2137
F0.0
sVphysically
p2138
F0.00042622038676479125
sVreplies
p2139
F7.103673112746521e-05
sVblurred
p2140
F7.103673112746521e-05
sVconnections
p2141
F4.355597227403996e-05
sVactively
p2142
F0.0
sVasleep
p2143
F0.002134242641427958
sVanyways
p2144
F8.711194454807991e-05
sVangina
p2145
F0.0
sVstigma
p2146
F0.0
sVsurgery
p2147
F0.00021311019338239562
sVsandoz
p2148
F0.0
sVterror
p2149
F0.0
sVwonder
p2150
F0.00016488455312055155
sVkurt
p2151
F0.0
sVpoops
p2152
F7.103673112746521e-05
sVpsychosis
p2153
F0.0
sVautoincorrects
p2154
F0.0
sVways
p2155
F0.00014467692078553223
sVjumped
p2156
F8.711194454807991e-05
sVreview
p2157
F0.0
sVcommitments
p2158
F0.0
sVlabel
p2159
F0.0003297691062411031
sVolder
p2160
F4.822564026184408e-05
sVbehind
p2161
F2.1685155230617443e-05
sVtea
p2162
F0.0001374037942671263
sVrefreshed
p2163
F0.00014207346225493043
sVaffecting
p2164
F0.0
sVcautiously
p2165
F7.103673112746521e-05
sVunprescribed
p2166
F0.0
sVreading
p2167
F0.00014467692078553223
sVsnorted
p2168
F0.0
sVacross
p2169
F0.00010992303541370104
sVverification
p2170
F0.0003551836556373261
sVaffordable
p2171
F0.0
sVnotice
p2172
F6.430085368245878e-05
sVmature
p2173
F2.748075885342526e-05
sVparent
p2174
F4.355597227403996e-05
sVsomnolence
p2175
F0.0
sVscreen
p2176
F0.00013066791682211988
sVsuppresses
p2177
F0.0
sVwednesday
p2178
F0.0
sV7h
p2179
F0.0
sVconcentrate
p2180
F7.103673112746521e-05
sVheal
p2181
F0.0
sVcoma
p2182
F7.103673112746521e-05
sVarticle
p2183
F2.748075885342526e-05
sVpharmacists
p2184
F0.0
sVkilling
p2185
F0.0008524407735295825
sVcome
p2186
F0.00013011093138370466
sVreaction
p2187
F0.00034844777819231966
sVrugby
p2188
F0.0
sVncbi
p2189
F0.0
sVtopamax
p2190
F0.0
sVsuccesses
p2191
F0.0
sVmany
p2192
F0.0
sVaccording
p2193
F6.430085368245878e-05
sVcalled
p2194
F0.0003536546952535232
sVndri
p2195
F0.0
sVsomewhere
p2196
F0.00011252649394430286
sVloudly
p2197
F4.355597227403996e-05
sVdelirium
p2198
F0.0
sVlatuda
p2199
F0.0
sVexpression
p2200
F2.748075885342526e-05
sVbackpack
p2201
F7.103673112746521e-05
sVcomes
p2202
F0.0001374037942671263
sVnearby
p2203
F4.355597227403996e-05
sVamong
p2204
F0.00013066791682211988
sVstretches
p2205
F7.103673112746521e-05
sVcancer
p2206
F0.0003551836556373261
sVparoxetine
p2207
F0.0
sVcolor
p2208
F2.748075885342526e-05
sVpot
p2209
F0.00017422388909615983
sVkicking
p2210
F0.0003551836556373261
sVperiod
p2211
F0.00012860170736491756
sVinsist
p2212
F7.103673112746521e-05
sVadjudication
p2213
F0.0
sV60
p2214
F0.0003048918059182797
sVvenlafaxine
p2215
F0.0
sVlevomepromazine
p2216
F0.0
sVtricyclic
p2217
F0.0
sVdiffer
p2218
F7.103673112746521e-05
sVconfirm
p2219
F0.00017422388909615983
sVlearning
p2220
F0.00013066791682211988
sVtrimmed
p2221
F4.355597227403996e-05
sVconstant
p2222
F8.711194454807991e-05
sVbizarre
p2223
F0.00014207346225493043
sVcomprehend
p2224
F0.0
sVgauntlet
p2225
F0.0
sVboat
p2226
F7.103673112746521e-05
sVmohltc
p2227
F0.0
sVcaring
p2228
F0.00014207346225493043
sVsymptoms
p2229
F0.0
sVarts
p2230
F4.355597227403996e-05
sVcities
p2231
F0.00028414692450986085
sVcholestatic
p2232
F0.0
sVneurogenesis
p2233
F0.0
sVconyers
p2234
F0.0
sVwest
p2235
F0.00014207346225493043
sVlocally
p2236
F7.103673112746521e-05
sVvacation
p2237
F0.00014207346225493043
sVturkey
p2238
F0.00028414692450986085
sVvials
p2239
F0.0
sVcombined
p2240
F0.00021777986137019978
sVwakefulness
p2241
F0.0
sVdangers
p2242
F7.103673112746521e-05
sVcommenting
p2243
F0.00014207346225493043
sVmarx
p2244
F0.0
sV15mg
p2245
F0.0
sVsystems
p2246
F7.103673112746521e-05
sVwants
p2247
F0.0
sVdirection
p2248
F1.4456770153744964e-05
sVeducated
p2249
F8.711194454807991e-05
sVshopping
p2250
F8.711194454807991e-05
sV400
p2251
F4.355597227403996e-05
sVandrew
p2252
F0.0
sV6p
p2253
F0.0
sVobserve
p2254
F4.355597227403996e-05
sVwake
p2255
F0.0014015187015246882
sVmuscular
p2256
F4.355597227403996e-05
sV8h
p2257
F0.0
sVoverdose
p2258
F0.0003551836556373261
sVhardcore
p2259
F7.103673112746521e-05
sVevidence
p2260
F0.0003048918059182797
sVirrelevant
p2261
F7.103673112746521e-05
sVdiffuse
p2262
F7.103673112746521e-05
sV1mg
p2263
F0.0
sVcountless
p2264
F0.0
sVsound
p2265
F9.645128052368816e-05
sVpredicament
p2266
F0.0
sVkappa
p2267
F0.0
sVdisconnected
p2268
F4.355597227403996e-05
sVcompartmentalize
p2269
F0.0
sVpocatello
p2270
F0.0
sVmight
p2271
F0.00035419086876675157
sVprofiles
p2272
F7.103673112746521e-05
sVtrick
p2273
F0.00016488455312055155
sVcast
p2274
F4.822564026184408e-05
sVcloudiness
p2275
F0.0
sVongoing
p2276
F0.0
sVpizza
p2277
F7.103673112746521e-05
sVcoca
p2278
F0.0
sVsituation
p2279
F0.00043555972274039956
sVawakened
p2280
F0.0
sVsmenu_otherresources
p2281
F0.0
sVambian
p2282
F0.0
sVrings
p2283
F4.355597227403996e-05
sVive
p2284
F0.0
sVviagra
p2285
F7.103673112746521e-05
sValcoholic
p2286
F0.00028414692450986085
sVgeodon
p2287
F0.0
sVinjury
p2288
F0.00021311019338239562
sVprayer
p2289
F0.0
sVside_effect
p2290
F0.0
sVsleeping
p2291
F0.0035715897264712764
sVblah
p2292
F4.355597227403996e-05
sVsomeone
p2293
F0.0
sVapproriate
p2294
F0.0
sVminds
p2295
F7.103673112746521e-05
sVhammad
p2296
F0.0
sVspells
p2297
F4.355597227403996e-05
sVsept
p2298
F0.0
sVprotein
p2299
F0.0
sVproperty
p2300
F1.6075213420614695e-05
sVanxieties
p2301
F0.0
sVeveryday
p2302
F0.00042622038676479125
sVworry
p2303
F0.00012860170736491756
sVmovements
p2304
F7.103673112746521e-05
sVdead
p2305
F6.430085368245878e-05
sVdifferent
p2306
F0.0007555350307688906
sVperhaps
p2307
F0.00017422388909615983
sVritalin
p2308
F0.0
sVharsh
p2309
F4.355597227403996e-05
sVapril
p2310
F0.0
sVpay
p2311
F5.0598695538107374e-05
sVgranted
p2312
F0.00021311019338239562
sVspiraling
p2313
F0.0
sVaged
p2314
F0.00010992303541370104
sVtrip
p2315
F8.711194454807991e-05
sVeverday
p2316
F0.0
sVheartbreak
p2317
F0.0
sVsuboxone
p2318
F0.0
sVagitated
p2319
F0.0
sVstruggling
p2320
F0.00014207346225493043
sVphysical
p2321
F0.0
sVpal
p2322
F0.0
sVdowns
p2323
F7.103673112746521e-05
sVpan
p2324
F7.103673112746521e-05
sVweek
p2325
F0.0012091533895507115
sVvisually
p2326
F4.355597227403996e-05
sVoil
p2327
F4.355597227403996e-05
sVween
p2328
F0.0
sVprogressively
p2329
F0.0
sVnbome
p2330
F0.0
sVrequire
p2331
F7.103673112746521e-05
sVsleepiness
p2332
F0.0
sVdriven
p2333
F8.711194454807991e-05
sVpersons
p2334
F4.355597227403996e-05
sVrunning
p2335
F0.0
sVharris
p2336
F0.0
sVanecdotal
p2337
F0.0
sVdelicate
p2338
F7.103673112746521e-05
sVvalerian
p2339
F0.0
sVclimbing
p2340
F4.355597227403996e-05
sVelectroconvulsive
p2341
F0.0
sVtotally
p2342
F0.00011252649394430286
sVfoggy
p2343
F7.103673112746521e-05
sVbooster
p2344
F0.0
sVbehaviorist
p2345
F0.0
sVtracking
p2346
F4.355597227403996e-05
sVsensations
p2347
F0.0
sVtechs
p2348
F0.0
sVminimize
p2349
F7.103673112746521e-05
sVantihistamine
p2350
F0.0
sVclotty
p2351
F0.0
sVlady
p2352
F1.6075213420614695e-05
sVroughly
p2353
F0.0
sVphysics
p2354
F0.00014207346225493043
sVantianxiety
p2355
F0.0
sVstunted
p2356
F0.0
sVaccountable
p2357
F0.0
sVcosts
p2358
F7.103673112746521e-05
sVsolve
p2359
F8.711194454807991e-05
sVrelief
p2360
F0.0
sVbottle
p2361
F0.00019236531197397682
sVbehaviorism
p2362
F0.0
sVgrumpy
p2363
F0.0
sVotherwise
p2364
F0.00019236531197397682
sVwean
p2365
F0.0
sVnah
p2366
F7.103673112746521e-05
sVwednesdays
p2367
F0.0
sVsummer
p2368
F8.244227656027577e-05
sVescitalopram
p2369
F0.0
sVtightness
p2370
F0.0
sVbenzo
p2371
F0.0
sVya
p2372
F4.355597227403996e-05
sVmoney
p2373
F0.0003048918059182797
sVguided
p2374
F0.00014207346225493043
sVtyphus
p2375
F0.0
sVyuck
p2376
F0.0
sVrest
p2377
F5.7827080614979855e-05
sVgot
p2378
F0.0003831044090742415
sVfoot
p2379
F2.748075885342526e-05
sVviolent
p2380
F7.103673112746521e-05
sVnullifies
p2381
F0.0
sVkill
p2382
F0.00012860170736491756
sVaspect
p2383
F4.355597227403996e-05
sVtouch
p2384
F1.6075213420614695e-05
sVbehavioural
p2385
F0.0
sVspeed
p2386
F7.228385076872482e-06
sVguides
p2387
F0.0
sVhomeostasis
p2388
F0.0
sVketamine
p2389
F0.0
sVsampled
p2390
F0.0
sVdeath
p2391
F0.00016488455312055155
sVhepatotoxicity
p2392
F0.0
sVthinking
p2393
F0.0003297691062411031
sVafaik
p2394
F0.0
sVseems
p2395
F0.00023130832245991942
sVexcept
p2396
F0.00020897777446799101
sVconfirmed
p2397
F4.355597227403996e-05
sVparts
p2398
F8.244227656027577e-05
sVlets
p2399
F4.822564026184408e-05
sVsetting
p2400
F3.215042684122939e-05
sV4
p2401
F0.0002602218627674093
sVsamples
p2402
F7.103673112746521e-05
sVghostly
p2403
F0.0
sVplenty
p2404
F4.355597227403996e-05
sVcogentin
p2405
F0.0
sVinstructions
p2406
F7.103673112746521e-05
sVpill
p2407
F0.0012076244291669086
sVcorrecting
p2408
F0.0
sVstarving
p2409
F7.103673112746521e-05
sVaspects
p2410
F7.103673112746521e-05
sVaround
p2411
F0.00021685155230617443
sVkills
p2412
F5.496151770685052e-05
sVintermezzo
p2413
F0.0
sVmos
p2414
F0.0
sVdiphenhydramine
p2415
F0.0
sVpapers
p2416
F7.103673112746521e-05
sVdiscontinue
p2417
F0.0
sVfridge
p2418
F7.103673112746521e-05
sVadmitting
p2419
F7.103673112746521e-05
sVdark
p2420
F0.0
sVinhibition
p2421
F0.0
sVpop
p2422
F0.00013066791682211988
sVmom
p2423
F0.0003551836556373261
sVcrossed
p2424
F4.355597227403996e-05
sVculprits
p2425
F0.0
sVworld
p2426
F0.0001929025610473763
sVconcerta
p2427
F0.0
sVblankets
p2428
F0.0
sVoverate
p2429
F0.0
sVdare
p2430
F4.355597227403996e-05
sVruled
p2431
F7.103673112746521e-05
sVzopidem
p2432
F0.0
sVacute
p2433
F0.0
sVsweating
p2434
F7.103673112746521e-05
sVfibromyalgia
p2435
F0.0
sVheightened
p2436
F0.0
sVidentifying
p2437
F0.0
sVpiece
p2438
F2.748075885342526e-05
sVlggs1tg
p2439
F0.0
sVshrink
p2440
F4.355597227403996e-05
sVchamber
p2441
F0.0
sVbenefit
p2442
F0.0004972571178922565
sVeither
p2443
F0.00018070962692181205
sVneuronal
p2444
F0.0
sVfully
p2445
F9.645128052368816e-05
sVresolved
p2446
F4.355597227403996e-05
sVsubstandard
p2447
F7.103673112746521e-05
sVstationary
p2448
F0.0
sVwuling
p2449
F0.0
sVauditorium
p2450
F0.00014207346225493043
sVweight
p2451
F0.00045010597577721143
sVsymptomatology
p2452
F0.0
sVunderweight
p2453
F0.0
sValternated
p2454
F0.0
sValprazolam
p2455
F0.0
sVconfused
p2456
F0.00017422388909615983
sVmoving
p2457
F4.822564026184408e-05
sVpresentation
p2458
F0.00028414692450986085
sVparnate
p2459
F0.0
sVerase
p2460
F7.103673112746521e-05
sVspecified
p2461
F0.00021311019338239562
sVimages
p2462
F7.103673112746521e-05
sV1g
p2463
F0.0
sVrivotril
p2464
F0.0
sVdivine
p2465
F7.103673112746521e-05
sVbigger
p2466
F2.748075885342526e-05
sVthinks
p2467
F0.00016488455312055155
sVdaytime
p2468
F0.0004972571178922565
sVgross
p2469
F0.00014207346225493043
sVouts
p2470
F7.103673112746521e-05
sVwristband
p2471
F0.0
sVillustrated
p2472
F0.0
sVbenzodiazepine
p2473
F0.0
sVpoorly
p2474
F0.0003551836556373261
sVdrenched
p2475
F0.0
sVnoon
p2476
F0.00021311019338239562
sVclassmates
p2477
F0.0
sVextensively
p2478
F0.0
sVlegal
p2479
F0.00042622038676479125
sVabusable
p2480
F0.0
sVchips
p2481
F7.103673112746521e-05
sVcannabis
p2482
F0.0
sVcritical
p2483
F4.355597227403996e-05
sVexit
p2484
F2.748075885342526e-05
sVinject
p2485
F7.103673112746521e-05
sVmaoi
p2486
F0.0
sVmoderate
p2487
F7.103673112746521e-05
sVquitting
p2488
F0.0
sVrefer
p2489
F7.103673112746521e-05
sVmeasuring
p2490
F0.0
sVconsidering
p2491
F0.0003048918059182797
sVmethamphetamine
p2492
F0.0
sVunderstatement
p2493
F0.0
sVdiscongruency
p2494
F0.0
sVbuckling
p2495
F0.0
sVpower
p2496
F3.215042684122939e-05
sVintimate
p2497
F4.355597227403996e-05
sVseconds
p2498
F0.00013066791682211988
sVproblems
p2499
F0.00028935384157106447
sVnails
p2500
F7.103673112746521e-05
sVgeorgia
p2501
F0.0
sVcalmer
p2502
F0.0
sVterrified
p2503
F0.0
sVcycling
p2504
F0.00014207346225493043
sVheroin
p2505
F0.00028414692450986085
sVthrow
p2506
F0.00017422388909615983
sV_
p2507
F0.0
sVcomparison
p2508
F8.711194454807991e-05
sVcrafting
p2509
F0.0
sVol
p2510
F4.355597227403996e-05
sVcentral
p2511
F0.0
sVstations
p2512
F0.00014207346225493043
sVmarinara
p2513
F0.0
sVviolence
p2514
F8.711194454807991e-05
sVfavorite
p2515
F8.244227656027577e-05
sVflattens
p2516
F0.0
sVmeal
p2517
F5.496151770685052e-05
sVstretch
p2518
F8.711194454807991e-05
sVsnack
p2519
F7.103673112746521e-05
sVbenzos
p2520
F0.0
sVtopeka
p2521
F0.0
sVstand
p2522
F1.6075213420614695e-05
sVitty
p2523
F0.0
sVact
p2524
F4.822564026184408e-05
sVmixed
p2525
F0.0003048918059182797
sVmirtazpine
p2526
F0.0
sVluck
p2527
F0.0006045766947753557
sVbackup
p2528
F7.103673112746521e-05
sVroad
p2529
F8.711194454807991e-05
sVop
p2530
F0.0003551836556373261
sVamber
p2531
F0.00042622038676479125
sVyoun
p2532
F0.0
sVpurported
p2533
F0.0
sVburning
p2534
F8.711194454807991e-05
sVcoupon
p2535
F7.103673112746521e-05
sVbbc
p2536
F7.103673112746521e-05
sVimage
p2537
F8.711194454807991e-05
sVskilled
p2538
F0.0
sVreacting
p2539
F0.0
sVsnooze
p2540
F0.0
sVnicotine
p2541
F0.0
sVinbox
p2542
F0.0
sVhomeless
p2543
F7.103673112746521e-05
sVapologize
p2544
F0.00014207346225493043
sVelementary
p2545
F0.0
sVactually
p2546
F0.0003469624836898791
sVannoys
p2547
F0.0
sVlastly
p2548
F0.0
sVtheoretically
p2549
F0.0
sVtechnically
p2550
F0.00021777986137019978
sVauvinen
p2551
F0.0
sVfueled
p2552
F0.0
sVdetox
p2553
F0.0
sVprazosin
p2554
F0.0
sVlog
p2555
F7.103673112746521e-05
sVsubstitutable
p2556
F0.0
sVshells
p2557
F7.103673112746521e-05
sVpanicked
p2558
F0.0
sVfunerals
p2559
F0.0
sVhoffman
p2560
F0.0
sVjigsaw
p2561
F0.0
sVhey
p2562
F0.0003048918059182797
sVlol
p2563
F0.00014207346225493043
sVstrip
p2564
F4.355597227403996e-05
sVstart
p2565
F0.0005465572563008995
sVcompliant
p2566
F7.103673112746521e-05
sVmondays
p2567
F0.0
sVlow
p2568
F0.0005626324697215142
sVlot
p2569
F0.0
sVzolpidem
p2570
F0.0
sVhealthinsurance
p2571
F0.0
sVheh
p2572
F2.748075885342526e-05
sVfish
p2573
F1.6075213420614695e-05
sVtyrosine
p2574
F0.0
sVmedia
p2575
F4.355597227403996e-05
sVsaris
p2576
F0.0
sVcomplete
p2577
F8.037606710307347e-05
sVenough
p2578
F0.0
sVnightshift
p2579
F0.0
sVcipro
p2580
F0.0
sVbuggy
p2581
F7.103673112746521e-05
sVunderdiagnosed
p2582
F0.0
sVdelayed
p2583
F5.496151770685052e-05
sVmedium
p2584
F2.748075885342526e-05
sVcompassionate
p2585
F0.0
sVbrain
p2586
F0.0007969420067493326
sVcycle
p2587
F0.00013066791682211988
sVtexted
p2588
F7.103673112746521e-05
sVtrying
p2589
F0.0005947828965627436
sVlonger
p2590
F0.00014456770153744962
sVabused
p2591
F0.0
sVpull
p2592
F3.215042684122939e-05
sVregimen
p2593
F0.0
sVwaste
p2594
F0.0001374037942671263
sVapplying
p2595
F7.103673112746521e-05
sVrage
p2596
F7.103673112746521e-05
sVhardly
p2597
F4.355597227403996e-05
sVobjective
p2598
F0.0
sVrelaxed
p2599
F8.711194454807991e-05
sV9th
p2600
F0.0
sVsolvents
p2601
F0.0
sVdirty
p2602
F0.00013066791682211988
sVdispensing
p2603
F0.0
sVsuitcase
p2604
F0.0
sVreferral
p2605
F0.0
sVinform
p2606
F7.103673112746521e-05
sVrozerm
p2607
F0.0
sVtorso
p2608
F0.0
sVmetabolize
p2609
F0.0
sVhaldol
p2610
F0.0
sVmisery
p2611
F7.103673112746521e-05
sVaa
p2612
F0.0
sVgone
p2613
F6.505546569185233e-05
sVrequired
p2614
F0.0003920037504663596
sVad
p2615
F0.00013066791682211988
sVvideos
p2616
F8.711194454807991e-05
sVaf
p2617
F0.0
sVexhausted
p2618
F0.0003551836556373261
sVcertain
p2619
F7.228385076872481e-05
sVhosted
p2620
F7.103673112746521e-05
sVmoved
p2621
F0.00010992303541370104
sVdeep
p2622
F0.0001768273476267616
sVgeneral
p2623
F0.0
sVap
p2624
F0.0
sVbreenwood
p2625
F0.0
sVscanned
p2626
F0.0
sVhypertension
p2627
F0.0
sVtogether
p2628
F0.0
sVcbt
p2629
F0.0
sVhobbies
p2630
F0.0
sVgirlfriend
p2631
F0.0005682938490197217
sVcorresponding
p2632
F0.0
sVmelatonin
p2633
F0.0
sVmoves
p2634
F5.496151770685052e-05
sVhospitals
p2635
F0.0
sVjoyful
p2636
F4.355597227403996e-05
sVperscription
p2637
F0.0
sVfill
p2638
F0.00019236531197397682
sVtedious
p2639
F0.0
sVhasnt
p2640
F0.0
sVyoga
p2641
F7.103673112746521e-05
sVhydralazine
p2642
F0.0
sVyoh
p2643
F0.0
sVidiot
p2644
F7.103673112746521e-05
sVadministered
p2645
F0.0
sVcalarifuvatiob
p2646
F0.0
sVfarther
p2647
F7.103673112746521e-05
sVnarcotics
p2648
F0.0
sVtight
p2649
F2.748075885342526e-05
sVhousework
p2650
F0.0
sV5
p2651
F0.00032527732845926164
sVevenings
p2652
F7.103673112746521e-05
sVdoxylamine
p2653
F0.0
sVpuppy
p2654
F0.0
sVdismayed
p2655
F0.0
sVpresenting
p2656
F7.103673112746521e-05
sVgaining
p2657
F0.00028414692450986085
sVfourth
p2658
F4.355597227403996e-05
sVpoop
p2659
F7.103673112746521e-05
sVreleasing
p2660
F7.103673112746521e-05
sVfaxes
p2661
F0.0
sVpillows
p2662
F0.0
sVvocabulary
p2663
F0.0
sVxanax
p2664
F0.0
sVstudents
p2665
F0.000994514235784513
sVteeth
p2666
F0.00013066791682211988
sVillinois
p2667
F0.0
sVimportant
p2668
F0.0004791156950144395
sVpeak
p2669
F8.711194454807991e-05
sVsuited
p2670
F7.103673112746521e-05
sVbrands
p2671
F7.103673112746521e-05
sVspouse
p2672
F0.00014207346225493043
sVdeadline
p2673
F7.103673112746521e-05
sVunresponsive
p2674
F7.103673112746521e-05
sVbuilding
p2675
F0.0001374037942671263
sV250mg
p2676
F0.0
sVcarbs
p2677
F7.103673112746521e-05
sVremote
p2678
F4.355597227403996e-05
sVwondered
p2679
F2.748075885342526e-05
sV74
p2680
F0.0
sVscenes
p2681
F4.355597227403996e-05
sVmask
p2682
F0.00014207346225493043
sVcontroller
p2683
F0.0
sVexhausting
p2684
F0.0
sVexactly
p2685
F0.00012860170736491756
sVingestion
p2686
F0.0
sVbehavioral
p2687
F0.0
sVuti
p2688
F0.0
sVoverseas
p2689
F0.0
sVresolution
p2690
F0.00017422388909615983
sVoriginal
p2691
F3.215042684122939e-05
sVexternal
p2692
F4.355597227403996e-05
sVneighbors
p2693
F7.103673112746521e-05
sVheartrate
p2694
F0.0
sVconsider
p2695
F0.00022505298788860572
sVmaximum
p2696
F0.00014207346225493043
sVcaused
p2697
F0.0005662276395625195
sVlack
p2698
F0.0001929025610473763
sVworms
p2699
F7.103673112746521e-05
sVmonth
p2700
F0.00045010597577721143
sVdowners
p2701
F0.0
sVoxycodone
p2702
F0.0
sVzinc
p2703
F0.0
sVfairness
p2704
F0.0
sVtalks
p2705
F7.103673112746521e-05
sVpartial
p2706
F0.00014207346225493043
sVmeditation
p2707
F0.0
sVfaster
p2708
F0.0001374037942671263
sVdecisions
p2709
F0.0
sVchildren
p2710
F0.00010992303541370104
sVcauses
p2711
F0.0006533395841105994
sVreluctant
p2712
F0.0
sVresponsiveness
p2713
F0.0
sVcareful
p2714
F0.00021777986137019978
sVtv
p2715
F0.00021311019338239562
sVcostco
p2716
F0.0
sVsociological
p2717
F0.0
sVthursday
p2718
F0.0
sVrecollection
p2719
F7.103673112746521e-05
sVtl
p2720
F0.0
sVdaniel
p2721
F0.0
sVtj
p2722
F0.0
sVpresent
p2723
F1.4456770153744964e-05
sVsmile
p2724
F4.355597227403996e-05
sVc4
p2725
F0.0
sVmidwest
p2726
F0.0
sVprogram
p2727
F0.0003048918059182797
sV_pixiepudding_
p2728
F0.0
sVfax
p2729
F0.0
sVappointment
p2730
F0.0003551836556373261
sVreturned
p2731
F2.748075885342526e-05
sVstraightforward
p2732
F0.0
sVsitting
p2733
F0.00013066791682211988
sVfar
p2734
F0.0002602218627674093
sVperoxide
p2735
F0.0
sVpseudoephedrine
p2736
F0.0
sVfucked
p2737
F0.00042622038676479125
sVfat
p2738
F0.00013066791682211988
sVutis
p2739
F0.0
sVhepatocellular
p2740
F0.0
sVfan
p2741
F0.00016488455312055155
sVdecide
p2742
F8.711194454807991e-05
sVfall
p2743
F0.0009146754177548391
sVawful
p2744
F0.00021984607082740207
sVmornings
p2745
F0.00021311019338239562
sVdifference
p2746
F0.0003920037504663596
sVenter
p2747
F4.822564026184408e-05
sVcondition
p2748
F0.0001374037942671263
sVtreating
p2749
F0.00028414692450986085
sVcheerful
p2750
F0.0
sVmild
p2751
F0.0
sVinduced
p2752
F0.0
sVwashing
p2753
F7.103673112746521e-05
sVdampen
p2754
F0.0
sVdrugged
p2755
F0.0
sVkava
p2756
F0.0
sVlaying
p2757
F0.00021311019338239562
sVt3
p2758
F0.0
sVprogesterone
p2759
F0.0
sVlarge
p2760
F0.0
sVgrad
p2761
F7.103673112746521e-05
sVadjust
p2762
F7.103673112746521e-05
sVfilling
p2763
F0.00014467692078553223
sVmodulators
p2764
F0.0
sVsedation
p2765
F0.0
sVsmall
p2766
F8.674062092246977e-05
sVbiological
p2767
F0.0
sVanal
p2768
F0.0
sVpsychopharmacologist
p2769
F0.0
sVblackout
p2770
F0.0
sVass
p2771
F0.00013066791682211988
sVcookies
p2772
F8.711194454807991e-05
sVquicker
p2773
F0.00014207346225493043
sVtitled
p2774
F7.103673112746521e-05
sVmodafinil
p2775
F0.0
sVten
p2776
F4.822564026184408e-05
sVphenibut
p2777
F0.0
sVlecture
p2778
F0.0
sV196
p2779
F0.0
sVdofferent
p2780
F0.0
sV190
p2781
F0.0
sVhealed
p2782
F0.0
sVpast
p2783
F0.0003536546952535232
sVbattle
p2784
F7.103673112746521e-05
sVrate
p2785
F0.00013066791682211988
sVperception
p2786
F0.00028414692450986085
sVperspective
p2787
F0.0
sVlawyer
p2788
F7.103673112746521e-05
sVpass
p2789
F0.00011252649394430286
sVwyeth
p2790
F0.0
sVcomedown
p2791
F0.0
sVacording
p2792
F0.0
sVpromotes
p2793
F0.0
sVrequiring
p2794
F7.103673112746521e-05
sVsituated
p2795
F0.0
sV90s
p2796
F0.0
sVsue
p2797
F7.103673112746521e-05
sVsign
p2798
F7.228385076872482e-06
sVanticholinergic
p2799
F0.0
sVopted
p2800
F0.0
sVcompletely
p2801
F0.0001929025610473763
sVsun
p2802
F3.215042684122939e-05
sVsection
p2803
F8.711194454807991e-05
sVbarbiturate
p2804
F0.0
sVcaffeine
p2805
F0.0008524407735295825
sValternatives
p2806
F0.00014207346225493043
sVmilk
p2807
F0.00021311019338239562
sVpublic
p2808
F8.244227656027577e-05
sVversion
p2809
F4.355597227403996e-05
sVrun
p2810
F6.505546569185233e-05
sVnoticeably
p2811
F0.0
sVtimeline
p2812
F0.0
sVpaxil
p2813
F0.0
sVnurse
p2814
F0.00042622038676479125
sVrow
p2815
F5.496151770685052e-05
sVracing
p2816
F8.244227656027577e-05
sVmethod
p2817
F7.103673112746521e-05
sVeverybody
p2818
F8.711194454807991e-05
sVmovement
p2819
F2.748075885342526e-05
sVhasn
p2820
F8.037606710307347e-05
sVfull
p2821
F0.0
sVma
p2822
F7.103673112746521e-05
sVhungover
p2823
F0.0
sVloose
p2824
F2.748075885342526e-05
sVcertainly
p2825
F9.645128052368816e-05
sVanswers
p2826
F8.711194454807991e-05
sVvomiting
p2827
F0.00014207346225493043
sVranges
p2828
F7.103673112746521e-05
sVfucks
p2829
F7.103673112746521e-05
sVshouldn
p2830
F0.00021984607082740207
sVselective
p2831
F0.0
sVcommitted
p2832
F8.711194454807991e-05
sVgabab
p2833
F0.0
sVexcess
p2834
F4.355597227403996e-05
sVsoon
p2835
F9.396900599934225e-05
sVbuzzing
p2836
F0.00014207346225493043
sVmourning
p2837
F7.103673112746521e-05
sVobserving
p2838
F0.0
sVbacklash
p2839
F0.0
sVsearch
p2840
F0.00019236531197397682
sVbible
p2841
F0.0
sVzone
p2842
F0.00010992303541370104
sVextraordinary
p2843
F0.0
sVmdma
p2844
F0.0
sVstretching
p2845
F0.0
sVweaning
p2846
F0.0
sVprion
p2847
F0.0
sVexperience
p2848
F0.001698682918687558
sVwhiny
p2849
F0.0
sVprior
p2850
F0.00021311019338239562
sVamount
p2851
F0.00035724986509452837
sVhealthier
p2852
F0.0
sVsocial
p2853
F9.645128052368816e-05
sVaction
p2854
F0.00021777986137019978
sVformation
p2855
F7.103673112746521e-05
sVrestoril
p2856
F0.0
sVtoxicity
p2857
F0.0
sVweirder
p2858
F7.103673112746521e-05
sV240
p2859
F0.0
sVsticking
p2860
F7.103673112746521e-05
sVmemon
p2861
F0.0
sVvia
p2862
F0.00014207346225493043
sVfollowed
p2863
F5.496151770685052e-05
sVuppers
p2864
F0.0
sVthankfully
p2865
F0.0
sVsnus
p2866
F0.0
sVsuddenly
p2867
F1.6075213420614695e-05
sVagomelatine
p2868
F0.0
sVmmj
p2869
F0.0
sVask
p2870
F0.0003035921732286442
sVsemester
p2871
F7.103673112746521e-05
sVregiment
p2872
F0.0
sVseroquel
p2873
F0.0
sVmanage
p2874
F0.00010992303541370104
sVestablish
p2875
F7.103673112746521e-05
sVeldepryl
p2876
F0.0
sVflex
p2877
F7.103673112746521e-05
sVmunchies
p2878
F0.00014207346225493043
sVworsened
p2879
F0.0
sVeye
p2880
F8.711194454807991e-05
sVtakes
p2881
F0.00022505298788860572
sVoccassion
p2882
F0.0
sVintense
p2883
F0.00043555972274039956
sVpup
p2884
F0.0
sVwiped
p2885
F7.103673112746521e-05
sVcoupled
p2886
F0.0
sVtwo
p2887
F0.0
sVshite
p2888
F0.0
sVchaotic
p2889
F0.0
sVanger
p2890
F4.355597227403996e-05
sVcompensate
p2891
F0.0
sVcertified
p2892
F7.103673112746521e-05
sV6
p2893
F0.00017348124184493954
sVtaken
p2894
F0.0001879380119986845
sVweren
p2895
F8.244227656027577e-05
sVentails
p2896
F0.0
sVminor
p2897
F0.00010992303541370104
sVflat
p2898
F1.6075213420614695e-05
sVflaw
p2899
F0.0
sVdoor
p2900
F4.822564026184408e-05
sVknows
p2901
F8.244227656027577e-05
sVsubstances
p2902
F0.00014207346225493043
sVstrange
p2903
F4.822564026184408e-05
sVcompany
p2904
F7.228385076872482e-06
sVconcomitantly
p2905
F0.0
sVcorrected
p2906
F7.103673112746521e-05
sVwobbly
p2907
F0.0
sVtested
p2908
F0.00021311019338239562
sVlanded
p2909
F0.00013066791682211988
sVoxymorphone
p2910
F0.0
sVcontrolling
p2911
F0.0
sVstick
p2912
F0.00017422388909615983
sVimpulse
p2913
F0.00028414692450986085
sVparticular
p2914
F0.00012860170736491756
sVknown
p2915
F0.00011252649394430286
sVcommander
p2916
F0.0
sVglad
p2917
F0.00012860170736491756
sVtown
p2918
F2.748075885342526e-05
sVweighed
p2919
F0.0
sVkeeping
p2920
F0.00010992303541370104
sVguanfacine
p2921
F0.0
sVhour
p2922
F0.0005770959359219304
sVstrain
p2923
F0.0
sVscience
p2924
F0.00013066791682211988
sVsucks
p2925
F0.00026133583364423976
sVfast
p2926
F0.00012860170736491756
sVoverpass
p2927
F0.0
sVfibro
p2928
F0.0
sVremain
p2929
F0.00013066791682211988
sVvs
p2930
F0.0003551836556373261
sVtitrate
p2931
F0.0
sVlearn
p2932
F0.00028414692450986085
sVknocked
p2933
F0.00016488455312055155
sVstrategies
p2934
F0.0
sVmale
p2935
F2.748075885342526e-05
sVstar
p2936
F2.748075885342526e-05
sVunbelievable
p2937
F0.0
sVpick
p2938
F0.00016488455312055155
sVbeautiful
p2939
F3.215042684122939e-05
sVallegra
p2940
F0.0
sVcompare
p2941
F4.355597227403996e-05
sVantagonists
p2942
F0.0
sVpsychonautwiki
p2943
F0.0
sVscan
p2944
F0.0003048918059182797
sVjoints
p2945
F7.103673112746521e-05
sVsuggestions
p2946
F5.496151770685052e-05
sVretest
p2947
F0.0
sVaccept
p2948
F5.496151770685052e-05
sVcaffeinated
p2949
F0.0
sVstates
p2950
F0.00021777986137019978
sVpushed
p2951
F5.496151770685052e-05
sVminimum
p2952
F0.00013066791682211988
sVnumbers
p2953
F0.00013066791682211988
sVsense
p2954
F6.505546569185233e-05
sVpond
p2955
F7.103673112746521e-05
sVtolerant
p2956
F0.0
sVreliving
p2957
F0.0
sVlongest
p2958
F0.00021311019338239562
sVgarden
p2959
F4.355597227403996e-05
sVhomicide
p2960
F0.0
sVhuge
p2961
F8.674062092246977e-05
sVneeds
p2962
F0.0
sVcourt
p2963
F0.00017422388909615983
sV3am
p2964
F0.0
sVtraz
p2965
F0.0
sVshootings
p2966
F0.0
sVimminent
p2967
F0.0
sVacts
p2968
F8.711194454807991e-05
sVutilize
p2969
F7.103673112746521e-05
sVstayed
p2970
F5.496151770685052e-05
sVnarcolepsy
p2971
F7.103673112746521e-05
sVquesadilla
p2972
F7.103673112746521e-05
sVsalvia
p2973
F0.0
sVheck
p2974
F7.103673112746521e-05
sVfunctioning
p2975
F0.00042622038676479125
sVparty
p2976
F0.0003920037504663596
sVreject
p2977
F7.103673112746521e-05
sVupregulation
p2978
F0.0
sVsmart
p2979
F8.711194454807991e-05
sViproniazid
p2980
F0.0
sVproof
p2981
F0.0
sVhopeless
p2982
F0.00014207346225493043
sVtinfoil
p2983
F0.0
sVblacked
p2984
F7.103673112746521e-05
sVrug
p2985
F0.0
sVsemax
p2986
F0.0
sVokay
p2987
F0.00043555972274039956
sVplans
p2988
F7.103673112746521e-05
sVsedating
p2989
F0.0
sVgiant_post_of_medications_that_really_help
p2990
F0.0
sVadvice
p2991
F0.0005682938490197217
sVderived
p2992
F0.0
sVtreatments
p2993
F0.0
sVherbals
p2994
F0.0
sVbrintellix
p2995
F0.0
sVtries
p2996
F5.496151770685052e-05
sVstreets
p2997
F7.103673112746521e-05
sVblood
p2998
F0.00043969214165480414
sVcountering
p2999
F0.0
sVcoming
p3000
F5.7827080614979855e-05
sVabsences
p3001
F0.0
sVresponse
p3002
F0.00042622038676479125
sVrefuse
p3003
F2.748075885342526e-05
sVimagery
p3004
F0.0
sVmorphine
p3005
F7.103673112746521e-05
sVcrowded
p3006
F4.355597227403996e-05
sVread
p3007
F0.00028935384157106447
sVonto
p3008
F2.748075885342526e-05
sVtoiletries
p3009
F0.0
sVcrippling
p3010
F0.0
sVanytime
p3011
F0.00014207346225493043
sVcfs
p3012
F0.0
sVslacking
p3013
F0.0
sVkeen
p3014
F4.355597227403996e-05
sVshore
p3015
F4.355597227403996e-05
sVolanzipine
p3016
F0.0
sVresponsibility
p3017
F7.103673112746521e-05
sVdread
p3018
F0.0
sVmethadone
p3019
F0.0
sV10mgs
p3020
F0.0
sVstuffiness
p3021
F0.0
sVpleasure
p3022
F5.496151770685052e-05
sVlasting
p3023
F0.00021311019338239562
sVdream
p3024
F0.0003048918059182797
sVplaying
p3025
F2.748075885342526e-05
sVreplied
p3026
F7.103673112746521e-05
sVpredisposes
p3027
F0.0
sVrocketed
p3028
F0.0
sVapsychiatrist
p3029
F0.0
sVhelp
p3030
F0.0008240358987634629
sVseptember
p3031
F0.0
sVsertraline
p3032
F0.0
sVflowers
p3033
F4.355597227403996e-05
sVadvised
p3034
F7.103673112746521e-05
sVmayoclinic
p3035
F0.0
sVchalked
p3036
F0.0
sVtramadol
p3037
F0.0
sVtrade
p3038
F2.748075885342526e-05
sVdisabled
p3039
F4.355597227403996e-05
sVheld
p3040
F1.4456770153744964e-05
sVattitude
p3041
F7.103673112746521e-05
sVpaper
p3042
F8.244227656027577e-05
sVffi
p3043
F0.0
sVsigns
p3044
F2.748075885342526e-05
sVproductivity
p3045
F0.0
sVhell
p3046
F0.00019236531197397682
sVmcdonalds
p3047
F0.0
sVsuffer
p3048
F0.00017422388909615983
sVjames_eagan_holmes
p3049
F0.0
sVdrinking
p3050
F0.0004946536593616546
sVlisinopril
p3051
F0.0
sV24
p3052
F0.00019236531197397682
sV25
p3053
F0.00030228834738767787
sV26
p3054
F5.496151770685052e-05
sV27
p3055
F0.00010992303541370104
sV20
p3056
F0.00010119739107621475
sV21
p3057
F0.0001374037942671263
sVdebilitated
p3058
F0.0
sV23
p3059
F0.00010992303541370104
sVmisspelled
p3060
F7.103673112746521e-05
sVtreat
p3061
F0.00041221138280137887
sVpcp
p3062
F0.0
sVsolving
p3063
F0.0
sV28
p3064
F8.711194454807991e-05
sVmattress
p3065
F7.103673112746521e-05
sVlate
p3066
F0.00011252649394430286
sVresort
p3067
F0.0
sVabsence
p3068
F0.0
sVhtml
p3069
F7.103673112746521e-05
sVruining
p3070
F0.0
sVbummer
p3071
F0.0
sVfeasible
p3072
F7.103673112746521e-05
sVamitriptyline
p3073
F0.0
sVppao
p3074
F0.0
sVbout
p3075
F0.00014207346225493043
sVarrange
p3076
F7.103673112746521e-05
sVsauce
p3077
F7.103673112746521e-05
sVpolypharmacy
p3078
F0.0
sVangered
p3079
F0.0
sVpittman
p3080
F0.0
sVwouldn
p3081
F0.0003697299086741379
sVhurting
p3082
F0.0
sVgood
p3083
F0.0
sVsomebody
p3084
F2.748075885342526e-05
sVevaluate
p3085
F0.0
sVseverely
p3086
F0.00021311019338239562
sVfood
p3087
F0.0001768273476267616
sVmisc
p3088
F7.103673112746521e-05
sVlibido
p3089
F0.0
sVsocially
p3090
F7.103673112746521e-05
sVslight
p3091
F0.00013066791682211988
sVanticipated
p3092
F0.0
sVwalls
p3093
F4.355597227403996e-05
sVrank
p3094
F0.0
sVdosulepin
p3095
F0.0
sVcompound
p3096
F0.0
sVmisuse
p3097
F0.0
sVpbrs
p3098
F0.0
sVproblematic
p3099
F7.103673112746521e-05
sVserotinergic
p3100
F0.0
sVassociation
p3101
F7.103673112746521e-05
sVsucked
p3102
F7.103673112746521e-05
sVmystery
p3103
F0.0
sVeasily
p3104
F3.215042684122939e-05
sVdocument
p3105
F8.711194454807991e-05
sVpregnant
p3106
F7.103673112746521e-05
sVcoping
p3107
F0.0
sValways
p3108
F0.0
sVnauseous
p3109
F0.0
sV2x
p3110
F0.0
sVevents
p3111
F8.711194454807991e-05
sVspy
p3112
F7.103673112746521e-05
sVhabits
p3113
F8.711194454807991e-05
sVstopped
p3114
F0.0006870189713356315
sV2a
p3115
F7.103673112746521e-05
sVreassures
p3116
F0.0
sVturns
p3117
F1.6075213420614695e-05
sV1am
p3118
F0.0
sVfound
p3119
F0.00028913540307489924
sVshocking
p3120
F0.0
sVcaliber
p3121
F0.0
sVphysiologically
p3122
F0.0
sVflashbacks
p3123
F0.0
sVreactions
p3124
F0.0
sVcortisol
p3125
F0.0
sVeveryone
p3126
F0.0003297691062411031
sVmental
p3127
F0.0010655509669119782
sV300mg
p3128
F0.0
sVshort
p3129
F0.00010842577615308721
sVhouse
p3130
F0.0001768273476267616
sVenergy
p3131
F0.0007103673112746522
sVhard
p3132
F0.0005626324697215142
sVreduce
p3133
F0.00026133583364423976
sVidea
p3134
F0.00018070962692181205
sVused
p3135
F0.001205641006546102
sVbrother
p3136
F4.355597227403996e-05
sVbland
p3137
F0.0
sVinvestigated
p3138
F0.0
sVexpect
p3139
F1.4456770153744964e-05
sVdoses
p3140
F0.0
sVblues
p3141
F7.103673112746521e-05
sVbeyond
p3142
F2.1685155230617443e-05
sVmates
p3143
F0.00014207346225493043
sVinsurance
p3144
F0.0005682938490197217
sVtry
p3145
F0.0005782708061497985
sVpassionflower
p3146
F0.0
sVfunding
p3147
F0.0
sVmissed
p3148
F8.711194454807991e-05
sVftw
p3149
F0.0
sVkrokodil
p3150
F0.0
sVmiss
p3151
F2.1685155230617443e-05
sVrobert
p3152
F0.0
sVsince
p3153
F0.0003035921732286442
sVmattered
p3154
F0.0
sVresearch
p3155
F0.0005682938490197217
sVacting
p3156
F4.355597227403996e-05
sVhealth
p3157
F0.0008524407735295825
sVhill
p3158
F4.355597227403996e-05
sV7
p3159
F0.00030542905499167914
sVdysfunction
p3160
F0.0
sVissue
p3161
F0.00041221138280137887
sVoccurs
p3162
F4.355597227403996e-05
sVeszopiclone
p3163
F0.0
sVpun
p3164
F7.103673112746521e-05
sVbald
p3165
F7.103673112746521e-05
sVlibrium
p3166
F0.0
sVdabs
p3167
F0.0
sVcommits
p3168
F0.0
sVdisheveled
p3169
F7.103673112746521e-05
sVmotherfucker
p3170
F7.103673112746521e-05
sVdifficulty
p3171
F0.00021311019338239562
sVreason
p3172
F0.0002411282013092204
sVbase
p3173
F3.215042684122939e-05
sVincluded
p3174
F4.355597227403996e-05
sVconditioning
p3175
F7.103673112746521e-05
sVhousebound
p3176
F0.0
sVimagine
p3177
F0.00021984607082740207
sVstomach
p3178
F8.711194454807991e-05
sVdescribed
p3179
F0.00026133583364423976
sVteach
p3180
F0.00014207346225493043
sVweed
p3181
F0.00021311019338239562
sVbeginning
p3182
F4.3370310461234886e-05
sVguy
p3183
F2.748075885342526e-05
sVthrown
p3184
F2.748075885342526e-05
sVbumped
p3185
F4.355597227403996e-05
sVpairs
p3186
F0.0
sVdmt
p3187
F0.0
sVbenefits
p3188
F0.0004972571178922565
sVthread
p3189
F0.00028414692450986085
sVcomputers
p3190
F0.00014207346225493043
sVsuccess
p3191
F0.00021777986137019978
sVelective
p3192
F0.0
sVw
p3193
F5.496151770685052e-05
sVanecdote
p3194
F0.0
sVscheduled
p3195
F7.103673112746521e-05
sVexistential
p3196
F7.103673112746521e-05
sVhabit
p3197
F0.0
sVinteract
p3198
F0.00021311019338239562
sVtitrated
p3199
F0.0
sVwha
p3200
F0.0
sVreversing
p3201
F0.0
sVcrunches
p3202
F7.103673112746521e-05
sVdrooling
p3203
F7.103673112746521e-05
sVdont
p3204
F0.00013066791682211988
sVslipped
p3205
F0.00014207346225493043
sVupper
p3206
F7.103673112746521e-05
sVfeel
p3207
F0.0008674062092246977
sVrelate
p3208
F0.0
sVpatience
p3209
F7.103673112746521e-05
sVnumber
p3210
F0.00019236531197397682
sVhappier
p3211
F0.00028414692450986085
sVfeet
p3212
F4.822564026184408e-05
sVv8
p3213
F0.0
sVutilized
p3214
F0.0
sVtalked
p3215
F0.0007814040424021173
sVdone
p3216
F0.00014456770153744962
sVnotify
p3217
F7.103673112746521e-05
sVchanging
p3218
F5.496151770685052e-05
sV40mg
p3219
F0.0
sVslower
p3220
F4.355597227403996e-05
sVthankful
p3221
F0.0
sVcups
p3222
F0.00021777986137019978
sVbullied
p3223
F0.0
sVpropranolol
p3224
F0.0
sVseparation
p3225
F0.0
sVpasses
p3226
F4.355597227403996e-05
sVguess
p3227
F0.00043969214165480414
sVhalcion
p3228
F0.0
sVtemperature
p3229
F4.355597227403996e-05
sVscript
p3230
F0.0005682938490197217
sVtwenty
p3231
F5.496151770685052e-05
sV5th
p3232
F7.103673112746521e-05
sVsmoother
p3233
F0.0
sVmoderately
p3234
F0.00013066791682211988
sVleast
p3235
F0.0
sVstrategy
p3236
F7.103673112746521e-05
sVwonderful
p3237
F5.496151770685052e-05
sVpixiepudding
p3238
F0.0
sVmentally
p3239
F0.00014207346225493043
sVpains
p3240
F0.0
sVsigh
p3241
F4.355597227403996e-05
sVfought
p3242
F7.103673112746521e-05
sVpsychiatrists
p3243
F0.0
sVsyrup
p3244
F0.0
sVstore
p3245
F0.00026133583364423976
sVwonderment
p3246
F0.0
sVinhalants
p3247
F0.0
sVfeels
p3248
F0.0003048918059182797
sVpassed
p3249
F6.430085368245878e-05
sVrelationship
p3250
F0.0001374037942671263
sVdrapes
p3251
F4.355597227403996e-05
sVchecklist
p3252
F0.0
sVneedle
p3253
F4.355597227403996e-05
sVpark
p3254
F0.00021311019338239562
sVscarcely
p3255
F0.0
sVimmediate
p3256
F4.355597227403996e-05
sVvisibility
p3257
F7.103673112746521e-05
sVserotonin
p3258
F0.0
sVdentist
p3259
F7.103673112746521e-05
sVpart
p3260
F0.0004983316160390555
sVpermanent
p3261
F5.496151770685052e-05
sVdrunkenness
p3262
F0.0
sVword
p3263
F1.4456770153744964e-05
sVconsult
p3264
F0.0
sVfocusing
p3265
F7.103673112746521e-05
sVbelieve
p3266
F0.0001929025610473763
sVconvinced
p3267
F0.00013066791682211988
sValbeit
p3268
F0.0
sVneurontin
p3269
F0.0
sVcrazyboards
p3270
F0.0
sVvalporic
p3271
F0.0
sVkindly
p3272
F7.103673112746521e-05
sVvial
p3273
F0.0
sVgotten
p3274
F0.0004972571178922565
sVintuniv
p3275
F0.0
sVexcitability
p3276
F0.0
sVvocal
p3277
F0.0
sVungodly
p3278
F0.0
sVyouth
p3279
F0.00013066791682211988
sVpennsylvania
p3280
F0.0
sVmedicate
p3281
F0.0
sVdetermined
p3282
F7.103673112746521e-05
sVsupposed
p3283
F0.0003297691062411031
sVbeneficial
p3284
F0.00021311019338239562
sVdts
p3285
F0.0
sVheadache
p3286
F0.0003551836556373261
sVtreated
p3287
F0.00021984607082740207
sVremembers
p3288
F0.00014207346225493043
sVpriority
p3289
F0.0
sVdeciding
p3290
F0.0
sVmotivation
p3291
F0.0
sV3
p3292
F0.0010770392991811843
sVbasically
p3293
F0.0014207346225493043
sVcurtains
p3294
F4.355597227403996e-05
sVnodd
p3295
F0.0
sVhtp
p3296
F0.0
sVultra
p3297
F0.0
sVrandomly
p3298
F0.00028414692450986085
sVdownload
p3299
F4.355597227403996e-05
sVselling
p3300
F7.103673112746521e-05
sVshowers
p3301
F0.00014207346225493043
sVprefrontal
p3302
F0.0
sVmeltdown
p3303
F7.103673112746521e-05
sVconfirms
p3304
F0.0
sVfading
p3305
F7.103673112746521e-05
sVlorazapam
p3306
F0.0
sVoption
p3307
F0.00042622038676479125
sVsell
p3308
F3.215042684122939e-05
sVmountain
p3309
F0.0
sVwilson
p3310
F0.0
sVbake
p3311
F0.0
sVbuilt
p3312
F3.215042684122939e-05
sVdepending
p3313
F0.0006393305801471869
sVspaghetti
p3314
F7.103673112746521e-05
sVself
p3315
F9.396900599934225e-05
sVtrapped
p3316
F0.0
sVsevere
p3317
F0.0006097836118365594
sVnondepressed
p3318
F0.0
sVcouch
p3319
F0.00014207346225493043
sVonset
p3320
F0.0
sVmajority
p3321
F8.711194454807991e-05
sVempirically
p3322
F0.0
sVwithout
p3323
F0.0
sVgrew
p3324
F7.103673112746521e-05
sVgeneralized
p3325
F0.00028414692450986085
sVshowcases
p3326
F0.0
sVwormed
p3327
F0.0
sVk9
p3328
F0.0
sVtool
p3329
F7.103673112746521e-05
sVzucchini
p3330
F0.0
sVfrequently
p3331
F0.00014207346225493043
sVplay
p3332
F5.496151770685052e-05
sVadded
p3333
F0.00017422388909615983
sValleviate
p3334
F0.00021311019338239562
sVenticing
p3335
F0.0
sVyhat
p3336
F0.0
sV12mg
p3337
F0.0
sVmeasures
p3338
F0.0
sVeffecting
p3339
F0.0
sVperfectly
p3340
F5.496151770685052e-05
sVabruptly
p3341
F0.00014207346225493043
sVperceptive
p3342
F0.0
sVinability
p3343
F0.00014207346225493043
sV75
p3344
F0.00014207346225493043
sVhired
p3345
F4.355597227403996e-05
sVcharm
p3346
F7.103673112746521e-05
sVplan
p3347
F0.00021984607082740207
sVsignificant
p3348
F0.0007103673112746522
sV70
p3349
F8.244227656027577e-05
sVnothing
p3350
F0.0002023947821524295
sVstressful
p3351
F0.00021311019338239562
sVextremely
p3352
F0.0006097836118365594
sVapproved
p3353
F0.0
sVdeviations
p3354
F0.0
sVmuscle
p3355
F0.0003551836556373261
sV65
p3356
F2.748075885342526e-05
sV16mg
p3357
F0.0
sVmobile
p3358
F7.103673112746521e-05
sVdoggie
p3359
F4.355597227403996e-05
sVclear
p3360
F4.3370310461234886e-05
sVmediation
p3361
F0.0
sVbecoming
p3362
F0.00017422388909615983
sVluckily
p3363
F0.0
sVnefazodone
p3364
F0.0
sVtraditional
p3365
F0.00013066791682211988
sV10am
p3366
F0.0
sVoverdrive
p3367
F0.0
sVclean
p3368
F4.3370310461234886e-05
sVweigh
p3369
F4.355597227403996e-05
sVfwiw
p3370
F0.0
sVfetal
p3371
F0.0
sVorganism
p3372
F0.0
sVattacking
p3373
F7.103673112746521e-05
sVlying
p3374
F2.748075885342526e-05
sVgaba
p3375
F0.0
sVstones
p3376
F0.0
sVsluggishness
p3377
F7.103673112746521e-05
sVugh
p3378
F0.0
sVparticularly
p3379
F0.0003048918059182797
sVphenomenon
p3380
F0.0
sVgold
p3381
F2.748075885342526e-05
sVdisturbances
p3382
F0.0
sVunbearably
p3383
F0.0
sVrifle
p3384
F7.103673112746521e-05
sVscattered
p3385
F0.0
sVpage
p3386
F0.00013066791682211988
sVenzymes
p3387
F0.0
sVsession
p3388
F7.103673112746521e-05
sVside_effects
p3389
F0.0
sVrts
p3390
F0.0
sVstoned
p3391
F0.00014207346225493043
sVcarefully
p3392
F7.103673112746521e-05
sVwalgreen
p3393
F0.0
sVfluoxetine
p3394
F0.0
sVfine
p3395
F0.0
sVfind
p3396
F0.0
sVshits
p3397
F7.103673112746521e-05
sVimpact
p3398
F0.0
sVaccess
p3399
F4.355597227403996e-05
sVgiant
p3400
F4.355597227403996e-05
sVbff
p3401
F0.0
sVnorthern
p3402
F0.00021311019338239562
sVinpatients
p3403
F0.0
sVparanoid
p3404
F0.00021311019338239562
sVnervous
p3405
F4.355597227403996e-05
sVwrites
p3406
F7.103673112746521e-05
sV211
p3407
F0.0
sVworthy
p3408
F4.355597227403996e-05
sVaren
p3409
F0.00010119739107621475
sVfailed
p3410
F4.355597227403996e-05
sVenzyme
p3411
F0.0
sVexperiment
p3412
F0.00013066791682211988
sVpretty
p3413
F0.001374037942671263
sVknowledgeable
p3414
F0.0
sVinitally
p3415
F0.0
sV8
p3416
F0.00017348124184493954
sVdiscuss
p3417
F7.103673112746521e-05
sVwaster
p3418
F0.0
sVgoes
p3419
F0.00012288254630683218
sVfastest
p3420
F7.103673112746521e-05
sVdependent
p3421
F0.00028414692450986085
sVluke
p3422
F0.0
sVfiber
p3423
F0.0
sVsunny
p3424
F4.355597227403996e-05
sVkind
p3425
F0.0
sVcheaper
p3426
F4.355597227403996e-05
sV7pm
p3427
F0.0
sVfamous
p3428
F4.355597227403996e-05
sVremedy
p3429
F0.0
sV150mg
p3430
F0.0
sVvaluable
p3431
F0.00017422388909615983
sVclosely
p3432
F0.0
sVbelongings
p3433
F7.103673112746521e-05
sVcombinations
p3434
F0.00021311019338239562
sVtreshold
p3435
F0.0
sVtable
p3436
F7.228385076872482e-06
sVdose
p3437
F0.004546350792157774
sVfrightening
p3438
F4.355597227403996e-05
sV5ht2c
p3439
F0.0
sVmurdered
p3440
F7.103673112746521e-05
sVresolve
p3441
F2.748075885342526e-05
sVmedicines
p3442
F0.0
sVcry
p3443
F4.355597227403996e-05
sVassuming
p3444
F0.0
sVremove
p3445
F2.748075885342526e-05
sVhypo
p3446
F0.0
sVprescribing
p3447
F0.0
sVbrush
p3448
F5.496151770685052e-05
sVcommon
p3449
F0.00038473062394795365
sVimmflamatories
p3450
F0.0
sVdouble
p3451
F0.00026133583364423976
sVsustainable
p3452
F0.0
sVx
p3453
F0.00021311019338239562
sVdizziness
p3454
F7.103673112746521e-05
sVriver
p3455
F2.748075885342526e-05
sVemployer
p3456
F0.0
sVwrote
p3457
F8.711194454807991e-05
sVinsane
p3458
F0.00014207346225493043
sVbars
p3459
F2.748075885342526e-05
sVset
p3460
F4.3370310461234886e-05
sVart
p3461
F5.496151770685052e-05
sVser
p3462
F0.00014207346225493043
sVcynical
p3463
F0.0
sVsupporting
p3464
F4.355597227403996e-05
sVthrowing
p3465
F2.748075885342526e-05
sVideal
p3466
F8.711194454807991e-05
sVgrandfather
p3467
F0.00028414692450986085
sVpotent
p3468
F0.0
sVsex
p3469
F0.00026133583364423976
sVschizophrenic
p3470
F0.0
sVculture
p3471
F0.00014207346225493043
sVsee
p3472
F0.0003831044090742415
sVoccasionally
p3473
F0.0001374037942671263
sVhydroxyzine
p3474
F0.0
sVrtms
p3475
F0.0
sVclose
p3476
F0.00021984607082740207
sVexcusable
p3477
F0.0
sVhole
p3478
F3.215042684122939e-05
sVarm
p3479
F2.748075885342526e-05
sVlevels
p3480
F0.0008524407735295825
sVproject
p3481
F8.244227656027577e-05
sVlearns
p3482
F0.0
sVvitamins
p3483
F0.00021311019338239562
sVbinds
p3484
F0.0
sVmovie
p3485
F4.355597227403996e-05
sVwow
p3486
F0.00014207346225493043
sVcurrently
p3487
F0.00046717290050822936
sVplease
p3488
F4.3370310461234886e-05
sV5mg
p3489
F0.0
sVrod
p3490
F0.0
sVbaadsgaard
p3491
F0.0
sVcase
p3492
F0.00027327862815044974
sVsmallest
p3493
F0.00014207346225493043
sVmouse
p3494
F0.00013066791682211988
sVguilt
p3495
F0.00021311019338239562
sVtrazodones
p3496
F0.0
sVconditions
p3497
F0.00021311019338239562
sVdarknet
p3498
F0.0
sV9h15m
p3499
F0.0
sVknowing
p3500
F2.748075885342526e-05
sVmilder
p3501
F0.0
sVrecently
p3502
F0.00022505298788860572
sVresponses
p3503
F0.0
sVunconscious
p3504
F4.355597227403996e-05
sVmissing
p3505
F4.822564026184408e-05
sVinitially
p3506
F0.00026133583364423976
sVsold
p3507
F0.00014207346225493043
sVattention
p3508
F0.00011252649394430286
sVanalogues
p3509
F0.0
sVlunch
p3510
F5.496151770685052e-05
sVincident
p3511
F0.0
sVcodiagnosed
p3512
F0.0
sValertness
p3513
F0.0
sVsentences
p3514
F0.00014207346225493043
sVpissed
p3515
F0.00028414692450986085
sV750mg
p3516
F0.0
sVineffectiveness
p3517
F0.0
sVmanerix
p3518
F0.0
sVc
p3519
F1.4456770153744964e-05
sVcompazine
p3520
F0.0
sVindiscriminately
p3521
F0.0
sVreverse
p3522
F2.748075885342526e-05
sVlicense
p3523
F4.355597227403996e-05
sVrestful
p3524
F0.0
sVtapered
p3525
F0.0
sVbarely
p3526
F0.00026133583364423976
sVexplore
p3527
F7.103673112746521e-05
sVsusceptible
p3528
F0.0
sVscanners
p3529
F0.0
sVsensitive
p3530
F6.430085368245878e-05
sVconnection
p3531
F0.00013066791682211988
sVbecame
p3532
F0.0003048918059182797
sVzilch
p3533
F7.103673112746521e-05
sValot
p3534
F0.00014207346225493043
sVbuzz
p3535
F4.355597227403996e-05
sVcola
p3536
F0.0
sVtoxicology
p3537
F0.0
sVbond
p3538
F4.355597227403996e-05
sVwhole
p3539
F0.0004946536593616546
sVhistamine
p3540
F0.0
sVpda
p3541
F0.0
sVload
p3542
F5.496151770685052e-05
sVliked
p3543
F0.00013066791682211988
sVwouldnt
p3544
F0.0
sVconsume
p3545
F8.711194454807991e-05
sVknocking
p3546
F0.00021311019338239562
sVpoint
p3547
F0.0003108205583055167
sVsimple
p3548
F2.8913540307489927e-05
sVsweet
p3549
F2.748075885342526e-05
sVdepletes
p3550
F0.0
sVwhatever
p3551
F0.00027327862815044974
sVvyvanse
p3552
F0.0
sV100mg
p3553
F0.0
sVpanicking
p3554
F0.0
sVcried
p3555
F0.00021311019338239562
sVsimply
p3556
F2.748075885342526e-05
sVlikes
p3557
F5.496151770685052e-05
sVshutdown
p3558
F7.103673112746521e-05
sVchurch
p3559
F4.355597227403996e-05
sVowe
p3560
F4.355597227403996e-05
sVthroughout
p3561
F0.00030228834738767787
sVlithium
p3562
F0.0
sVexpensive
p3563
F5.496151770685052e-05
sVbelt
p3564
F0.00042622038676479125
sVhorticulture
p3565
F0.0
sV30mg
p3566
F0.0
sVworthless
p3567
F7.103673112746521e-05
sVarsenal
p3568
F0.0
sVstating
p3569
F7.103673112746521e-05
sVpt
p3570
F7.103673112746521e-05
sVmonthly
p3571
F0.0
sVcreate
p3572
F0.00021777986137019978
sVacceptance
p3573
F0.0
sVcreativity
p3574
F0.0
sVdue
p3575
F0.0006968955563846393
sVvelveeta
p3576
F0.0
sVscreened
p3577
F0.0
sVran
p3578
F5.496151770685052e-05
sVreduction
p3579
F0.00028414692450986085
sVcomplicated
p3580
F0.00014207346225493043
sVmaintenance
p3581
F0.0
sVclinical
p3582
F0.0
sVbrick
p3583
F0.0
sVmindset
p3584
F0.0
sVmeeting
p3585
F0.00010992303541370104
sVempty
p3586
F2.1685155230617443e-05
sVtreatment
p3587
F0.001704881547059165
sVfirm
p3588
F2.748075885342526e-05
sVresting
p3589
F0.00014207346225493043
sVsuspicious
p3590
F7.103673112746521e-05
sVflight
p3591
F5.496151770685052e-05
sVsobriety
p3592
F0.0
sVtranscranial
p3593
F0.0
sVfire
p3594
F0.00012860170736491756
sVtransferring
p3595
F7.103673112746521e-05
sVdrug_interactions
p3596
F0.0
sVgap
p3597
F7.103673112746521e-05
sVmoderation
p3598
F0.0
sVawake
p3599
F0.0009234775046570477
sVtraumatizing
p3600
F0.0
sVresisted
p3601
F0.0
sVdespite
p3602
F0.00011252649394430286
sVgad
p3603
F0.0
sVlamotrigine
p3604
F0.0
sVowsley
p3605
F0.0
sVunnecessarily
p3606
F0.0
sVfurrow
p3607
F0.0
sVbile
p3608
F7.103673112746521e-05
sVhandling
p3609
F8.711194454807991e-05
sVuncertain
p3610
F7.103673112746521e-05
sVlook
p3611
F0.0001879380119986845
sVsolid
p3612
F0.00013066791682211988
sVshitton
p3613
F0.0
sVcanadian
p3614
F0.0
sVconvo
p3615
F0.0
sVempirical
p3616
F0.0
sVevaluated
p3617
F0.0
sVcrutch
p3618
F0.0
sVmedically
p3619
F0.0
sVsubstantial
p3620
F7.103673112746521e-05
sVought
p3621
F0.00014207346225493043
sVerror
p3622
F7.103673112746521e-05
sVsheets
p3623
F4.355597227403996e-05
sVexercising
p3624
F0.0
sVmitchell
p3625
F0.0
sV31
p3626
F8.711194454807991e-05
sVpack
p3627
F8.037606710307347e-05
sVconstipated
p3628
F7.103673112746521e-05
sVerupting
p3629
F0.0
sVhoping
p3630
F0.0003551836556373261
sVemployees
p3631
F0.0
sVagitation
p3632
F0.0
sVcents
p3633
F0.00014207346225493043
sV37
p3634
F8.711194454807991e-05
sVinpatient
p3635
F0.0
sVcleaned
p3636
F7.103673112746521e-05
sVredacted
p3637
F7.103673112746521e-05
sVjpg
p3638
F8.711194454807991e-05
sVssri
p3639
F0.0
sVhydrocodone
p3640
F0.0
sVtriple
p3641
F8.711194454807991e-05
sVpromethazine
p3642
F0.0
sVhydromorphone
p3643
F0.0
sVrid
p3644
F8.711194454807991e-05
sV34
p3645
F2.748075885342526e-05
sVdysthymia
p3646
F0.0
sVconcentration
p3647
F0.00013066791682211988
sVaches
p3648
F0.0
sVlengthy
p3649
F7.103673112746521e-05
sVkwan
p3650
F0.0
sVshirt
p3651
F4.355597227403996e-05
sValarm
p3652
F0.00021777986137019978
sVjames
p3653
F0.00021311019338239562
sVmigraine
p3654
F0.0
sVmint
p3655
F4.355597227403996e-05
sVkinkel
p3656
F0.0
sVbenign
p3657
F7.103673112746521e-05
sVstimulated
p3658
F0.0
sVcentred
p3659
F7.103673112746521e-05
sVemphasize
p3660
F0.0
sVwidely
p3661
F0.0
sVgrand
p3662
F4.355597227403996e-05
sVserum
p3663
F0.0
sVproducts
p3664
F0.00013066791682211988
sVitchy
p3665
F0.0
sVray
p3666
F7.103673112746521e-05
sVcpap
p3667
F0.0
sVday
p3668
F0.0
sVexams
p3669
F0.0
sVdevelopment
p3670
F8.711194454807991e-05
sVliterature
p3671
F7.103673112746521e-05
sVtemporary
p3672
F0.00021311019338239562
sVlatency
p3673
F0.0
sVassignment
p3674
F7.103673112746521e-05
sVagents
p3675
F0.00014207346225493043
sVoverweight
p3676
F0.0
sVyesterday
p3677
F0.00021311019338239562
sVairway
p3678
F0.0
sValert
p3679
F8.711194454807991e-05
sVmoment
p3680
F7.951223584559729e-05
sVwalmart
p3681
F0.0
sVuses
p3682
F8.244227656027577e-05
sVcleaning
p3683
F8.711194454807991e-05
sVbromo
p3684
F0.0
sVhaunting
p3685
F0.0
sVgenuine
p3686
F4.355597227403996e-05
sVstack
p3687
F7.103673112746521e-05
sVinfamous
p3688
F0.0
sVrecent
p3689
F0.00013066791682211988
sVearly
p3690
F9.645128052368816e-05
sVbacopa
p3691
F0.0
sVtask
p3692
F8.244227656027577e-05
sVinfertility
p3693
F0.0
sVdatabase
p3694
F7.103673112746521e-05
sVmemantine
p3695
F0.0
sVcodeine
p3696
F0.0
sVspent
p3697
F0.0003048918059182797
sVanalysis
p3698
F7.103673112746521e-05
sVobviously
p3699
F0.00016488455312055155
sVperson
p3700
F0.00043403076235659665
sVanime
p3701
F0.0
sVregulating
p3702
F0.0
sVrozerem
p3703
F0.0
sVwithdraw
p3704
F0.00014207346225493043
sVy
p3705
F1.6075213420614695e-05
sVentry
p3706
F4.355597227403996e-05
sVchemistry
p3707
F0.0
sVappalled
p3708
F0.0
sVtemperamental
p3709
F0.0
sVknow
p3710
F0.0007156101226103756
sVcajon
p3711
F0.0
sVcatiously
p3712
F0.0
sVinterferes
p3713
F7.103673112746521e-05
sVcampral
p3714
F0.0
sVpepto
p3715
F0.0
sV125
p3716
F0.0
sVbirthday
p3717
F4.355597227403996e-05
sVisolated
p3718
F0.0
sVprofoundly
p3719
F0.0
sVopenly
p3720
F0.0
sVquestions
p3721
F0.0001374037942671263
sVirritable
p3722
F7.103673112746521e-05
sVvigilant
p3723
F0.0
sVretired
p3724
F0.00014207346225493043
sValternative
p3725
F0.00026133583364423976
sVpredominantly
p3726
F0.0
sVsummaries
p3727
F0.0
sVbased
p3728
F0.00019236531197397682
sVdiscipline
p3729
F0.0
sVsuperficial
p3730
F4.355597227403996e-05
sVcut
p3731
F3.6141925384362405e-05
sVsignal
p3732
F4.355597227403996e-05
sVtablet
p3733
F0.0004972571178922565
sVcup
p3734
F7.103673112746521e-05
sVhated
p3735
F0.00014207346225493043
sVadmission
p3736
F0.0
sVextra
p3737
F0.00010992303541370104
sVreactivity
p3738
F0.0
sVcontractor
p3739
F0.0
sVsource
p3740
F0.0001374037942671263
sVsedated
p3741
F0.0
sVparents
p3742
F0.0007814040424021173
sVquestioned
p3743
F0.0
sVimpairs
p3744
F7.103673112746521e-05
sVinducing
p3745
F0.0
sVinput
p3746
F0.0012076244291669086
sVfired
p3747
F4.355597227403996e-05
sVdelerium
p3748
F0.0
sVsurprised
p3749
F8.244227656027577e-05
sVuseless
p3750
F0.0004972571178922565
sVridiculously
p3751
F0.00014207346225493043
sVtegretol
p3752
F0.0
sVaustralia
p3753
F0.0
sVmarch
p3754
F0.00014207346225493043
sVemergency
p3755
F0.00014207346225493043
sVloss
p3756
F0.00043555972274039956
sVbig
p3757
F0.0001517960866143221
sVrebound
p3758
F0.0
sVlaughed
p3759
F0.0
sVsounding
p3760
F7.103673112746521e-05
sVshitty
p3761
F0.00021311019338239562
sVsuffering
p3762
F0.00016488455312055155
sVquest
p3763
F7.103673112746521e-05
sVhitters
p3764
F0.0
sVwestroads_mall_shooting
p3765
F0.0
sVforeigners
p3766
F7.103673112746521e-05
sVwiser
p3767
F0.0
sVhallucinations
p3768
F0.0
sVbit
p3769
F0.00020962316722930198
sVawaken
p3770
F0.0
sVeffexor
p3771
F0.0
sVhelpful
p3772
F0.0007103673112746522
sVknock
p3773
F0.0006968955563846393
sVoutright
p3774
F0.0
sVd
p3775
F0.0
sVsemi
p3776
F2.748075885342526e-05
sVuniversity
p3777
F0.0004972571178922565
sVfollows
p3778
F2.748075885342526e-05
sVinterestingly
p3779
F0.00014207346225493043
sVpounds
p3780
F0.00013066791682211988
sVresorted
p3781
F0.0
sVrider
p3782
F4.355597227403996e-05
sVheart
p3783
F0.00019236531197397682
sVcollect
p3784
F0.0
sVzoloft
p3785
F0.0
sVcontinue
p3786
F9.645128052368816e-05
sVfuriously
p3787
F0.0
sVjolted
p3788
F0.0
sVwerent
p3789
F0.0
sVfault
p3790
F1.6075213420614695e-05
sVdisorder
p3791
F0.001704881547059165
sVptsd
p3792
F0.0
sVsilence
p3793
F2.748075885342526e-05
sVhallmark
p3794
F0.0
sVgoogle
p3795
F0.00026133583364423976
sVpartying
p3796
F0.0
sVoften
p3797
F0.0009343458010164587
sVgrowing
p3798
F4.355597227403996e-05
sVabsolutely
p3799
F8.037606710307347e-05
sVspring
p3800
F5.496151770685052e-05
sVsuicides
p3801
F0.0
sVback
p3802
F0.00044093148968922134
sVbounce
p3803
F7.103673112746521e-05
sVopenmenu
p3804
F0.0
sVseparated
p3805
F7.103673112746521e-05
sVurgent
p3806
F0.0
sVexperienced
p3807
F0.0006393305801471869
sVmiracle
p3808
F0.0
sVmirror
p3809
F8.711194454807991e-05
sVcurious
p3810
F1.6075213420614695e-05
sVloses
p3811
F4.355597227403996e-05
sVmispelled
p3812
F0.0
sVpronounced
p3813
F2.748075885342526e-05
sVmglur
p3814
F0.0
sVscale
p3815
F4.355597227403996e-05
sVweirdo
p3816
F7.103673112746521e-05
sVaffects
p3817
F8.711194454807991e-05
sVdecision
p3818
F5.496151770685052e-05
sVmeasurements
p3819
F0.0
sVper
p3820
F0.0003920037504663596
sVcrisis
p3821
F0.0
sVmodest
p3822
F7.103673112746521e-05
sVfirsthand
p3823
F0.0
sVpounding
p3824
F7.103673112746521e-05
sVbehave
p3825
F4.355597227403996e-05
sVstupidity
p3826
F0.0
sVworkup
p3827
F0.0
sVscalp
p3828
F0.0
sVtends
p3829
F0.0
sVdating
p3830
F4.355597227403996e-05
sVtemple
p3831
F0.0
sVapathetic
p3832
F0.0
sVbuspar
p3833
F0.0
sVstanding
p3834
F1.6075213420614695e-05
sVvarying
p3835
F0.00014207346225493043
sVeating
p3836
F0.0004791156950144395
sVprofessionals
p3837
F0.0
sVbc
p3838
F0.0
sV300
p3839
F4.355597227403996e-05
sVbm
p3840
F0.0
sVodor
p3841
F4.355597227403996e-05
sVprocessing
p3842
F7.103673112746521e-05
sVagreement
p3843
F2.748075885342526e-05
sV306
p3844
F0.0
sVwithdrawals
p3845
F0.0
sVfeelings
p3846
F0.00026133583364423976
sVotherside
p3847
F0.0
sVbp
p3848
F0.0
sVlasts
p3849
F0.00013066791682211988
sVviibryd
p3850
F0.0
sVmajor
p3851
F0.00020897777446799101
sVtripping
p3852
F0.0
sVhandled
p3853
F8.711194454807991e-05
sVreact
p3854
F0.00013066791682211988
sVpipeline
p3855
F0.0
sVcautious
p3856
F7.103673112746521e-05
sVusa
p3857
F7.103673112746521e-05
sVanything
p3858
F0.000375876023997369
sVnetflix
p3859
F0.0
sVgod
p3860
F8.711194454807991e-05
sVprove
p3861
F0.0
sVdecongestants
p3862
F0.0
sVgraduation
p3863
F0.0
sVreduced
p3864
F0.00014207346225493043
sVrange
p3865
F4.822564026184408e-05
sVounce
p3866
F0.00021311019338239562
sVidk
p3867
F0.0
sVinhibits
p3868
F0.0
sVsponsored
p3869
F0.0
sVwonders
p3870
F0.0
sVblock
p3871
F4.355597227403996e-05
sVrecommended
p3872
F0.0008524407735295825
sVrepair
p3873
F0.0
sVjimmy
p3874
F0.0
sVreal
p3875
F0.0
sVcolorado
p3876
F0.0
sVhears
p3877
F0.0
sVharassed
p3878
F7.103673112746521e-05
sVdude
p3879
F7.103673112746521e-05
sVrelapsed
p3880
F7.103673112746521e-05
sVwithin
p3881
F0.00016075213420614694
sVsteady
p3882
F0.0
sVappropriate
p3883
F0.0003551836556373261
sVcrps
p3884
F0.0
sVprimarily
p3885
F0.0
sVsteven
p3886
F0.0
sVdrifted
p3887
F0.0
sVlesson
p3888
F7.103673112746521e-05
sVbinged
p3889
F0.0
sVrelapses
p3890
F0.0
sVdelusional
p3891
F0.00014207346225493043
sVlogged
p3892
F7.103673112746521e-05
sVcalming
p3893
F0.0
sVconnexus
p3894
F0.0
sVdosages
p3895
F0.0
sVspan
p3896
F7.103673112746521e-05
sVpalinopsia
p3897
F0.0
sVspending
p3898
F7.103673112746521e-05
sVprobabilistic
p3899
F0.0
sVplacing
p3900
F7.103673112746521e-05
sVquestion
p3901
F0.00020897777446799101
sVhandles
p3902
F4.355597227403996e-05
sVprovigil
p3903
F0.0
sVaccountability
p3904
F0.0
sVordered
p3905
F8.711194454807991e-05
sVthirdly
p3906
F0.0
sVpessimistic
p3907
F0.0
sVconsultation
p3908
F0.0
sVfaso
p3909
F0.0
sVbarfed
p3910
F7.103673112746521e-05
sVforward
p3911
F0.0
sVwonderfully
p3912
F0.0
sVtranslate
p3913
F7.103673112746521e-05
sVswapped
p3914
F7.103673112746521e-05
sVmundane
p3915
F0.0
sVelsewhere
p3916
F0.00021311019338239562
sVwnd
p3917
F0.0
sVjewish
p3918
F0.0
sVposter
p3919
F7.103673112746521e-05
sVcollapsed
p3920
F4.355597227403996e-05
sVmemory
p3921
F0.0002748075885342526
sVpsychoactive
p3922
F0.0
sVsearching
p3923
F0.00013066791682211988
sVrevolver
p3924
F0.0
sVpotency
p3925
F0.0
sVlink
p3926
F8.711194454807991e-05
sVlibrary
p3927
F0.00013066791682211988
sVpromazine
p3928
F0.0
sVsick
p3929
F0.0006393305801471869
sVhopes
p3930
F8.711194454807991e-05
sVtryptophan
p3931
F0.0
sVline
p3932
F6.430085368245878e-05
sVharangue
p3933
F0.0
sVposted
p3934
F0.00017422388909615983
sVinfo
p3935
F0.00021311019338239562
sVpregabalin
p3936
F0.0
sVpaducah
p3937
F0.0
sVfulfilling
p3938
F0.0
sVstumbling
p3939
F0.0
sVrequesting
p3940
F7.103673112746521e-05
sVfries
p3941
F7.103673112746521e-05
sVpercocet
p3942
F0.0
sVus
p3943
F0.00010119739107621475
sVtheoretical
p3944
F0.0
sVum
p3945
F4.355597227403996e-05
sVwindows
p3946
F2.748075885342526e-05
sVun
p3947
F1.6075213420614695e-05
sVaccustomed
p3948
F0.0
sVuh
p3949
F8.244227656027577e-05
sVuk
p3950
F0.00021311019338239562
sVpineal
p3951
F0.0
sVhighlight
p3952
F7.103673112746521e-05
sVz
p3953
F0.0005682938490197217
sVsimilar
p3954
F0.00020897777446799101
sVprofessor
p3955
F0.00014207346225493043
sVprecipitated
p3956
F0.0
sVstoring
p3957
F0.0
sVsometimes
p3958
F0.0005787076831421289
sVassociated
p3959
F0.00042622038676479125
sVadults
p3960
F0.00014207346225493043
sVmindful
p3961
F0.0
sVbarbituate
p3962
F0.0
sVnepotism
p3963
F0.0
sVrecommendation
p3964
F7.103673112746521e-05
sVunsafe
p3965
F7.103673112746521e-05
sVdoesn
p3966
F0.000404789564304859
sVoutpatients
p3967
F0.0
sVduration
p3968
F0.0
sVsingle
p3969
F5.0598695538107374e-05
sVcure
p3970
F0.00014207346225493043
sVevening
p3971
F0.00017422388909615983
sV10hours
p3972
F0.0
sVreuptake
p3973
F0.0
sVdragging
p3974
F4.355597227403996e-05
sVkidney
p3975
F7.103673112746521e-05
sVstruggled
p3976
F0.0
sVshaky
p3977
F0.0
sV6th
p3978
F7.103673112746521e-05
sVadjudicate
p3979
F0.0
sVloser
p3980
F0.0
sVamounts
p3981
F0.00021777986137019978
sVuser
p3982
F4.355597227403996e-05
sVoccasional
p3983
F0.0
sVclub
p3984
F0.00014207346225493043
sVnap
p3985
F0.0
sVpoints
p3986
F5.496151770685052e-05
sVelectrical
p3987
F7.103673112746521e-05
sVnaw
p3988
F7.103673112746521e-05
sVaunt
p3989
F0.0
sVmaisonikkoku
p3990
F0.0
sVnice
p3991
F0.0
sVwished
p3992
F0.0
sVexplaining
p3993
F0.00014207346225493043
sVdraw
p3994
F1.4456770153744964e-05
sVelements
p3995
F0.00014207346225493043
sVprozasin
p3996
F0.0
sVenergetic
p3997
F0.0
sVbeginnings
p3998
F7.103673112746521e-05
sVprovided
p3999
F0.00013066791682211988
sVknew
p4000
F0.00010992303541370104
sVlucid
p4001
F0.0
sVkansas
p4002
F0.0
sVmaois
p4003
F0.0
sVativan
p4004
F0.0
sVvisits
p4005
F0.0
sVluxurious
p4006
F7.103673112746521e-05
sVhelping
p4007
F0.00035724986509452837
sVdrag
p4008
F3.215042684122939e-05
sVpilates
p4009
F0.0
sVallowing
p4010
F2.748075885342526e-05
sVutterly
p4011
F7.103673112746521e-05
sVruthlessly
p4012
F0.0
sVmeals
p4013
F0.00014207346225493043
sVstructure
p4014
F7.103673112746521e-05
sVmood
p4015
F0.0008711194454807991
sVago
p4016
F0.0009146754177548391
sVfurthest
p4017
F0.0
sVindependently
p4018
F0.0
sVmiles
p4019
F0.00013066791682211988
sVe
p4020
F7.951223584559729e-05
sVhealers
p4021
F0.0
sVnapping
p4022
F0.0
sVsedative
p4023
F0.0
sVyoutube
p4024
F0.0
sVwalked
p4025
F7.103673112746521e-05
sVdragged
p4026
F2.748075885342526e-05
sV2002
p4027
F4.355597227403996e-05
sVcooked
p4028
F4.355597227403996e-05
sVdepth
p4029
F8.244227656027577e-05
sVflosser
p4030
F0.0
sVequally
p4031
F0.0
sV2007
p4032
F0.0
sV2005
p4033
F7.103673112746521e-05
sVpsychiatry
p4034
F0.0
sVfresh
p4035
F2.748075885342526e-05
sV2008
p4036
F0.0
sV2009
p4037
F0.0
sVnovember
p4038
F0.0
sVrinse
p4039
F7.103673112746521e-05
sVchalk
p4040
F0.0
sVgeuss
p4041
F0.0
sVcode
p4042
F8.711194454807991e-05
sVjason
p4043
F0.0
sVgp
p4044
F0.0
sVresults
p4045
F0.0003048918059182797
sVproduce
p4046
F4.355597227403996e-05
sVoverly
p4047
F7.103673112746521e-05
sVenjoyable
p4048
F7.103673112746521e-05
sVeds
p4049
F0.0
sVaddyi
p4050
F0.0
sVhyper
p4051
F0.0
sVhypothyroidism
p4052
F0.0
sVstops
p4053
F7.228385076872482e-06
sVliquor
p4054
F5.496151770685052e-05
sVaugust
p4055
F0.0
sVgo
p4056
F0.0
sVrestarted
p4057
F7.103673112746521e-05
sVflashback
p4058
F0.0
sVmoon
p4059
F8.711194454807991e-05
sVgi
p4060
F0.0
sVseemed
p4061
F4.822564026184408e-05
sVbupropion
p4062
F0.0
sVcruiser
p4063
F7.103673112746521e-05
sVbehoove
p4064
F7.103673112746521e-05
sVflexeril
p4065
F0.0
sVpeanut
p4066
F7.103673112746521e-05
sVconcerned
p4067
F0.00021777986137019978
sVfenced
p4068
F0.0
sVyoung
p4069
F2.8913540307489927e-05
sVsend
p4070
F0.00014467692078553223
sVintensive
p4071
F7.103673112746521e-05
sVculinary
p4072
F0.0
sVhelps
p4073
F0.0015244590295913983
sVstable
p4074
F0.00021311019338239562
sVweather
p4075
F2.748075885342526e-05
sVbreach
p4076
F0.0
sVinclude
p4077
F0.00026133583364423976
sVsent
p4078
F3.6141925384362405e-05
sVdeficit
p4079
F0.0
sVpekka
p4080
F0.0
sVfamily
p4081
F0.0005221344182150799
sVlabels
p4082
F5.496151770685052e-05
sVseized
p4083
F7.103673112746521e-05
sVdebilitatingly
p4084
F0.0
sVoutside
p4085
F7.228385076872481e-05
sVcontinues
p4086
F4.355597227403996e-05
sVwave
p4087
F5.496151770685052e-05
sVheadaches
p4088
F0.0
sVspoon
p4089
F7.103673112746521e-05
sVhomeosthasis
p4090
F0.0
sVputting
p4091
F9.645128052368816e-05
sVhomework
p4092
F0.00021311019338239562
sVmixing
p4093
F7.103673112746521e-05
sVlacking
p4094
F0.00014207346225493043
sVsurgeon
p4095
F0.0
sVsyntax
p4096
F7.103673112746521e-05
sVcontinued
p4097
F0.0
sVminerals
p4098
F4.355597227403996e-05
sVnausea
p4099
F0.0
sVtimely
p4100
F0.0
sVentire
p4101
F0.00016488455312055155
sVmagic
p4102
F4.355597227403996e-05
sVschoolwork
p4103
F0.0
sVantihistaminergic
p4104
F0.0
sVexperiencing
p4105
F0.0
sVnotes
p4106
F8.711194454807991e-05
sVdialed
p4107
F0.0
sVmichael
p4108
F0.0
sVbooze
p4109
F7.103673112746521e-05
sVfewer
p4110
F0.00021311019338239562
sVracy
p4111
F0.0
sVanxious
p4112
F0.0012076244291669086
sVtenderness
p4113
F0.0
sVskipped
p4114
F0.00014207346225493043
sVrace
p4115
F0.00028414692450986085
sVcongrats
p4116
F0.0
sVdurkheim
p4117
F0.0
sVdealt
p4118
F0.0
sVimgur
p4119
F0.0
sVhavent
p4120
F0.0
sVnoted
p4121
F7.103673112746521e-05
sVrested
p4122
F0.0
sVdisclaimer
p4123
F7.103673112746521e-05
sVconcluded
p4124
F0.0
sVsomeday
p4125
F7.103673112746521e-05
sVsmaller
p4126
F2.748075885342526e-05
sVruh
p4127
F0.0
sVeducators
p4128
F0.0
sVvisuals
p4129
F0.0
sVcptsd
p4130
F0.0
sVsensation
p4131
F0.0
sVcrop
p4132
F0.0
sVwaking
p4133
F0.0006533395841105994
sVjump
p4134
F5.496151770685052e-05
sVvideo
p4135
F0.00013066791682211988
sVuncomfortable
p4136
F0.00028414692450986085
sVsleepytime
p4137
F0.0
sVhppd
p4138
F0.0
sVdispensary
p4139
F0.0
sVice
p4140
F4.355597227403996e-05
sVodd
p4141
F1.6075213420614695e-05
sVclick
p4142
F2.748075885342526e-05
sVscientific
p4143
F7.103673112746521e-05
sVindex
p4144
F0.00014207346225493043
sVturn
p4145
F4.822564026184408e-05
sV3x
p4146
F0.0
sVdeveloped
p4147
F0.0
sVsweats
p4148
F0.0
sVjunior
p4149
F0.0
sVcarthage
p4150
F0.0
sVgiving
p4151
F3.215042684122939e-05
sVasap
p4152
F0.0
sVexacerbate
p4153
F0.0
sVended
p4154
F0.0004791156950144395
sVhomwork
p4155
F0.0
sVconsistently
p4156
F0.00021311019338239562
sVwaiting
p4157
F4.822564026184408e-05
sV500
p4158
F0.00014207346225493043
sVflowing
p4159
F0.0
sVvalues
p4160
F4.355597227403996e-05
sVnights
p4161
F0.0007840075009327192
sVexercise
p4162
F0.0014917713536767693
sVthin
p4163
F2.748075885342526e-05
sVbody
p4164
F0.00015902447169119458
sVioov
p4165
F0.0
sVled
p4166
F0.0
sVchose
p4167
F7.103673112746521e-05
sVdegree
p4168
F0.00013066791682211988
sVleg
p4169
F5.496151770685052e-05
sVupsetting
p4170
F0.0
sVbackstory
p4171
F0.0
sVgathered
p4172
F0.0
sVpushing
p4173
F8.037606710307347e-05
sVprescribe
p4174
F0.0007814040424021173
sVyoure
p4175
F0.0
sVnonexistent
p4176
F7.103673112746521e-05
sVyoungest
p4177
F7.103673112746521e-05
sVfollowing
p4178
F9.645128052368816e-05
sVgm
p4179
F0.0
sVobjects
p4180
F7.103673112746521e-05
sVpoverty
p4181
F7.103673112746521e-05
sVhealing
p4182
F0.0
sVzopiclone
p4183
F0.0
sVothers
p4184
F0.0003215042684122939
sVtriggering
p4185
F0.0
sVsafer
p4186
F0.0
sVb
p4187
F8.037606710307347e-05
sVphysiology
p4188
F0.0
sVextreme
p4189
F8.244227656027577e-05
sVgreat
p4190
F0.0
sVdrops
p4191
F2.748075885342526e-05
sVoleptro
p4192
F0.0
sVperscribe
p4193
F0.0
sVnumbness
p4194
F0.0
sVreceive
p4195
F0.00014207346225493043
sVwithdrawing
p4196
F0.0
sVrisperidone
p4197
F0.0
sV30
p4198
F0.0005626324697215142
sVleavenworth
p4199
F0.0
sV36
p4200
F8.711194454807991e-05
sVhaziness
p4201
F0.0
sVresulting
p4202
F4.355597227403996e-05
sVwarnings
p4203
F8.711194454807991e-05
sVcalifornia
p4204
F0.0
sVprincipally
p4205
F0.0
sVopinion
p4206
F0.00021311019338239562
sVclimb
p4207
F4.355597227403996e-05
sVdepressant
p4208
F0.0
sVmakes
p4209
F0.0002746786329211543
sVweekends
p4210
F8.711194454807991e-05
sVpajama
p4211
F0.0
sVthats
p4212
F4.355597227403996e-05
sVholmes
p4213
F0.0
sVexamining
p4214
F0.0
sVreprocessing
p4215
F0.0
sValtho
p4216
F0.0
sVstabilization
p4217
F0.0
sVdiminished
p4218
F0.0
sVdanger
p4219
F3.215042684122939e-05
sVgrossed
p4220
F0.0
sVwin
p4221
F5.496151770685052e-05
sVapp
p4222
F0.00021311019338239562
sVoffset
p4223
F0.00014207346225493043
sVdedicated
p4224
F7.103673112746521e-05
sVoutcomes
p4225
F0.0
sVannoy
p4226
F7.103673112746521e-05
sVdecrease
p4227
F0.00014207346225493043
sVnames
p4228
F2.748075885342526e-05
sVtools
p4229
F0.00017422388909615983
sVheaded
p4230
F5.496151770685052e-05
sVnursing
p4231
F0.0
sVminuteclinic
p4232
F0.0
sVstrapped
p4233
F7.103673112746521e-05
sVuse
p4234
F0.000404789564304859
sVtcas
p4235
F0.0
sVfeb
p4236
F0.0
sVfigure
p4237
F0.00017422388909615983
sVconsumption
p4238
F7.103673112746521e-05
sVreadyfill
p4239
F0.0
sVillegal
p4240
F7.103673112746521e-05
sVdruggies
p4241
F7.103673112746521e-05
sVheavy
p4242
F0.00012860170736491756
sVnext
p4243
F0.00028190701799802676
sVmodicum
p4244
F0.0
sVdoubt
p4245
F8.037606710307347e-05
sVestimated
p4246
F0.0
sVdiazepam
p4247
F0.0
sVlength
p4248
F7.228385076872482e-06
sVmeans
p4249
F0.00021777986137019978
sVstage
p4250
F2.748075885342526e-05
sVdreams
p4251
F0.0012786611602943739
sVsort
p4252
F9.396900599934225e-05
sVpfc
p4253
F0.0
sVstem
p4254
F0.0
sVstarted
p4255
F0.0006912341770864318
sVbecomes
p4256
F0.0001374037942671263
sVopiates
p4257
F0.00021311019338239562
sVfactor
p4258
F0.00014207346225493043
sVremission
p4259
F0.0
sVoccurred
p4260
F7.103673112746521e-05
sVinfection
p4261
F0.00021311019338239562
sVaspx
p4262
F7.103673112746521e-05
sVtrail
p4263
F7.103673112746521e-05
sVtrain
p4264
F7.103673112746521e-05
sVbreathing
p4265
F0.00017422388909615983
sV90mg
p4266
F0.0
sVbaby
p4267
F0.00017422388909615983
sV4am
p4268
F0.0
sVinattentive
p4269
F0.00014207346225493043
sViii
p4270
F0.0
sVamygdala
p4271
F0.0
sVwomen
p4272
F4.822564026184408e-05
sVcustomer
p4273
F7.103673112746521e-05
sVaccount
p4274
F4.355597227403996e-05
sVstabilized
p4275
F0.0
sVanimals
p4276
F4.355597227403996e-05
sVf
p4277
F4.355597227403996e-05
sVride
p4278
F2.748075885342526e-05
sVclients
p4279
F4.355597227403996e-05
sVstroke
p4280
F7.103673112746521e-05
sVnumerous
p4281
F8.711194454807991e-05
sVanywhere
p4282
F1.6075213420614695e-05
sVobvious
p4283
F8.244227656027577e-05
sVstabilizer
p4284
F0.0
sVinhibitor
p4285
F0.0
sVdidnt
p4286
F7.103673112746521e-05
sVndc
p4287
F0.0
sVdropped
p4288
F5.496151770685052e-05
sVcontrol
p4289
F0.0013937911127692786
sVweaker
p4290
F7.103673112746521e-05
sVchlorphenimine
p4291
F0.0
sVescapes
p4292
F7.103673112746521e-05
sVprocess
p4293
F0.00017422388909615983
sVbreathe
p4294
F0.00014207346225493043
sVflaring
p4295
F0.0
sVrode
p4296
F7.103673112746521e-05
sVpurposes
p4297
F0.0
sVmegapost
p4298
F0.0
sVhigh
p4299
F0.0
sVeffectively
p4300
F0.0
sVimaging
p4301
F0.0
sVsomething
p4302
F0.000585499191226671
sVtab
p4303
F4.355597227403996e-05
sVdietician
p4304
F0.0
sVbones
p4305
F2.748075885342526e-05
sVboner
p4306
F0.0
sVperma
p4307
F0.0
sVvoice
p4308
F0.00017422388909615983
sVinvestment
p4309
F0.0
sVfreaks
p4310
F8.711194454807991e-05
sVdominant
p4311
F0.0
sVhesitate
p4312
F0.0
sVeducational
p4313
F0.0
sVsyndrome
p4314
F0.00034844777819231966
sVlame
p4315
F0.00014207346225493043
sVtrazadone
p4316
F0.0
sVsix
p4317
F0.0004791156950144395
sVcarries
p4318
F3.215042684122939e-05
sVmoods
p4319
F0.0
sVfortunate
p4320
F0.0
sVarthritis
p4321
F0.0
sVvaries
p4322
F0.0
sVaurorix
p4323
F0.0
sVamtriptyline
p4324
F0.0
sVanimal
p4325
F1.6075213420614695e-05
sVhormones
p4326
F7.103673112746521e-05
sVinstead
p4327
F0.0002473268296808273
sVusers
p4328
F0.00014207346225493043
sVcomedy
p4329
F7.103673112746521e-05
sVintelligent
p4330
F4.355597227403996e-05
sVstock
p4331
F5.496151770685052e-05
sVprofile
p4332
F0.00034844777819231966
sVrelapsing
p4333
F0.0
sVde
p4334
F7.228385076872482e-06
sVblocks
p4335
F5.496151770685052e-05
sVwatch
p4336
F0.0
sVhighs
p4337
F0.0
sVphilosophy
p4338
F7.103673112746521e-05
sVneurotin
p4339
F0.0
sVconversations
p4340
F0.00014207346225493043
sVbothered
p4341
F0.0
sVwalk
p4342
F0.00035724986509452837
sVdoze
p4343
F0.0
sVindependent
p4344
F4.355597227403996e-05
sVabuse
p4345
F0.00028414692450986085
sVfatigue
p4346
F0.0
sVterrors
p4347
F0.0
sVtier
p4348
F0.0
sVspelling
p4349
F8.711194454807991e-05
sVdufreine
p4350
F0.0
sVidgaf
p4351
F0.0
sVrealized
p4352
F0.00028414692450986085
sVdrop
p4353
F0.00016488455312055155
sVdaycare
p4354
F7.103673112746521e-05
sVbind
p4355
F0.0
sVcounter
p4356
F0.0004791156950144395
sVlines
p4357
F2.748075885342526e-05
sVwatson
p4358
F7.103673112746521e-05
sVcontraceptives
p4359
F0.0
sVhonestly
p4360
F0.0003920037504663596
sVallow
p4361
F0.00014207346225493043
sVtamper
p4362
F0.0
sV05am
p4363
F0.0
sVaddiction
p4364
F0.0
sVlooking
p4365
F0.0
sVfuckup
p4366
F0.0
sVconstipation
p4367
F7.103673112746521e-05
sVcr
p4368
F0.00021311019338239562
sVserotonergic
p4369
F0.0
sVhouston
p4370
F0.0
sVunderstate
p4371
F0.0
sVdiminish
p4372
F0.0
sVproduces
p4373
F7.103673112746521e-05
sVquasi
p4374
F0.0
sVmove
p4375
F8.244227656027577e-05
sVoutlook
p4376
F4.355597227403996e-05
sVreport
p4377
F0.00017422388909615983
sVemsam
p4378
F0.0
sVincluding
p4379
F0.0001374037942671263
sVlooks
p4380
F1.4456770153744964e-05
sV135
p4381
F0.0
sVshreds
p4382
F0.0
sVmentioned
p4383
F0.0006393305801471869
sVdemon
p4384
F0.00014207346225493043
sVarrangement
p4385
F0.0
sVhappiest
p4386
F0.0
sVbunch
p4387
F8.244227656027577e-05
sVperfect
p4388
F4.355597227403996e-05
sVwrite
p4389
F9.645128052368816e-05
sVantipsychotic
p4390
F0.0
sVla
p4391
F2.1685155230617443e-05
sVll
p4392
F0.0005782708061497985
sVoveranalyzing
p4393
F0.0
sVadjustment
p4394
F0.0
sVmeantime
p4395
F0.00014207346225493043
sVage
p4396
F0.0005787076831421289
sVwilling
p4397
F0.00013066791682211988
sVdegrees
p4398
F0.00014207346225493043
sVchoose
p4399
F0.0001374037942671263
sV2015
p4400
F0.0
sV2014
p4401
F0.0
sV2011
p4402
F0.0
sVerowid
p4403
F0.0
sV2012
p4404
F0.0
sVdad
p4405
F2.748075885342526e-05
sVphysicians
p4406
F0.0
sVintraocular
p4407
F0.0
sVcrucial
p4408
F0.0
sVcrash
p4409
F0.00010992303541370104
sVgreater
p4410
F0.00034844777819231966
sVdocs
p4411
F7.103673112746521e-05
sVoutlined
p4412
F0.0
sVpractice
p4413
F0.0
sVcover
p4414
F3.215042684122939e-05
sVdat
p4415
F2.748075885342526e-05
sVmention
p4416
F0.0002748075885342526
sVdaw
p4417
F0.0
sVsonata
p4418
F0.0
sVambition
p4419
F7.103673112746521e-05
sVfront
p4420
F9.645128052368816e-05
sVcombo
p4421
F0.0005682938490197217
sVcircadian
p4422
F0.0
sVrealize
p4423
F0.00042622038676479125
sVfebruary
p4424
F0.0
sVurge
p4425
F0.0
sVauto
p4426
F0.00042622038676479125
sVprofound
p4427
F7.103673112746521e-05
sVverifying
p4428
F0.0
sVwarned
p4429
F0.00014207346225493043
sVpreclude
p4430
F0.0
sVcontacting
p4431
F0.0
sVdextromethorphan
p4432
F0.0
sVflunitrazepam
p4433
F0.0
sVsufficiently
p4434
F0.0
sVslipping
p4435
F7.103673112746521e-05
sVdoesnt
p4436
F8.711194454807991e-05
sVlamictal
p4437
F0.0
sVtruth
p4438
F0.00017422388909615983
sVbreeze
p4439
F7.103673112746521e-05
sVreceptor
p4440
F0.0
sVtoxic
p4441
F0.0
sVpint
p4442
F0.00014207346225493043
sVglasses
p4443
F8.711194454807991e-05
sVlectures
p4444
F0.0
sVexacerbated
p4445
F0.0
sVmultivitamin
p4446
F0.0
sVcelexa
p4447
F0.0
sVdreaming
p4448
F0.00028414692450986085
sVproduct
p4449
F4.355597227403996e-05
sVrelated
p4450
F0.00021984607082740207
sVweening
p4451
F0.0
sVsociety
p4452
F0.00013066791682211988
sVjunkie
p4453
F7.103673112746521e-05
sVmeta
p4454
F4.355597227403996e-05
sVstatic
p4455
F0.00014207346225493043
sVmatches
p4456
F5.496151770685052e-05
sVmeasure
p4457
F2.748075885342526e-05
sVprogrammer
p4458
F0.0
sVirregularities
p4459
F0.0
sVsexual
p4460
F0.00042622038676479125
sV87
p4461
F0.0
sVspecial
p4462
F2.8913540307489927e-05
sVillegitimate
p4463
F7.103673112746521e-05
sVtwice
p4464
F0.0003297691062411031
sVspectrum
p4465
F0.0
sVkeystroke
p4466
F7.103673112746521e-05
sVrep
p4467
F7.103673112746521e-05
sVyup
p4468
F0.0
sVplethora
p4469
F0.0
sVupset
p4470
F7.103673112746521e-05
sVdampened
p4471
F0.0
sVmechanism
p4472
F0.0
sVhorizonal
p4473
F0.0
sVsituational
p4474
F0.0
sVrem
p4475
F0.0
sVrec
p4476
F7.103673112746521e-05
sVelectronics
p4477
F0.00014207346225493043
sVweeknight
p4478
F0.0
sVcause
p4479
F0.00024576509261366435
sVred
p4480
F2.8913540307489927e-05
sVfun
p4481
F9.645128052368816e-05
sVshut
p4482
F1.6075213420614695e-05
sVinteractions
p4483
F0.0
sVactivity
p4484
F0.0003551836556373261
sV8g
p4485
F0.0
sVjeff
p4486
F0.0
sVpromptly
p4487
F0.0
sVfourteen
p4488
F7.103673112746521e-05
sVban
p4489
F0.0
sVunipolar
p4490
F0.0
sVect
p4491
F0.0
sVsurely
p4492
F7.103673112746521e-05
sVyork
p4493
F0.0
sVusual
p4494
F0.00028414692450986085
sVconflicts
p4495
F7.103673112746521e-05
sVbusiness
p4496
F2.1685155230617443e-05
sVafterward
p4497
F0.0
sVscary
p4498
F0.00021311019338239562
sV50mg
p4499
F0.0
sVinteraction
p4500
F0.00028414692450986085
sVcured
p4501
F0.00028414692450986085
sVg
p4502
F2.748075885342526e-05
sVcrashed
p4503
F4.355597227403996e-05
sVdeprived
p4504
F0.0
sVcould
p4505
F0.0
sVarea
p4506
F3.6141925384362405e-05
sVput
p4507
F0.0003108205583055167
sVtimes
p4508
F0.0
sVcounterpart
p4509
F0.0
sVconversation
p4510
F3.215042684122939e-05
sVsleeplessness
p4511
F0.0
sV4th
p4512
F0.00021311019338239562
sVneed
p4513
F0.0004264747195354764
sVinterfere
p4514
F7.103673112746521e-05
sVvisualize
p4515
F7.103673112746521e-05
sVfacilitate
p4516
F0.0
sVscare
p4517
F7.103673112746521e-05
sVsouth
p4518
F8.244227656027577e-05
sVdexedrine
p4519
F0.0
sVconsciously
p4520
F0.0
sVexam
p4521
F7.103673112746521e-05
sVburns
p4522
F4.355597227403996e-05
sVstep
p4523
F6.430085368245878e-05
sVblown
p4524
F0.00014207346225493043
sVstudent
p4525
F0.00043555972274039956
sVthird
p4526
F7.228385076872481e-05
sVassertions
p4527
F0.0
sVhypomania
p4528
F0.0
sVjesus
p4529
F0.0
sVaddicts
p4530
F0.0
sVdate
p4531
F8.711194454807991e-05
sVhurdle
p4532
F0.0
sVbitch
p4533
F0.00028414692450986085
sVreached
p4534
F2.748075885342526e-05
sVimpersonal
p4535
F0.0
sVaps
p4536
F0.0
sVreliable
p4537
F4.355597227403996e-05
sVlong
p4538
F0.0
sVsadly
p4539
F0.0
sVdroop
p4540
F0.0
sV10x
p4541
F0.0
sVstrict
p4542
F0.00028414692450986085
sVordering
p4543
F4.355597227403996e-05
sVprostate
p4544
F7.103673112746521e-05
sVbehaves
p4545
F7.103673112746521e-05
sVdetailing
p4546
F0.0
sVsystem
p4547
F0.0002572034147298351
sVeighth
p4548
F7.103673112746521e-05
sVclomipramine
p4549
F0.0
sVattack
p4550
F6.430085368245878e-05
sVswear
p4551
F7.103673112746521e-05
sVpitying
p4552
F0.0
sVsergeant
p4553
F0.0
sVsquinty
p4554
F0.0
sVintelligence
p4555
F0.0
sVdrool
p4556
F0.0
sVmessing
p4557
F7.103673112746521e-05
sVenantomers
p4558
F0.0
sVpainful
p4559
F0.0
sVprone
p4560
F0.0
sVhaves
p4561
F0.0
sVprivatehealth
p4562
F0.0
sVaccompany
p4563
F0.0
sVstars
p4564
F4.355597227403996e-05
sValopecia
p4565
F0.0
sVacademy
p4566
F7.103673112746521e-05
sVexplanation
p4567
F7.103673112746521e-05
sVnobody
p4568
F4.355597227403996e-05
sVsmoked
p4569
F0.00021311019338239562
sVlists
p4570
F7.103673112746521e-05
sVvouch
p4571
F0.0
sVtroubling
p4572
F0.0
sVfuzzy
p4573
F0.0
sV192lbs
p4574
F0.0
sVhaven
p4575
F0.00033757948183290855
sVremember
p4576
F0.00020962316722930198
sVloved
p4577
F8.711194454807991e-05
sVdevelop
p4578
F8.711194454807991e-05
sVliquid
p4579
F7.103673112746521e-05
sVcounteract
p4580
F0.0
sVpinelake
p4581
F0.0
sVisolation
p4582
F0.0
sVmeasured
p4583
F0.0
sVclonodine
p4584
F0.0
sVlimiting
p4585
F0.0
sVpatients
p4586
F0.0
sVdefense
p4587
F0.0
sVopiate
p4588
F0.0
sVloves
p4589
F4.355597227403996e-05
sVlight
p4590
F0.0002572034147298351
sVdistinctive
p4591
F0.0
sVdowner
p4592
F0.0
sVok
p4593
F0.00030228834738767787
sVsteer
p4594
F0.0
sVresult
p4595
F0.00021777986137019978
sVbehaviors
p4596
F0.0
sVbeter
p4597
F0.0
sVfalse
p4598
F2.748075885342526e-05
sVshrinks
p4599
F0.0
sVwakes
p4600
F0.0
sVunchanged
p4601
F0.0
sVbipolar
p4602
F0.0007103673112746522
sVgently
p4603
F0.00014207346225493043
sVcomfortable
p4604
F0.00013066791682211988
sVtonight
p4605
F0.00021777986137019978
sVgentle
p4606
F0.00010992303541370104
sVrecommends
p4607
F0.0
sVvariable
p4608
F4.355597227403996e-05
sVunlikely
p4609
F0.0
sVthroat
p4610
F4.822564026184408e-05
sVinduce
p4611
F0.0
sVdementia
p4612
F0.0
sVapparently
p4613
F8.244227656027577e-05
sVclearly
p4614
F8.244227656027577e-05
sVviewed
p4615
F4.355597227403996e-05
sVscrew
p4616
F8.711194454807991e-05
sVnoodles
p4617
F7.103673112746521e-05
sVgrams
p4618
F0.0
sVtriggered
p4619
F0.00014207346225493043
sVdishes
p4620
F7.103673112746521e-05
sVmin
p4621
F0.00021311019338239562
sVstudying
p4622
F0.0003551836556373261
sVforgotten
p4623
F8.711194454807991e-05
sVsecreted
p4624
F0.0
sVcleveland
p4625
F0.0
sVmid
p4626
F8.244227656027577e-05
sVparks
p4627
F0.0
sVadjunct
p4628
F0.0
sVmix
p4629
F0.0001374037942671263
sVconcerns
p4630
F0.0
sVdeclined
p4631
F8.711194454807991e-05
sVgrounding
p4632
F0.0
sVasshole
p4633
F0.00014207346225493043
sVpharmacist
p4634
F0.0
sVcoke
p4635
F0.00014207346225493043
sVtoughest
p4636
F0.0
sVlecturer
p4637
F0.0
sVcriteria
p4638
F0.0
sVregard
p4639
F0.0
sVunless
p4640
F0.00038473062394795365
sVprednisone
p4641
F0.0
sVcombat
p4642
F0.0
sVsenses
p4643
F0.0
sVhealthcare
p4644
F0.0
sVminneapolis
p4645
F0.0
sVharmful
p4646
F0.0
sVuseful
p4647
F0.0003551836556373261
sV01
p4648
F0.00014207346225493043
sVeight
p4649
F0.00010992303541370104
sVlidocaine
p4650
F0.0
sVlunesta
p4651
F0.0
sVpsychedelic
p4652
F0.0
sVexpired
p4653
F4.355597227403996e-05
sVsubsequently
p4654
F0.0
sVduloxetine
p4655
F0.0
sVnami
p4656
F0.0
sVseraquel
p4657
F0.0
sVhyperthyroidism
p4658
F0.0
sVconsequences
p4659
F7.103673112746521e-05
sVwon
p4660
F0.00013733931646057714
sVcollateral
p4661
F0.0
sVgather
p4662
F4.355597227403996e-05
sVstronger
p4663
F0.00042622038676479125
sVdisease
p4664
F0.0003048918059182797
sVface
p4665
F1.6075213420614695e-05
sVlooked
p4666
F0.00013066791682211988
sVhi
p4667
F0.00014207346225493043
sVdesvenlafaxine
p4668
F0.0
sVnailed
p4669
F0.0
sVrelievers
p4670
F0.0
sVwounded
p4671
F0.0007404515286586793
sVskinny
p4672
F7.103673112746521e-05
sVtypical
p4673
F0.00021777986137019978
sVnormally
p4674
F0.00017422388909615983
sVfact
p4675
F0.0003297691062411031
sVrarely
p4676
F0.0
sVescalate
p4677
F0.0
sVanswered
p4678
F2.748075885342526e-05
sVchances
p4679
F4.355597227403996e-05
sVtext
p4680
F8.711194454807991e-05
sVagreed
p4681
F7.103673112746521e-05
sVsupported
p4682
F7.103673112746521e-05
sVanyway
p4683
F0.00043969214165480414
sVsublingual
p4684
F0.0
sVvistaril
p4685
F0.0
sVbring
p4686
F5.0598695538107374e-05
sVpanic
p4687
F0.0
sVbedroom
p4688
F7.103673112746521e-05
sVtelling
p4689
F8.037606710307347e-05
sVrough
p4690
F8.711194454807991e-05
sV2013
p4691
F0.0
sVtrivial
p4692
F0.0
sVdbt
p4693
F0.0
sVdecade
p4694
F0.00021777986137019978
sVpartners
p4695
F7.103673112746521e-05
sVstimulants
p4696
F0.0
sVcoloring
p4697
F0.00014207346225493043
sVamplifies
p4698
F0.0
sVknowledge
p4699
F8.711194454807991e-05
sVposting
p4700
F7.103673112746521e-05
sVhadn
p4701
F0.0001374037942671263
sVhops
p4702
F0.0
sVnitrous
p4703
F0.0
sVhopeful
p4704
F0.0
sVpouches
p4705
F0.0
sVreceptors
p4706
F0.0003551836556373261
sVeat
p4707
F0.00022505298788860572
sVprolong
p4708
F0.0
sVcraving
p4709
F7.103673112746521e-05
sV60mg
p4710
F0.0
sVunable
p4711
F0.0003920037504663596
sVmolecules
p4712
F0.0
sV6am
p4713
F0.0
sVexperimenting
p4714
F0.0
sVvarious
p4715
F0.00010992303541370104
sVfumbled
p4716
F0.0
sV4hrs
p4717
F0.0
sVlocal
p4718
F0.00021777986137019978
sVhope
p4719
F0.00013733931646057714
sVmeant
p4720
F0.00021984607082740207
sVinsight
p4721
F7.103673112746521e-05
sVhandle
p4722
F0.00012860170736491756
sVhijacking
p4723
F0.0
sVpharmacology
p4724
F0.0
sVundivided
p4725
F0.0
sVbeat
p4726
F2.748075885342526e-05
sVfamiliar
p4727
F0.00017422388909615983
sVwhatnot
p4728
F0.0
sVhopefully
p4729
F0.0
sVoverall
p4730
F0.0005682938490197217
sVlucky
p4731
F0.0001374037942671263
sVbear
p4732
F8.711194454807991e-05
sVsipping
p4733
F0.0
sV120
p4734
F0.0
sVjoint
p4735
F7.103673112746521e-05
sVlittleton
p4736
F0.0
sVones
p4737
F0.00043969214165480414
sVnonfatal
p4738
F0.0
sVwords
p4739
F0.00012860170736491756
sVabilify
p4740
F0.0
sVgrounds
p4741
F0.0
sVymmv
p4742
F0.0
sVhydroxizine
p4743
F0.0
sVantagonist
p4744
F0.0
sVprocesses
p4745
F0.00014207346225493043
sVht2b
p4746
F0.0
sVqt
p4747
F7.103673112746521e-05
sVtobacco
p4748
F8.711194454807991e-05
sVht2a
p4749
F0.0
sVh
p4750
F2.748075885342526e-05
sVmarried
p4751
F1.6075213420614695e-05
sVfixes
p4752
F7.103673112746521e-05
sVunbridled
p4753
F0.0
sVsummon
p4754
F7.103673112746521e-05
sVcircumspection
p4755
F0.0
sVstuff
p4756
F0.0009068650421630336
sVblogspot
p4757
F0.0
sVdallas
p4758
F0.0
sVwish
p4759
F0.0002748075885342526
sVgunman
p4760
F0.0
sVgrab
p4761
F2.748075885342526e-05
sVfixed
p4762
F8.711194454807991e-05
sVexperiences
p4763
F0.0003048918059182797
sVgabapentin
p4764
F0.0
sVenhancer
p4765
F0.0
sVeurope
p4766
F0.0
sVbtw
p4767
F0.0
sVtemporarily
p4768
F7.103673112746521e-05
sVtossing
p4769
F0.0
sVhorns
p4770
F7.103673112746521e-05
sVoperates
p4771
F0.0
sVjoin
p4772
F1.6075213420614695e-05
sVintensity
p4773
F7.103673112746521e-05
sVcomputer
p4774
F0.00021777986137019978
sVenhanced
p4775
F7.103673112746521e-05
sVterms
p4776
F0.0001374037942671263
sVdysmorphia
p4777
F0.0
sVballed
p4778
F0.0
sVbth
p4779
F0.0
sVmetabolite
p4780
F0.0
sVwalking
p4781
F1.6075213420614695e-05
sVinterview
p4782
F7.103673112746521e-05
sVinsulting
p4783
F7.103673112746521e-05
sVattempting
p4784
F2.748075885342526e-05
sVpattern
p4785
F0.0
sVnightmare
p4786
F5.496151770685052e-05
sVillusory
p4787
F0.0
sVtend
p4788
F0.0004972571178922565
sVampakines
p4789
F0.0
sVdifficulties
p4790
F0.0
sVdoxepin
p4791
F0.0
sVclosed
p4792
F1.6075213420614695e-05
sVroutine
p4793
F0.0003048918059182797
sVunderstood
p4794
F7.103673112746521e-05
sVprogress
p4795
F4.822564026184408e-05
sVneither
p4796
F4.355597227403996e-05
sVblocked
p4797
F7.103673112746521e-05
sVkidneys
p4798
F7.103673112746521e-05
sVmainly
p4799
F0.00013066791682211988
sVbought
p4800
F1.6075213420614695e-05
sVadmittedly
p4801
F0.0
sVends
p4802
F8.244227656027577e-05
sVexplosive
p4803
F0.0
sVability
p4804
F0.00013066791682211988
sVparadoxically
p4805
F7.103673112746521e-05
sVopening
p4806
F3.215042684122939e-05
sVimportance
p4807
F0.0
sVweak
p4808
F0.00021311019338239562
sVbeverages
p4809
F0.0
sVfocus
p4810
F0.0012786611602943739
sVdigoxin
p4811
F0.0
sVhowever
p4812
F0.0013066791682211987
sVcourtyard
p4813
F0.0
sVefficiency
p4814
F0.0
sVjob
p4815
F0.0002748075885342526
sVshittiest
p4816
F7.103673112746521e-05
sVmerry
p4817
F0.0
sVdemonstrate
p4818
F7.103673112746521e-05
sVgroup
p4819
F0.00016075213420614694
sVnutreal
p4820
F0.0
sVrph
p4821
F0.0
sVmessed
p4822
F0.00013066791682211988
sVmonitor
p4823
F7.103673112746521e-05
sVtoothbrush
p4824
F7.103673112746521e-05
sVhits
p4825
F2.748075885342526e-05
sVfigured
p4826
F0.00013066791682211988
sVakathisia
p4827
F0.0
sVcareer
p4828
F4.355597227403996e-05
sVjoke
p4829
F4.355597227403996e-05
sVtaking
p4830
F0.0008601778241478252
sVramp
p4831
F0.0
sVpresentations
p4832
F0.0
sVagree
p4833
F8.037606710307347e-05
sVetc
p4834
F0.00018070962692181205
sVadmit
p4835
F0.0
sVpublicized
p4836
F0.0
sVbehaviour
p4837
F4.355597227403996e-05
sVswallow
p4838
F4.355597227403996e-05
sVplacebo
p4839
F0.0
sVsafely
p4840
F7.103673112746521e-05
sVafraid
p4841
F9.645128052368816e-05
sVjourney
p4842
F0.0
sVchest
p4843
F0.00010992303541370104
sVcomment
p4844
F0.00021777986137019978
sVrelevant
p4845
F0.0
sVindica
p4846
F0.0
sVperiodic
p4847
F7.103673112746521e-05
sVwall
p4848
F8.711194454807991e-05
sVca
p4849
F7.103673112746521e-05
sVrather
p4850
F0.0001768273476267616
sVmidazolam
p4851
F0.0
sVlaugh
p4852
F2.748075885342526e-05
sV00pm
p4853
F0.0
sVrespect
p4854
F2.748075885342526e-05
sVpulmonary
p4855
F0.0
sVhepatotoxic
p4856
F0.0
sVwithdrawn
p4857
F0.0
sV600
p4858
F4.355597227403996e-05
sVerased
p4859
F4.355597227403996e-05
sVshudder
p4860
F0.0
sVhawkins
p4861
F0.0
sVsari
p4862
F0.0
sVyay
p4863
F0.0
sVsubdue
p4864
F0.0
sVstupor
p4865
F0.0
sVaddition
p4866
F0.00028414692450986085
sVswings
p4867
F0.00014207346225493043
sVnaltrexone
p4868
F0.0
sVholidays
p4869
F7.103673112746521e-05
sVbbb
p4870
F0.0
sVrestless
p4871
F0.0
sVtaste
p4872
F2.748075885342526e-05
sVdrank
p4873
F4.355597227403996e-05
sVhellish
p4874
F0.0
sVdrowsy
p4875
F0.0
sVah
p4876
F0.0
sVcurtain
p4877
F0.0
sVkitchen
p4878
F7.103673112746521e-05
sVrecurring
p4879
F0.0
sVremedies
p4880
F0.0
sVfaced
p4881
F4.355597227403996e-05
sVdescribe
p4882
F8.711194454807991e-05
sVcontrolled
p4883
F0.00028414692450986085
sVpowerful
p4884
F0.00014207346225493043
sVreceived
p4885
F8.711194454807991e-05
sVpsychotherapist
p4886
F0.0
sVsufficient
p4887
F0.0
sVotc
p4888
F0.0
sVoversleeping
p4889
F0.0
sVanorgasmia
p4890
F0.0
sVbulk
p4891
F0.0
sVmade
p4892
F0.0004698450299967113
sVfinished
p4893
F5.496151770685052e-05
sVperscribed
p4894
F0.0
sVao
p4895
F0.0
sVgun
p4896
F8.711194454807991e-05
sVcovered
p4897
F3.215042684122939e-05
sVkicks
p4898
F7.103673112746521e-05
sVimproved
p4899
F0.00013066791682211988
sVfellow
p4900
F0.00021311019338239562
sVspain
p4901
F0.0
sVvolunteer
p4902
F7.103673112746521e-05
sVsledgehammer
p4903
F7.103673112746521e-05
sVwood
p4904
F1.6075213420614695e-05
sVmulti
p4905
F8.244227656027577e-05
sVoregon_sheriff_wrote_gun_control_is_not_the
p4906
F0.0
sVbuspirone
p4907
F0.0
sVirregular
p4908
F7.103673112746521e-05
sVunlike
p4909
F5.496151770685052e-05
sVtricyclics
p4910
F0.0
sVplain
p4911
F2.748075885342526e-05
sVclearer
p4912
F0.0
sVharder
p4913
F0.00021777986137019978
sVcvs
p4914
F0.0010655509669119782
sVvalue
p4915
F0.00012860170736491756
sVpodcasts
p4916
F0.0
sVmiddle
p4917
F0.0001929025610473763
sVwithdrawal
p4918
F0.0
sVplateaued
p4919
F0.0
sVweber
p4920
F0.0
sVhahaha
p4921
F0.0
sVhubs
p4922
F0.0
sVau
p4923
F7.103673112746521e-05
sVdigits
p4924
F8.711194454807991e-05
sVsabotaging
p4925
F0.0
sVdecides
p4926
F7.103673112746521e-05
sVdiscontinuation
p4927
F0.0
sVsupply
p4928
F7.103673112746521e-05
sVva
p4929
F0.0003048918059182797
sVstuffing
p4930
F7.103673112746521e-05
sVoffending
p4931
F0.0
sVtalent
p4932
F4.355597227403996e-05
sVcell
p4933
F2.748075885342526e-05
sVmanually
p4934
F0.00021311019338239562
sValmost
p4935
F0.00013011093138370466
sVdeepens
p4936
F0.0
sVthus
p4937
F8.711194454807991e-05
sVsurprisingly
p4938
F7.103673112746521e-05
sVencouragement
p4939
F0.0
sVjelly
p4940
F0.0
sVhelped
p4941
F0.001698682918687558
sVzombified
p4942
F0.0
sVdraining
p4943
F0.0
sVexcessively
p4944
F7.103673112746521e-05
sVdexxing
p4945
F0.0
sV2012_minneapolis_workplace_shooting
p4946
F0.0
sVpartner
p4947
F8.711194454807991e-05
sVconserve
p4948
F0.0
sVavb
p4949
F0.0
sVdenial
p4950
F0.0
sVlet
p4951
F0.0001879380119986845
sVpdoc
p4952
F0.0
sVgeneric
p4953
F0.00042622038676479125
sVbegan
p4954
F0.00026133583364423976
sVmaddening
p4955
F0.0
sVcross
p4956
F2.1685155230617443e-05
sVeric
p4957
F0.0
sVmember
p4958
F0.00014207346225493043
sVnod
p4959
F7.103673112746521e-05
sVimproves
p4960
F7.103673112746521e-05
sVdigging
p4961
F4.355597227403996e-05
sVdevastated
p4962
F0.0
sVunits
p4963
F4.355597227403996e-05
sVgames
p4964
F8.711194454807991e-05
sVgets
p4965
F0.0002473268296808273
sVdifficult
p4966
F0.0002748075885342526
sVpractitioner
p4967
F0.0
sVemotionally
p4968
F0.00014207346225493043
sV3qotsj
p4969
F0.0
sVappearances
p4970
F7.103673112746521e-05
sVdrink
p4971
F8.674062092246977e-05
sVupon
p4972
F8.037606710307347e-05
sVeffect
p4973
F0.00018070962692181205
sVphd
p4974
F0.0
sVnightly
p4975
F0.00021311019338239562
sVrecommendations
p4976
F0.0
sVtakers
p4977
F0.0
sVdiscouraged
p4978
F0.0
sVsisters
p4979
F0.00014207346225493043
sVbuild
p4980
F6.430085368245878e-05
sVphp
p4981
F0.00014207346225493043
sVjudgment
p4982
F0.00014207346225493043
sVmoons
p4983
F7.103673112746521e-05
sVidentity
p4984
F7.103673112746521e-05
sVkeep
p4985
F0.0002602218627674093
sVretard
p4986
F7.103673112746521e-05
sVchronic
p4987
F0.00021311019338239562
sVcenter
p4988
F8.244227656027577e-05
sVdisrupted
p4989
F0.0
sVawakenings
p4990
F0.0
sVshotgun
p4991
F0.00014207346225493043
sV49
p4992
F7.103673112746521e-05
sVwell
p4993
F0.0
sVagency
p4994
F7.103673112746521e-05
sVfighting
p4995
F4.355597227403996e-05
sVdisoriented
p4996
F0.0
sVthought
p4997
F0.0002411282013092204
sVbiochemistry
p4998
F0.0
sVinsurmountable
p4999
F0.0
sVcutting
p5000
F0.00010992303541370104
sVtrials
p5001
F0.0
sVposition
p5002
F3.215042684122939e-05
sVaudio
p5003
F7.103673112746521e-05
sVgrogginess
p5004
F0.0
sVrush
p5005
F2.748075885342526e-05
sVsubgroup
p5006
F0.0
sVnewest
p5007
F7.103673112746521e-05
sVrocket
p5008
F0.0
sVless
p5009
F0.0002674502478442818
sVmoments
p5010
F7.103673112746521e-05
sVhands
p5011
F0.00013066791682211988
sV43
p5012
F8.711194454807991e-05
sVsources
p5013
F0.00021311019338239562
sVunderlying
p5014
F8.711194454807991e-05
sVsnris
p5015
F0.0
sVgraduate
p5016
F0.00014207346225493043
sVhappiness
p5017
F7.103673112746521e-05
sVtca
p5018
F0.0
sVbegin
p5019
F2.748075885342526e-05
sVushered
p5020
F0.0
sVgenerous
p5021
F4.355597227403996e-05
sVrapid
p5022
F0.00021311019338239562
sVads
p5023
F7.103673112746521e-05
sVfield
p5024
F7.103673112746521e-05
sVpodcast
p5025
F0.0
sVdrunk
p5026
F0.0001374037942671263
sVsky
p5027
F4.355597227403996e-05
sVlake
p5028
F0.00014207346225493043
sVcapabilities
p5029
F7.103673112746521e-05
sVbullshit
p5030
F0.00014207346225493043
sVgoogling
p5031
F0.0
sVreasons
p5032
F0.00021777986137019978
sVadd
p5033
F0.0004946536593616546
sVlower
p5034
F0.00020897777446799101
sVcombine
p5035
F4.355597227403996e-05
sVzyprexa
p5036
F0.0
sVcrack
p5037
F4.355597227403996e-05
sVusage
p5038
F4.355597227403996e-05
sVramelteon
p5039
F0.0
sVpractise
p5040
F0.0
sVadvanced
p5041
F2.748075885342526e-05
sVkick
p5042
F0.0001374037942671263
sVclouded
p5043
F0.0
sVbenzodiazepams
p5044
F0.0
sVtests
p5045
F7.103673112746521e-05
sVincreased
p5046
F0.0007103673112746522
sVchecking
p5047
F4.355597227403996e-05
sVoverdoses
p5048
F0.0
sVallforms
p5049
F0.0
sVerection
p5050
F7.103673112746521e-05
sVterm
p5051
F0.0006320574536287809
sVincreases
p5052
F0.00021311019338239562
sVfive
p5053
F5.7827080614979855e-05
sVseizure
p5054
F0.0
sVburden
p5055
F0.0
sVimmediately
p5056
F0.00016488455312055155
sVsimilair
p5057
F0.0
sVheight
p5058
F2.748075885342526e-05
sVbook
p5059
F0.00013066791682211988
sVbenadryl
p5060
F0.0
sVtail
p5061
F2.748075885342526e-05
sVnecessary
p5062
F0.00011252649394430286
sVlike
p5063
F0.0
sVdramatic
p5064
F4.355597227403996e-05
sVteenagers
p5065
F0.00014207346225493043
sValternatively
p5066
F0.00021311019338239562
sV11pm
p5067
F0.0
sVtons
p5068
F4.355597227403996e-05
sVadmitted
p5069
F0.00028414692450986085
sV28f
p5070
F0.0
sV24362450
p5071
F0.0
sVedit
p5072
F0.0008524407735295825
sVstarting
p5073
F0.00030228834738767787
sV4mg
p5074
F0.0
sVamitryptiline
p5075
F0.0
sVbecome
p5076
F7.228385076872481e-05
sVworks
p5077
F0.001291595666110987
sVsoft
p5078
F4.822564026184408e-05
sVsprain
p5079
F0.0
sVregardless
p5080
F0.00028414692450986085
sVtherapeutic
p5081
F0.0
sVpoor
p5082
F7.228385076872482e-06
sVklonopin
p5083
F0.0
sVdazed
p5084
F0.0
sVunderwent
p5085
F0.0
sVscared
p5086
F0.00043555972274039956
sVstimulatin
p5087
F0.0
sVbriefly
p5088
F0.00021311019338239562
sValive
p5089
F1.6075213420614695e-05
sVhair
p5090
F0.0001374037942671263
sVpregnancy
p5091
F0.00014207346225493043
sVmitigated
p5092
F0.0
sVrepeat
p5093
F0.00021311019338239562
sVstory
p5094
F0.00013066791682211988
sVpsyc
p5095
F0.0
sVproper
p5096
F3.215042684122939e-05
sVhome
p5097
F0.00033757948183290855
sVsupportive
p5098
F0.0
sVgonna
p5099
F8.244227656027577e-05
sVscares
p5100
F7.103673112746521e-05
sVsupplements
p5101
F0.0
sVpsychoanalyst
p5102
F0.0
sVfocused
p5103
F8.711194454807991e-05
sVpropofol
p5104
F0.0
sVlead
p5105
F8.037606710307347e-05
sVunpredictable
p5106
F0.00021311019338239562
sVliterally
p5107
F0.00043555972274039956
sVavoid
p5108
F0.00016075213420614694
sVseparate
p5109
F8.711194454807991e-05
sVemotions
p5110
F7.103673112746521e-05
sVsuspected
p5111
F0.0
sVpassion
p5112
F2.748075885342526e-05
sVtherapists
p5113
F0.0
sVcapability
p5114
F0.0
sVwife
p5115
F0.00021777986137019978
sVsnuggle
p5116
F0.0
sVmode
p5117
F4.355597227403996e-05
sVlocate
p5118
F7.103673112746521e-05
sVripped
p5119
F7.103673112746521e-05
sVnoise
p5120
F4.822564026184408e-05
sVinaccurate
p5121
F7.103673112746521e-05
sVschedule
p5122
F0.0010655509669119782
sVjournal
p5123
F0.0
sVslut
p5124
F7.103673112746521e-05
sVlightly
p5125
F7.103673112746521e-05
sVtae
p5126
F0.0
sVpressure
p5127
F0.0007814040424021173
sVdoctors
p5128
F0.0013496978914218389
sValthough
p5129
F0.00027327862815044974
sVscolded
p5130
F0.0
sVcondense
p5131
F0.0
sVnaps
p5132
F0.0
sVstay
p5133
F0.00041795554893598203
sVhiding
p5134
F4.355597227403996e-05
sVgained
p5135
F8.711194454807991e-05
sVsister
p5136
F4.355597227403996e-05
sVlifestyle
p5137
F7.103673112746521e-05
sVasks
p5138
F2.748075885342526e-05
sVgetting
p5139
F0.0003469624836898791
sVfreedom
p5140
F2.748075885342526e-05
sVwithdrew
p5141
F0.0
sVexploding
p5142
F0.0
sVneurons
p5143
F7.103673112746521e-05
sVdependence
p5144
F0.0
sVingest
p5145
F0.0
sVhot
p5146
F0.0002473268296808273
sVaminotransferase
p5147
F0.0
sVperks
p5148
F0.0
sVblessings
p5149
F0.0
sVsweat
p5150
F7.103673112746521e-05
sVurges
p5151
F0.0
sVupward
p5152
F7.103673112746521e-05
sVupped
p5153
F0.0
sVsoftware
p5154
F8.711194454807991e-05
sVbed
p5155
F0.0025698023641683573
sVletters
p5156
F1.6075213420614695e-05
sVfinal
p5157
F1.6075213420614695e-05
sVunmedicated
p5158
F0.0
sVblindly
p5159
F0.0
sVpreviously
p5160
F0.00042622038676479125
sVpussy
p5161
F4.355597227403996e-05
sVcouldnt
p5162
F0.0
sVwashington
p5163
F0.0
sVfunctional
p5164
F7.103673112746521e-05
sVbillions
p5165
F0.0
sVmushrooms
p5166
F0.00013066791682211988
sVchris
p5167
F0.0
sVactivate
p5168
F4.355597227403996e-05
sVpromise
p5169
F0.00026133583364423976
sVdividose
p5170
F0.0
sVfemale
p5171
F0.0001374037942671263
sVadditions
p5172
F7.103673112746521e-05
sVquiet
p5173
F8.037606710307347e-05
sVpointless
p5174
F7.103673112746521e-05
sVagin
p5175
F0.0
sV1987
p5176
F0.0
sVssristories
p5177
F0.0
sVcfm
p5178
F7.103673112746521e-05
sVadditional
p5179
F4.355597227403996e-05
sVcoherent
p5180
F0.0
sVaarp
p5181
F0.0
sVtransfer
p5182
F4.355597227403996e-05
sVvegetables
p5183
F7.103673112746521e-05
sVsleepover
p5184
F7.103673112746521e-05
sVspots
p5185
F7.103673112746521e-05
sVnoticed
p5186
F0.0001929025610473763
sVresentment
p5187
F0.0
sVoperant
p5188
F0.0
sVboard
p5189
F0.00010992303541370104
sVtrigger
p5190
F0.00021311019338239562
sVtracker
p5191
F7.103673112746521e-05
sVfrustration
p5192
F0.0
sVbiggest
p5193
F0.00013066791682211988
sVinitiation
p5194
F0.0
sVtouted
p5195
F0.0
sVnaturally
p5196
F0.00021311019338239562
sVfunction
p5197
F0.0011365876980394434
sVmylan
p5198
F0.0
sVbuy
p5199
F0.00010992303541370104
sVcapsule
p5200
F7.103673112746521e-05
sVgluten
p5201
F0.0
sVdextroamphetamine
p5202
F0.0
sVpersistent
p5203
F4.355597227403996e-05
sVhr
p5204
F7.103673112746521e-05
sVbus
p5205
F7.103673112746521e-05
sVbrand
p5206
F5.496151770685052e-05
sVmiraculously
p5207
F0.0
sVagrees
p5208
F0.0
sVextended
p5209
F0.00021311019338239562
sVsubjective
p5210
F0.0
sVneutral
p5211
F0.00014207346225493043
sVlowered
p5212
F7.103673112746521e-05
sVbun
p5213
F7.103673112746521e-05
sVgain
p5214
F0.0006097836118365594
sVmigraines
p5215
F0.0
sVstraight
p5216
F6.505546569185233e-05
sVdomiciliary
p5217
F0.0
sVha
p5218
F0.0001374037942671263
sVbug
p5219
F4.355597227403996e-05
sVpartially
p5220
F8.711194454807991e-05
sVcount
p5221
F0.00013066791682211988
sVpi
p5222
F0.0
sVwise
p5223
F0.00014207346225493043
sVplaces
p5224
F0.00017422388909615983
sVcampus
p5225
F0.00014207346225493043
sVdangerous
p5226
F0.00021984607082740207
sVofficial
p5227
F4.355597227403996e-05
sV88
p5228
F7.103673112746521e-05
sVdistract
p5229
F0.0
sVambien
p5230
F0.0
sVplaced
p5231
F8.711194454807991e-05
sVbitty
p5232
F0.0
sVbooks
p5233
F0.00026133583364423976
sVstories
p5234
F0.0003048918059182797
sVwoke
p5235
F0.00042622038676479125
sVentrainment
p5236
F0.0
sV3mg
p5237
F0.0
sVadderall
p5238
F0.0
sVproblem
p5239
F0.0003536546952535232
sVpm
p5240
F0.0
sVminutes
p5241
F0.00016075213420614694
sVstrengthens
p5242
F0.0
sVaveraged
p5243
F0.0
sVwhether
p5244
F6.505546569185233e-05
sVhorticulturist
p5245
F0.0
sVpatterns
p5246
F0.0
sVnurses
p5247
F0.0
sVrecognize
p5248
F4.355597227403996e-05
sVyear
p5249
F0.0003108205583055167
sVslowing
p5250
F7.103673112746521e-05
sVlasted
p5251
F0.00028414692450986085
sVatrocious
p5252
F7.103673112746521e-05
sVlived
p5253
F8.711194454807991e-05
sVperiods
p5254
F0.00014207346225493043
sVfitbit
p5255
F0.0
sVjudgemental
p5256
F7.103673112746521e-05
sVsneak
p5257
F7.103673112746521e-05
sVshooting
p5258
F0.00042622038676479125
sVmeth
p5259
F0.0
sVworse
p5260
F0.0003215042684122939
sVhospitalization
p5261
F0.0
sVfunctions
p5262
F7.103673112746521e-05
sVcompared
p5263
F6.430085368245878e-05
sVrelaxing
p5264
F0.00021311019338239562
sVvariety
p5265
F0.00013066791682211988
sVdeadly
p5266
F0.0
sVsleepwalking
p5267
F0.0
sV45
p5268
F0.00019236531197397682
sVdetail
p5269
F0.00013066791682211988
sV40
p5270
F8.244227656027577e-05
sVlately
p5271
F0.00017422388909615983
sVmembers
p5272
F4.355597227403996e-05
sVhospitalized
p5273
F0.0
sVstockpile
p5274
F0.0
sVdetails
p5275
F7.103673112746521e-05
sVbreastfeeding
p5276
F0.0
sVziprasidone
p5277
F0.0
sVoutlet
p5278
F0.0
sVincredibly
p5279
F0.00021777986137019978
sVstimulant
p5280
F0.0
sVguys
p5281
F0.00014207346225493043
sVfrancisco
p5282
F0.0
sVkinds
p5283
F0.00014207346225493043
sVmonday
p5284
F0.0
sVtraumatic
p5285
F0.0
sVclass
p5286
F0.00045010597577721143
sVjune
p5287
F0.0
sVsustains
p5288
F0.0
sVbundle
p5289
F7.103673112746521e-05
sVleaving
p5290
F4.822564026184408e-05
sVchance
p5291
F0.0001929025610473763
sVaugmentation
p5292
F0.0
sVkinda
p5293
F0.00028414692450986085
sVidiopathic
p5294
F0.0
sVcame
p5295
F0.00043969214165480414
sVelse
p5296
F0.00020962316722930198
sVfriends
p5297
F0.0002572034147298351
sVshown
p5298
F2.748075885342526e-05
sV3rd
p5299
F8.711194454807991e-05
sVusing
p5300
F0.0002411282013092204
sVrisperdal
p5301
F0.0
sVoral
p5302
F7.103673112746521e-05
sVchoices
p5303
F0.00021311019338239562
sVspace
p5304
F0.00013066791682211988
sV25x
p5305
F0.0
sVrule
p5306
F0.00013066791682211988
sVstrings
p5307
F4.355597227403996e-05
sVtriazolam
p5308
F0.0
sVportion
p5309
F7.103673112746521e-05
sV_apasserby_
p5310
F0.0
sVstatus
p5311
F5.496151770685052e-05
sVdiagnosis
p5312
F0.0
sVsearched
p5313
F7.103673112746521e-05
sVtemazepam
p5314
F0.0
sVlives
p5315
F0.00016488455312055155
sVpods
p5316
F0.0
sVtexazepam
p5317
F0.0
sVcompromised
p5318
F7.103673112746521e-05
s.