(dp0
Vyellow
p1
F2.7537530513684212e-05
sVnarcotic
p2
F0.0
sVfour
p3
F6.881152077957048e-05
sVcircuitry
p4
F0.0
sVcentimeter
p5
F0.0
sVaggression
p6
F0.0
sVpayoff
p7
F0.0
sVeligible
p8
F0.0
sVelectricity
p9
F0.00010677522561050743
sVscold
p10
F0.0
sVigual
p11
F0.0
sVhallucinate
p12
F0.0
sVlore
p13
F0.0
sVhormone
p14
F0.0
sVregional
p15
F7.118348374033829e-05
sVtrileptal
p16
F0.0
sVdisturb
p17
F7.118348374033829e-05
sVinternally
p18
F0.0
sVscholar
p19
F2.182297661332704e-05
sVcustomizable
p20
F3.559174187016914e-05
sVcommenter
p21
F0.0
sVwednesday
p22
F0.0
sVstraight
p23
F4.3459907860781355e-05
sVspecially
p24
F3.559174187016914e-05
sVbacon
p25
F2.182297661332704e-05
sVpulse
p26
F0.0
sVdesiccant
p27
F0.0
sVelegant
p28
F2.182297661332704e-05
sVsecond
p29
F0.0001158930876287503
sVcfsers
p30
F0.0
sVhobby
p31
F0.00014236696748067657
sVspecialist
p32
F0.0
sVotzvnaf7usa
p33
F0.0
sVhero
p34
F0.0
sVherb
p35
F0.0
sVjasmine
p36
F0.0
sVchina
p37
F0.0
sVdorm
p38
F7.118348374033829e-05
sVbuddy
p39
F0.00010677522561050743
sV50mgs
p40
F0.0
sVphenelzine
p41
F0.0
sVk
p42
F4.364595322665408e-05
sVamitryptaline
p43
F0.0
sVneurologist
p44
F0.0
sVmilitary
p45
F0.00010677522561050743
sVsriracha
p46
F0.0
sVcriticism
p47
F0.0
sVdivide
p48
F7.118348374033829e-05
sVcriticise
p49
F3.559174187016914e-05
sVreplace
p50
F0.00026187571935992445
sVpsychological
p51
F0.00039150916057186056
sVrhematologist
p52
F0.0
sVuniv
p53
F0.0
sVunit
p54
F0.0
sVtrazodone
p55
F0.0
sVdna
p56
F0.0
sVhyperactivity
p57
F0.0
sVmusic
p58
F1.4486635953593787e-05
sVtherefore
p59
F7.118348374033829e-05
sVstrike
p60
F7.118348374033829e-05
sVcomorbid
p61
F0.0
sVholy
p62
F5.5075061027368425e-05
sVrelax
p63
F4.364595322665408e-05
sVsuccessful
p64
F9.638135679789473e-05
sVhurt
p65
F0.0010677522561050744
sV99
p66
F6.546892983998111e-05
sV98
p67
F1.3768765256842106e-05
sVgoddammit
p68
F0.0
sV90
p69
F0.00024005274274659745
sVhole
p70
F3.221684542593972e-05
sVhold
p71
F4.027105678242465e-05
sVintake
p72
F0.0
sVnonstimulant
p73
F0.0
sVpursue
p74
F0.0
sVbattlefront
p75
F0.0
sVshelve
p76
F0.0
sVexample
p77
F0.00038660214511127667
sVcaution
p78
F0.00010677522561050743
sVwant
p79
F0.0
sVabsolute
p80
F6.546892983998111e-05
sVprovincial
p81
F3.559174187016914e-05
sVworldview
p82
F0.0
sVtravel
p83
F1.610842271296986e-05
sVdamage
p84
F0.00043645953226654073
sVmachine
p85
F4.364595322665408e-05
sVhot
p86
F0.00012391888731157896
sVhop
p87
F0.0005338761280525372
sVpreferable
p88
F0.0
sVcredential
p89
F0.0
sVvotaren
p90
F0.0
sVsynthroid
p91
F0.0
sVdiagram
p92
F0.0
sVvocalization
p93
F0.0
sVwrong
p94
F0.00020135528391212326
sVreassess
p95
F0.0
sVbuzzy
p96
F0.0
sVeffective
p97
F0.0018151788353786263
sVlousier
p98
F0.0
sVwind
p99
F2.7537530513684212e-05
sVhashimoto
p100
F0.0
sVrestriction
p101
F0.0
sVvary
p102
F0.00010911488306663518
sVvyvance
p103
F0.0
sVdreamer
p104
F7.118348374033829e-05
sVligand
p105
F0.0
sVfit
p106
F0.00011275895899078902
sVauditory
p107
F0.0
sVlifeline
p108
F0.0
sVfix
p109
F0.00026187571935992445
sVamphetmaine
p110
F0.0
sVeasier
p111
F0.0004130629577052632
sVgrievous
p112
F0.0
sVblecch
p113
F0.0
sVprize
p114
F2.182297661332704e-05
sVrumour
p115
F0.0
sVelavil
p116
F0.0
sVfinancial
p117
F0.00014236696748067657
sVrink
p118
F7.118348374033829e-05
sVstabiliser
p119
F0.0
sVseries
p120
F3.559174187016914e-05
sVmdd
p121
F0.0
sVg716evmc_mo
p122
F0.0
sVsubstantially
p123
F3.559174187016914e-05
sVmessage
p124
F2.7537530513684212e-05
sV2300
p125
F0.0
sVha
p126
F6.884382628421053e-05
sVrx
p127
F0.0
sVencourage
p128
F0.00014236696748067657
sVra
p129
F7.118348374033829e-05
sVsize
p130
F7.248790220836437e-05
sVoutburst
p131
F0.0
sVfoundation
p132
F0.0
sVcholesterol
p133
F3.559174187016914e-05
sVsensory
p134
F0.0006762430955332137
sVknit
p135
F0.0
sVenormous
p136
F3.559174187016914e-05
sVate
p137
F2.182297661332704e-05
sVatm
p138
F0.0
sVmoment
p139
F3.6216589883984466e-05
sVspeedy
p140
F3.559174187016914e-05
sVshopper
p141
F7.118348374033829e-05
sVveggie
p142
F0.0
sVwash
p143
F7.118348374033829e-05
sVwasn
p144
F0.00018470460840832077
sVclarity
p145
F0.00013093785967996222
sVspondylitis
p146
F0.0
sVbasketball
p147
F2.182297661332704e-05
sVservice
p148
F5.5075061027368425e-05
sVfluvoxamine
p149
F0.0
sVglyx
p150
F0.0
sVmaster
p151
F5.5075061027368425e-05
sVglucocorticoid
p152
F0.0
sVrechazando
p153
F0.0
sVunderlie
p154
F0.0
sVeuro
p155
F0.0
sVrecreationally
p156
F0.0
sVlisten
p157
F0.00015145641782526317
sVcollapse
p158
F0.00010677522561050743
sVwisdom
p159
F0.0
sVelectricly
p160
F0.0
sVcrawl
p161
F1.3768765256842106e-05
sV052113322x
p162
F0.0
sVtree
p163
F8.05421135648493e-06
sVmethocarbamol
p164
F0.0
sVshower
p165
F7.118348374033829e-05
sVpneumonia
p166
F7.118348374033829e-05
sVendure
p167
F0.000249142193091184
sVrunner
p168
F0.0
sVspectrum
p169
F0.0
sVflunisan
p170
F0.0
sVantagonistic
p171
F0.0
sVneurotrasnmitters
p172
F0.0
sVarousal
p173
F0.0
sVurinate
p174
F0.0
sVdozen
p175
F0.0001745838129066163
sVperson
p176
F0.00037854793375479177
sVresponsible
p177
F0.00010911488306663518
sVeagerly
p178
F3.559174187016914e-05
sV25mcg
p179
F0.0
sVimprudent
p180
F0.0
sVsimplify
p181
F0.0
sVmouth
p182
F0.00013768765256842106
sVaddict
p183
F0.0007118348374033828
sVletter
p184
F1.3768765256842106e-05
sVdefinitaly
p185
F0.0
sVthriller
p186
F0.0
sVchemistry
p187
F0.0
sVepisode
p188
F0.0008897935467542285
sVprofessor
p189
F3.559174187016914e-05
sVcamp
p190
F3.559174187016914e-05
sVtech
p191
F0.00039150916057186056
sVcelebrex
p192
F0.0
sVdetriment
p193
F0.0
sVscream
p194
F0.0001779587093508457
sVsetraline
p195
F0.0
sVsoluble
p196
F0.0
sVparticipate
p197
F0.0
sVbusy
p198
F2.4162634069454792e-05
sVment
p199
F0.0
sVkinase
p200
F0.0
sVbust
p201
F3.559174187016914e-05
sVtheme
p202
F3.559174187016914e-05
sVrice
p203
F0.00021355045122101486
sVpsychiatric
p204
F0.0
sVpocket
p205
F0.0001779587093508457
sValtogether
p206
F0.00010911488306663518
sVanxiolytic
p207
F0.0
sVautistic
p208
F7.118348374033829e-05
sVpatch
p209
F0.00015276083629328925
sVrelease
p210
F0.0003579878966778948
sVrespond
p211
F0.00058922036855983
sVfair
p212
F1.0864976965195339e-05
sVsensitivity
p213
F0.0
sVresult
p214
F0.0008074501346931003
sVetiz
p215
F0.0
sVfail
p216
F0.00012081317034727396
sVbleh
p217
F0.0
sVbest
p218
F0.00025351612918789125
sVavandia
p219
F0.0
sVhunker
p220
F0.0
sVwikipedia
p221
F0.0
sVinsomina
p222
F0.0
sVscore
p223
F4.130629577052632e-05
sVirl
p224
F0.0
sVyogurt
p225
F0.00014236696748067657
sVepically
p226
F0.0
sVmen
p227
F1.3768765256842106e-05
sVextend
p228
F0.00015276083629328925
sVnature
p229
F1.4486635953593787e-05
sVlexepro
p230
F0.0
sVstepmom
p231
F0.0
sVpersonalize
p232
F0.0
sVmeh
p233
F0.0
sVextent
p234
F0.00010677522561050743
sVcarbon
p235
F0.0
sVdebt
p236
F3.559174187016914e-05
sVroller
p237
F3.559174187016914e-05
sVmyoclonic
p238
F0.0
sVaccident
p239
F0.00010677522561050743
sVbachelorette
p240
F0.0
sVcountry
p241
F2.4162634069454792e-05
sVargue
p242
F0.00021355045122101486
sV30th
p243
F0.0
sVfentanyl
p244
F0.0
sVirresponsible
p245
F0.0
sV2nd
p246
F4.364595322665408e-05
sVpregnancy
p247
F0.0003559174187016914
sVdiff
p248
F0.0
sVspondyloarhtroapy
p249
F0.0
sVsubside
p250
F0.0
sVsubsidy
p251
F0.0
sVeyedrop
p252
F0.0
sVfry
p253
F3.559174187016914e-05
sVnorvasc
p254
F0.0
sVincompetent
p255
F3.559174187016914e-05
sVobese
p256
F3.559174187016914e-05
sVlife
p257
F0.0005939520740973453
sVretrospect
p258
F0.0
sVworker
p259
F0.00021355045122101486
sVwish
p260
F0.00042683172296210524
sVlift
p261
F0.00019640678951994334
sVchild
p262
F0.0001530300157732137
sVspin
p263
F0.0
sVcunt
p264
F3.559174187016914e-05
sVchill
p265
F3.559174187016914e-05
sVcalcium
p266
F0.0
sVprnewswire
p267
F0.0
sVridiculously
p268
F0.00014236696748067657
sVcongratulation
p269
F0.0
sValkaloid
p270
F0.0
sVplayer
p271
F4.364595322665408e-05
sVelicit
p272
F0.0
sVanhedonia
p273
F0.0
sVthingy
p274
F3.559174187016914e-05
sVseverity
p275
F0.0
sVsplit
p276
F4.130629577052632e-05
sVbid
p277
F2.182297661332704e-05
sVfairly
p278
F0.00021822976613327036
sVtuna
p279
F0.00010677522561050743
sV160lbs
p280
F0.0
sVcorporate
p281
F2.182297661332704e-05
sVanticonvuslant
p282
F0.0
sVsleepy
p283
F0.000498284386182368
sVdisguise
p284
F3.559174187016914e-05
sVdramamine
p285
F0.0
sVpsychotic
p286
F0.00021355045122101486
sVprevious
p287
F2.5351612918789122e-05
sVhah
p288
F0.0
sVham
p289
F2.182297661332704e-05
sVease
p290
F0.00010911488306663518
sVhay
p291
F4.364595322665408e-05
sVeasy
p292
F0.0
sVhar
p293
F0.0
sVhat
p294
F0.00012391888731157896
sVelevation
p295
F0.0
sVpossible
p296
F0.0002899516088334575
sVpossibly
p297
F0.00012081317034727396
sVbirth
p298
F0.000249142193091184
sVlodine
p299
F0.0
sVshadow
p300
F6.546892983998111e-05
sVunique
p301
F8.729190645330815e-05
sVclonaz
p302
F0.0
sVmassively
p303
F0.0
sVd
p304
F0.0
sVdesire
p305
F0.0003203256768315223
sVdelievery
p306
F0.0
sVremind
p307
F8.729190645330815e-05
sVbeneficial
p308
F0.00014236696748067657
sVright
p309
F0.0004635723505150012
sVold
p310
F0.0
sVcreek
p311
F0.0
sVcrowd
p312
F2.182297661332704e-05
sVdepakene
p313
F0.0
sVcreep
p314
F7.118348374033829e-05
sVconsensus
p315
F0.0
sVbottom
p316
F1.4486635953593787e-05
sVcreative
p317
F6.546892983998111e-05
sVfog
p318
F0.0
sVperiphery
p319
F0.0
sVtreadmill
p320
F0.0
sV90mgs
p321
F0.0
sVdefensive
p322
F3.559174187016914e-05
sVvalium
p323
F0.0
sVfo4
p324
F0.0
sVrestlessness
p325
F0.0
sVfilipino
p326
F0.0
sVinderal
p327
F0.0
sVo
p328
F2.5351612918789122e-05
sVimportantly
p329
F0.0
sVslightly
p330
F0.00013692159306024382
sVmeddle
p331
F0.0
sVdemotivated
p332
F0.0
sVsom
p333
F0.0
sVson
p334
F5.637947949539451e-05
sVadminister
p335
F0.0
sVthankful
p336
F0.0
sVjuicing
p337
F0.0
sVsoy
p338
F7.118348374033829e-05
sVprovigil
p339
F0.0
sVsupport
p340
F0.00045828250887986784
sVconstantly
p341
F0.00023406900936631577
sVfulminant
p342
F0.0
sVjank
p343
F0.0
sVgoddamn
p344
F7.118348374033829e-05
sVmeloxicam
p345
F0.0
sVcpep
p346
F0.0
sVhappy
p347
F0.00035438529968533696
sVpamelor
p348
F0.0
sVoffer
p349
F9.638135679789473e-05
sVunderstandable
p350
F0.0
sVinside
p351
F1.4486635953593787e-05
sVco0pxxw
p352
F0.0
sVnicest
p353
F3.559174187016914e-05
sV150
p354
F0.0
sVshooter
p355
F0.0
sVliberal
p356
F3.559174187016914e-05
sVexist
p357
F0.00026187571935992445
sVcarisoprodol
p358
F0.0
sVrelay
p359
F0.0
sVfloor
p360
F0.00010911488306663518
sVactor
p361
F3.559174187016914e-05
sVactos
p362
F0.0
sVflood
p363
F7.118348374033829e-05
sVserous
p364
F0.0
sVrole
p365
F7.118348374033829e-05
sVacetaminophen
p366
F0.0
sVsmell
p367
F4.364595322665408e-05
sVroll
p368
F0.00011015012205473685
sVintend
p369
F0.00010677522561050743
sVsnooze
p370
F0.0
sV15k
p371
F0.0
sV125
p372
F0.0
sVloony
p373
F0.0
sVvicodins
p374
F0.0
sVtrycyclic
p375
F0.0
sVchemo
p376
F0.0
sVpush
p377
F0.00024783777462315793
sVurinary
p378
F0.0
sVnewbie
p379
F0.0
sVchain
p380
F4.364595322665408e-05
sVwhoever
p381
F1.3768765256842106e-05
sVskate
p382
F0.0
sVgallbladder
p383
F0.0
sVchair
p384
F2.182297661332704e-05
sVmidst
p385
F0.0
sVvet
p386
F3.559174187016914e-05
sVworth
p387
F0.0006609007323284211
sVeliminate
p388
F0.0
sVjerk
p389
F7.118348374033829e-05
sVcheap
p390
F6.546892983998111e-05
sVconsolidation
p391
F0.0
sVchoice
p392
F0.0002203002441094737
sVmourn
p393
F0.0
sVexact
p394
F9.638135679789473e-05
sVminute
p395
F0.00031668160090736843
sVtear
p396
F3.221684542593972e-05
sVleave
p397
F0.00027384318612048763
sVsettle
p398
F6.884382628421053e-05
sVeosinophilic
p399
F0.0
sVteam
p400
F0.00021355045122101486
sVspeculation
p401
F0.0
sVprevent
p402
F0.0003491676258132326
sVspiritual
p403
F3.559174187016914e-05
sVoccurrence
p404
F0.0
sVsigh
p405
F2.182297661332704e-05
sVmilligram
p406
F0.0
sVscew
p407
F0.0
sVroof
p408
F4.364595322665408e-05
sVeducate
p409
F0.0
sVpsychotropic
p410
F0.0
sVmelt
p411
F0.0
sVcurrent
p412
F0.00024783777462315793
sVhairloss
p413
F0.0
sVsixpack
p414
F0.0
sV120mg
p415
F0.0
sVbadge
p416
F0.0
sVcreepiest
p417
F0.0
sVcoccyx
p418
F0.0
sVbi
p419
F6.884382628421053e-05
sVaddress
p420
F0.00024005274274659745
sValone
p421
F0.00033045036616421053
sValong
p422
F5.43248848259767e-05
sVwherever
p423
F3.559174187016914e-05
sVcommonly
p424
F0.0
sVineffective
p425
F7.118348374033829e-05
sVlove
p426
F0.00021746370662509314
sVprefer
p427
F0.0001789939483389474
sVlogical
p428
F0.0
sVbloody
p429
F1.3768765256842106e-05
sVlogically
p430
F3.559174187016914e-05
sVfake
p431
F0.000249142193091184
sVpositive
p432
F0.00033045036616421053
sVangry
p433
F0.0003055216725865785
sVscribin
p434
F0.0
sVwicked
p435
F2.182297661332704e-05
sVextensive
p436
F0.0
sVafford
p437
F0.0005694678699227063
sVapparent
p438
F4.364595322665408e-05
sVatarax
p439
F0.0
sVvisual
p440
F0.000249142193091184
sVeverywhere
p441
F6.884382628421053e-05
sVdegrade
p442
F0.0
sVeasiest
p443
F0.0
sVhoney
p444
F6.546892983998111e-05
sVopioids
p445
F0.0
sVoriginally
p446
F0.00013093785967996222
sVbeliever
p447
F0.0
sVvega
p448
F0.0
sVaripiprazole
p449
F0.0
sVmetoprolol
p450
F0.0
sVawesome
p451
F0.0004271009024420297
sVdosis
p452
F0.0
sVwinter
p453
F0.00015276083629328925
sVseptic
p454
F0.0
sVimmune
p455
F0.000249142193091184
sVdivider
p456
F0.0
sVlaundry
p457
F0.0
sVspot
p458
F0.00012391888731157896
sVlatte
p459
F7.118348374033829e-05
sVlaxative
p460
F0.0
sVdate
p461
F0.00010911488306663518
sVsuck
p462
F0.0007856271580797733
sVdata
p463
F0.00014236696748067657
sVstress
p464
F0.0007856271580797733
sVnatural
p465
F0.00024005274274659745
sVcorrelate
p466
F0.0
sVconscious
p467
F7.118348374033829e-05
sVminorly
p468
F0.0
sVsp
p469
F7.118348374033829e-05
sVsclerosis
p470
F3.559174187016914e-05
sVst
p471
F0.0
sVsh
p472
F3.559174187016914e-05
sVtruck
p473
F7.118348374033829e-05
sVse
p474
F6.546892983998111e-05
sVepilepsy
p475
F0.0
sVunacceptable
p476
F2.182297661332704e-05
sVcourse
p477
F0.00016913843848618355
sVtti
p478
F0.0
sVhorrify
p479
F0.0
sVtendency
p480
F3.559174187016914e-05
sVsacrosanct
p481
F0.0
sVdisconnect
p482
F3.559174187016914e-05
sVthumb
p483
F3.559174187016914e-05
sVconvince
p484
F0.00011015012205473685
sVattraction
p485
F0.0
sVsuspicion
p486
F7.118348374033829e-05
sVsuspension
p487
F0.0
sVcrappiness
p488
F0.0
sVinstantly
p489
F7.118348374033829e-05
sVgerd
p490
F0.0
sVhurtiness
p491
F0.0
sVsmarter
p492
F4.364595322665408e-05
sVinsomnia
p493
F0.0
sVprophylaxis
p494
F0.0
sVdidn
p495
F0.0006193036870161344
sVrevert
p496
F3.559174187016914e-05
sVimgtype
p497
F0.0
sVquarter
p498
F2.182297661332704e-05
sVgabaergic
p499
F0.0
sVbreakthrough
p500
F0.0
sVsponsor
p501
F0.0
sVsexually
p502
F7.118348374033829e-05
sVmethotrexate
p503
F0.0
sVcontainer
p504
F3.559174187016914e-05
sVmantra
p505
F0.0
sVseriously
p506
F0.00042683172296210524
sVinvestigation
p507
F3.559174187016914e-05
sVtrauma
p508
F0.0
sVinternet
p509
F0.00021822976613327036
sVformula
p510
F0.0
sVhcl
p511
F0.0
sVdumbfound
p512
F0.0
sVmillion
p513
F0.00010677522561050743
sVpossibility
p514
F0.00010911488306663518
sVquite
p515
F0.00012675806459394563
sVvalporate
p516
F0.0
sVbesides
p517
F0.0001745838129066163
sVgrandma
p518
F7.118348374033829e-05
sVinhaler
p519
F0.0
sVdunno
p520
F6.546892983998111e-05
sVmodest
p521
F3.559174187016914e-05
sVminidress
p522
F0.0
sVinitiate
p523
F3.559174187016914e-05
sVatomoextine
p524
F0.0
sVmassive
p525
F0.0
sVbothersome
p526
F0.0
sVemotion
p527
F0.0005694678699227063
sVopen
p528
F0.0
sVcity
p529
F8.261259154105263e-05
sVbite
p530
F0.0004913068927455809
sVindicate
p531
F0.00010677522561050743
sVshiver
p532
F0.0
sVdissipate
p533
F0.0
sVcerebro
p534
F0.0
sVridiculous
p535
F0.00014236696748067657
sVprescription_assistance_programs
p536
F0.0
sVboyfriend
p537
F0.0004271009024420297
sVrehab
p538
F7.118348374033829e-05
sVfuture
p539
F3.221684542593972e-05
sVcounselor
p540
F0.00021355045122101486
sVillness
p541
F0.0
sVsam
p542
F0.0
sVmindfulness
p543
F0.0
sVargument
p544
F2.182297661332704e-05
sVphenobarbital
p545
F0.0
sVsad
p546
F0.00013768765256842106
sVsay
p547
F0.0007931433184592597
sVpubmed
p548
F0.0
sVsap
p549
F0.0
sVsaw
p550
F0.0003992941924484211
sVbabysit
p551
F3.559174187016914e-05
sVdownwards
p552
F3.559174187016914e-05
sVsomethings
p553
F0.0
sVnote
p554
F0.0001530300157732137
sVrumination
p555
F0.0
sVnota
p556
F0.0
sVdestroy
p557
F0.00010677522561050743
sVluvox
p558
F0.0
sVopposite
p559
F0.00019640678951994334
sVmolecule
p560
F0.0
sVcrochet
p561
F0.0
sVknee
p562
F0.0
sVenergize
p563
F0.0
sVaverage
p564
F0.0001745838129066163
sVdrive
p565
F0.0008729190645330815
sVdolor
p566
F0.0
sVsalt
p567
F7.118348374033829e-05
sVstimulator
p568
F0.0
sVinfuriate
p569
F0.0
sVbright
p570
F5.5075061027368425e-05
sVscarce
p571
F0.0
sVslow
p572
F8.859632492133424e-05
sVrecomended
p573
F0.0
sVfibro
p574
F0.0
sVhockey
p575
F0.0
sVneato
p576
F0.0
sVgoodluck
p577
F0.0
sVassistant
p578
F7.118348374033829e-05
sVlongvida
p579
F0.0
sVoutlet
p580
F0.0
sVresource
p581
F3.559174187016914e-05
sVabsoute
p582
F0.0
sVatomoxetine
p583
F0.0
sVnoradrenaline
p584
F0.0
sVxmas
p585
F0.0
sVvision
p586
F0.0
sVanyways
p587
F4.364595322665408e-05
sVsurgery
p588
F0.0004271009024420297
sVcomorbidity
p589
F0.0
sVuk
p590
F3.559174187016914e-05
sVvertical
p591
F1.3768765256842106e-05
sVscreen
p592
F4.364595322665408e-05
sVsupermarket
p593
F0.0
sVconcentrate
p594
F0.00014236696748067657
sVspare
p595
F2.182297661332704e-05
sVcircumference
p596
F0.0
sVmany
p597
F0.0
sVmane
p598
F0.0
sV550mg
p599
F0.0
sVbackpack
p600
F0.0001779587093508457
sVpming
p601
F0.0
sVyearly
p602
F0.0
sVtwin
p603
F2.182297661332704e-05
sV3000
p604
F0.0
sVboat
p605
F3.559174187016914e-05
sVcholestatic
p606
F0.0
sVstretch
p607
F0.00015276083629328925
sVvacation
p608
F0.000249142193091184
sVreflex
p609
F0.0
sV15mg
p610
F0.0
sVenable
p611
F3.559174187016914e-05
sVinfluence
p612
F5.5075061027368425e-05
sVthousand
p613
F4.130629577052632e-05
sVpharms
p614
F0.0
sVcleave
p615
F0.0
sVpsychotherapy
p616
F0.0
sVformer
p617
F3.221684542593972e-05
sVqueasy
p618
F0.0
sVstraighten
p619
F0.0
sVsituation
p620
F0.000567397391946503
sVive
p621
F0.0
sVpurse
p622
F3.559174187016914e-05
sVpinky
p623
F0.0
sVblah
p624
F4.364595322665408e-05
sVimitrex
p625
F0.0
sVtechnology
p626
F3.559174187016914e-05
sVscientifically
p627
F0.0
sVintrusively
p628
F0.0
sVunemployed
p629
F0.0
sVbreakdown
p630
F0.00010677522561050743
sVsickness
p631
F3.559174187016914e-05
sVbulletproof
p632
F0.0
sVawesomeness
p633
F0.0
sVantihistamine
p634
F0.0
sVgrumpy
p635
F0.0
sVhubby
p636
F0.0
sVscholarship
p637
F0.0
sVsummer
p638
F5.5075061027368425e-05
sVbenzo
p639
F0.0
sVrest
p640
F3.9838248872382914e-05
sVweekly
p641
F0.00014236696748067657
sVproventil
p642
F0.0
sVdownright
p643
F0.0
sVinterstitial
p644
F0.0
sVfunctionality
p645
F3.559174187016914e-05
sVunviable
p646
F0.0
sVcoq10
p647
F0.0
sVaround
p648
F0.000235407834245899
sVdiphenhydramine
p649
F0.0
sVdark
p650
F0.0
sVlectureid
p651
F0.0
sVbandage
p652
F3.559174187016914e-05
sVvacuum
p653
F7.118348374033829e-05
sVworld
p654
F0.00013692159306024382
sVaahahaha
p655
F0.0
sVvague
p656
F0.0
sVdare
p657
F4.364595322665408e-05
sV60
p658
F0.0005237514387198489
sVstranger
p659
F0.0001779587093508457
sVbaclofen
p660
F0.0
sVssnri
p661
F0.0
sVbuspar
p662
F0.0
sVmanac
p663
F0.0
sVstationary
p664
F0.0
sVsatisfactory
p665
F0.0
sVdebilitate
p666
F0.0
sVinflamatorys
p667
F0.0
sVmadinamerica
p668
F0.0
sVsubstance
p669
F0.0
sVnoon
p670
F0.00010677522561050743
sVwendys
p671
F0.0
sVcannabis
p672
F0.0
sVexit
p673
F1.3768765256842106e-05
sVpropylthiouracil
p674
F0.0
sVrefer
p675
F0.000498284386182368
sVscientific
p676
F3.559174187016914e-05
sVpower
p677
F1.610842271296986e-05
sVstone
p678
F8.261259154105263e-05
sVpackage
p679
F5.5075061027368425e-05
sVindustry
p680
F0.00010677522561050743
sVfightin
p681
F0.0
sVmeal
p682
F5.5075061027368425e-05
sVautobiographal
p683
F0.0
sVact
p684
F0.0001610842271296986
sVluck
p685
F0.0008949697416947368
sVpotentiate
p686
F0.0
sValliviate
p687
F0.0
sVapologize
p688
F0.00010677522561050743
sVjonesing
p689
F0.0
sVtechnically
p690
F6.546892983998111e-05
sVprod6143368
p691
F0.0
sVhey
p692
F0.0003709906024265596
sVfutile
p693
F0.0
sVbubble
p694
F7.118348374033829e-05
sVcomplete
p695
F5.637947949539451e-05
sVdepakine
p696
F0.0
sVepidural
p697
F0.0
sVamplify
p698
F0.0
sVcard
p699
F6.546892983998111e-05
sVpull
p700
F0.0001288673817037589
sVregimen
p701
F0.0
sVoctober
p702
F0.0
sVrage
p703
F0.0003203256768315223
sVflirt
p704
F0.0
sVspeciosa
p705
F0.0
sVtorso
p706
F0.0
sVagree
p707
F0.0001610842271296986
sVaa
p708
F0.0
sVac
p709
F0.0
sVcitizenship
p710
F3.559174187016914e-05
sVcertain
p711
F0.00012313640560554718
sVal
p712
F0.00010677522561050743
sVillustrated_images
p713
F0.0
sVau
p714
F3.559174187016914e-05
sVformulation
p715
F0.0
sVviewpoint
p716
F0.0
sVcream
p717
F6.546892983998111e-05
sVcollie
p718
F0.0
sVyoga
p719
F0.0004271009024420297
sVideally
p720
F3.559174187016914e-05
sVgraduate
p721
F0.00014236696748067657
sVtight
p722
F1.3768765256842106e-05
sVestrin
p723
F0.0
sVincomprehensible
p724
F0.0
sV2004
p725
F1.3768765256842106e-05
sVvocabulary
p726
F0.0
sVcontextually
p727
F0.0
sVpussypass_denied_on_the_count_of_cymbalta_shortage
p728
F0.0
sVankylose
p729
F0.0
sVtricky
p730
F0.00021355045122101486
sVgastric
p731
F0.0
sVmask
p732
F0.00010677522561050743
sVmimic
p733
F0.00010677522561050743
sVbehavioral
p734
F0.0
sVoriginal
p735
F4.8325268138909584e-05
sVzapps
p736
F0.0
sVsci
p737
F0.0
sVconsider
p738
F0.0003141142429029123
sVsca
p739
F0.0
sVfairness
p740
F0.0
sVsct
p741
F0.0
sVimproperly
p742
F3.559174187016914e-05
sVattentive
p743
F0.0
sVtv
p744
F0.00010677522561050743
sVtu
p745
F0.0
sVoverexpose
p746
F0.0
sVtl
p747
F0.0
sVtm
p748
F3.559174187016914e-05
sVsmile
p749
F0.00010911488306663518
sVte
p750
F0.0
sVendogenous
p751
F0.0
sVnorm
p752
F0.0
sVadapt
p753
F0.0
sVappointment
p754
F0.0011033439979752434
sVpainsomnia
p755
F0.0
sVmanageable
p756
F0.0
sVcondition
p757
F0.0005369818450168422
sVpotentiation
p758
F0.0
sVsans
p759
F0.0
sVt4
p760
F0.0
sVmisinformation
p761
F0.0
sVt3
p762
F0.0
sVlarge
p763
F0.0
sVadjust
p764
F0.0005694678699227063
sVsmall
p765
F6.881152077957048e-05
sVprovat
p766
F0.0
sVtoradol
p767
F0.0
sVquicker
p768
F7.118348374033829e-05
sVantibiotic
p769
F0.0
sVpasa
p770
F0.0
sVb27
p771
F0.0
sVpast
p772
F0.00026578897476400273
sVinvestment
p773
F0.0
sVhormonal
p774
F3.559174187016914e-05
sVclock
p775
F2.182297661332704e-05
sVpsychosomatic
p776
F0.0
sVsection
p777
F8.729190645330815e-05
sVnurse
p778
F0.0003559174187016914
sVmethod
p779
F0.00014236696748067657
sVcontrast
p780
F7.118348374033829e-05
sVhasn
p781
F0.00011275895899078902
sVfull
p782
F0.0
sVhash
p783
F3.559174187016914e-05
sVempower
p784
F0.0
sV20lbs
p785
F0.0
sVstriatum
p786
F0.0
sVcompliance
p787
F0.0
sVbrutal
p788
F0.0
sVprior
p789
F0.00028473393496135314
sVinfrequently
p790
F0.0
sVhealthier
p791
F0.0
sVskyrocket
p792
F0.0
sVpick
p793
F0.0003579878966778948
sVcessation
p794
F0.0
sVskepticism
p795
F0.0
sVunderrate
p796
F0.0
sVvia
p797
F0.0001779587093508457
sVdepart
p798
F2.182297661332704e-05
sVagomelatine
p799
F0.0
sVbatshit
p800
F0.0
sVregiment
p801
F0.0
sVvit
p802
F0.0
sVgosh
p803
F0.00010677522561050743
sVattendance
p804
F0.0
sValcoholic
p805
F3.559174187016914e-05
sVpearl
p806
F3.559174187016914e-05
sVsitter
p807
F0.0
sVrhem
p808
F0.0
sV6
p809
F0.0002100562213271099
sVmetformin
p810
F0.0
sVdoor
p811
F3.221684542593972e-05
sVdepersonalize
p812
F0.0
sVcomorbidities
p813
F0.0
sVdoom
p814
F0.0
sVnegativity
p815
F0.0
sVfatal
p816
F2.182297661332704e-05
sVscience
p817
F0.00013093785967996222
sVnovolog
p818
F0.0
sVlearn
p819
F0.0018151788353786263
sVmale
p820
F2.7537530513684212e-05
sVscramble
p821
F0.0
sVbeautiful
p822
F2.4162634069454792e-05
sVallegra
p823
F0.0
sVdiabetic
p824
F3.559174187016914e-05
sVscam
p825
F0.0
sVscan
p826
F2.182297661332704e-05
sVaccept
p827
F0.00024783777462315793
sVsense
p828
F6.518986179117204e-05
sVgallon
p829
F0.0
sVscar
p830
F0.0006762430955332137
sVtireder
p831
F0.0
sVhuge
p832
F8.691981572156271e-05
sVrespective
p833
F0.0
sVsr
p834
F0.0
sVfrivolously
p835
F0.0
sVcling
p836
F0.0
sVplant
p837
F3.559174187016914e-05
sVnotre
p838
F0.0
sVvariant
p839
F0.0
sVbrintellix
p840
F0.0
sVrefuse
p841
F0.0002065314788526316
sVresemble
p842
F3.559174187016914e-05
sVrowdy
p843
F3.559174187016914e-05
sVortho
p844
F0.0
sVwrench
p845
F0.0
sVincessantly
p846
F3.559174187016914e-05
sVsertraline
p847
F0.0
sVtramadol
p848
F0.0
sVtrade
p849
F2.7537530513684212e-05
sVattitude
p850
F0.00010677522561050743
sVpaper
p851
F8.261259154105263e-05
sVpang
p852
F0.0
sVscintigraphy
p853
F0.0
sVconsent
p854
F7.118348374033829e-05
sVnooooope
p855
F0.0
sVwrt
p856
F0.0
sVlamotragine
p857
F0.0
sVbypass
p858
F3.559174187016914e-05
sVamitriptyline
p859
F0.0
sVsauce
p860
F3.559174187016914e-05
sVtri
p861
F7.118348374033829e-05
sVhysterectomy
p862
F0.0
sVentire
p863
F9.638135679789473e-05
sVpropose
p864
F3.559174187016914e-05
sVgadget
p865
F0.0
sVvitro
p866
F0.0
sVspeculate
p867
F0.0
sVbarefaced
p868
F0.0
sValways
p869
F0.0
sVnauseous
p870
F0.0
sVstatus
p871
F4.130629577052632e-05
sVengland
p872
F0.0
sV300mg
p873
F0.0
sVreduce
p874
F0.0009820339475997168
sVtrd
p875
F0.0
sVgirlish
p876
F0.0
sVterrify
p877
F0.0
sVtry
p878
F0.0008691981572156272
sVlipstick
p879
F3.559174187016914e-05
sVftw
p880
F0.0
sVresearch
p881
F0.0007118348374033828
sVcrazymeds
p882
F0.0
sVqualify
p883
F0.0
sVimagine
p884
F0.00013768765256842106
sVimpulsion
p885
F0.0
sVdefinition
p886
F1.3768765256842106e-05
sVw
p887
F5.5075061027368425e-05
sVanecdote
p888
F0.0
sVexistential
p889
F3.559174187016914e-05
sVtraumatize
p890
F0.0
sVbupropion
p891
F0.0
sVmajor
p892
F0.00013692159306024382
sVthereafter
p893
F0.0
sVbrutally
p894
F0.0
sVslipper
p895
F0.0
sVunexplained
p896
F3.559174187016914e-05
sVguest
p897
F1.3768765256842106e-05
sVswipe
p898
F3.559174187016914e-05
sVmoderately
p899
F2.182297661332704e-05
sVcheckpoint
p900
F3.559174187016914e-05
sVbedridden
p901
F0.0
sVrelationship
p902
F0.0001789939483389474
sVimmediate
p903
F0.00019640678951994334
sVconsult
p904
F0.0
sVunrealistic
p905
F0.0
sVgrace
p906
F3.559174187016914e-05
sVtummy
p907
F3.559174187016914e-05
sVmarriage
p908
F1.3768765256842106e-05
sVdepressent
p909
F0.0
sVbeforehand
p910
F0.0
sVsell
p911
F4.8325268138909584e-05
sVself
p912
F8.691981572156271e-05
sVphychatry
p913
F0.0
sVpparx
p914
F0.0
sVjostle
p915
F0.0
sVtranquilzer
p916
F0.0
sVplay
p917
F0.0002065314788526316
sV2am
p918
F0.0
sValleviate
p919
F0.0003203256768315223
sVnasal
p920
F0.0
sVyawn
p921
F0.0
sVvirus
p922
F0.00014236696748067657
sVplan
p923
F0.0004406004882189474
sVseize
p924
F3.559174187016914e-05
sVsometimes
p925
F0.0005154695268150356
sVcover
p926
F0.00019330107255563833
sVadvisement
p927
F0.0
sVgaba
p928
F0.0
sVdespise
p929
F3.559174187016914e-05
sVugh
p930
F0.0
sVgold
p931
F1.3768765256842106e-05
sVagonize
p932
F0.0
sVtranquilizer
p933
F0.0
sVsession
p934
F0.00014236696748067657
sVwalgreen
p935
F0.0
sVimpact
p936
F0.0
sVindicator
p937
F3.559174187016914e-05
sVcolumna
p938
F0.0
sVenzyme
p939
F0.0
sVfactor
p940
F0.000249142193091184
sVzillionth
p941
F0.0
sVdandelion
p942
F3.559174187016914e-05
sVdependent
p943
F0.00028473393496135314
sVresent
p944
F0.0
sVremedy
p945
F0.0
sVclosely
p946
F0.0
sVuntreated
p947
F0.0
sVdistraction
p948
F0.0
sVenemy
p949
F0.00010677522561050743
sVcrp
p950
F0.0
sVsleeve
p951
F3.559174187016914e-05
sVcry
p952
F0.0002836986959732515
sVcaramel
p953
F2.182297661332704e-05
sVkill
p954
F0.00020940949526860822
sVobscure
p955
F0.0
sVriver
p956
F1.3768765256842106e-05
sVinsane
p957
F0.000249142193091184
sVautoreceptors
p958
F0.0
sVcorticosteroid
p959
F0.0
sVser
p960
F3.559174187016914e-05
sVoverwhelm
p961
F0.0
sVcounceling
p962
F0.0
sVpotent
p963
F0.0
sVsex
p964
F0.0008510960879197546
sVsee
p965
F0.0006156820280277359
sVanalog
p966
F0.0
sV6yr
p967
F0.0
sVproject
p968
F4.130629577052632e-05
sVritz
p969
F0.0
sVcurrently
p970
F0.000647131967071579
sVtenormin
p971
F0.0
sVcrosswalk
p972
F3.559174187016914e-05
sVnope
p973
F0.00014236696748067657
sVthrive
p974
F0.0
sVavailable
p975
F0.00023406900936631577
sVincident
p976
F0.0
sVselectively
p977
F0.0
sVnonexistent
p978
F3.559174187016914e-05
sVlast
p979
F0.00031146267300226636
sVbarely
p980
F0.00019640678951994334
sVnorcos
p981
F0.0
sVconnection
p982
F4.364595322665408e-05
sVlet
p983
F0.00018832626739671924
sVapprove
p984
F0.0007830183211437211
sVpatty
p985
F0.0
sVload
p986
F4.130629577052632e-05
sVloan
p987
F0.0
sVcommunity
p988
F0.0
sVcoincidence
p989
F0.00010677522561050743
sVtremor
p990
F0.0
sVbudeprion
p991
F0.0
sVworthless
p992
F7.118348374033829e-05
sVdevil
p993
F2.182297661332704e-05
sVmonthly
p994
F0.0
sVacceptance
p995
F0.0
sVinitiation
p996
F0.0
sVyadda
p997
F7.118348374033829e-05
sVholistics
p998
F0.0
sVfogginess
p999
F0.0
sVfire
p1000
F3.221684542593972e-05
sVfund
p1001
F0.00010911488306663518
sVmoderation
p1002
F0.0
sVawake
p1003
F0.00028473393496135314
sVsystematic
p1004
F3.559174187016914e-05
sVdespite
p1005
F8.859632492133424e-05
sVlamotrigine
p1006
F0.0
sVreliable
p1007
F6.546892983998111e-05
sVbudget
p1008
F7.118348374033829e-05
sVsesame
p1009
F3.559174187016914e-05
sVmedically
p1010
F0.0
sVreliably
p1011
F3.559174187016914e-05
sVerror
p1012
F0.000498284386182368
sVmedicamentos
p1013
F0.0
sVsoporte
p1014
F0.0
sVswim
p1015
F8.729190645330815e-05
sVpound
p1016
F0.00043645953226654073
sVoculusvr
p1017
F0.0
sVagitation
p1018
F0.0
sVklonipin
p1019
F0.0
sVhydrocodone
p1020
F0.0
sVtriple
p1021
F4.364595322665408e-05
sVbeautifully
p1022
F3.559174187016914e-05
sVvanish
p1023
F0.00010677522561050743
sVfunny
p1024
F5.637947949539451e-05
sVacaba
p1025
F0.0
sVmint
p1026
F4.364595322665408e-05
sVshorter
p1027
F6.546892983998111e-05
sVpussypassdenied
p1028
F0.0
sVserum
p1029
F0.0
sVvoraciously
p1030
F0.0
sVdiscontinue
p1031
F0.0
sValert
p1032
F2.182297661332704e-05
sVwalmart
p1033
F0.0
sVcucumber
p1034
F3.559174187016914e-05
sVstack
p1035
F3.559174187016914e-05
sVfocal
p1036
F3.559174187016914e-05
sVrecent
p1037
F0.00013093785967996222
sVearly
p1038
F0.00013692159306024382
sVconcrete
p1039
F0.0
sVfeces
p1040
F0.0
sVrheumy
p1041
F0.0
sVexperiernced
p1042
F0.0
sVsidebar
p1043
F7.118348374033829e-05
sVdissociation
p1044
F0.0
sVbecausessris
p1045
F0.0
sVlongecity
p1046
F0.0
sVeager
p1047
F0.0
sVoverthinking
p1048
F0.0
sVgrapefruit
p1049
F6.546892983998111e-05
sVmusculoskeletal
p1050
F0.0
sVlocation
p1051
F8.729190645330815e-05
sVrelevance
p1052
F0.0
sVinput
p1053
F0.0001779587093508457
sVshove
p1054
F3.559174187016914e-05
sVaustralia
p1055
F0.0
sVemergency
p1056
F0.0004271009024420297
sVcouple
p1057
F0.0004349274132501863
sVshitty
p1058
F0.0006406513536630446
sVquest
p1059
F3.559174187016914e-05
sVtowel
p1060
F7.118348374033829e-05
sVrizatriptan
p1061
F0.0
sVuuuuuugh
p1062
F0.0
sVspine
p1063
F7.118348374033829e-05
sVconstipate
p1064
F0.0
sVcontinue
p1065
F0.00014497580441672874
sVbreakthough
p1066
F0.0
sVdisorder
p1067
F0.002954114575224039
sVspring
p1068
F4.130629577052632e-05
sVb6
p1069
F0.0
sVcurious
p1070
F3.221684542593972e-05
sVreligion
p1071
F3.559174187016914e-05
sVbf
p1072
F0.0
sVbc
p1073
F0.0
sVagreement
p1074
F1.3768765256842106e-05
sVbp
p1075
F0.0
sVnowhere
p1076
F0.000249142193091184
sVflexiril
p1077
F0.0
sVanything
p1078
F0.00031146267300226636
sVnetflix
p1079
F0.0
sVcoexist
p1080
F0.0
sVbreakup
p1081
F0.0
sVanterior
p1082
F0.0
sVrepair
p1083
F0.0
sVcolorado
p1084
F0.0
sVgarbage
p1085
F6.546892983998111e-05
sVrecreate
p1086
F0.0
sVappropriate
p1087
F0.000249142193091184
sVvermintide
p1088
F0.0
sVmitochondrial
p1089
F0.0
sVprimarily
p1090
F0.0
sVcontributor
p1091
F4.364595322665408e-05
sVclonopin
p1092
F0.0
sVnext
p1093
F0.00015210967751273476
sVkatie
p1094
F0.0
sVhellhole
p1095
F0.0
sVspecifically
p1096
F0.0
sVsuit
p1097
F4.364595322665408e-05
sVconsiderably
p1098
F3.559174187016914e-05
sV3600
p1099
F0.0
sVelsewhere
p1100
F7.118348374033829e-05
sVposter
p1101
F0.00010677522561050743
sVslump
p1102
F0.0
sVlink
p1103
F0.00032734464919990556
sVgoosebump
p1104
F0.0
sVline
p1105
F0.0001288673817037589
sVrelaxer
p1106
F0.0
sVsomedays
p1107
F0.0
sVur
p1108
F0.0
sVtripshot
p1109
F0.0
sVuo
p1110
F0.0
sVun
p1111
F3.221684542593972e-05
sVuh
p1112
F2.7537530513684212e-05
sVmature
p1113
F1.3768765256842106e-05
sVmedical
p1114
F0.0005369818450168422
sVparoxetine
p1115
F0.0
sVlikewise
p1116
F0.0
sVunsafe
p1117
F3.559174187016914e-05
sVhaunt
p1118
F0.0
sVdiverse
p1119
F3.559174187016914e-05
sVchat
p1120
F1.3768765256842106e-05
sVphantom
p1121
F3.559174187016914e-05
sVoccasional
p1122
F0.0
sVrhumy
p1123
F0.0
sVdeviate
p1124
F0.0
sVmultiduty
p1125
F0.0
sVenergetic
p1126
F0.0
sVlucid
p1127
F0.0
sVativan
p1128
F0.0
sVtreatable
p1129
F0.0
sVland
p1130
F2.1729953930390678e-05
sVmetabolize
p1131
F0.0
sVtrain
p1132
F0.00014236696748067657
sVwalker
p1133
F7.118348374033829e-05
sVfresh
p1134
F4.130629577052632e-05
sVreceive
p1135
F0.00014236696748067657
sVessay
p1136
F3.559174187016914e-05
sVpartial
p1137
F0.00010677522561050743
sVscratch
p1138
F2.182297661332704e-05
sVlaziness
p1139
F0.0
sVenjoyable
p1140
F7.118348374033829e-05
sV80mgs
p1141
F0.0
sVfreakin
p1142
F3.559174187016914e-05
sVflashback
p1143
F0.0
sVaqtic
p1144
F0.0
sVyoung
p1145
F4.708156684917981e-05
sVsend
p1146
F0.00020940949526860822
sVmonoamine
p1147
F0.0
sVboatload
p1148
F0.0
sVtorture
p1149
F3.559174187016914e-05
sVcolloquially
p1150
F0.0
sVenfp
p1151
F0.0
sVwipe
p1152
F2.182297661332704e-05
sVtimely
p1153
F0.0
sVmagic
p1154
F0.00021822976613327036
sVtransmission
p1155
F0.0
sVeve
p1156
F0.0
sVfewer
p1157
F0.0001779587093508457
sVanxious
p1158
F0.0007830183211437211
sVrace
p1159
F0.00028473393496135314
sVobesity
p1160
F0.0
sVallunderit
p1161
F0.0
sVseratonin
p1162
F0.0
sVmishap
p1163
F0.0
sVvideo
p1164
F0.00010911488306663518
sVpour
p1165
F0.00010677522561050743
sVincidentally
p1166
F0.0
sVodd
p1167
F1.610842271296986e-05
sVvictor
p1168
F0.0
sVindex
p1169
F3.559174187016914e-05
sVduuuude
p1170
F0.0
sVsadden
p1171
F0.0
sVsweaty
p1172
F7.118348374033829e-05
sVconsistently
p1173
F0.00021355045122101486
sVbird
p1174
F2.7537530513684212e-05
sVproliferation
p1175
F0.0
sVleg
p1176
F0.00028914407039368423
sVpunch
p1177
F7.118348374033829e-05
sVpoverty
p1178
F3.559174187016914e-05
sVlicence
p1179
F2.182297661332704e-05
sVlex
p1180
F0.0
sVconsideration
p1181
F0.0
sVfifteen
p1182
F3.559174187016914e-05
sVphysiology
p1183
F0.0
sVgreat
p1184
F0.0
sVengage
p1185
F0.0
sVtechnical
p1186
F3.559174187016914e-05
sVextreme
p1187
F0.00030291283565052633
sVrda
p1188
F0.0
sVinsulin
p1189
F0.0
sVdefeat
p1190
F7.118348374033829e-05
sVopinion
p1191
F0.0006406513536630446
sVmaker
p1192
F0.0
sVthats
p1193
F4.364595322665408e-05
sValtho
p1194
F0.0
sVvalproic
p1195
F0.0
sVvassopressors
p1196
F0.0
sVimpulsivity
p1197
F0.0
sVexenatide
p1198
F0.0
sVconfidence
p1199
F0.0001779587093508457
sVpotenating
p1200
F0.0
sVillegal
p1201
F3.559174187016914e-05
sVguideline
p1202
F0.0
sVfigurative
p1203
F0.0
sVeleven
p1204
F3.559174187016914e-05
sVduplicate
p1205
F3.559174187016914e-05
sVdoubt
p1206
F3.221684542593972e-05
sVpelvic
p1207
F3.559174187016914e-05
sVbodily
p1208
F3.559174187016914e-05
sV90mg
p1209
F0.0
sVbaby
p1210
F0.00045828250887986784
sVgladly
p1211
F0.0
sVbatsh
p1212
F0.0
sVcustomer
p1213
F7.118348374033829e-05
sVmeng
p1214
F0.0
sVchallenge
p1215
F0.00021355045122101486
sVcornucopia
p1216
F0.0
sVprompto
p1217
F0.0
sVcreepy
p1218
F3.559174187016914e-05
sVthin
p1219
F2.7537530513684212e-05
sVinsiste
p1220
F0.0
sVscatter
p1221
F0.0
sVparalysis
p1222
F0.0
sVprocess
p1223
F0.0007856271580797733
sVlock
p1224
F4.130629577052632e-05
sVamtatriptaline
p1225
F0.0
sVhigh
p1226
F0.0
sVslip
p1227
F3.559174187016914e-05
sVweaken
p1228
F0.0
sVendoscopy
p1229
F0.0
sVdelay
p1230
F0.00013093785967996222
sVanimal
p1231
F1.610842271296986e-05
sVuserfiles
p1232
F0.0
sVestablishment
p1233
F0.0
sVoz
p1234
F0.0
sVdiferencia
p1235
F0.0
sVtdee
p1236
F0.0
sVawait
p1237
F0.0
sVtier
p1238
F0.0
sVantibody
p1239
F0.0
sVcounter
p1240
F0.00013093785967996222
sVelement
p1241
F1.3768765256842106e-05
sVallow
p1242
F0.00046269264431219887
sVthigh
p1243
F0.0
sVmute
p1244
F3.559174187016914e-05
sVverrry
p1245
F0.0
sVmove
p1246
F0.00037175666193473684
sVdming
p1247
F0.0
sVtort
p1248
F0.0
sVperfect
p1249
F0.00013093785967996222
sVhypothesize
p1250
F0.0
sVmeantime
p1251
F7.118348374033829e-05
sV2015
p1252
F0.0
sV2014
p1253
F0.0
sVtherefor
p1254
F0.0
sV2011
p1255
F0.0
sV2010
p1256
F0.0
sV2013
p1257
F0.0
sVreposting
p1258
F0.0
sVanticonvulsant
p1259
F0.0
sVnada
p1260
F3.559174187016914e-05
sVplaquenil
p1261
F0.0
sVsnake
p1262
F2.182297661332704e-05
sVkiss
p1263
F6.546892983998111e-05
sVstabilise
p1264
F0.0
sVtransparent
p1265
F2.182297661332704e-05
sVwrangler
p1266
F0.0
sVsufficiently
p1267
F0.0
sVtruth
p1268
F0.00019640678951994334
sVsubset
p1269
F0.0
sVbump
p1270
F0.0
sVdeficiency
p1271
F0.0
sVmeta
p1272
F2.182297661332704e-05
sVstatic
p1273
F3.559174187016914e-05
sVstatin
p1274
F0.0
sVmeth
p1275
F0.0
sVdiffer
p1276
F3.559174187016914e-05
sVhashimotos
p1277
F0.0
sVborderline
p1278
F0.00021355045122101486
sVdismissal
p1279
F0.0
sVantiphospholipid
p1280
F0.0
sVvenom
p1281
F0.0
sVempathetic
p1282
F0.0
sVhilarious
p1283
F3.559174187016914e-05
sVunprepared
p1284
F0.0
sVtheraputic
p1285
F0.0
sVshitloaf
p1286
F0.0
sVshut
p1287
F3.221684542593972e-05
sVtempo
p1288
F0.0
sVtumeric
p1289
F0.0
sVsurely
p1290
F3.559174187016914e-05
sVembarrass
p1291
F0.0
sVpothead
p1292
F0.0
sVshortest
p1293
F0.0
sVscary
p1294
F0.0003203256768315223
sVcould
p1295
F0.0
sVcompulsive
p1296
F3.559174187016914e-05
sVlength
p1297
F1.0864976965195339e-05
sVdavis
p1298
F0.0
sV130bpm
p1299
F0.0
sVscare
p1300
F7.118348374033829e-05
sVscarf
p1301
F3.559174187016914e-05
sV450
p1302
F0.0
sVjesus
p1303
F0.0
sVkanteen
p1304
F0.0
sVfuckery
p1305
F0.0
sVstart
p1306
F0.0007087705993706739
sVsystem
p1307
F0.0002496805520510328
sVpainful
p1308
F0.0
sVaccompany
p1309
F0.0
sVinjectable
p1310
F0.0
sVgung
p1311
F0.0
sVbotox
p1312
F0.0
sVhaven
p1313
F0.0004268732018937013
sVroulette
p1314
F0.0
sVbother
p1315
F0.00019640678951994334
sVmalpractice
p1316
F0.0
sVstricter
p1317
F0.0
sVfalse
p1318
F2.7537530513684212e-05
sVgabopentin
p1319
F0.0
sVgently
p1320
F3.559174187016914e-05
sVtonight
p1321
F4.364595322665408e-05
sVgentle
p1322
F4.130629577052632e-05
sVclearly
p1323
F6.884382628421053e-05
sVmechanism
p1324
F0.0
sVadjunct
p1325
F0.0
sVstahls
p1326
F0.0
sVlunesta
p1327
F0.0
sVdevice
p1328
F4.130629577052632e-05
sVmedal
p1329
F3.559174187016914e-05
sVsubsequently
p1330
F0.0
sVhyperthyroidism
p1331
F0.0
sVstronger
p1332
F0.0004271009024420297
sVthanksgiving
p1333
F0.0
sVface
p1334
F0.00012081317034727396
sVdesvenlafaxine
p1335
F0.0
sVfiasco
p1336
F0.0
sVbrew
p1337
F0.0
sV08
p1338
F3.559174187016914e-05
sVfact
p1339
F0.00042683172296210524
sVnaturale
p1340
F0.0
sVdependant
p1341
F0.0
sVdissociate
p1342
F0.0
sVbring
p1343
F9.778479268675805e-05
sVcannibus
p1344
F0.0
sVbedroom
p1345
F7.118348374033829e-05
sVrough
p1346
F0.00019640678951994334
sVdbt
p1347
F0.0
sVdecade
p1348
F0.00013093785967996222
sVdisillusion
p1349
F0.0
sVcostco
p1350
F0.0
sVwelbutrin
p1351
F0.0
sVjar
p1352
F2.7537530513684212e-05
sVtapa
p1353
F0.0
sVjag
p1354
F0.0
sVjad
p1355
F0.0
sVhope
p1356
F0.0002788677421066804
sVjackpot
p1357
F3.559174187016914e-05
sVinsight
p1358
F3.559174187016914e-05
sVhandle
p1359
F0.00011275895899078902
sVomeprazole
p1360
F0.0
sVfamiliar
p1361
F0.00015276083629328925
sVlucky
p1362
F0.00011015012205473685
sVstahlonline
p1363
F0.0
sVsmash
p1364
F3.559174187016914e-05
sVdishearten
p1365
F0.0
sVmetabolite
p1366
F0.0
sVtopiramite
p1367
F0.0
sVstuff
p1368
F0.0007159757933557896
sVohio
p1369
F0.0
sVbtw
p1370
F0.0
sVtemporarily
p1371
F3.559174187016914e-05
sVcatastrophic
p1372
F0.0
sVheartburn
p1373
F0.00014236696748067657
sVreddit
p1374
F0.0
sVpacket
p1375
F0.0
sVedition
p1376
F3.559174187016914e-05
sV130lbs
p1377
F0.0
sVwire
p1378
F7.118348374033829e-05
sVdestiny
p1379
F3.559174187016914e-05
sVposse
p1380
F3.559174187016914e-05
sVinvega
p1381
F0.0
sVunravel
p1382
F0.0
sVexplosive
p1383
F0.0
sVinterchangeably
p1384
F0.0
sVlawsuit
p1385
F0.0
sVendo
p1386
F0.0
sVketo
p1387
F0.0
sVett
p1388
F0.0
sVramp
p1389
F0.0
sVetc
p1390
F0.00018832626739671924
sVeta
p1391
F0.0
sVck
p1392
F0.0
sVco
p1393
F6.546892983998111e-05
sVwtf
p1394
F0.0
sVcf
p1395
F0.000249142193091184
sVdoxycycline
p1396
F0.0
sVdepressi
p1397
F0.0
sVataxia
p1398
F0.0
sVoakland
p1399
F0.0
sVcv
p1400
F0.0
sVct
p1401
F0.0
sVpulmicort
p1402
F0.0
sVnaltrexone
p1403
F0.0
sVgenetic
p1404
F0.0
sVwaste
p1405
F5.5075061027368425e-05
sVlouisiana
p1406
F0.0
sVventolin
p1407
F0.0
sVpsychotherapist
p1408
F0.0
sVanorgasmic
p1409
F0.0
sVanorgasmia
p1410
F0.0
sV250mg
p1411
F0.0
sVanticonvulsents
p1412
F0.0
sVderivative
p1413
F0.0
sV2016
p1414
F0.0
sVcvy
p1415
F0.0
sVfibrymyalgia
p1416
F0.0
sVhahaha
p1417
F0.0
sVultra
p1418
F0.0
sVva
p1419
F2.182297661332704e-05
sVinsanely
p1420
F0.0
sVsite
p1421
F6.884382628421053e-05
sVlilly_cares
p1422
F0.0
sVlust
p1423
F3.559174187016914e-05
sVexcessively
p1424
F3.559174187016914e-05
sVvt
p1425
F0.0
sVconserve
p1426
F0.0
sVcohort
p1427
F0.0
sVdenial
p1428
F0.0
sVdilate
p1429
F0.0
sVdigging
p1430
F2.182297661332704e-05
sVball
p1431
F5.5075061027368425e-05
sVemotionally
p1432
F0.0001779587093508457
sVbald
p1433
F3.559174187016914e-05
sVupon
p1434
F4.027105678242465e-05
sVunsympathetic
p1435
F0.0
sVphd
p1436
F0.0
sVbenicar
p1437
F0.0
sVinfinite
p1438
F2.182297661332704e-05
sVphp
p1439
F0.00010677522561050743
sVpleasantly
p1440
F3.559174187016914e-05
sVlupus
p1441
F0.0
sVcolour
p1442
F2.182297661332704e-05
sVflesh
p1443
F2.182297661332704e-05
sVdoapmine
p1444
F0.0
sVweb
p1445
F1.3768765256842106e-05
sVwed
p1446
F0.0
sVrealize
p1447
F0.00124571096545592
sVarrest
p1448
F0.00010911488306663518
sVcombine
p1449
F0.0003491676258132326
sVexempt
p1450
F0.0
sVsynaptic
p1451
F0.0
sVteriyaki
p1452
F0.0
sVvain
p1453
F2.182297661332704e-05
sVgovernment
p1454
F4.364595322665408e-05
sVzimbabwe
p1455
F0.0
sVfive
p1456
F6.156820280277359e-05
sVdesk
p1457
F6.546892983998111e-05
sVatrophy
p1458
F0.0
sVdebatable
p1459
F0.0
sVplacenta
p1460
F7.118348374033829e-05
sVbenadryl
p1461
F0.0
sVonion
p1462
F3.559174187016914e-05
sVbulge
p1463
F0.0
sVbecome
p1464
F0.0001484880185243363
sVreplacement
p1465
F6.546892983998111e-05
sVopioid
p1466
F0.0
sVklonopin
p1467
F0.0
sVforeseeable
p1468
F0.0
sVdaylight
p1469
F3.559174187016914e-05
sVflush
p1470
F7.118348374033829e-05
sVliterally
p1471
F0.00032734464919990556
sValeve
p1472
F0.0
sVwoohoo
p1473
F0.0
sVblurry
p1474
F0.0
sVcastrate
p1475
F0.0
sVbiology
p1476
F0.0
sVschedule
p1477
F0.00028473393496135314
sVpressure
p1478
F0.0010677522561050744
sVimaginary
p1479
F0.00010677522561050743
sVstage
p1480
F2.7537530513684212e-05
sVtracci
p1481
F0.0
sVsister
p1482
F0.00015276083629328925
sVlifestyle
p1483
F7.118348374033829e-05
sVdilaudid
p1484
F0.0
sVingest
p1485
F0.0
sVfro
p1486
F0.0
sVfuckton
p1487
F0.0
sVlung
p1488
F0.0001779587093508457
sVroad_
p1489
F0.0
sVfrustration
p1490
F0.0
sVuridine
p1491
F0.0
sVgut
p1492
F3.559174187016914e-05
sVnaturally
p1493
F0.0001779587093508457
sVfunction
p1494
F0.0016016283841576114
sVdelivery
p1495
F0.0001779587093508457
sVconstruction
p1496
F3.559174187016914e-05
sVughhh
p1497
F0.0
sVmethmeds
p1498
F0.0
sVcount
p1499
F0.00043645953226654073
sVjackass
p1500
F3.559174187016914e-05
sVsociety
p1501
F2.182297661332704e-05
sVsoreness
p1502
F0.0
sVofficial
p1503
F0.00024005274274659745
sVsmooth
p1504
F1.3768765256842106e-05
sVfrequency
p1505
F0.00014236696748067657
sV3mg
p1506
F0.0
sVadderall
p1507
F0.0
sVproblem
p1508
F0.0008618006151438877
sVhydrotherapy
p1509
F0.0
sVrecognize
p1510
F0.0001745838129066163
sVcontribute
p1511
F0.0001779587093508457
sVmushroom
p1512
F7.118348374033829e-05
sVvariety
p1513
F0.00010911488306663518
sVdeadly
p1514
F0.0
sVlately
p1515
F0.00013093785967996222
sVsaviour
p1516
F0.0
sVmcg
p1517
F0.0
sVziprasidone
p1518
F0.0
sVbehold
p1519
F3.559174187016914e-05
sVtranscranial
p1520
F0.0
sVrepeat
p1521
F0.00028473393496135314
sVpotentiators
p1522
F0.0
sVmonday
p1523
F0.0
sV25f
p1524
F0.0
sVchance
p1525
F0.0001610842271296986
sVexposure
p1526
F0.0
sVghost
p1527
F3.559174187016914e-05
sVnortriptalyn
p1528
F0.0
sVrisperdal
p1529
F0.0
sVrule
p1530
F0.00024005274274659745
sVcompete
p1531
F0.0
sVproprananol
p1532
F0.0
sVsuicidal
p1533
F0.0013168944491962582
sVsaver
p1534
F0.0
sVcontroversial
p1535
F3.559174187016914e-05
sVphysiological
p1536
F0.0
sVbike
p1537
F2.182297661332704e-05
sVslowest
p1538
F0.0
sVergo
p1539
F0.0
sVrestock
p1540
F0.0
sVwhack
p1541
F0.0
sVcompassion
p1542
F3.559174187016914e-05
sVblanket
p1543
F4.364595322665408e-05
sVasthmatic
p1544
F0.0
sVglimepiride
p1545
F0.0
sVmanic
p1546
F0.0007118348374033828
sVmania
p1547
F0.0
sVrec
p1548
F3.559174187016914e-05
sVtank
p1549
F3.559174187016914e-05
sVcipralex
p1550
F0.0
sVpropecia
p1551
F0.0
sVexaggerate
p1552
F0.0
sVpinch
p1553
F7.118348374033829e-05
sVrelentlessly
p1554
F0.0
sVmath
p1555
F3.559174187016914e-05
sVantagonize
p1556
F0.0
sVmonologue
p1557
F0.0
sVtriumph
p1558
F0.0
sVchef
p1559
F3.559174187016914e-05
sValt
p1560
F2.182297661332704e-05
sVbipolar
p1561
F0.0017084036097681189
sVtoll
p1562
F0.0
sVsuppose
p1563
F0.0002836986959732515
sVofficially
p1564
F0.0
sVunmotivated
p1565
F0.0
sVsimultaneously
p1566
F3.559174187016914e-05
sVfestive
p1567
F0.0
sVmiscarriage
p1568
F0.0
sVkudos
p1569
F0.0
sVdaughter
p1570
F3.221684542593972e-05
sVstudy
p1571
F0.000611043345173157
sVsmoke
p1572
F0.0007419812048531192
sVaka
p1573
F0.0
sVsearch
p1574
F0.00011015012205473685
sVhighly
p1575
F0.00019640678951994334
sVbro
p1576
F0.0001779587093508457
sVextraneous
p1577
F7.118348374033829e-05
sVachievable
p1578
F0.0
sVconcomitant
p1579
F0.0
sVglance
p1580
F2.7537530513684212e-05
sVtotal
p1581
F9.638135679789473e-05
sVexperimentation
p1582
F0.0
sVwintertime
p1583
F3.559174187016914e-05
sVgloss
p1584
F0.0
sVnegative
p1585
F0.00045828250887986784
sVinsult
p1586
F7.118348374033829e-05
sVplod
p1587
F0.0
sVindiana
p1588
F0.0
sVtryin
p1589
F3.559174187016914e-05
sVpude
p1590
F0.0
sVprazolin
p1591
F0.0
sVhaha
p1592
F0.0003559174187016914
sVinfusion
p1593
F0.0
sVreign
p1594
F0.0
sVaware
p1595
F0.0
sVbackwards
p1596
F8.05421135648493e-06
sVadamant
p1597
F0.0
sVfodmaps
p1598
F0.0
sVsdri
p1599
F0.0
sVnorep
p1600
F0.0
sVword
p1601
F5.0703225837578245e-05
sVcharacterize
p1602
F0.0
sVwork
p1603
F0.0
sVworm
p1604
F7.118348374033829e-05
sVwort
p1605
F3.559174187016914e-05
sVera
p1606
F0.0
sVmechanic
p1607
F3.559174187016914e-05
sVelbow
p1608
F3.559174187016914e-05
sVacetylcholine
p1609
F0.0
sVquiver
p1610
F0.0
sVlooooong
p1611
F0.0
sVimpair
p1612
F0.0
sVindifferent
p1613
F3.559174187016914e-05
sVrecovery
p1614
F0.00013093785967996222
sVprovide
p1615
F0.00046269264431219887
sVagony
p1616
F0.0
sV3346
p1617
F0.0
sVsever
p1618
F3.559174187016914e-05
sVmoron
p1619
F3.559174187016914e-05
sVdisappoint
p1620
F0.00010677522561050743
sVordinary
p1621
F3.221684542593972e-05
sVbeach
p1622
F1.3768765256842106e-05
sVgamble
p1623
F0.00010677522561050743
sVpizza
p1624
F0.00010677522561050743
sVfever
p1625
F0.0
sVdoable
p1626
F0.0
sVearlier
p1627
F8.05421135648493e-05
sVlab
p1628
F0.0
sVlay
p1629
F8.729190645330815e-05
sVlaw
p1630
F0.00010677522561050743
sVmeaningful
p1631
F4.364595322665408e-05
sVappreciate
p1632
F8.729190645330815e-05
sVstimulate
p1633
F0.0
sVgreek
p1634
F0.0
sVgreen
p1635
F2.1729953930390678e-05
sVambulance
p1636
F0.0
sVfan
p1637
F1.3768765256842106e-05
sVorder
p1638
F8.691981572156271e-05
sVpdoc
p1639
F0.0
sVsublingually
p1640
F0.0
sVoffice
p1641
F0.00011015012205473685
sVmuffin
p1642
F7.118348374033829e-05
sVscrap
p1643
F0.0
sVchronically
p1644
F0.0
sVpsoriatic
p1645
F0.0
sVsomnolence
p1646
F0.0
sVsomewhere
p1647
F7.248790220836437e-05
sVrecreational
p1648
F0.0001779587093508457
sVavocado
p1649
F7.118348374033829e-05
sVproduction
p1650
F0.00028473393496135314
sVacupuncture
p1651
F0.0
sVprecipitate
p1652
F0.0
sVversus
p1653
F8.729190645330815e-05
sVeventually
p1654
F0.0009609770304945668
sVcoffee
p1655
F0.0003055216725865785
sVremission
p1656
F0.0
sVsafe
p1657
F0.00019276271359578947
sVsleepiness
p1658
F0.0
sVbreak
p1659
F0.0006983352516264652
sVband
p1660
F2.182297661332704e-05
sVroommate
p1661
F3.559174187016914e-05
sVshameful
p1662
F0.0
sVrocky
p1663
F3.559174187016914e-05
sVoxygen
p1664
F3.559174187016914e-05
sVreasonably
p1665
F3.559174187016914e-05
sVl
p1666
F4.130629577052632e-05
sVreasonable
p1667
F0.00010911488306663518
sVcetirizine
p1668
F0.0
sVaumentando
p1669
F0.0
sVnetwork
p1670
F7.118348374033829e-05
sVforty
p1671
F2.182297661332704e-05
sVmedicine
p1672
F0.002099912770339979
sVforth
p1673
F2.4162634069454792e-05
sVbarrier
p1674
F4.364595322665408e-05
sVstandard
p1675
F0.00011015012205473685
sVlollipop
p1676
F3.559174187016914e-05
sVbiologics
p1677
F0.0
sVrenew
p1678
F0.0
sVoppose
p1679
F0.0
sVorganize
p1680
F3.559174187016914e-05
sVanother
p1681
F0.0003585442398514462
sVthoughtfully
p1682
F0.0
sVthick
p1683
F2.7537530513684212e-05
sVtangle
p1684
F3.559174187016914e-05
sVphych
p1685
F0.0
sVillustrate
p1686
F7.118348374033829e-05
sVapproximately
p1687
F0.0
sVpalpitation
p1688
F0.0
sVcompromise
p1689
F2.182297661332704e-05
sVjohn
p1690
F0.0
sVvicoprofen
p1691
F0.0
sVintestine
p1692
F0.0
sVhappily
p1693
F3.559174187016914e-05
sVavanza
p1694
F0.0
sVcereal
p1695
F3.559174187016914e-05
sVnahh
p1696
F0.0
sVsuuuucks
p1697
F0.0
sVtarget
p1698
F0.00014236696748067657
sVhike
p1699
F0.0
sVebay
p1700
F3.559174187016914e-05
sV5mg
p1701
F0.0
sViron
p1702
F7.118348374033829e-05
sVnavigate
p1703
F3.559174187016914e-05
sVpessimism
p1704
F0.0
sVmanner
p1705
F4.130629577052632e-05
sVstomach
p1706
F0.0003491676258132326
sVstrength
p1707
F2.7537530513684212e-05
sVrealm
p1708
F6.546892983998111e-05
sVlatter
p1709
F0.0001779587093508457
sValopecia
p1710
F0.0
sVluxury
p1711
F0.0
sVtransmit
p1712
F0.0
sVfinagle
p1713
F0.0
sVacquire
p1714
F0.0
sVmethylphenidate
p1715
F0.0
sVprohibitive
p1716
F0.0
sVphase
p1717
F0.0001779587093508457
sVprovera
p1718
F0.0
sVcentros
p1719
F0.0
sVmyfitnesspal
p1720
F0.0
sVresponder
p1721
F0.0
sVpaintballed
p1722
F0.0
sVaunt
p1723
F0.0
sVsun
p1724
F4.8325268138909584e-05
sVnotion
p1725
F2.182297661332704e-05
sVreserve
p1726
F3.559174187016914e-05
sVzeldox
p1727
F0.0
sVovarian
p1728
F0.0
sVdopey
p1729
F0.0
sVnephew
p1730
F0.0
sVd2
p1731
F0.0
sVtoast
p1732
F1.3768765256842106e-05
sVpainfully
p1733
F3.559174187016914e-05
sVguidance
p1734
F0.0
sVlayman
p1735
F0.0
sVadequate
p1736
F0.0
sVpersonality
p1737
F4.364595322665408e-05
sVdistribute
p1738
F3.559174187016914e-05
sVde
p1739
F2.5351612918789122e-05
sVda
p1740
F2.182297661332704e-05
sVdx
p1741
F0.0
sVvividly
p1742
F0.0
sVdu
p1743
F3.559174187016914e-05
sVdr
p1744
F0.0008897935467542285
sVdp
p1745
F0.0
sVpeyton
p1746
F0.0
sVemg
p1747
F0.0
sVdiabex
p1748
F0.0
sVbpii
p1749
F0.0
sVdvk80
p1750
F0.0
sVpsych
p1751
F0.0
sVsteal
p1752
F5.5075061027368425e-05
sVnortryptaline
p1753
F0.0
sVerroneous
p1754
F0.0
sVreread
p1755
F0.0
sVhorrendous
p1756
F0.00010677522561050743
sVmiserable
p1757
F0.00024005274274659745
sVgrimoire
p1758
F0.0
sVaway
p1759
F0.0
sVafloat
p1760
F0.0
sVgentleman
p1761
F1.3768765256842106e-05
sVimipramine
p1762
F0.0
sVbien
p1763
F0.0
sVunable
p1764
F0.00021822976613327036
sVdrawl
p1765
F0.0
sVaccord
p1766
F0.0
sVwd
p1767
F0.0
sVhandful
p1768
F0.0
sVunfold
p1769
F3.559174187016914e-05
sVnegatively
p1770
F0.00021355045122101486
sVcop
p1771
F0.00013093785967996222
sVclimate
p1772
F3.559174187016914e-05
sVcox
p1773
F0.0
sVill
p1774
F6.884382628421053e-05
sVcon
p1775
F0.0
sVtough
p1776
F0.00011015012205473685
sV81280
p1777
F0.0
sVseizure
p1778
F0.0
sVabilify
p1779
F0.0
sVrefill
p1780
F0.00046269264431219887
sVspeak
p1781
F0.000611043345173157
sVpetty
p1782
F0.0
sVaminotransferase
p1783
F0.0
sVvlif7qw
p1784
F0.0
sVflexible
p1785
F2.182297661332704e-05
sVhospitalization
p1786
F0.0
sVcarbamazepine
p1787
F0.0
sVfest
p1788
F3.559174187016914e-05
sVbuprenorphine
p1789
F0.0
sVphysician
p1790
F0.0
sVinhibit
p1791
F0.0
sV800cal
p1792
F0.0
sVair
p1793
F3.221684542593972e-05
sVaim
p1794
F4.364595322665408e-05
sVain
p1795
F2.7537530513684212e-05
sVaid
p1796
F0.0
sVproperty
p1797
F6.443369085187944e-05
sVmistake
p1798
F1.610842271296986e-05
sVstink
p1799
F3.559174187016914e-05
sVelectrostimulation
p1800
F0.0
sVsting
p1801
F3.559174187016914e-05
sVtissue
p1802
F3.559174187016914e-05
sVbrake
p1803
F0.0
sVpsiquicamente
p1804
F0.0
sVgrandiose
p1805
F0.0
sVperform
p1806
F1.3768765256842106e-05
sVincorrectly
p1807
F3.559174187016914e-05
sVindictment
p1808
F0.0
sVwheel
p1809
F1.3768765256842106e-05
sVindependent
p1810
F2.182297661332704e-05
sVnih
p1811
F0.0
sVswell
p1812
F0.0
sVhang
p1813
F6.443369085187944e-05
sVevil
p1814
F6.884382628421053e-05
sVhand
p1815
F0.0
sVfuse
p1816
F0.0
sVzaleplon
p1817
F0.0
sVpharmateutical
p1818
F0.0
sVscenario
p1819
F0.0
sVmirtazipine
p1820
F0.0
sVmin
p1821
F0.000249142193091184
sVdris
p1822
F0.0
sVtho
p1823
F7.118348374033829e-05
sVhispanic
p1824
F0.0
sVcontact
p1825
F8.261259154105263e-05
sVnorco
p1826
F0.0
sVprescriber
p1827
F0.0
sVendometriosis
p1828
F0.0
sVtha
p1829
F2.182297661332704e-05
sVstringent
p1830
F0.0
sVfarther
p1831
F3.559174187016914e-05
sVnonmatter
p1832
F0.0
sVgoda
p1833
F0.0
sVhallow
p1834
F0.0
sVthyroid
p1835
F0.0
sVfamily
p1836
F0.0004819067839894737
sVinterweave
p1837
F0.0
sVsubutex
p1838
F0.0
sVpassive
p1839
F0.0
sVspread
p1840
F0.00010677522561050743
sVboard
p1841
F6.884382628421053e-05
sVmarginal
p1842
F0.0
sVplasma
p1843
F3.559174187016914e-05
sVmayo
p1844
F0.0
sVrnp
p1845
F0.0
sVdisadvantage
p1846
F0.0
sVrosacea
p1847
F0.0
sVbpd
p1848
F0.0
sVunfortunatly
p1849
F0.0
sVnight
p1850
F0.00020643456233871145
sVinvaluable
p1851
F0.0
sVsecurity
p1852
F1.3768765256842106e-05
sVflatten
p1853
F0.0
sVspitballing
p1854
F0.0
sVhumor
p1855
F3.559174187016914e-05
sVadorable
p1856
F3.559174187016914e-05
sVplz
p1857
F0.0
sVpeer
p1858
F4.364595322665408e-05
sVpost
p1859
F0.0006765122750131381
sVnexiam
p1860
F0.0
sVhorizon
p1861
F3.559174187016914e-05
sVmalachi_said_so
p1862
F0.0
sVdilemma
p1863
F0.0
sVfloat
p1864
F0.00010911488306663518
sVprofession
p1865
F0.0
sVbback
p1866
F0.0
sVole
p1867
F7.118348374033829e-05
sVplzbixsjmbc8efl6ux5_wwgp8i0mas
p1868
F0.0
sVadvair
p1869
F0.0
sVfight
p1870
F0.00012391888731157896
sVclinical
p1871
F0.0
sVway
p1872
F0.0004925456224221887
sVwax
p1873
F1.3768765256842106e-05
sVwar
p1874
F2.182297661332704e-05
sVantianxiety
p1875
F0.0
sVlowest
p1876
F0.0001779587093508457
sVpharmaceautical
p1877
F0.0
sVforgetful
p1878
F0.0
sVsomehow
p1879
F2.7537530513684212e-05
sVdesipramine
p1880
F0.0
sVelderly
p1881
F3.559174187016914e-05
sVtrue
p1882
F0.0001288673817037589
sVreset
p1883
F3.559174187016914e-05
sVabsent
p1884
F2.7537530513684212e-05
sVbraver
p1885
F0.0
sVmaximum
p1886
F0.00021355045122101486
sVcrystal
p1887
F7.118348374033829e-05
sVemotional
p1888
F0.0008186100630138902
sVlatuda
p1889
F0.0
sVreligiously
p1890
F0.0
sVopportunistic
p1891
F0.0
sVevidence
p1892
F0.00024005274274659745
sVexpertise
p1893
F0.0
sVprayer
p1894
F0.0
sVarchive
p1895
F3.559174187016914e-05
sVphysical
p1896
F0.0
sVrehabilitaci
p1897
F0.0
sVnewhealthguide
p1898
F0.0
sVreality
p1899
F0.00014236696748067657
sVevasive
p1900
F0.0
sVtest
p1901
F0.0006058256713010527
sVshrink
p1902
F6.546892983998111e-05
sVwelcome
p1903
F1.0864976965195339e-05
sVupdate
p1904
F3.559174187016914e-05
sVomega
p1905
F0.0
sVinterval
p1906
F0.0
sVtogether
p1907
F0.0
sVramification
p1908
F0.0
sVstick
p1909
F0.0004801054854931949
sVconcept
p1910
F7.118348374033829e-05
sVdance
p1911
F1.3768765256842106e-05
sVsupplement
p1912
F0.0
sVdaytime
p1913
F0.00010677522561050743
sVgrateful
p1914
F0.0
sVbattle
p1915
F0.0001779587093508457
sVsuperpower
p1916
F0.0
sVcertainly
p1917
F8.859632492133424e-05
sVzone
p1918
F1.3768765256842106e-05
sVmallet
p1919
F0.0
sVgraph
p1920
F3.559174187016914e-05
sVflash
p1921
F0.00013093785967996222
sVfreatures
p1922
F0.0
sVcompensate
p1923
F0.0
sVpermanently
p1924
F7.118348374033829e-05
sV50lbs
p1925
F0.0
sVrhythm
p1926
F3.559174187016914e-05
sVterror
p1927
F0.0
sVisotretinion
p1928
F0.0
sVbrown
p1929
F5.5075061027368425e-05
sVincapacitate
p1930
F0.0
sVseemingly
p1931
F7.118348374033829e-05
sVtrouble
p1932
F4.708156684917981e-05
sVblast
p1933
F2.182297661332704e-05
sVaggressively
p1934
F0.0
sVtrifecta
p1935
F0.0
sVfragile
p1936
F3.559174187016914e-05
sVgum
p1937
F7.118348374033829e-05
sVp
p1938
F9.638135679789473e-05
sVsoooo
p1939
F0.00010677522561050743
sVbalacing
p1940
F0.0
sVmoclobemide
p1941
F0.0
sVguy
p1942
F0.0002065314788526316
sVdisqualify
p1943
F0.0
sVdiarrhoea
p1944
F0.0
sVupper
p1945
F0.000249142193091184
sVbrave
p1946
F1.3768765256842106e-05
sVregret
p1947
F0.00010911488306663518
sVhtm
p1948
F0.00014236696748067657
sVrepetitive
p1949
F0.0
sVdiscover
p1950
F4.364595322665408e-05
sVagitate
p1951
F0.0
sVhth
p1952
F0.0
sVtetracyclics
p1953
F0.0
sVcost
p1954
F0.0002065314788526316
sVneuropsychiatry
p1955
F0.0
sVhelpless
p1956
F0.0
sVdadul
p1957
F0.0
sVbfrds
p1958
F0.0
sVsharey
p1959
F0.0
sVappear
p1960
F6.546892983998111e-05
sVassistance
p1961
F0.0
sVthicker
p1962
F7.118348374033829e-05
sVappeal
p1963
F7.118348374033829e-05
sValertness
p1964
F0.0
sVsatisfy
p1965
F0.0
sVunsure
p1966
F0.0
sVteacher
p1967
F3.559174187016914e-05
sVchange
p1968
F0.0012254201078589473
sVbuck
p1969
F3.559174187016914e-05
sVekg
p1970
F0.0
sVtrial
p1971
F0.00045828250887986784
sVjaw
p1972
F6.546892983998111e-05
sVusually
p1973
F0.0007022070280989474
sVmirtazapine
p1974
F0.0
sVpillow
p1975
F7.118348374033829e-05
sVpancreatitis
p1976
F0.0
sVregardless
p1977
F0.00028473393496135314
sVextra
p1978
F0.00012391888731157896
sVsincerely
p1979
F0.0
sVrarely
p1980
F0.0
sVinositol
p1981
F0.0
sVmarket
p1982
F0.00021822976613327036
sVjan
p1983
F0.0
sVprove
p1984
F0.0
sVlive
p1985
F0.00015935299548953166
sVwonderfully
p1986
F0.0
sVtompamax
p1987
F0.0
sVclub
p1988
F7.118348374033829e-05
sVsymptomatic
p1989
F0.0
sVclue
p1990
F4.364595322665408e-05
sVactivvating
p1991
F0.0
sVgraphic
p1992
F3.559174187016914e-05
sVcar
p1993
F5.5075061027368425e-05
sVcap
p1994
F3.559174187016914e-05
sVcat
p1995
F6.546892983998111e-05
sVhardest
p1996
F3.559174187016914e-05
sVtrans
p1997
F4.364595322665408e-05
sVheart
p1998
F0.00034421913142105263
sVsupplementnootropic
p1999
F0.0
sVdecember
p2000
F0.0
sVtopic
p2001
F0.00015276083629328925
sVrefine
p2002
F0.0
sVcardio
p2003
F0.0
sVoccur
p2004
F0.00028473393496135314
sVasociated
p2005
F0.0
sVdantrolene
p2006
F0.0
sVproductive
p2007
F7.118348374033829e-05
sVdialysis
p2008
F3.559174187016914e-05
sVfortunately
p2009
F0.0
sVdiscussion
p2010
F2.182297661332704e-05
sVfreezer
p2011
F4.364595322665408e-05
sVwrite
p2012
F0.00013692159306024382
sVlobe
p2013
F0.0
sVcriterion
p2014
F0.0
sVnonstop
p2015
F7.118348374033829e-05
sVdeteriorate
p2016
F0.0
sVproduct
p2017
F4.364595322665408e-05
sVescalate
p2018
F0.0
sVtorsades
p2019
F0.0
sVdive
p2020
F3.559174187016914e-05
sVsouthern
p2021
F3.559174187016914e-05
sVwiggly
p2022
F0.0
sVproduce
p2023
F0.00021822976613327036
sVendgame
p2024
F0.0
sVcompatibility
p2025
F7.118348374033829e-05
sVremember
p2026
F0.00015935299548953166
sVwhenever
p2027
F0.00010911488306663518
sVturkeyed
p2028
F0.0
sVcrumple
p2029
F0.0
sVobgyn
p2030
F0.0
sVtypical
p2031
F0.00010911488306663518
sVapprox
p2032
F3.559174187016914e-05
sVendep
p2033
F0.0
sVindeed
p2034
F4.130629577052632e-05
sVcounsellor
p2035
F0.0
sVbrain
p2036
F0.002230539971608421
sVthinner
p2037
F2.182297661332704e-05
sVpolycystic
p2038
F0.0
sVcold
p2039
F0.0006609007323284211
sVstill
p2040
F0.0
sVethic
p2041
F0.0
sVacknowledge
p2042
F0.0
sVwindow
p2043
F8.05421135648493e-06
sVnon
p2044
F0.00016659631346632853
sVundiagnosed
p2045
F0.0
sVnod
p2046
F7.118348374033829e-05
sVnoe
p2047
F0.0
sVintroduce
p2048
F0.00014236696748067657
sVadrenaline
p2049
F0.0
sVhalf
p2050
F0.00012675806459394563
sVrecap
p2051
F3.559174187016914e-05
sVnov
p2052
F0.0
sVhalo
p2053
F0.0
sVwont
p2054
F3.559174187016914e-05
sVsusceptibility
p2055
F0.0
sVorgan
p2056
F0.00014236696748067657
sVjanuary
p2057
F0.0
sVdrop
p2058
F0.0003992941924484211
sVconcerta
p2059
F0.0
sVh
p2060
F2.7537530513684212e-05
sVentirely
p2061
F0.00011275895899078902
sVaspergers
p2062
F0.0
sVem
p2063
F2.4162634069454792e-05
sVel
p2064
F0.0004271009024420297
sVen
p2065
F0.0001745838129066163
sVsignificantly
p2066
F0.0
sVed
p2067
F6.546892983998111e-05
sVea
p2068
F0.0
sVyeah
p2069
F0.0008292731113064276
sVgoose
p2070
F0.0
sVwrap
p2071
F2.7537530513684212e-05
sVex
p2072
F6.546892983998111e-05
sVyear
p2073
F0.0010502811066355495
sVokay
p2074
F0.0006328663217864841
sVhappen
p2075
F0.0006443369085187944
sVamusement
p2076
F0.0
sVer
p2077
F0.00015145641782526317
sVaccomplish
p2078
F0.0
sVspace
p2079
F6.546892983998111e-05
sVfurthermore
p2080
F3.559174187016914e-05
sVtingly
p2081
F0.0
sVincrease
p2082
F0.0020295368250394146
sVopener
p2083
F3.559174187016914e-05
sVrational
p2084
F0.0
sVshithead
p2085
F3.559174187016914e-05
sVscrew
p2086
F0.00015276083629328925
sVcart
p2087
F2.182297661332704e-05
sVdiagnostic
p2088
F0.0
sVargh
p2089
F0.0
sVunwanted
p2090
F0.0001779587093508457
sVcarb
p2091
F2.182297661332704e-05
sVobligation
p2092
F7.118348374033829e-05
sVrls
p2093
F0.0
sVcare
p2094
F0.001222086690346314
sVcouldn
p2095
F0.0002899516088334575
sVdeprivation
p2096
F0.0
sVtransition
p2097
F0.0001745838129066163
sVantidepressnats
p2098
F0.0
sVhonest
p2099
F0.00015145641782526317
sVdisable
p2100
F7.118348374033829e-05
sVpromotion
p2101
F3.559174187016914e-05
sVsuffice
p2102
F3.559174187016914e-05
sVduloxeotine
p2103
F0.0
sVblind
p2104
F8.729190645330815e-05
sVxd
p2105
F0.0
sVdirectly
p2106
F5.5075061027368425e-05
sVxr
p2107
F0.0
sVimpossible
p2108
F0.00026187571935992445
sVring
p2109
F6.546892983998111e-05
sVtomorrow
p2110
F0.00021355045122101486
sVzap
p2111
F0.001779587093508457
sVprintillex
p2112
F0.0
sVremotely
p2113
F2.182297661332704e-05
sVfriend
p2114
F0.00012675806459394563
sVajustar
p2115
F0.0
sVmostly
p2116
F0.00037175666193473684
sVx2
p2117
F0.0
sVuracil
p2118
F0.0
sVpng
p2119
F7.118348374033829e-05
sVcrack
p2120
F4.364595322665408e-05
sVovertire
p2121
F0.0
sVrecruit
p2122
F0.0
sVmagnesium
p2123
F0.0
sVdecompose
p2124
F0.0
sVdemotivation
p2125
F0.0
sVslap
p2126
F3.559174187016914e-05
sVinpatient
p2127
F0.0
sVanger
p2128
F0.00024005274274659745
sVbreakfast
p2129
F8.729190645330815e-05
sVrecover
p2130
F6.884382628421053e-05
sVgambapintine
p2131
F0.0
sVonline
p2132
F0.00019640678951994334
sVobjective
p2133
F0.0
sVwch
p2134
F0.0
sVimpairment
p2135
F0.0
sVbutalbital
p2136
F0.0
sVbegin
p2137
F0.00034421913142105263
sVstrattera
p2138
F0.0
sVoppressive
p2139
F0.0
sVprice
p2140
F0.00012391888731157896
sVshitter
p2141
F0.0
sVforever
p2142
F0.00024005274274659745
sVegg
p2143
F0.0001779587093508457
sVsteady
p2144
F0.0
sVmri
p2145
F0.0
sVprofessional
p2146
F0.00021822976613327036
sVtypically
p2147
F0.0005694678699227063
sVagoinst
p2148
F0.0
sVfifth
p2149
F3.559174187016914e-05
sVground
p2150
F1.3768765256842106e-05
sVsnack
p2151
F7.118348374033829e-05
sVratio
p2152
F3.559174187016914e-05
sVstair
p2153
F0.0
sVtitle
p2154
F6.546892983998111e-05
sVproportion
p2155
F0.0
sVjolt
p2156
F0.0
sValcoholism
p2157
F7.118348374033829e-05
sVsooo
p2158
F7.118348374033829e-05
sVroutine
p2159
F0.00013093785967996222
sVtruly
p2160
F0.00015276083629328925
sVcannot
p2161
F0.0001610842271296986
sVseldom
p2162
F3.559174187016914e-05
sVhusband
p2163
F0.0006983352516264652
sVconcert
p2164
F3.559174187016914e-05
sVcontac
p2165
F0.0
sVburst
p2166
F4.364595322665408e-05
sVphysically
p2167
F0.00046269264431219887
sVnamely
p2168
F0.0
sVactively
p2169
F0.0
sVasleep
p2170
F0.0001745838129066163
sVsport
p2171
F2.182297661332704e-05
sVconcern
p2172
F0.000996568772364736
sV3
p2173
F0.0008698548265003726
sVherbal
p2174
F7.118348374033829e-05
sVunprescribed
p2175
F0.0
sVnotice
p2176
F0.0003221684542593972
sVblame
p2177
F6.884382628421053e-05
sVarticle
p2178
F1.3768765256842106e-05
sVhurty
p2179
F0.0
sVsignifigant
p2180
F0.0
sVmono
p2181
F0.00010677522561050743
sVmoreso
p2182
F0.0
sVndri
p2183
F0.0
sVpray
p2184
F1.3768765256842106e-05
sVnewfound
p2185
F3.559174187016914e-05
sVnoopept
p2186
F0.0
sVnearby
p2187
F2.182297661332704e-05
sVmadness
p2188
F0.0
sVexploit
p2189
F3.559174187016914e-05
sVmoreover
p2190
F0.0
sVneurogenesis
p2191
F0.0
sV18mg
p2192
F0.0
sVmarkedly
p2193
F0.0
sVexhaustion
p2194
F0.00010677522561050743
sValiquot
p2195
F0.0
sVcystitis
p2196
F0.0
sVexternal
p2197
F2.182297661332704e-05
sVfoggy
p2198
F0.00010677522561050743
sV1mg
p2199
F0.0
sVmight
p2200
F0.000438220737596212
sValter
p2201
F0.0
sVtrick
p2202
F8.261259154105263e-05
sVtrich
p2203
F0.0
sVoligopoly
p2204
F0.0
sVmetric
p2205
F3.559174187016914e-05
sVworry
p2206
F0.00021746370662509314
sVdevelop
p2207
F0.0005455744153331759
sVassure
p2208
F3.559174187016914e-05
sVinquire
p2209
F3.559174187016914e-05
sVpester
p2210
F0.0
sVfood
p2211
F0.00029800582018994244
sVcoworkers
p2212
F3.559174187016914e-05
sVfinish
p2213
F6.884382628421053e-05
sVclosest
p2214
F4.364595322665408e-05
sVenjoyment
p2215
F0.0
sVcymbal
p2216
F0.0
sVfruit
p2217
F4.8325268138909584e-05
sVanecdotal
p2218
F0.0
sVvalidate
p2219
F0.0
sVmentally
p2220
F0.0004271009024420297
sVsevere
p2221
F0.0010475028774396978
sVcomplainer
p2222
F0.0
sVotherwise
p2223
F0.00024783777462315793
sVescitalopram
p2224
F0.0
sVknowledgeable
p2225
F0.0
sVinflammatory
p2226
F0.0
sVtouch
p2227
F0.00011275895899078902
sVspeed
p2228
F1.4486635953593787e-05
sVhomeostasis
p2229
F0.0
sVdeath
p2230
F0.0002065314788526316
sVlegitimately
p2231
F0.0
sVdopaminergic
p2232
F0.0
sVimprovement
p2233
F0.0004801054854931949
sVverse
p2234
F0.0
sVtreatment
p2235
F0.002704972382132855
sVversa
p2236
F0.00010677522561050743
sVreal
p2237
F0.0
sVhover
p2238
F3.559174187016914e-05
sVspectacular
p2239
F0.0
sVohai
p2240
F0.0
sVread
p2241
F0.00038660214511127667
sVpsc
p2242
F0.0
sVpsilocin
p2243
F0.0
sVsplenda
p2244
F0.0
sVgonna
p2245
F0.00015145641782526317
sVbuspirone
p2246
F0.0
sVtingle
p2247
F0.0
sVpolitely
p2248
F3.559174187016914e-05
sVlady
p2249
F6.443369085187944e-05
sVtegretol
p2250
F0.0
sVpostcard
p2251
F0.0
sVmiracle
p2252
F0.0
sVbenefit
p2253
F0.001494853158547104
sVie
p2254
F3.559174187016914e-05
sVoverbooked
p2255
F0.0
sVtwelve
p2256
F3.559174187016914e-05
sVduration
p2257
F0.0
sVanxeity
p2258
F0.0
sVbless
p2259
F4.364595322665408e-05
sVkaiser
p2260
F0.0
sVdebacle
p2261
F0.0
sVbusiness
p2262
F7.243317976796893e-06
sVasap
p2263
F0.0
sVthrob
p2264
F0.00010677522561050743
sVsixty
p2265
F0.0
sVsadder
p2266
F0.0
sVthrow
p2267
F0.0003055216725865785
sVcomparison
p2268
F4.364595322665408e-05
sVhiatus
p2269
F0.0
sVchop
p2270
F3.559174187016914e-05
sVbenzos
p2271
F0.0
sVwolf
p2272
F0.0
sVgreatly
p2273
F0.00010677522561050743
sVbackup
p2274
F7.118348374033829e-05
sVoutlook
p2275
F0.00010911488306663518
sVvariable
p2276
F4.364595322665408e-05
sVbedtime
p2277
F0.0
sVintervention
p2278
F3.559174187016914e-05
sVstare
p2279
F3.559174187016914e-05
sVlog
p2280
F0.000249142193091184
sVprepare
p2281
F0.0003203256768315223
sVarea
p2282
F2.8973271907187574e-05
sVaren
p2283
F0.00012313640560554718
sVlon
p2284
F0.0
sVlol
p2285
F0.0006050596117928754
sVlos
p2286
F0.0
sVlow
p2287
F0.00039465635646776157
sVlot
p2288
F0.0
sVallergic
p2289
F0.000249142193091184
sVpitcher
p2290
F0.0
sVmanipulative
p2291
F0.0
sVhire
p2292
F3.559174187016914e-05
sVstanford
p2293
F0.0
sVsadness
p2294
F0.0
sVoverpay
p2295
F0.0
sVloneliness
p2296
F0.0
sVtrigeminal
p2297
F0.0
sV600
p2298
F4.364595322665408e-05
sVlofstrand
p2299
F0.0
sVdescribe
p2300
F0.0003709906024265596
sV1200
p2301
F0.0
sV225mg
p2302
F0.0
sVsheath
p2303
F0.00014236696748067657
sVhazyness
p2304
F0.0
sVdeprogram
p2305
F0.0
sVabsurdity
p2306
F0.0
sVselfishly
p2307
F3.559174187016914e-05
sVstorage
p2308
F3.559174187016914e-05
sVpoor
p2309
F1.4486635953593787e-05
sVpolar
p2310
F0.0001779587093508457
sVpoop
p2311
F0.00010677522561050743
sVtime
p2312
F0.0
sVdrift
p2313
F0.0
sVcuerpo
p2314
F0.0
sVvertigo
p2315
F0.00014236696748067657
sVpoof
p2316
F0.0
sVpeak
p2317
F6.546892983998111e-05
sVcoverage
p2318
F0.0
sVpool
p2319
F3.559174187016914e-05
sVhealty
p2320
F0.0
sVcrimefest
p2321
F0.0
sVunbind
p2322
F0.0
sVinevitability
p2323
F0.0
sVapathy
p2324
F3.559174187016914e-05
sVpticos
p2325
F0.0
sVskeleton
p2326
F1.3768765256842106e-05
sVmetaphor
p2327
F0.00010677522561050743
sVmonth
p2328
F0.0017074928075748051
sVthoughtful
p2329
F7.118348374033829e-05
sVviability
p2330
F0.0
sVreligious
p2331
F4.364595322665408e-05
sV15lbs
p2332
F0.0
sVhabla
p2333
F0.0
sVinsulate
p2334
F0.0
sVsafety
p2335
F2.182297661332704e-05
sVpatently
p2336
F0.0
sVhorror
p2337
F0.000249142193091184
sVhepatocellular
p2338
F0.0
sVdecide
p2339
F0.0008510960879197546
sVheaven
p2340
F2.182297661332704e-05
sVdeficient
p2341
F0.0
sVmanager
p2342
F2.182297661332704e-05
sVmenos
p2343
F0.0
sVsedation
p2344
F0.0
sVblackout
p2345
F0.0
sVfence
p2346
F2.182297661332704e-05
sVstigmatize
p2347
F0.0
sVunheard
p2348
F0.0
sVfrontal
p2349
F0.00010911488306663518
sVorgasm
p2350
F0.0005694678699227063
sVcasual
p2351
F2.182297661332704e-05
sVchuckle
p2352
F0.0
sVinduce
p2353
F0.0
sVaricept
p2354
F0.0
sVblindside
p2355
F0.0
sVefexxor
p2356
F0.0
sVloose
p2357
F0.00012391888731157896
sVmodify
p2358
F0.0003203256768315223
sVselective
p2359
F0.0
sVyummy
p2360
F3.559174187016914e-05
sVstrong
p2361
F0.0002203002441094737
sVrespect
p2362
F6.884382628421053e-05
sVarena
p2363
F0.0
sVdeductible
p2364
F0.0
sVahead
p2365
F6.884382628421053e-05
sVmdma
p2366
F0.0
sVvegetarian
p2367
F2.182297661332704e-05
sVthursday
p2368
F0.0
sVwhine
p2369
F0.0
sVshiznit
p2370
F0.0
sVamount
p2371
F0.0004406004882189474
sVheroin
p2372
F0.0001779587093508457
sVarent
p2373
F3.559174187016914e-05
sVheartbroken
p2374
F0.0
sVlurker
p2375
F0.0
sVtoughness
p2376
F0.0
sVjra
p2377
F0.0
sVfather
p2378
F8.261259154105263e-05
sVsleeeeepy
p2379
F0.0
sVput
p2380
F0.00035492258086304774
sVeldepryl
p2381
F0.0
sVnauseam
p2382
F0.0
sVconventional
p2383
F3.559174187016914e-05
sV0
p2384
F0.00013093785967996222
sVrevelation
p2385
F3.559174187016914e-05
sVprilosec
p2386
F0.0
sVinjury
p2387
F0.0001779587093508457
sVoutpatient
p2388
F0.0
sVsurprisingly
p2389
F3.559174187016914e-05
sVexcuse
p2390
F9.638135679789473e-05
sVimpulse
p2391
F7.118348374033829e-05
sVomniscience
p2392
F0.0
sVnine
p2393
F8.05421135648493e-06
sVtitrate
p2394
F0.0
sVhistory
p2395
F0.00015145641782526317
sVpusher
p2396
F0.0
sVptata
p2397
F0.0
sVreject
p2398
F3.559174187016914e-05
sViproniazid
p2399
F0.0
sVgash
p2400
F0.0
sVfr
p2401
F7.118348374033829e-05
sVrude
p2402
F3.559174187016914e-05
sVoverprescribing
p2403
F0.0
sVreuptake
p2404
F0.0
sVidiocy
p2405
F0.0
sVfi
p2406
F3.559174187016914e-05
sVfm
p2407
F0.0
sVmorphine
p2408
F0.00014236696748067657
sVzyprexa
p2409
F0.0
sVovernight
p2410
F3.559174187016914e-05
sVanytime
p2411
F0.00014236696748067657
sVbready
p2412
F3.559174187016914e-05
sVego
p2413
F0.0
sVdread
p2414
F0.0
sVdream
p2415
F0.0005455744153331759
sVfeed
p2416
F4.364595322665408e-05
sVhelp
p2417
F0.0014812585262549646
sVslouch
p2418
F0.0
sVurine
p2419
F3.559174187016914e-05
sVsoon
p2420
F9.054147470996116e-05
sVhell
p2421
F0.0005782881407873685
sVoldschool
p2422
F0.0
sVoverhead
p2423
F2.182297661332704e-05
sVactually
p2424
F0.00033319262693265705
sVabsence
p2425
F0.0
sVadrs
p2426
F0.0
sVyo
p2427
F2.182297661332704e-05
sVya
p2428
F0.00010911488306663518
sV2yrs
p2429
F0.0
sVbuy_this_book_stahls_illustrated_adhd_reviewed_by
p2430
F0.0
sVvomit
p2431
F0.0003203256768315223
sVstarbucks
p2432
F0.0
sVdosulepin
p2433
F0.0
sVfoot
p2434
F0.00011015012205473685
sVyr
p2435
F0.00014236696748067657
sVdesperately
p2436
F2.182297661332704e-05
sVfully
p2437
F6.443369085187944e-05
sVcapability
p2438
F0.0
sVheavy
p2439
F8.05421135648493e-05
sVrestless
p2440
F0.0
sVtighten
p2441
F0.0
sVtherepy
p2442
F0.0
sVbland
p2443
F0.0
sVbeyond
p2444
F3.6216589883984466e-05
sVtodo
p2445
F0.0
sVevent
p2446
F0.00015145641782526317
sVtryciclic
p2447
F0.0
sVamaryl
p2448
F0.0
sVsince
p2449
F0.0005070322583757825
sVpublish
p2450
F0.0
sVsustain
p2451
F0.0
sV7
p2452
F0.00020135528391212326
sVissue
p2453
F0.0014870266477389473
sVdrink
p2454
F0.00019194792638511766
sVbass
p2455
F2.182297661332704e-05
sVtimeline
p2456
F0.0
sVribose
p2457
F0.0
sVpub
p2458
F0.00010677522561050743
sVreason
p2459
F0.0004993611041020657
sVbase
p2460
F0.0001530300157732137
sVwellbutin
p2461
F0.0
sVask
p2462
F0.0003802741937818369
sVpup
p2463
F0.0
sVbash
p2464
F3.559174187016914e-05
sVterrible
p2465
F0.00024783777462315793
sVterribly
p2466
F2.182297661332704e-05
sVamerican
p2467
F0.0
sVheartbeat
p2468
F0.00010677522561050743
sVblush
p2469
F3.559174187016914e-05
sVmerry
p2470
F0.0
sVchronicpain
p2471
F0.0
sVprobability
p2472
F0.0
sVmisc
p2473
F3.559174187016914e-05
sVelder
p2474
F0.0
sVunexpected
p2475
F3.559174187016914e-05
sVgpc
p2476
F0.0
sVmiss
p2477
F0.0001629746544779301
sVpropranolol
p2478
F0.0
sVhorse
p2479
F6.884382628421053e-05
sVwonderful
p2480
F0.00011015012205473685
sVhundred
p2481
F1.610842271296986e-05
sVbanana
p2482
F1.3768765256842106e-05
sVbowel
p2483
F0.0
sVbasal
p2484
F0.0
sVnco
p2485
F0.0
sVsign
p2486
F5.43248848259767e-05
sVstd
p2487
F3.559174187016914e-05
sVgrocery
p2488
F0.0001779587093508457
sVvalporic
p2489
F0.0
sVanticipate
p2490
F0.0
sVintuniv
p2491
F0.0
sVgrey
p2492
F6.546892983998111e-05
sVgrogginess
p2493
F0.0
sVcysteine
p2494
F0.0
sVtoward
p2495
F4.364595322665408e-05
sV70mg
p2496
F0.0
sVtofranil
p2497
F0.0
sVphobia
p2498
F3.559174187016914e-05
sVwasnt
p2499
F0.0
sVheaviest
p2500
F0.0
sVoverstate
p2501
F0.0
sVrandomly
p2502
F0.000249142193091184
sVjuice
p2503
F6.546892983998111e-05
sVsubstantial
p2504
F7.118348374033829e-05
sVconcentration
p2505
F6.546892983998111e-05
sVvulnerable
p2506
F3.559174187016914e-05
sVlie
p2507
F0.00016522518308210527
sVaccutane
p2508
F0.0
sVlexicomp
p2509
F0.0
sVhospitalise
p2510
F0.0
sVuseless
p2511
F0.00010677522561050743
sVtowards
p2512
F1.4486635953593787e-05
sVfibrositis
p2513
F0.0
sVhirer
p2514
F0.0
sVeater
p2515
F0.0
sValpha
p2516
F0.00039150916057186056
sVsalary
p2517
F0.0
sVnot_here_for_medical_advise
p2518
F0.0
sVsturdy
p2519
F0.0
sVclear
p2520
F6.156820280277359e-05
sVunreasonable
p2521
F7.118348374033829e-05
sVunreasonably
p2522
F3.559174187016914e-05
sVclean
p2523
F3.6216589883984466e-05
sVusual
p2524
F0.00014236696748067657
sVperseverance
p2525
F0.0
sVhyper
p2526
F0.0
sVhumid
p2527
F0.0
sVacerbic
p2528
F0.0
sVflicker
p2529
F3.559174187016914e-05
sVbooze
p2530
F3.559174187016914e-05
sVglycinate
p2531
F0.0
sVparanoid
p2532
F0.00014236696748067657
sVparanoia
p2533
F0.0
sVsubsection
p2534
F0.0
sVcircle
p2535
F0.0
sVmeanwhile
p2536
F0.0
sVattention_deficit_hyperactivity_disorder_management
p2537
F0.0
sVcapsule
p2538
F0.0006050596117928754
sVbasement
p2539
F3.559174187016914e-05
sVoxy
p2540
F0.0
sVboost
p2541
F0.0
sVhypo
p2542
F0.0
sVwithdrawal
p2543
F0.0
sVx
p2544
F0.00014236696748067657
sVneuropathic_pain
p2545
F0.0
sVcramp
p2546
F0.0
sVneurotransmittters
p2547
F0.0
sVschizophrenic
p2548
F0.0
sVculture
p2549
F3.559174187016914e-05
sVarthitis
p2550
F0.0
sVrtms
p2551
F0.0
sVlocalize
p2552
F3.559174187016914e-05
sVclose
p2553
F0.00015145641782526317
sVhorrid
p2554
F0.0
sVwow
p2555
F0.00028473393496135314
sVconditiona
p2556
F0.0
sVprobably
p2557
F0.000579903217666915
sVua8zm9sttky
p2558
F0.0
sVtarazadone
p2559
F0.0
sVanticholinergic
p2560
F0.0
sVnotoriously
p2561
F0.0
sVspray
p2562
F3.559174187016914e-05
sVinvisible
p2563
F4.364595322665408e-05
sVabruptly
p2564
F7.118348374033829e-05
sV230lbs
p2565
F0.0
sVsensitive
p2566
F0.00011275895899078902
sVanticonvulants
p2567
F0.0
sVbuzz
p2568
F4.364595322665408e-05
sVhistamine
p2569
F0.0
sVmitragyna
p2570
F0.0
sVwhatever
p2571
F0.00026578897476400273
sVderealisation
p2572
F0.0
sV100mg
p2573
F0.0
sVforseeable
p2574
F0.0
sVdamp
p2575
F0.0
sVdamn
p2576
F0.000498284386182368
sVmaintenance
p2577
F0.0
sVthreaten
p2578
F0.00010677522561050743
sVempty
p2579
F1.8108294941992233e-05
sVdame
p2580
F3.559174187016914e-05
sVolazipine
p2581
F0.0
sValongside
p2582
F4.364595322665408e-05
sVpartly
p2583
F2.182297661332704e-05
sVwet
p2584
F4.364595322665408e-05
sVelse
p2585
F0.00019919124436191456
sVliver
p2586
F0.000611043345173157
sVlook
p2587
F0.0003368142859210555
sVsulfasalazine
p2588
F0.0
sVkragen
p2589
F0.0
sVpace
p2590
F0.0
sVmatch
p2591
F1.3768765256842106e-05
sVfleet
p2592
F3.559174187016914e-05
sVguide
p2593
F0.0001779587093508457
sVloop
p2594
F7.118348374033829e-05
sVpack
p2595
F8.859632492133424e-05
sV10000
p2596
F0.0
sVmicrobeads
p2597
F0.0
sVfibromite
p2598
F0.0
sVready
p2599
F2.1729953930390678e-05
sVhydromorphone
p2600
F0.0
sVbaseline
p2601
F0.000249142193091184
sVanymore
p2602
F0.0004406004882189474
sVgrant
p2603
F0.0
sVtemporary
p2604
F0.0003559174187016914
sVfatty
p2605
F3.559174187016914e-05
sVbonus
p2606
F0.00010677522561050743
sVoverweight
p2607
F0.0
sV000
p2608
F0.00014236696748067657
sVuser
p2609
F0.0002836986959732515
sVolder
p2610
F5.637947949539451e-05
sVobviously
p2611
F0.00019276271359578947
sVmassage
p2612
F0.00039150916057186056
sVconsistency
p2613
F0.0
sVgenuinely
p2614
F0.00014236696748067657
sVchore
p2615
F0.0
sVchord
p2616
F7.118348374033829e-05
sVtolerability
p2617
F0.0
sVbeurcrat
p2618
F0.0
sVhabituate
p2619
F0.0
sVlip
p2620
F2.182297661332704e-05
sVnaproxen
p2621
F0.0
sVmarch
p2622
F3.559174187016914e-05
sVdeberia
p2623
F0.0
sVevaluate
p2624
F0.0
sVgame
p2625
F0.00017719264984266848
sVsignal
p2626
F0.0002836986959732515
sVcompulsivity
p2627
F0.0
sVmanifest
p2628
F0.00021355045122101486
sVpopular
p2629
F0.00028473393496135314
sVterminology
p2630
F0.0
sVsoma
p2631
F0.0
sVmmmmm
p2632
F0.0
sV28th
p2633
F0.0
sVunstuck
p2634
F0.0
sVsheen
p2635
F0.0
sVdull
p2636
F0.00013093785967996222
sVreckon
p2637
F0.0
sVminimal
p2638
F0.0
sVeverybody
p2639
F0.0001745838129066163
sVdehydrate
p2640
F0.0
sVrun
p2641
F0.00013400138257074252
sVsteg
p2642
F0.0
sVrub
p2643
F3.559174187016914e-05
sVstem
p2644
F0.0
sVstep
p2645
F0.00013692159306024382
sVache
p2646
F0.0
sVtaboo
p2647
F0.0
sVrut
p2648
F0.0
sVfaith
p2649
F6.546892983998111e-05
sVidt
p2650
F0.0
sVaskreddit
p2651
F0.0
sVidk
p2652
F0.0
sVtherapeutic
p2653
F0.0
sVblock
p2654
F0.00043645953226654073
sVdude
p2655
F7.118348374033829e-05
sVwithin
p2656
F0.0001610842271296986
sVnonsense
p2657
F0.0
sVwaffer
p2658
F0.0
sVphenypiracetam
p2659
F0.0
sVaftertaste
p2660
F0.0
sVmanufacture
p2661
F0.0
sVpsychoactive
p2662
F0.0
sVproperly
p2663
F7.248790220836437e-05
sVnewer
p2664
F0.0001779587093508457
sVrussian
p2665
F3.559174187016914e-05
sVinjection
p2666
F0.0
sVtachycardia
p2667
F0.0
sVinfo
p2668
F0.000249142193091184
sVchiropractor
p2669
F3.559174187016914e-05
sVskull
p2670
F0.00010677522561050743
sVuti
p2671
F0.0
sVpsychosis
p2672
F0.0
sVsimilar
p2673
F0.0003382768769723671
sVmalic
p2674
F0.0
sVtricyclic
p2675
F0.0
sVestrogen
p2676
F0.00021355045122101486
sVmindful
p2677
F0.0
sVdoesn
p2678
F0.00032957096794425866
sVkidney
p2679
F0.00028473393496135314
sVdepakote
p2680
F0.0
sVnad
p2681
F0.0
sVapplication
p2682
F4.364595322665408e-05
sVnap
p2683
F0.0
sVelectrical
p2684
F0.00028473393496135314
sVfuzzier
p2685
F0.0
sVdepartment
p2686
F7.118348374033829e-05
sVshrug
p2687
F0.0
sVdraw
p2688
F3.6216589883984467e-06
sV450mg
p2689
F0.0
sVoste
p2690
F0.0
sVdrag
p2691
F2.4162634069454792e-05
sVheroine
p2692
F0.0
sVstructure
p2693
F3.559174187016914e-05
sVindependently
p2694
F0.0
sVe
p2695
F5.0703225837578245e-05
sVpractically
p2696
F3.559174187016914e-05
sVsedative
p2697
F0.0
sVwellbeing
p2698
F0.0
sVorbit
p2699
F0.0
sVdepth
p2700
F2.7537530513684212e-05
sVignorant
p2701
F7.118348374033829e-05
sVavoid
p2702
F0.00022551791798157804
sVpsychs
p2703
F0.0
sVgp
p2704
F0.0
sVpsyche
p2705
F0.0
sVgf
p2706
F0.0
sVge
p2707
F0.0
sVhypothyroidism
p2708
F0.0
sVgb
p2709
F0.0
sVgo
p2710
F0.0
sVpsychi
p2711
F0.0
sVgi
p2712
F0.0
sVwizard
p2713
F3.559174187016914e-05
sVselegiline
p2714
F0.0
sVguanfacine
p2715
F0.0
sVfriendly
p2716
F2.182297661332704e-05
sVfond
p2717
F0.0
sVsausal
p2718
F0.0
sVwave
p2719
F2.7537530513684212e-05
sVfacebook
p2720
F0.0
sVnausea
p2721
F0.0
sVmodulator
p2722
F0.0
sVstiff
p2723
F3.559174187016914e-05
sVgender
p2724
F0.0
sVbutton
p2725
F4.364595322665408e-05
sVhive
p2726
F0.0
sVpostural
p2727
F0.0
sVsedentary
p2728
F0.0
sVtriplicate
p2729
F0.0
sVstoppingbrainzaps
p2730
F0.0
sVjump
p2731
F0.00012391888731157896
sVclick
p2732
F4.130629577052632e-05
sVsausage
p2733
F7.118348374033829e-05
sVpoke
p2734
F3.559174187016914e-05
sVwallet
p2735
F2.182297661332704e-05
sVbluntly
p2736
F0.0
sVexacerbate
p2737
F0.0
sVunhelpful
p2738
F2.182297661332704e-05
sValprazolam
p2739
F0.0
sVexperiment
p2740
F0.00026187571935992445
sVvolatile
p2741
F3.559174187016914e-05
sV45lbs
p2742
F0.0
sVpediatrics
p2743
F0.0
sVstance
p2744
F0.0
sVcommercial
p2745
F0.00021355045122101486
sVwihtdrawal
p2746
F0.0
sVderealised
p2747
F0.0
sVprescibed
p2748
F0.0
sVgene
p2749
F0.00021355045122101486
sVsalvation
p2750
F0.0
sVfruitvale
p2751
F0.0
sVflexeril
p2752
F0.0
sVstabilization
p2753
F0.0
sVclaim
p2754
F5.5075061027368425e-05
sVwin
p2755
F0.0004956755492463159
sVmanage
p2756
F0.0004130629577052632
sVwit
p2757
F2.182297661332704e-05
sVwiz
p2758
F0.0
sVcloud
p2759
F0.0
sValbuterol
p2760
F0.0
sVtcas
p2761
F0.0
sVcrap
p2762
F0.00010911488306663518
sVheadachejournal
p2763
F0.0
sVperiodically
p2764
F6.546892983998111e-05
sVcontentment
p2765
F0.0
sVvehicle
p2766
F3.559174187016914e-05
sVhistorically
p2767
F0.0
sVhydro
p2768
F0.0
sVformally
p2769
F3.559174187016914e-05
sVendocrinologist
p2770
F0.0
sVabilafy
p2771
F0.0
sVinattentive
p2772
F3.559174187016914e-05
sVmythical
p2773
F0.0
sVsalad
p2774
F3.559174187016914e-05
sVzyrtec
p2775
F0.0
sVride
p2776
F0.00012391888731157896
sVfetzima
p2777
F0.0
sVmeet
p2778
F0.00013093785967996222
sVnurture
p2779
F0.0
sVinhibitor
p2780
F0.0
sVwiuld
p2781
F0.0
sVcontrol
p2782
F0.0010693258540530248
sVporque
p2783
F0.0
sVpainkiller
p2784
F0.0
sVhalloween
p2785
F0.0
sVanorgasamia
p2786
F0.0
sVhit
p2787
F0.00026578897476400273
sVskirt
p2788
F2.182297661332704e-05
sVhesitate
p2789
F0.0
sVneurotin
p2790
F0.0
sVvibe
p2791
F3.559174187016914e-05
sVneurotic
p2792
F0.0
sVelliptical
p2793
F0.0
sVinstinctively
p2794
F0.0
sVfart
p2795
F4.364595322665408e-05
sVfatigue
p2796
F0.0
sVexcedrin
p2797
F0.0
sVbakery
p2798
F0.0
sVhealthcare
p2799
F0.0
sVserotonergic
p2800
F0.0
sVastronomical
p2801
F0.0
sVmajorly
p2802
F0.0
sVexclusion
p2803
F0.0
sVimbalance
p2804
F0.0
sVbiopsychosocial
p2805
F0.0
sVauto
p2806
F3.559174187016914e-05
sVcamino
p2807
F0.0
sVfront
p2808
F3.221684542593972e-05
sVcyclobenzaprine
p2809
F0.0
sVhandy
p2810
F3.559174187016914e-05
sVuniversity
p2811
F3.559174187016914e-05
sVpsycosis
p2812
F0.0
sVmode
p2813
F6.546892983998111e-05
sVfrickin
p2814
F3.559174187016914e-05
sVilluminate
p2815
F3.559174187016914e-05
sVseesaw
p2816
F0.0
sVmeasure
p2817
F4.130629577052632e-05
sVbritta
p2818
F0.0
sVsteadier
p2819
F0.0
sVhla
p2820
F0.0
sVhooha
p2821
F0.0
sVcause
p2822
F0.0005686004611785561
sVumbrella
p2823
F3.559174187016914e-05
sVthorizine
p2824
F0.0
sVcompletely
p2825
F0.0003704937223983068
sVect
p2826
F0.0
sVroute
p2827
F0.00015145641782526317
sVflorida
p2828
F0.0
sVkeep
p2829
F0.00042373410164261825
sVkeen
p2830
F2.182297661332704e-05
sVnurontin
p2831
F0.0
sVblogger
p2832
F3.559174187016914e-05
sVpowerful
p2833
F0.00014236696748067657
sVredefine
p2834
F0.0
sVcardiac
p2835
F0.0
sVbitch
p2836
F0.0003559174187016914
sVdrinker
p2837
F7.118348374033829e-05
sVprecisely
p2838
F0.0
sVquality
p2839
F0.00016522518308210527
sVlong
p2840
F0.0
sVattack
p2841
F0.00020940949526860822
sVankle
p2842
F0.0
sVneurotransmitter
p2843
F0.0
sVperfectly
p2844
F0.00012391888731157896
sVprone
p2845
F0.0
sVcyp
p2846
F0.0
sVpunish
p2847
F3.559174187016914e-05
sVexactly
p2848
F0.00019330107255563833
sVcya
p2849
F0.0
sVfuzzy
p2850
F0.0
sVconvulsants
p2851
F0.0
sVneck
p2852
F0.00010911488306663518
sVultimatum
p2853
F0.0
sVbloat
p2854
F3.559174187016914e-05
sVaspiration
p2855
F0.0
sVschizophrenia
p2856
F0.00014236696748067657
sVbed
p2857
F0.0007856271580797733
sVlactmed
p2858
F0.0
sV6th
p2859
F3.559174187016914e-05
sVbare
p2860
F4.364595322665408e-05
sVreferral
p2861
F0.0
sVbet
p2862
F6.443369085187944e-05
sVexhibit
p2863
F7.118348374033829e-05
sVlightly
p2864
F3.559174187016914e-05
sVtorment
p2865
F0.0
sVneed
p2866
F0.0008402248853084396
sVborder
p2867
F2.182297661332704e-05
sVq
p2868
F0.0
sVable
p2869
F0.0006523911198752794
sVrepercussion
p2870
F0.0
sVinstance
p2871
F0.00011015012205473685
sVbrand
p2872
F0.0002203002441094737
sVmileage
p2873
F0.0
sVdeploy
p2874
F0.0
sVpassionately
p2875
F3.559174187016914e-05
sVtechnicality
p2876
F0.0
sVacupuncturist
p2877
F0.0
sVzombification
p2878
F0.0
sVcellphone
p2879
F0.0
sVupset
p2880
F0.00021355045122101486
sVpschiatrist
p2881
F0.0
sVtoxicity
p2882
F0.0
sVimpression
p2883
F7.118348374033829e-05
sVunsettle
p2884
F0.0
sVcognitively
p2885
F0.0
sVanyway
p2886
F0.0005507506102736843
sVunfathomable
p2887
F0.0
sVsynovial
p2888
F0.0
sVwellbrutrin
p2889
F0.0
sVenvy
p2890
F0.0
sVtire
p2891
F0.00043645953226654073
sVhadn
p2892
F5.5075061027368425e-05
sVhopeful
p2893
F0.0
sVrash
p2894
F2.7537530513684212e-05
sVemployer
p2895
F0.0
sVversatile
p2896
F0.0
sVemployee
p2897
F3.559174187016914e-05
sVsulfur
p2898
F3.559174187016914e-05
sVachieve
p2899
F0.0001779587093508457
sVamidarone
p2900
F0.0
sVoverall
p2901
F0.00039150916057186056
sV120
p2902
F0.0
sVtbh
p2903
F0.0
sVapreciate
p2904
F0.0
sVfallout
p2905
F0.0
sVhydroxizine
p2906
F0.0
sVtecas
p2907
F0.0
sVendless
p2908
F2.182297661332704e-05
sVgray
p2909
F4.364595322665408e-05
sVwellness
p2910
F0.0
sVgram
p2911
F0.0
sVcontain
p2912
F0.00014236696748067657
sVgrab
p2913
F1.3768765256842106e-05
sVpiss
p2914
F3.559174187016914e-05
sVgrad
p2915
F0.00014236696748067657
sVdph
p2916
F0.0
sVpitch
p2917
F3.559174187016914e-05
sVorphan
p2918
F2.182297661332704e-05
sVfreeze
p2919
F2.7537530513684212e-05
sVttc
p2920
F0.0
sVunmedicated
p2921
F0.0
sVcomputer
p2922
F8.729190645330815e-05
sVpowder
p2923
F8.729190645330815e-05
sVdesperate
p2924
F0.00021355045122101486
sVdanger
p2925
F2.4162634069454792e-05
sVstats
p2926
F0.0
sVnightmare
p2927
F0.00024783777462315793
sVhorribly
p2928
F0.0
sVwillpower
p2929
F0.0
sVtend
p2930
F0.0009253852886243977
sVstate
p2931
F0.00042683172296210524
sVresperidol
p2932
F0.0
sVcorrectly
p2933
F5.5075061027368425e-05
sVlug
p2934
F0.0
sVneither
p2935
F0.00021822976613327036
sVcomparable
p2936
F0.0
sVimportance
p2937
F0.0
sVinterfere
p2938
F0.00028473393496135314
sVpreclampsia
p2939
F0.0
sVshittiest
p2940
F3.559174187016914e-05
sVkey
p2941
F0.00016522518308210527
sVgroup
p2942
F6.443369085187944e-05
sVdress
p2943
F2.7537530513684212e-05
sVmonitor
p2944
F0.0001779587093508457
sVroid
p2945
F0.0
sVcareer
p2946
F8.729190645330815e-05
sVantisocial
p2947
F0.0
sVadmit
p2948
F0.0
sVlofty
p2949
F0.0
sVjourney
p2950
F0.0
sVafaik
p2951
F0.0
sVtuesday
p2952
F0.0
sVadderral
p2953
F0.0
sVquit
p2954
F0.0009165650177597357
sVsari
p2955
F0.0
sVdeffinetly
p2956
F0.0
sVyaz
p2957
F0.0
sVaddition
p2958
F0.0008897935467542285
sVcent
p2959
F0.00010677522561050743
sVslowly
p2960
F0.0003579878966778948
sVtreat
p2961
F0.0012391888731157895
sVsars
p2962
F0.0
sVoptionally
p2963
F0.0
sVcontroller
p2964
F0.0
sVquotation
p2965
F3.559174187016914e-05
sVnovel
p2966
F0.0
sVmega
p2967
F0.0
sVintimidate
p2968
F3.559174187016914e-05
sVharder
p2969
F0.00043645953226654073
sV160mg
p2970
F0.0
sVdiscontinuation
p2971
F0.0
sVneurol
p2972
F0.0
sVneuron
p2973
F0.0
sVsurface
p2974
F4.364595322665408e-05
sVhearted
p2975
F3.559174187016914e-05
sVpiracetam
p2976
F0.0
sVgeneric
p2977
F0.0017439953516382879
sVballoon
p2978
F3.559174187016914e-05
sVstrange
p2979
F6.443369085187944e-05
sVspeaker
p2980
F3.559174187016914e-05
sVparty
p2981
F8.729190645330815e-05
sVpractitioner
p2982
F0.0
sVproscribe
p2983
F0.0
sVeffect
p2984
F0.00042373410164261825
sVrenin
p2985
F0.0
sVsooner
p2986
F7.118348374033829e-05
sVfrequently
p2987
F0.0003559174187016914
sVdestruction
p2988
F0.0
sVcymbaltawithdrawal
p2989
F0.0
sVrift
p2990
F0.0
sVreflection
p2991
F0.0
sVneuropathy
p2992
F0.0
sVnonetheless
p2993
F2.182297661332704e-05
sVwell
p2994
F0.0
sVadaptandose
p2995
F0.0
sVincreasingly
p2996
F3.559174187016914e-05
sVaccurate
p2997
F7.118348374033829e-05
sVabilfy
p2998
F0.0
sVdistant
p2999
F2.182297661332704e-05
sVskill
p3000
F0.0
sVdensity
p3001
F2.182297661332704e-05
sVtheroadback
p3002
F0.0
sVnarcolepsy
p3003
F7.118348374033829e-05
sVyeesh
p3004
F0.0
sVwarrant
p3005
F3.559174187016914e-05
sVhomework
p3006
F7.118348374033829e-05
sVpero
p3007
F0.0
sVburden
p3008
F0.0
sVimmediately
p3009
F0.00016522518308210527
sVintersection
p3010
F0.0
sVprominent
p3011
F3.559174187016914e-05
sVloss
p3012
F0.00045828250887986784
sVnecessary
p3013
F4.8325268138909584e-05
sVafortunadamente
p3014
F0.0
sV4mg
p3015
F0.0
sVamitryptiline
p3016
F0.0
sVpage
p3017
F0.00010911488306663518
sVtherein
p3018
F0.0
sVhydrocortisone
p3019
F0.0
sVshes
p3020
F0.0
sVnuvigil
p3021
F0.0
sVhome
p3022
F0.00020940949526860822
sVleery
p3023
F0.0
sVbroad
p3024
F4.364595322665408e-05
sVoverlap
p3025
F7.118348374033829e-05
sVoutgo
p3026
F0.0
sVinflammation
p3027
F0.0
sVactally
p3028
F0.0
sVpuedo
p3029
F0.0
sVinaccurate
p3030
F3.559174187016914e-05
sVjournal
p3031
F0.0
sVmonetary
p3032
F0.0
sVpuede
p3033
F0.0
sVtenfold
p3034
F0.0
sVrefuge
p3035
F3.559174187016914e-05
sVfreedom
p3036
F1.3768765256842106e-05
sV300007528
p3037
F0.0
sVmadame
p3038
F0.0
sVcompatible
p3039
F2.182297661332704e-05
sV40lbs
p3040
F0.0
sVequally
p3041
F0.0
sVpreviously
p3042
F0.00014236696748067657
sVh1
p3043
F0.0
sVwashington
p3044
F0.0
sVarticulate
p3045
F2.182297661332704e-05
sVcocoa
p3046
F3.559174187016914e-05
sVganglion
p3047
F0.0
sVreceptor
p3048
F0.0
sVprozac
p3049
F0.0
sVadditional
p3050
F4.364595322665408e-05
sVroaccutane
p3051
F0.0
sVgluten
p3052
F0.0
sVvasculitis
p3053
F0.0
sVhr
p3054
F0.00010677522561050743
sVsubjective
p3055
F0.0
sVneutral
p3056
F0.000249142193091184
sVhi
p3057
F0.00046269264431219887
sVvalerian
p3058
F0.0
sVho
p3059
F1.3768765256842106e-05
sVtechnician
p3060
F0.0
sVhighest
p3061
F0.0001779587093508457
sVeat
p3062
F0.0006282284858058246
sVgrieve
p3063
F0.0
sVcruel
p3064
F2.182297661332704e-05
sVlimit
p3065
F0.0003491676258132326
sVpiece
p3066
F5.5075061027368425e-05
sVuniversal
p3067
F7.118348374033829e-05
sVjudgemental
p3068
F3.559174187016914e-05
sVsneak
p3069
F7.118348374033829e-05
sVeducation
p3070
F0.000249142193091184
sVlopsided
p3071
F0.0
sVcontest
p3072
F3.559174187016914e-05
sVfolic
p3073
F0.0
sVonwards
p3074
F3.559174187016914e-05
sVcrummy
p3075
F0.0
sVstar
p3076
F2.7537530513684212e-05
sVstay
p3077
F0.0002899516088334575
sVstag
p3078
F0.0
sVfoil
p3079
F0.00014236696748067657
sVadditionally
p3080
F0.0001779587093508457
sVpersistent
p3081
F8.729190645330815e-05
sVasymptomatic
p3082
F0.0
sVportion
p3083
F3.559174187016914e-05
sVdiagnosis
p3084
F0.0
sVuneducated
p3085
F3.559174187016914e-05
sVdiovan
p3086
F0.0
sVwhose
p3087
F8.05421135648493e-06
sVgamut
p3088
F0.0
sVcalculate
p3089
F3.559174187016914e-05
sVswab
p3090
F0.0
sVdisability
p3091
F0.00014236696748067657
sVswap
p3092
F4.364595322665408e-05
sVsorry
p3093
F0.0003060600315464274
sVmagnetic
p3094
F0.0
sV2tnufe
p3095
F0.0
sVhypertensive
p3096
F0.0
sVaffect
p3097
F0.0017439953516382879
sVvast
p3098
F0.0
sVsolution
p3099
F0.0
sVcarrie
p3100
F0.0
sVunrelated
p3101
F0.00021355045122101486
sVgreenish
p3102
F3.559174187016914e-05
sVenhance
p3103
F2.7537530513684212e-05
sV10k
p3104
F0.0
sVforce
p3105
F0.00019276271359578947
sV10m
p3106
F0.0
sVacross
p3107
F8.261259154105263e-05
sVcrave
p3108
F0.0
sVeven
p3109
F0.0008076299544128536
sVwreck
p3110
F0.00021355045122101486
sVorchestra
p3111
F3.559174187016914e-05
sVhaze
p3112
F0.0
sVnew
p3113
F0.0
sVnet
p3114
F8.729190645330815e-05
sVever
p3115
F0.00030784101401386797
sVpresynaptic
p3116
F0.0
sVnever
p3117
F0.0
sVweirdly
p3118
F0.0
sVactive
p3119
F8.261259154105263e-05
sV100
p3120
F0.0002065314788526316
sVdry
p3121
F0.00024005274274659745
sVtaper
p3122
F0.0
sVdrs
p3123
F0.0
sVcredit
p3124
F8.05421135648493e-06
sVintrigue
p3125
F0.0
sVclonidine
p3126
F0.0
sVfantastic
p3127
F8.729190645330815e-05
sVmobility
p3128
F0.0
sVcounty
p3129
F7.118348374033829e-05
sVorg
p3130
F0.00039150916057186056
sVoverheat
p3131
F0.0
sVarmy
p3132
F2.182297661332704e-05
sVsnri
p3133
F0.0
sVcall
p3134
F0.00027524608311828194
sVcalm
p3135
F0.0004271009024420297
sVellos
p3136
F0.0
sVrecommend
p3137
F0.0013880779329365966
sVtype
p3138
F0.0008261259154105264
sVtell
p3139
F0.0010712101104124957
sVwary
p3140
F0.0
sVexpose
p3141
F2.182297661332704e-05
sVwarn
p3142
F0.00024783777462315793
sVwarm
p3143
F8.05421135648493e-06
sVadult
p3144
F0.00010677522561050743
sVbiatch
p3145
F0.0
sVward
p3146
F0.00010677522561050743
sVrespiradol
p3147
F0.0
sVflora
p3148
F0.0
sVroom
p3149
F5.637947949539451e-05
sVnoots
p3150
F0.0
sVfluoroquinolones
p3151
F0.0
sVpsyciatric
p3152
F0.0
sVroot
p3153
F6.546892983998111e-05
sVgive
p3154
F0.0006989801847609001
sVclimax
p3155
F0.0
sVinvolve
p3156
F0.0
sVquetiapine
p3157
F0.0
sVcursory
p3158
F0.0
sVloathe
p3159
F3.559174187016914e-05
sVsertaline
p3160
F0.0
sVgament
p3161
F0.0
sVanswer
p3162
F0.0001610842271296986
sVundesirable
p3163
F0.0
sVminority
p3164
F3.559174187016914e-05
sVshroom
p3165
F0.0
sVvicious
p3166
F2.182297661332704e-05
sVblindly
p3167
F0.0
sVpurchase
p3168
F2.182297661332704e-05
sVattempt
p3169
F8.05421135648493e-05
sVthird
p3170
F3.259493089558602e-05
sVreplication
p3171
F0.0
sVlongingly
p3172
F0.0
sVmaintain
p3173
F0.00019640678951994334
sVoperate
p3174
F0.00014236696748067657
sVfetus
p3175
F0.00028473393496135314
sVtyramine
p3176
F0.0
sVresponsive
p3177
F3.559174187016914e-05
sVpharmd
p3178
F0.0
sVpharma
p3179
F0.0
sVpersonal
p3180
F8.859632492133424e-05
sVbetter
p3181
F0.0007424400926216815
sVdifferently
p3182
F0.0004146365556532138
sVaccusatory
p3183
F0.0
sVpersist
p3184
F0.00021355045122101486
sVovercome
p3185
F0.000249142193091184
sVcombination
p3186
F0.0004956755492463159
sVweakness
p3187
F0.0
sVworkout
p3188
F0.0
sVdrowsiness
p3189
F0.0
sVtheanine
p3190
F0.0
sVtherapy
p3191
F0.0031676650264450537
sVindulge
p3192
F0.0
sVvaping
p3193
F0.0
sVmxe
p3194
F0.0
sVadvise
p3195
F0.0
sVdecorator
p3196
F0.0
sVmeat
p3197
F4.364595322665408e-05
sVbupe
p3198
F0.0
sVside
p3199
F7.243317976796893e-05
sVbone
p3200
F0.00015145641782526317
sVmean
p3201
F0.0005718490063104301
sVcalmly
p3202
F3.559174187016914e-05
sVgabbys
p3203
F0.0
sVbusiprone
p3204
F0.0
sVaide
p3205
F0.0
sVextract
p3206
F7.118348374033829e-05
sVdecree
p3207
F0.0
sVcontent
p3208
F7.118348374033829e-05
sVundeserved
p3209
F0.0
sVwaaaaay
p3210
F0.0
sVreader
p3211
F3.559174187016914e-05
sVsurprise
p3212
F0.00012391888731157896
sVsluggish
p3213
F3.559174187016914e-05
sVinstigate
p3214
F0.0
sVprescripton
p3215
F0.0
sVcomedown
p3216
F0.0
sVneuroleptika
p3217
F0.0
sVstruggle
p3218
F0.0003709906024265596
sVabate
p3219
F0.0
sVinadequately
p3220
F0.0
sVmetaxalone
p3221
F0.0
sVish
p3222
F0.0003203256768315223
sVisn
p3223
F0.0002788677421066804
sVloud
p3224
F2.182297661332704e-05
sVgrade
p3225
F3.559174187016914e-05
sVhoop
p3226
F3.559174187016914e-05
sVreassure
p3227
F0.0
sVthereof
p3228
F0.0
sVbuttock
p3229
F0.0
sVagro
p3230
F0.0
sVdownside
p3231
F0.0
sVradiate
p3232
F0.0
sVimmensely
p3233
F0.0
sVditch
p3234
F0.0
sVspinach
p3235
F7.118348374033829e-05
sVantispasmodic
p3236
F0.0
sV2
p3237
F0.00036216589883984464
sVdwell
p3238
F0.0
sVgym
p3239
F6.546892983998111e-05
sVrisperidone
p3240
F0.0
sVdigo
p3241
F0.0
sVsomewhat
p3242
F0.0003559174187016914
sVsymptom
p3243
F0.0
sVdistance
p3244
F4.364595322665408e-05
sVanxiety
p3245
F0.009396219853724654
sVmatter
p3246
F0.00014497580441672874
sVlouder
p3247
F3.559174187016914e-05
sVsilly
p3248
F1.3768765256842106e-05
sVbiochemical
p3249
F0.0
sVhallucination
p3250
F0.0
sVmini
p3251
F0.00010677522561050743
sVmodern
p3252
F1.610842271296986e-05
sVmind
p3253
F0.0005507506102736843
sVmine
p3254
F0.00010470474763430411
sVginger
p3255
F2.182297661332704e-05
sVseem
p3256
F0.0003766525347934385
sVgrind
p3257
F0.0
sVseek
p3258
F5.637947949539451e-05
sVchest
p3259
F6.884382628421053e-05
sVdessa
p3260
F0.0
sVpsychologically
p3261
F0.0
sVclonazepam
p3262
F0.0
sVscarify
p3263
F0.0
sVnorepinephrine
p3264
F0.0
sVregular
p3265
F0.0007118348374033828
sVzealand
p3266
F0.0
sV4lbs
p3267
F0.0
sVmitigate
p3268
F0.0
sVobservation
p3269
F3.559174187016914e-05
sVdoc
p3270
F0.001593077292772874
sValarm
p3271
F4.364595322665408e-05
sVdog
p3272
F0.00011015012205473685
sVdigress
p3273
F0.0
sVdefinitely
p3274
F0.0007985883848968422
sVconsumer
p3275
F0.0
sVurgency
p3276
F0.0
sVhunger
p3277
F0.00010677522561050743
sVsubreddit
p3278
F0.0
sVlyrica
p3279
F0.0
sVrandomize
p3280
F0.0
sVexplain
p3281
F0.00028914407039368423
sVacne
p3282
F0.0
sVnegligible
p3283
F0.0
sVcripple
p3284
F0.0
sVsugar
p3285
F0.0003491676258132326
sVcelery
p3286
F0.0
sVmethotraxate
p3287
F0.0
sVpalliative
p3288
F0.0
sVcolorful
p3289
F0.0
sVstop
p3290
F0.0005577354842133608
sVperceive
p3291
F0.0
sVmeditate
p3292
F3.559174187016914e-05
sVcansancio
p3293
F0.0
sVbat
p3294
F2.182297661332704e-05
sVbar
p3295
F1.3768765256842106e-05
sVbag
p3296
F0.00024005274274659745
sVbad
p3297
F0.0004889239634337903
sVban
p3298
F0.0
sVbam
p3299
F3.559174187016914e-05
sVattest
p3300
F0.0
sVreference
p3301
F2.182297661332704e-05
sVintertwine
p3302
F0.0
sVsubject
p3303
F0.00021355045122101486
sV02
p3304
F3.559174187016914e-05
sV03
p3305
F3.559174187016914e-05
sV07
p3306
F2.182297661332704e-05
sVsorta
p3307
F7.118348374033829e-05
sVaggresive
p3308
F0.0
sVsail
p3309
F3.559174187016914e-05
sVconnective
p3310
F0.0
sVorgasmic
p3311
F0.0
sVsais
p3312
F0.0
sVmeditative
p3313
F0.0
sVtolerance
p3314
F0.0005338761280525372
sVlethargic
p3315
F0.0
sVlazy
p3316
F0.00024005274274659745
sVomg
p3317
F7.118348374033829e-05
sVvitamin
p3318
F0.0
sVcousin
p3319
F0.00010677522561050743
sVsocialize
p3320
F0.0
sVagonist
p3321
F0.0
sVresistant
p3322
F0.0
sVupregulate
p3323
F0.0
sVdistinction
p3324
F3.559174187016914e-05
sVgps
p3325
F0.0
sVpeyote
p3326
F0.0
sVdurante
p3327
F0.0
sVhygiene
p3328
F3.559174187016914e-05
sVparalyze
p3329
F0.0
sVaccustom
p3330
F0.0
sVantinausea
p3331
F0.0
sVabdominal
p3332
F0.0
sVrecur
p3333
F0.0
sVbasis
p3334
F7.248790220836437e-05
sVregenerate
p3335
F0.0
sVthree
p3336
F0.00010140645167515649
sVtiny
p3337
F6.443369085187944e-05
sVtrigger
p3338
F0.0011389357398454126
sVdetrimental
p3339
F0.0
sVinterest
p3340
F0.0004801054854931949
sVbasic
p3341
F2.7537530513684212e-05
sVlovely
p3342
F4.130629577052632e-05
sVmco
p3343
F0.0
sVdeeper
p3344
F3.559174187016914e-05
sVefficacy
p3345
F0.0
sV900mg
p3346
F0.0
sVsuppress
p3347
F0.0
sVinattention
p3348
F0.0
sVdismiss
p3349
F7.118348374033829e-05
sVsooooo
p3350
F3.559174187016914e-05
sVdysrhythmia
p3351
F0.0
sVpersonally
p3352
F0.0001288673817037589
sV165
p3353
F0.0
sVdiabeta
p3354
F0.0
sV160
p3355
F3.559174187016914e-05
sVexception
p3356
F4.364595322665408e-05
sVserax
p3357
F0.0
sVspontaneously
p3358
F3.559174187016914e-05
sVugly
p3359
F1.610842271296986e-05
sVnear
p3360
F5.0703225837578245e-05
sVneat
p3361
F3.559174187016914e-05
sVsle
p3362
F0.0
sVbalance
p3363
F0.0003559174187016914
sVmangle
p3364
F0.0
sVslc
p3365
F0.0
sVix
p3366
F0.0
sVseven
p3367
F8.729190645330815e-05
sVcane
p3368
F0.00010677522561050743
sVincontinent
p3369
F3.559174187016914e-05
sVir
p3370
F0.0
sViu
p3371
F0.0
sViv
p3372
F0.0
sVii
p3373
F0.0
sVshame
p3374
F4.364595322665408e-05
sVcant
p3375
F0.00014236696748067657
sVim
p3376
F0.0006762430955332137
sVio
p3377
F0.0
sVcurcumin
p3378
F0.0
sVmouse
p3379
F2.182297661332704e-05
sVid
p3380
F7.118348374033829e-05
sVdisappear
p3381
F0.00010911488306663518
sVspecialization
p3382
F0.0
sVnardil
p3383
F0.0
sVpotentially
p3384
F0.0001779587093508457
sVunfortunate
p3385
F8.261259154105263e-05
sVvegetable
p3386
F3.559174187016914e-05
sVambien
p3387
F0.0
sVcatatonic
p3388
F0.0
sVverapamil
p3389
F0.0
sVkit
p3390
F2.182297661332704e-05
sVdelight
p3391
F3.559174187016914e-05
sVpharmacological
p3392
F0.0
sVjealous
p3393
F7.118348374033829e-05
sVovert
p3394
F3.559174187016914e-05
sVopportunity
p3395
F2.182297661332704e-05
sVkid
p3396
F0.0005694678699227063
sVbutter
p3397
F3.559174187016914e-05
sVpunishment
p3398
F1.3768765256842106e-05
sVparadigm
p3399
F0.0
sVhacen
p3400
F0.0
sVprotocol
p3401
F3.559174187016914e-05
sVsentence
p3402
F0.00010677522561050743
sVyea
p3403
F0.0
sVhillbilly
p3404
F0.0
sVaside
p3405
F8.261259154105263e-05
sVmientras
p3406
F0.0
sVidentify
p3407
F0.0001745838129066163
sVhuman
p3408
F0.00011015012205473685
sVyep
p3409
F0.00010677522561050743
sVyes
p3410
F0.00010502811066355495
sVyet
p3411
F7.605483875636738e-05
sVnaurexs
p3412
F0.0
sVaffinity
p3413
F0.0
sVsave
p3414
F0.0002203002441094737
sVopt
p3415
F0.00010677522561050743
sVneurobiology
p3416
F0.0
sVflatulence
p3417
F0.0
sVwhichever
p3418
F0.0
sVdiscreet
p3419
F3.559174187016914e-05
sVbackground
p3420
F1.0864976965195339e-05
sVgovt
p3421
F0.0
sVopi
p3422
F0.0
sVshoulder
p3423
F9.638135679789473e-05
sVnauseate
p3424
F0.0
sVadmittedly
p3425
F0.0
sVnotorious
p3426
F7.118348374033829e-05
sVdeal
p3427
F0.0005315779495280055
sVroleplayers
p3428
F0.0
sVdead
p3429
F2.4162634069454792e-05
sVintern
p3430
F3.559174187016914e-05
sVstatistic
p3431
F0.0
sVdear
p3432
F2.7537530513684212e-05
sVpain
p3433
F0.0062647881918631585
sVignore
p3434
F5.5075061027368425e-05
sVsuckiest
p3435
F0.0
sVmicrowave
p3436
F3.559174187016914e-05
sVaumenta
p3437
F0.0
sVburn
p3438
F0.0002836986959732515
sVprotagonist
p3439
F0.0
sVbolt
p3440
F0.0
sVsuper
p3441
F0.0007638041814664463
sVnightmaaare
p3442
F0.0
sVasperger
p3443
F0.0
sVassault
p3444
F7.118348374033829e-05
sVafternoon
p3445
F0.00028473393496135314
sVcommit
p3446
F0.00010911488306663518
sVautomatically
p3447
F4.364595322665408e-05
sVnerve
p3448
F0.001530444900417273
sVmotivate
p3449
F0.0
sVwhats
p3450
F0.0
sVhungrier
p3451
F3.559174187016914e-05
sVdecirte
p3452
F0.0
sVchime
p3453
F0.0
sVannoyance
p3454
F0.0
sVinitial
p3455
F6.884382628421053e-05
sVfraction
p3456
F0.0
sVfork
p3457
F2.7537530513684212e-05
sVstarve
p3458
F0.00010677522561050743
sVform
p3459
F0.00019330107255563833
sVlorazepam
p3460
F0.0
sVspike
p3461
F7.118348374033829e-05
sVford
p3462
F3.559174187016914e-05
sVfailure
p3463
F8.729190645330815e-05
sV225
p3464
F0.0
sVespecially
p3465
F0.00045909004731964104
sVlamectal
p3466
F0.0
sVdaddy
p3467
F3.559174187016914e-05
sVtemper
p3468
F0.00010677522561050743
sVdelete
p3469
F2.182297661332704e-05
sVdiagnose
p3470
F0.0023490549634311636
sVclassic
p3471
F4.364595322665408e-05
sVtoss
p3472
F0.00010677522561050743
sVfilly
p3473
F0.0
sVantidepresivo
p3474
F0.0
sVawhile
p3475
F0.0004271009024420297
sVlamictil
p3476
F0.0
sVshit
p3477
F0.0012439096669596412
sVmolester
p3478
F0.0
sVgenerally
p3479
F0.00034421913142105263
sVdesvenflaxine
p3480
F0.0
sVfelt
p3481
F0.0008261259154105264
sVdiet
p3482
F0.000747426579273552
sVunwell
p3483
F0.0
sVfell
p3484
F5.5075061027368425e-05
sVweekend
p3485
F0.00019640678951994334
sVapology
p3486
F0.0
sVassume
p3487
F0.000498284386182368
sVpseudo
p3488
F3.559174187016914e-05
sVdaily
p3489
F0.0017084036097681189
sVteeth
p3490
F8.729190645330815e-05
sVoverdue
p3491
F0.0
sVshop
p3492
F0.00010677522561050743
sVitselfshe
p3493
F0.0
sVskip
p3494
F0.00010911488306663518
sVrelieve
p3495
F0.0
sVmild
p3496
F0.0
sVmile
p3497
F0.00013093785967996222
sVskim
p3498
F0.0
sVskin
p3499
F2.8973271907187574e-05
sVabundant
p3500
F0.0
sVmilk
p3501
F0.00014236696748067657
sVretention
p3502
F0.00021355045122101486
sV21st
p3503
F3.559174187016914e-05
sVsuicide
p3504
F0.0005694678699227063
sVdepend
p3505
F0.0005694678699227063
sVtechnique
p3506
F0.00014236696748067657
sVsufferer
p3507
F0.0
sVamaze
p3508
F0.0
sVfinally
p3509
F0.0008292731113064276
sVunpleasant
p3510
F0.00014236696748067657
sVoverproduce
p3511
F0.0
sVaspx
p3512
F3.559174187016914e-05
sVshoot
p3513
F0.0003709906024265596
sVneglegent
p3514
F0.0
sVfibrocystic
p3515
F0.0
sVclonazapam
p3516
F0.0
sVelevate
p3517
F0.0
sVdie
p3518
F0.00020135528391212326
sVdig
p3519
F3.559174187016914e-05
sVaccidentally
p3520
F2.7537530513684212e-05
sVitem
p3521
F2.7537530513684212e-05
sVbedside
p3522
F0.0
sVdiy
p3523
F0.0
sVdip
p3524
F0.00010677522561050743
sVround
p3525
F0.00012081317034727396
sVanesthetic
p3526
F0.0
sVtremendously
p3527
F0.0
sVprasco
p3528
F0.0
sVachy
p3529
F0.0
sVdecriminalize
p3530
F0.0
sVfiller
p3531
F0.0
sVsuspect
p3532
F0.00010911488306663518
sVreabsorb
p3533
F0.0
sVmakeup
p3534
F0.00010677522561050743
sVtangent
p3535
F0.0
sVwait
p3536
F0.00013692159306024382
sVbox
p3537
F2.4162634069454792e-05
sVboy
p3538
F5.5075061027368425e-05
sVshift
p3539
F0.000249142193091184
sVgarnier
p3540
F0.0
sVsomatic
p3541
F0.0
sVconduction
p3542
F0.0
sVsuggestion
p3543
F0.0001745838129066163
sVcyst
p3544
F0.0
sVconveniently
p3545
F0.0
sV20mg
p3546
F0.0
sVbog
p3547
F0.0
sVnortrpytline
p3548
F0.0
sVuseful
p3549
F0.0003559174187016914
sVmerely
p3550
F0.0
sVflexibility
p3551
F0.0
sVverge
p3552
F0.0
sVsympathetic
p3553
F0.0
sVdeplin
p3554
F0.0
sVdiscus
p3555
F0.0
sVsake
p3556
F3.559174187016914e-05
sVvisit
p3557
F0.00011015012205473685
sVinsider
p3558
F0.0
sVsharpen
p3559
F0.0
sVthru
p3560
F3.559174187016914e-05
sVaspirin
p3561
F0.0
sV5day
p3562
F0.0
sVsavior
p3563
F3.559174187016914e-05
sVolive
p3564
F2.182297661332704e-05
sVeffort
p3565
F0.00039150916057186056
sV166876
p3566
F0.0
sVfly
p3567
F1.3768765256842106e-05
sVhellacious
p3568
F0.0
sVflu
p3569
F0.0001779587093508457
sVsoul
p3570
F4.364595322665408e-05
sVrepstwo
p3571
F0.0
sVsour
p3572
F3.559174187016914e-05
sVarrive
p3573
F6.884382628421053e-05
sVdosage
p3574
F0.0016728118678979496
sVnearest
p3575
F3.559174187016914e-05
sVcrazy
p3576
F0.0005019284621065219
sVfuck
p3577
F0.00331003199392573
sVagent
p3578
F0.00011015012205473685
sVsample
p3579
F4.027105678242465e-05
sVknowledgable
p3580
F0.0
sVchemical
p3581
F0.0006050596117928754
sVtill
p3582
F4.364595322665408e-05
sVsunday
p3583
F0.0
sVemotionless
p3584
F0.0
sVpure
p3585
F1.610842271296986e-05
sVmat
p3586
F0.0
sV140
p3587
F3.559174187016914e-05
sVkratomscience
p3588
F0.0
sVmay
p3589
F0.000575843779155353
sVmax
p3590
F0.0003559174187016914
sVmad
p3591
F1.610842271296986e-05
sVdestructive
p3592
F3.559174187016914e-05
sVgrow
p3593
F0.0001745838129066163
sVman
p3594
F5.0703225837578245e-05
sVwaist
p3595
F2.182297661332704e-05
sVjohnson
p3596
F0.0
sVmaybe
p3597
F0.0
sVtale
p3598
F2.182297661332704e-05
sVcascade
p3599
F0.0
sVswitch
p3600
F0.0013966705032529305
sVdeposit
p3601
F3.559174187016914e-05
sVbasket
p3602
F7.118348374033829e-05
sVtall
p3603
F1.3768765256842106e-05
sVtalk
p3604
F0.0014732578824821054
sVnearly
p3605
F3.6216589883984466e-05
sVcute
p3606
F2.182297661332704e-05
sVlsd
p3607
F0.0
sVshield
p3608
F0.0
sVfeb
p3609
F0.0
sVaccutate
p3610
F0.0
sVshaky
p3611
F0.0
sVstability
p3612
F0.0
sVnbsp
p3613
F0.0007118348374033828
sVshake
p3614
F0.00013093785967996222
sVequip
p3615
F0.0
sVpolice
p3616
F4.364595322665408e-05
sVthank
p3617
F0.0007572820891263159
sVpolicy
p3618
F3.559174187016914e-05
sVmain
p3619
F3.6216589883984466e-05
sVuptake
p3620
F0.0
sVtexas
p3621
F0.0
sVtonic
p3622
F0.0
sVunplanned
p3623
F0.0
sVfinance
p3624
F7.118348374033829e-05
sVbein
p3625
F3.559174187016914e-05
sVkiller
p3626
F6.884382628421053e-05
sVsarcastic
p3627
F3.559174187016914e-05
sVlunch
p3628
F6.884382628421053e-05
sVwories
p3629
F0.0
sVrexulti
p3630
F0.0
sVbullshit
p3631
F0.00028473393496135314
sVoutweigh
p3632
F0.0
sVfeverish
p3633
F0.0
sVmemorization
p3634
F3.559174187016914e-05
sVlithobid
p3635
F0.0
sVdysphoria
p3636
F0.0
sVrock
p3637
F4.130629577052632e-05
sVbadly
p3638
F5.637947949539451e-05
sVabnormal
p3639
F2.182297661332704e-05
sVgirl
p3640
F1.610842271296986e-05
sVsummary
p3641
F0.0
sVrelive
p3642
F3.559174187016914e-05
sVcanada
p3643
F0.0
sV3rd
p3644
F6.546892983998111e-05
sVsitagliptin
p3645
F0.0
sVundulate
p3646
F0.0
sVblubber
p3647
F7.118348374033829e-05
sVcorrect
p3648
F0.00010911488306663518
sVsmatter
p3649
F0.0
sVmonster
p3650
F1.3768765256842106e-05
sVhefty
p3651
F0.0
sVspiel
p3652
F0.0
sVcalifornia
p3653
F0.0
sVbugtype
p3654
F0.0
sVadvance
p3655
F4.130629577052632e-05
sVlanguage
p3656
F1.3768765256842106e-05
sVwaiter
p3657
F7.118348374033829e-05
sVkeppra
p3658
F0.0
sVthing
p3659
F0.0003875175117586338
sVsemipermanent
p3660
F0.0
sVthink
p3661
F0.0009524963139487915
sVfrequent
p3662
F0.000249142193091184
sVfirst
p3663
F0.0005178972353409778
sVcheese
p3664
F8.729190645330815e-05
sVuppvisat
p3665
F0.0
sVcarry
p3666
F3.259493089558602e-05
sVlethargy
p3667
F0.0
sVlittle
p3668
F0.0
sVlap
p3669
F3.559174187016914e-05
sVlundberg
p3670
F0.0
sVanyone
p3671
F0.0001610842271296986
sV10lbs
p3672
F0.0
sVmoisture
p3673
F0.0
sVcontinuous
p3674
F3.559174187016914e-05
sVadrenergic
p3675
F0.0
sVbutt
p3676
F7.118348374033829e-05
sV11
p3677
F1.0864976965195339e-05
sV10
p3678
F0.00015935299548953166
sV13
p3679
F9.638135679789473e-05
sV12
p3680
F7.967649774476583e-05
sV15
p3681
F9.778479268675805e-05
sV14
p3682
F0.00011015012205473685
sV17
p3683
F6.884382628421053e-05
sV16
p3684
F0.00013768765256842106
sV19
p3685
F2.7537530513684212e-05
sV18
p3686
F0.00013768765256842106
sVgotta
p3687
F0.00013093785967996222
sVcinematics
p3688
F0.0
sVaumentar
p3689
F0.0
sVcoconut
p3690
F1.610842271296986e-05
sVcymbalti
p3691
F0.0
sVmarijuana
p3692
F0.0005694678699227063
sVpastry
p3693
F0.0
sVmodality
p3694
F0.0
sVefficient
p3695
F0.0
sVisolate
p3696
F0.0
sVoaxacan
p3697
F0.0
sVpotential
p3698
F0.0003203256768315223
sVperformance
p3699
F5.5075061027368425e-05
sVneeeeed
p3700
F0.0
sVchannel
p3701
F8.729190645330815e-05
sV200
p3702
F0.00039150916057186056
sV202
p3703
F0.0
sV205
p3704
F0.0
sVnormal
p3705
F0.0007985883848968422
sVtrack
p3706
F0.00015276083629328925
sVincidence
p3707
F0.0
sVcytomel
p3708
F0.0
sVbeta
p3709
F0.0006762430955332137
sVpair
p3710
F6.546892983998111e-05
sVunidad
p3711
F0.0
sV13khz
p3712
F0.0
sVzanaflex
p3713
F0.0
sVspectate
p3714
F0.0
sVpernicious
p3715
F0.0
sVglipizide
p3716
F0.0
sVprecise
p3717
F7.118348374033829e-05
sVshot
p3718
F8.05421135648493e-06
sVshow
p3719
F0.00011951474661714873
sVorgasming
p3720
F0.0
sVestoy
p3721
F7.118348374033829e-05
sVtherapist
p3722
F0.0007118348374033828
sVshoe
p3723
F3.559174187016914e-05
sVtiredness
p3724
F0.0
sVthreshold
p3725
F0.0
sVcorner
p3726
F4.8325268138909584e-05
sVdice
p3727
F3.559174187016914e-05
sVglucotrol
p3728
F0.0
sVdick
p3729
F0.00021355045122101486
sV500mg
p3730
F0.0
sVbehind
p3731
F2.8973271907187574e-05
sVdico
p3732
F0.0
sVblack
p3733
F8.05421135648493e-05
sVwalgreens
p3734
F0.0
sVextracellular
p3735
F0.0
sVawareness
p3736
F0.0
sVfluoxoetine
p3737
F0.0
sVfda
p3738
F0.0
sVexaggeration
p3739
F0.0
sVstomp
p3740
F0.0
sV2mg
p3741
F0.0
sVgee
p3742
F0.0
sVged
p3743
F0.0
sVsecondary
p3744
F1.3768765256842106e-05
sVcatecholamine
p3745
F0.0
sVmedial
p3746
F0.0
sVmorning
p3747
F0.0010256799008263708
sVsubtype
p3748
F0.0
sVstupid
p3749
F0.00019276271359578947
sVdegress
p3750
F0.0
sVsilently
p3751
F2.182297661332704e-05
sVwiki
p3752
F0.0
sVrelativt
p3753
F0.0
sVtransdermal
p3754
F0.0
sVhonesty
p3755
F0.0
sVsear
p3756
F0.0
sVrelative
p3757
F0.00010677522561050743
sVstigma
p3758
F0.0
sVwonder
p3759
F0.00034421913142105263
sVbutrans
p3760
F0.0
sVskelaxin
p3761
F0.0
sVlabel
p3762
F0.00028914407039368423
sVenough
p3763
F0.0
sVlimictal
p3764
F0.0
sVaffordable
p3765
F0.0
sVbrainzaps
p3766
F0.0
sVaugust
p3767
F0.0
sVparent
p3768
F0.00032734464919990556
sVcervical
p3769
F0.0
sVtrader
p3770
F0.0
sVdedicate
p3771
F0.0
sVvilazodone
p3772
F0.0
sVsteroid
p3773
F0.0
sVtout
p3774
F0.0
sVamong
p3775
F8.729190645330815e-05
sVcancer
p3776
F0.00014236696748067657
sVaccusation
p3777
F0.0
sVcancel
p3778
F0.00010677522561050743
sVguesstimate
p3779
F0.0
sVunusual
p3780
F0.00013093785967996222
sVcapable
p3781
F3.559174187016914e-05
sVwobble
p3782
F3.559174187016914e-05
sVcertify
p3783
F0.0
sVmark
p3784
F6.884382628421053e-05
sVmart
p3785
F0.0
sVmistreat
p3786
F0.0
sVwake
p3787
F0.00030291283565052633
sVoverdose
p3788
F0.0003203256768315223
sVsound
p3789
F0.0003704937223983068
sVongoing
p3790
F0.0
sVflouxetine
p3791
F0.0
sVstrain
p3792
F0.0
sVsudden
p3793
F8.261259154105263e-05
sVdangerously
p3794
F3.559174187016914e-05
sVprotein
p3795
F0.0
sVeveryday
p3796
F0.00021355045122101486
sVdifferent
p3797
F0.0009906679968476465
sVpas
p3798
F0.00019640678951994334
sVritalin
p3799
F0.0
sVharsh
p3800
F8.729190645330815e-05
sVpay
p3801
F9.054147470996116e-05
sVpad
p3802
F8.729190645330815e-05
sVpan
p3803
F3.559174187016914e-05
sVworkplace
p3804
F0.0
sVexhaust
p3805
F0.0
sVoil
p3806
F0.00019640678951994334
sVamitiza
p3807
F0.0
sVintrospectively
p3808
F0.0
sVassist
p3809
F3.559174187016914e-05
sVacetyl
p3810
F0.0
sVtotally
p3811
F0.00014497580441672874
sVdrain
p3812
F0.00014236696748067657
sVintermittent
p3813
F0.0
sVmacro
p3814
F0.0
sVroughly
p3815
F0.0
sVvertebra
p3816
F0.0
sVsolve
p3817
F0.00010911488306663518
sVbottle
p3818
F0.0004543692534757895
sVmoney
p3819
F0.00039281357903988667
sVaspect
p3820
F0.00013093785967996222
sVketamine
p3821
F0.0
sV200lbs
p3822
F0.0
sVasthma
p3823
F0.00010677522561050743
sVpile
p3824
F2.182297661332704e-05
sV4
p3825
F0.00019194792638511766
sVglyburide
p3826
F0.0
sVpill
p3827
F0.0030252980589643773
sVgrip
p3828
F8.05421135648493e-06
sVmor
p3829
F3.559174187016914e-05
sVmot
p3830
F0.0
sVinhibition
p3831
F0.0
sVmom
p3832
F0.0011389357398454126
sVimplicate
p3833
F0.0
sVmod
p3834
F0.00010677522561050743
sVeither
p3835
F0.00022092119829230525
sVvoluntarily
p3836
F3.559174187016914e-05
sVpassionate
p3837
F1.3768765256842106e-05
sVimmoderation
p3838
F0.0
sVafflict
p3839
F0.0
sVpronounce
p3840
F0.00010677522561050743
sVoxazepam
p3841
F0.0
sVspasm
p3842
F0.0
sVmagement
p3843
F0.0
sVgenetics
p3844
F0.0
sVbenzodiazepine
p3845
F0.0
sVoverly
p3846
F3.559174187016914e-05
sVcritical
p3847
F4.364595322665408e-05
sVinject
p3848
F7.118348374033829e-05
sVmaoi
p3849
F0.0
sVmoderate
p3850
F0.00014236696748067657
sVknife
p3851
F1.3768765256842106e-05
sVbreastfeed
p3852
F0.0
sVnotable
p3853
F3.559174187016914e-05
sVnotably
p3854
F7.118348374033829e-05
sVmanufacturer
p3855
F0.0
sVpractical
p3856
F0.0
sVroam
p3857
F3.559174187016914e-05
sVroad
p3858
F0.00010911488306663518
sVcheckup
p3859
F0.0
sVyargh
p3860
F0.0
sV6months
p3861
F0.0
sVinbox
p3862
F0.0
sVstrip
p3863
F2.182297661332704e-05
sVfantasy
p3864
F3.559174187016914e-05
sVpharmaceutical
p3865
F0.0
sVzolpidem
p3866
F0.0
sVhysterical
p3867
F3.559174187016914e-05
sVobsessional
p3868
F0.0
sVfakeness
p3869
F0.0
sVwoudn
p3870
F0.0
sVfricken
p3871
F0.0
sVdownstairs
p3872
F2.182297661332704e-05
sVspice
p3873
F2.182297661332704e-05
sVrewire
p3874
F0.0
sVyoutube
p3875
F0.0
sVdivalproex
p3876
F0.0
sVdeep
p3877
F2.4162634069454792e-05
sVgeneral
p3878
F0.0
sVmaxed
p3879
F0.0
sVimagination
p3880
F3.559174187016914e-05
sVdeem
p3881
F0.0
sVfile
p3882
F7.118348374033829e-05
sVgirlfriend
p3883
F0.00021355045122101486
sVlifetime
p3884
F2.182297661332704e-05
sVmelatonin
p3885
F0.0
sVtibial
p3886
F0.0
sVfill
p3887
F0.0002203002441094737
sVpersonnel
p3888
F0.0
sVhealthpartners
p3889
F0.0
sVfield
p3890
F0.00021355045122101486
sVmertazapine
p3891
F0.0
sVbmi
p3892
F0.0
sVtailbone
p3893
F0.0
sV150mgs
p3894
F0.0
sVpharmaceutically
p3895
F0.0
sVimportant
p3896
F0.00058922036855983
sVparamedic
p3897
F0.0
sVtackle
p3898
F1.3768765256842106e-05
sVremote
p3899
F2.182297661332704e-05
sVhugely
p3900
F0.0
sValright
p3901
F8.729190645330815e-05
sVnutrient
p3902
F0.0
sVoral
p3903
F0.000249142193091184
sVrepresent
p3904
F3.559174187016914e-05
sVforget
p3905
F0.00034421913142105263
sVallergy
p3906
F0.00021355045122101486
sVdollar
p3907
F3.559174187016914e-05
sVshrooms
p3908
F0.000249142193091184
sVcommute
p3909
F3.559174187016914e-05
sVoxycodone
p3910
F0.0
sVcatheterize
p3911
F7.118348374033829e-05
sVreluctant
p3912
F0.0
sVdermatographia
p3913
F0.0
sVresponsiveness
p3914
F0.0
sViud
p3915
F0.0
sVlovenox
p3916
F0.0
sVclench
p3917
F0.0001779587093508457
sVdifference
p3918
F0.0006765122750131381
sVneurological
p3919
F0.0
sVclozapine
p3920
F0.0
sVbiological
p3921
F0.0
sVzero
p3922
F0.00026187571935992445
sVperspective
p3923
F0.0
sVlawyer
p3924
F0.00010677522561050743
sVdial
p3925
F2.182297661332704e-05
sVstool
p3926
F0.00010677522561050743
sVcaffeine
p3927
F0.0004271009024420297
sVsrigmafied
p3928
F0.0
sVpublic
p3929
F6.884382628421053e-05
sVmovement
p3930
F8.261259154105263e-05
sVcomponent
p3931
F2.182297661332704e-05
sVdisastrous
p3932
F0.0
sVlazanda
p3933
F0.0
sVtable
p3934
F1.0864976965195339e-05
sV900
p3935
F0.0
sVbible
p3936
F0.0
sVreuptaken
p3937
F0.0
sVtemazepam
p3938
F0.0
sVchipper
p3939
F0.0
sVmisery
p3940
F0.00014236696748067657
sVnarrow
p3941
F6.546892983998111e-05
sVcystic
p3942
F0.0
sVauthorize
p3943
F0.0
sVtransit
p3944
F3.559174187016914e-05
sVseroquel
p3945
F0.0
sVsanction
p3946
F0.0
sVestablish
p3947
F3.559174187016914e-05
sVreadily
p3948
F0.0
sVeye
p3949
F0.00039281357903988667
sVdestination
p3950
F4.364595322665408e-05
sVtwo
p3951
F0.0
sVjive
p3952
F0.0
sVneverending
p3953
F0.0
sVparticular
p3954
F6.443369085187944e-05
sVtown
p3955
F2.7537530513684212e-05
sVwillfully
p3956
F0.0
sVnone
p3957
F0.00015145641782526317
sVsucky
p3958
F0.0
sVmiddle
p3959
F4.027105678242465e-05
sVrecall
p3960
F0.0001779587093508457
sVdev
p3961
F3.559174187016914e-05
sVremain
p3962
F0.00015276083629328925
sVparagraph
p3963
F0.0
sVdel
p3964
F0.00010677522561050743
sVdea
p3965
F0.0
sVtianeptine
p3966
F0.0
sVdef
p3967
F4.364595322665408e-05
sVstubborn
p3968
F0.0
sVcompare
p3969
F0.0003491676258132326
sVshare
p3970
F6.443369085187944e-05
sVminimum
p3971
F4.364595322665408e-05
sVrainstorm
p3972
F0.0
sVsharp
p3973
F7.118348374033829e-05
sVmapb
p3974
F0.0
sVrheumatological
p3975
F0.0
sVawkward
p3976
F1.3768765256842106e-05
sVcomfort
p3977
F0.0
sVlqts
p3978
F0.0
sVamitrip
p3979
F0.0
sVadvice
p3980
F0.000747426579273552
sVblood
p3981
F0.000647131967071579
sVresponse
p3982
F0.0005338761280525372
sVmislead
p3983
F0.0
sVresponsibility
p3984
F7.118348374033829e-05
sVmethadone
p3985
F0.0
sVpleasure
p3986
F6.884382628421053e-05
sVpartway
p3987
F3.559174187016914e-05
sVturmeric
p3988
F0.0
sVinfant
p3989
F3.559174187016914e-05
sVaboutthen
p3990
F0.0
sVsuffer
p3991
F0.00058922036855983
sV24
p3992
F0.00013768765256842106
sV25
p3993
F0.00016522518308210527
sV26
p3994
F1.3768765256842106e-05
sV27
p3995
F5.5075061027368425e-05
sV20
p3996
F0.00012675806459394563
sV21
p3997
F5.5075061027368425e-05
sV22
p3998
F2.7537530513684212e-05
sVsodium
p3999
F0.0
sVpcp
p4000
F0.0
sV28
p4001
F4.364595322665408e-05
sV29
p4002
F6.546892983998111e-05
sVseasonally
p4003
F3.559174187016914e-05
sVlate
p4004
F8.859632492133424e-05
sVpcm
p4005
F0.0
sVgood
p4006
F0.0
sVlibido
p4007
F0.0
sVsocially
p4008
F0.00010677522561050743
sVuhh
p4009
F3.559174187016914e-05
sVcompound
p4010
F0.0
sVdetach
p4011
F0.0
sVcrohn
p4012
F0.0
sVassociation
p4013
F0.00010677522561050743
sVeasily
p4014
F0.00011275895899078902
sVpregnant
p4015
F0.0004271009024420297
sV2x
p4016
F0.0
sVmicro
p4017
F0.0
sVgoofy
p4018
F0.0
sVnris
p4019
F0.0
sV2a
p4020
F3.559174187016914e-05
sV2b
p4021
F0.0
sV2c
p4022
F0.0
sV2l
p4023
F0.0
sVharm
p4024
F0.0
sVeveryone
p4025
F0.0006195944365578948
sVmental
p4026
F0.002171096254080318
sVhouse
p4027
F6.443369085187944e-05
sVfish
p4028
F2.4162634069454792e-05
sVhard
p4029
F0.0004913068927455809
sVidea
p4030
F0.00011951474661714873
sVsober
p4031
F7.118348374033829e-05
sVconnect
p4032
F0.00014236696748067657
sVportland
p4033
F0.0
sVinsurance
p4034
F0.0016372201260277804
sVflower
p4035
F0.0
sVadhdlectures
p4036
F0.0
sVprint
p4037
F6.546892983998111e-05
sVfortitude
p4038
F0.0
sVpristiq
p4039
F0.0
sVevaluation
p4040
F0.0
sVeszopiclone
p4041
F0.0
sVcircumstance
p4042
F7.118348374033829e-05
sVpleasant
p4043
F0.00014236696748067657
sVdifficulty
p4044
F0.0001779587093508457
sVdisneyland
p4045
F0.0
sVdisposition
p4046
F3.559174187016914e-05
sVlaughable
p4047
F0.0
sVbrainstem
p4048
F0.0
sVtranqs
p4049
F0.0
sVdont
p4050
F0.00021822976613327036
sVpop
p4051
F6.546892983998111e-05
sVvibrate
p4052
F0.0
sV40mg
p4053
F0.0
sVwager
p4054
F3.559174187016914e-05
sVdivorce
p4055
F3.559174187016914e-05
sV5th
p4056
F3.559174187016914e-05
sVleast
p4057
F0.0
sVpaint
p4058
F1.3768765256842106e-05
sVregulation
p4059
F0.0
sVstatement
p4060
F4.364595322665408e-05
sV188
p4061
F0.0
sVlease
p4062
F3.559174187016914e-05
sVpara
p4063
F0.0
sVneedle
p4064
F8.729190645330815e-05
sVpark
p4065
F0.0001779587093508457
sVpart
p4066
F0.00037854793375479177
sVdifferentiate
p4067
F0.0
sVbelieve
p4068
F0.00039465635646776157
sVpercentage
p4069
F7.118348374033829e-05
sV600mg
p4070
F0.0
sVb
p4071
F8.859632492133424e-05
sVcyclic
p4072
F0.0
sVlargely
p4073
F0.0
sVyoutu
p4074
F0.0
sV2024
p4075
F0.0
sVsedate
p4076
F8.729190645330815e-05
sVmountain
p4077
F0.0
sVlisdexamfetamine
p4078
F0.0
sVcardigan
p4079
F0.0
sVonset
p4080
F0.0
sVmajority
p4081
F4.364595322665408e-05
sVbuild
p4082
F6.443369085187944e-05
sVsalmon
p4083
F0.0
sVchart
p4084
F2.182297661332704e-05
sVcharm
p4085
F7.118348374033829e-05
sVsignificant
p4086
F0.00028473393496135314
sVextremely
p4087
F0.00039281357903988667
sV45mg
p4088
F0.0
sV180lbs
p4089
F0.0
sVorganise
p4090
F0.0
sVweigh
p4091
F0.00013093785967996222
sVparticularly
p4092
F0.00024005274274659745
sVrelation
p4093
F7.118348374033829e-05
sVcarefully
p4094
F3.559174187016914e-05
sVmarinol
p4095
F0.0
sVfine
p4096
F0.0
sVfind
p4097
F0.0
sVcell
p4098
F0.00019276271359578947
sVgiant
p4099
F4.364595322665408e-05
sVnervous
p4100
F4.364595322665408e-05
sVruin
p4101
F0.00010677522561050743
sVunhappy
p4102
F3.559174187016914e-05
sV8
p4103
F0.00011227142864035183
sVdevastate
p4104
F0.0
sVpermission
p4105
F6.546892983998111e-05
sVexpress
p4106
F0.0001779587093508457
sVwonky
p4107
F0.0
sVcheaper
p4108
F0.0001745838129066163
sVferret
p4109
F0.0
sVcourage
p4110
F3.559174187016914e-05
sVbreast
p4111
F0.0001779587093508457
sVtheft
p4112
F0.0
sVpellet
p4113
F0.0
sVrestart
p4114
F2.182297661332704e-05
sVresolve
p4115
F6.884382628421053e-05
sVcontracturada
p4116
F0.0
sVremove
p4117
F6.884382628421053e-05
sVcommon
p4118
F0.00042683172296210524
sVcynical
p4119
F0.0
sVindividual
p4120
F9.638135679789473e-05
sVovereat
p4121
F0.0
sVtender
p4122
F0.0
sV11th
p4123
F3.559174187016914e-05
sVexpert
p4124
F0.00010677522561050743
sVplease
p4125
F9.778479268675805e-05
sVepididimytis
p4126
F0.0
sVsmallest
p4127
F7.118348374033829e-05
sVmyriad
p4128
F0.0
sVprescribe
p4129
F0.00331003199392573
sVcomplement
p4130
F0.0
sVfoothill
p4131
F0.0
sVpepsi
p4132
F0.0
sVclueless
p4133
F0.0
sVreverse
p4134
F4.130629577052632e-05
sVforeign
p4135
F2.182297661332704e-05
sVkratombrainzapwd
p4136
F0.0
sValot
p4137
F7.118348374033829e-05
sVocurre
p4138
F0.0
sVconsume
p4139
F2.182297661332704e-05
sVpoint
p4140
F0.0003259493089558602
sVsimple
p4141
F1.4486635953593787e-05
sVnewborn
p4142
F0.0
sVdietary
p4143
F0.0
sVsimply
p4144
F0.00019276271359578947
sVthroughout
p4145
F8.261259154105263e-05
sVexpensive
p4146
F0.0001789939483389474
sV30mg
p4147
F0.0
sVraise
p4148
F0.00013768765256842106
sVcreate
p4149
F0.00015276083629328925
sVsecret
p4150
F2.182297661332704e-05
sVintrusive
p4151
F0.00014236696748067657
sVamitriptiline
p4152
F0.0
sVgas
p4153
F7.118348374033829e-05
sVgap
p4154
F0.00021355045122101486
sVamlodipine
p4155
F0.0
sVpricey
p4156
F3.559174187016914e-05
sVunderstand
p4157
F0.00017383963144312542
sVgad
p4158
F0.0
sVgab
p4159
F0.0
sVpierce
p4160
F3.559174187016914e-05
sVpolitician
p4161
F3.559174187016914e-05
sVsolid
p4162
F0.0001745838129066163
sVbill
p4163
F0.00010911488306663518
sVtolerate
p4164
F0.0
sVcrutch
p4165
F0.0
sVcluster
p4166
F0.0
sVfue
p4167
F0.0
sVfun
p4168
F0.0001288673817037589
sVlull
p4169
F0.0
sVderalin
p4170
F0.0
sVcentury
p4171
F2.182297661332704e-05
sVviolently
p4172
F3.559174187016914e-05
sVfakebake
p4173
F0.0
sVunaffected
p4174
F0.0
sVmigraine
p4175
F0.0
sVconcoction
p4176
F0.0
sVwherein
p4177
F3.559174187016914e-05
sVbenign
p4178
F7.118348374033829e-05
sVrigamaro
p4179
F0.0
sVtulpa
p4180
F0.0
sVdevelopment
p4181
F0.00013093785967996222
sVitch
p4182
F0.00010677522561050743
sVyesterday
p4183
F0.0003203256768315223
sVmovimientos
p4184
F0.0
sVosteoarthritis
p4185
F0.0
sVamiodarone
p4186
F0.0
sVpurpose
p4187
F4.027105678242465e-05
sVtask
p4188
F4.130629577052632e-05
sVhalve
p4189
F0.0
sVcouncelor
p4190
F0.0
sVcodeine
p4191
F0.0
sVwithdraw
p4192
F0.0001779587093508457
sVy
p4193
F9.665053627781917e-05
sVtraffic
p4194
F3.559174187016914e-05
sVolanzapine
p4195
F0.0
sVspend
p4196
F0.0001789939483389474
sVprevention
p4197
F0.0
sVpreference
p4198
F3.559174187016914e-05
sVlds
p4199
F0.0
sVshape
p4200
F8.729190645330815e-05
sVirritable
p4201
F7.118348374033829e-05
sValternative
p4202
F0.0002836986959732515
sVcut
p4203
F8.329815673316426e-05
sVcup
p4204
F0.00010677522561050743
sValternate
p4205
F4.364595322665408e-05
sVcuz
p4206
F3.559174187016914e-05
sVsource
p4207
F0.0002065314788526316
sVsnap
p4208
F4.130629577052632e-05
sVcum
p4209
F7.118348374033829e-05
sVbin
p4210
F2.7537530513684212e-05
sVwil
p4211
F0.0
sVbig
p4212
F7.605483875636738e-05
sVrebound
p4213
F0.0
sVadrafinil
p4214
F0.0
sVjudgement
p4215
F0.00010677522561050743
sVknock
p4216
F0.00021822976613327036
sVcognitive
p4217
F0.0
sVsemi
p4218
F2.7537530513684212e-05
sVlipitor
p4219
F0.0
sVglove
p4220
F3.559174187016914e-05
sVmindfully
p4221
F0.0
sVzoloft
p4222
F0.0
sVindication
p4223
F6.546892983998111e-05
sVrheumatoid
p4224
F0.0
sVptsd
p4225
F0.0
sVscrip
p4226
F0.0
sVgoogle
p4227
F0.00024005274274659745
sVoften
p4228
F0.0006058256713010527
sVmetabolic
p4229
F0.0
sVabsolutely
p4230
F0.00027384318612048763
sVrheumatology
p4231
F0.0
sVback
p4232
F0.0005323838712945716
sVcandle
p4233
F3.559174187016914e-05
sVgastroparesis
p4234
F0.0
sVontop
p4235
F0.0
sVscale
p4236
F0.0001745838129066163
sVpet
p4237
F7.118348374033829e-05
sVdecision
p4238
F0.00011015012205473685
sVper
p4239
F0.0003709906024265596
sVbogus
p4240
F3.559174187016914e-05
sVpee
p4241
F0.0001779587093508457
sVpeg
p4242
F2.182297661332704e-05
sVnose
p4243
F8.05421135648493e-06
sVpatient
p4244
F0.001957545802859303
sV300
p4245
F0.00010911488306663518
sVbuccal
p4246
F0.0
sVacclimation
p4247
F0.0
sVusa
p4248
F3.559174187016914e-05
sVconstraint
p4249
F0.0
sVpfizer
p4250
F0.0
sVgoody
p4251
F0.0
sVoatmeal
p4252
F3.559174187016914e-05
sVounce
p4253
F0.00010677522561050743
sVsteven
p4254
F0.0
sVlesson
p4255
F3.559174187016914e-05
sVontario
p4256
F0.0
sVoverpower
p4257
F0.0
sVhomemade
p4258
F3.559174187016914e-05
sVforward
p4259
F0.0
sVthiazolidinediones
p4260
F0.0
sVsideshow
p4261
F3.559174187016914e-05
sVsubjectively
p4262
F0.0
sVtricylcic
p4263
F0.0
sVnutshell
p4264
F0.0
sVblockage
p4265
F0.0
sVpercocet
p4266
F0.0
sVplanet
p4267
F7.118348374033829e-05
sVsort
p4268
F5.794654381437515e-05
sVludiomil
p4269
F0.0
sVconstant
p4270
F0.0003709906024265596
sVdeprive
p4271
F0.0
sVsingle
p4272
F5.0703225837578245e-05
sVcure
p4273
F0.00046269264431219887
sVcurb
p4274
F0.00010677522561050743
sVeller
p4275
F0.0
sVpreguntaste
p4276
F0.0
sVb12
p4277
F0.0
sVconfine
p4278
F0.0
sVunderweight
p4279
F0.0
sVlend
p4280
F0.0
sVfavourite
p4281
F2.182297661332704e-05
sVutterly
p4282
F7.118348374033829e-05
sVfisher
p4283
F0.0
sVconfirm
p4284
F8.729190645330815e-05
sV2000
p4285
F4.364595322665408e-05
sV2006
p4286
F3.559174187016914e-05
sV2007
p4287
F0.0
sVbloodwork
p4288
F0.0
sVuterus
p4289
F3.559174187016914e-05
sV2008
p4290
F0.0
sV2009
p4291
F0.0
sVjason
p4292
F0.0
sVsideeffects
p4293
F0.0
sVpsilocybin
p4294
F0.0
sVstrep
p4295
F0.0
sVreposted
p4296
F0.0
sVprodrug
p4297
F0.0
sVspringboardwebapp
p4298
F0.0
sVintensive
p4299
F3.559174187016914e-05
sVav
p4300
F0.0
sVlilly
p4301
F0.0
sVingredient
p4302
F0.00010677522561050743
sVcortisone
p4303
F0.0
sVdessert
p4304
F4.364595322665408e-05
sVaccuse
p4305
F0.0
sVsurgeon
p4306
F0.0
sVarrange
p4307
F3.559174187016914e-05
sVmolar
p4308
F0.0
sVseverely
p4309
F0.00014236696748067657
sVlopressor
p4310
F0.0
sVresurface
p4311
F0.0
sVshock
p4312
F0.0003055216725865785
sVimgur
p4313
F0.0
sVhavent
p4314
F0.0
sVsavella
p4315
F0.0
sVcptsd
p4316
F0.0
sVchomp
p4317
F0.0
sVuncomfortable
p4318
F7.118348374033829e-05
sVsubtle
p4319
F3.559174187016914e-05
sV3x
p4320
F0.0
sVaccess
p4321
F4.364595322665408e-05
sVpayday
p4322
F7.118348374033829e-05
sVexercise
p4323
F0.0014592614166769348
sVbody
p4324
F0.0003585442398514462
sVexchange
p4325
F4.364595322665408e-05
sVjointly
p4326
F0.0
sVsino
p4327
F0.0
sVsink
p4328
F1.3768765256842106e-05
sVothers
p4329
F0.00048325268138909585
sVsing
p4330
F2.182297661332704e-05
sVsafer
p4331
F0.0
sVmindset
p4332
F0.0
sVremark
p4333
F0.0
sVnumbness
p4334
F0.0
sV33
p4335
F0.0
sV32
p4336
F2.7537530513684212e-05
sV31
p4337
F4.364595322665408e-05
sV30
p4338
F0.00026578897476400273
sV37
p4339
F4.364595322665408e-05
sV36
p4340
F8.729190645330815e-05
sV35
p4341
F2.182297661332704e-05
sV34
p4342
F1.3768765256842106e-05
sVclimb
p4343
F4.364595322665408e-05
sVdepressant
p4344
F0.0
sVprivate
p4345
F1.3768765256842106e-05
sVocd
p4346
F0.0
sVdecrease
p4347
F0.0008186100630138902
sVlamcital
p4348
F0.0
sVviibryd
p4349
F0.0
sVchi
p4350
F0.0
sVreadable
p4351
F3.559174187016914e-05
sVoverbear
p4352
F0.0
sVupcoming
p4353
F0.0
sVaca
p4354
F0.0
sVtrail
p4355
F7.118348374033829e-05
sVhabitually
p4356
F0.0
sVashamed
p4357
F7.118348374033829e-05
sVamygdala
p4358
F0.0
sVaccount
p4359
F6.546892983998111e-05
sVf
p4360
F6.546892983998111e-05
sVtunnel
p4361
F4.364595322665408e-05
sVceliac
p4362
F0.0
sVobvious
p4363
F6.884382628421053e-05
sVpraise
p4364
F0.0
sVdidnt
p4365
F7.118348374033829e-05
sVquesaritas
p4366
F0.0
sVfavorite
p4367
F4.130629577052632e-05
sVthinkign
p4368
F0.0
sVniaaa
p4369
F0.0
sVeffectively
p4370
F0.0
sVmjne
p4371
F0.0
sVpsyched
p4372
F7.118348374033829e-05
sVlame
p4373
F3.559174187016914e-05
sVtrazadone
p4374
F0.0
sVdilator
p4375
F0.0
sVhyperbaric
p4376
F0.0
sVstock
p4377
F6.884382628421053e-05
sVprofile
p4378
F0.00013093785967996222
sVbyetta
p4379
F0.0
sVcollection
p4380
F4.364595322665408e-05
sVnullify
p4381
F0.0
sVphysio
p4382
F0.0
sVsaught
p4383
F0.0
sVdescansen
p4384
F0.0
sVbind
p4385
F0.0
sV9am
p4386
F0.0
sVsearchterm
p4387
F0.0
sVaddiction
p4388
F0.0
sVcrosstalk
p4389
F0.0
sVmeter
p4390
F3.559174187016914e-05
sVemsam
p4391
F0.0
sVunofficially
p4392
F0.0
sVnasty
p4393
F0.00045828250887986784
sVbunch
p4394
F0.0002065314788526316
sVtso
p4395
F0.0
sVlb
p4396
F0.0
sVantipsychotic
p4397
F0.0
sVtsh
p4398
F0.0
sVla
p4399
F4.708156684917981e-05
sVlo
p4400
F0.0
sVll
p4401
F0.0003875175117586338
sVlabor
p4402
F0.0
sVage
p4403
F8.05421135648493e-05
sVcriminal
p4404
F3.559174187016914e-05
sVimage
p4405
F2.182297661332704e-05
sVtsp
p4406
F0.0
sVdad
p4407
F5.5075061027368425e-05
sVgreater
p4408
F0.00010911488306663518
sVlater
p4409
F0.00046813801873263154
sVspell
p4410
F8.729190645330815e-05
sVdat
p4411
F1.3768765256842106e-05
sVmention
p4412
F0.0006333632018147369
sVsonata
p4413
F0.0
sVday
p4414
F0.0
sVpsc_overview_page
p4415
F0.0
sVfebruary
p4416
F0.0
sVthrill
p4417
F0.0
sVpracticioner
p4418
F0.0
sVlamictal
p4419
F0.0
sVflair
p4420
F0.0
sVactivate
p4421
F0.00026187571935992445
sVcelexa
p4422
F0.0
sVlesion
p4423
F0.0
sVsexual
p4424
F0.0011033439979752434
sVapparrently
p4425
F0.0
sVrev
p4426
F0.0
sVmate
p4427
F1.3768765256842106e-05
sVsituational
p4428
F0.0
sVrem
p4429
F0.0
sVlecture
p4430
F0.0
sVref
p4431
F3.559174187016914e-05
sVred
p4432
F7.243317976796893e-06
sVfrank
p4433
F0.0
sVamitriptylline
p4434
F0.0
sVclarify
p4435
F0.0
sVque
p4436
F0.0
sVbleed
p4437
F1.3768765256842106e-05
sVquo
p4438
F0.0
sVsustena
p4439
F0.0
sVinteraction
p4440
F0.0003559174187016914
sVyard
p4441
F0.0
sVpeeve
p4442
F0.0
sVdrugabuse
p4443
F0.0
sVqualification
p4444
F0.0
sVcrestor
p4445
F0.0
sVretail
p4446
F0.0
sVsouth
p4447
F2.7537530513684212e-05
sVfinest
p4448
F1.3768765256842106e-05
sVsuffix
p4449
F3.559174187016914e-05
sVprobado
p4450
F0.0
sVantidepresants
p4451
F0.0
sVsack
p4452
F3.559174187016914e-05
sVhurdle
p4453
F0.0
sVunsexual
p4454
F0.0
sVfacil
p4455
F0.0
sVsadly
p4456
F0.0
sVrealistically
p4457
F0.0
sVvagina
p4458
F7.118348374033829e-05
sVchaser
p4459
F0.0
sVnitro
p4460
F0.0
sVexplanation
p4461
F0.000249142193091184
sVnobody
p4462
F0.00010911488306663518
sVenvironmental
p4463
F0.0
sVskyrim
p4464
F0.0
sVgoku
p4465
F0.0
sVslack
p4466
F0.0
sVshampoo
p4467
F3.559174187016914e-05
sVclazapam
p4468
F0.0
sVlover
p4469
F2.182297661332704e-05
sVsevilla
p4470
F0.0
sVcomfortable
p4471
F8.729190645330815e-05
sVunlikely
p4472
F0.0
sVthroat
p4473
F8.05421135648493e-06
sVapparently
p4474
F0.00019276271359578947
sVcongrats
p4475
F0.0
sVmid
p4476
F6.884382628421053e-05
sVmix
p4477
F0.00027537530513684213
sVerosive
p4478
F0.0
sVunless
p4479
F0.00024783777462315793
sVprednisone
p4480
F0.0
sVeight
p4481
F5.5075061027368425e-05
sVrequest
p4482
F5.5075061027368425e-05
sVdisease
p4483
F0.0002836986959732515
sVabsurd
p4484
F3.559174187016914e-05
sVoccasion
p4485
F6.546892983998111e-05
sVskinny
p4486
F3.559174187016914e-05
sVmonotherapy
p4487
F0.0
sVnormally
p4488
F0.0002836986959732515
sV6000mg
p4489
F0.0
sVkite
p4490
F0.0
sVtext
p4491
F2.182297661332704e-05
sVtriiodothyronine
p4492
F0.0
sVvistaril
p4493
F0.0
sVsupporter
p4494
F0.0
sVstaff
p4495
F7.118348374033829e-05
sVknowledge
p4496
F0.00019640678951994334
sV400mgs
p4497
F0.0
sVcolbert
p4498
F0.0
sVprolong
p4499
F0.0
sVregularly
p4500
F0.000498284386182368
sVpharmacology
p4501
F0.0
sVbeat
p4502
F9.638135679789473e-05
sVnoped
p4503
F0.0
sVrush
p4504
F9.638135679789473e-05
sVbear
p4505
F8.729190645330815e-05
sVwhat_supplementsnootropics_have_you_experienced
p4506
F0.0
sVaforementioned
p4507
F0.0
sVbead
p4508
F0.0
sVunjustified
p4509
F0.0
sVkardashians
p4510
F0.0
sVcyclen
p4511
F0.0
sVgabapentic
p4512
F0.0
sV200mg
p4513
F0.0
sVmascara
p4514
F0.0
sVgabapentin
p4515
F0.0
sVenhancer
p4516
F0.0
sVfarthest
p4517
F0.0
sVintensity
p4518
F0.00014236696748067657
sVaustistic
p4519
F0.0
sVfetanyl
p4520
F0.0
sVinterview
p4521
F0.00010677522561050743
sVreform
p4522
F0.0
sVpattern
p4523
F0.0
sVconfusion
p4524
F7.118348374033829e-05
sVprogress
p4525
F1.610842271296986e-05
sVboundary
p4526
F3.559174187016914e-05
sVsorrow
p4527
F3.559174187016914e-05
sVdeliver
p4528
F2.182297661332704e-05
sVinorgasmia
p4529
F0.0
sVlegit
p4530
F0.00010677522561050743
sVempathy
p4531
F0.0
sVinstant
p4532
F2.182297661332704e-05
sVakathisia
p4533
F0.0
sVjoke
p4534
F0.00019640678951994334
sVequal
p4535
F7.118348374033829e-05
sVgabapentine
p4536
F0.0
sVinsidious
p4537
F0.0
sVswallow
p4538
F2.182297661332704e-05
sVplacebo
p4539
F0.0
sVglorious
p4540
F2.182297661332704e-05
sVgel
p4541
F3.559174187016914e-05
sVcomment
p4542
F0.0003491676258132326
sVvent
p4543
F0.0
sVrelevant
p4544
F0.0
sVlaugh
p4545
F8.261259154105263e-05
sVad
p4546
F8.729190645330815e-05
sVianad
p4547
F0.0
sVtremendous
p4548
F3.559174187016914e-05
sVgaze
p4549
F0.0
sVhellish
p4550
F0.0
sVah
p4551
F0.0
sVproposal
p4552
F3.559174187016914e-05
sVdefine
p4553
F7.118348374033829e-05
sVnorephinephrine
p4554
F0.0
sVessentially
p4555
F0.0
sVbulk
p4556
F0.0
sVtense
p4557
F0.0
sVmundo
p4558
F0.0
sVfellow
p4559
F7.118348374033829e-05
sVvolunteer
p4560
F0.00010677522561050743
sVmulti
p4561
F4.130629577052632e-05
sVhypotension
p4562
F0.0
sVplain
p4563
F5.5075061027368425e-05
sVappearance
p4564
F1.3768765256842106e-05
sVvalue
p4565
F1.610842271296986e-05
sVmanually
p4566
F3.559174187016914e-05
sValmost
p4567
F0.0002172995393039068
sVdelusion
p4568
F0.0
sVpartner
p4569
F2.182297661332704e-05
sVdeed
p4570
F0.0
sVwhirl
p4571
F0.0
sVproductivity
p4572
F0.0
sVremoran
p4573
F0.0
sVfinite
p4574
F0.0
sVtiempo
p4575
F0.0
sVmaterial
p4576
F6.546892983998111e-05
sVquad
p4577
F0.0
sVsunburn
p4578
F0.0
sVcenter
p4579
F1.3768765256842106e-05
sVthought
p4580
F0.0001610842271296986
sVoops
p4581
F3.559174187016914e-05
sVposition
p4582
F1.610842271296986e-05
sVmuscle
p4583
F0.0012101192235857508
sVlatest
p4584
F2.182297661332704e-05
sVcoaster
p4585
F3.559174187016914e-05
sVclinic
p4586
F0.0
sVtone
p4587
F2.182297661332704e-05
sV750mg
p4588
F0.0
sVabsorption
p4589
F0.0
sVlake
p4590
F3.559174187016914e-05
sVadd
p4591
F0.00078481961964
sVvoila
p4592
F3.559174187016914e-05
sV280
p4593
F0.0
sVought
p4594
F3.559174187016914e-05
sVfyi
p4595
F0.0
sVdeployment
p4596
F0.0
sVlike
p4597
F0.0
sVsuccess
p4598
F0.00021822976613327036
sV24362450
p4599
F0.0
sVtram
p4600
F0.0
sVchick
p4601
F3.559174187016914e-05
sVozono
p4602
F0.0
sVsoft
p4603
F1.610842271296986e-05
sVaccessible
p4604
F7.118348374033829e-05
sValivi
p4605
F0.0
sValive
p4606
F2.4162634069454792e-05
sVhair
p4607
F0.00013768765256842106
sVconvey
p4608
F0.0
sVrecommendation
p4609
F0.0001779587093508457
sVproper
p4610
F4.8325268138909584e-05
sVtecta
p4611
F0.0
sVest
p4612
F2.182297661332704e-05
sVxanax
p4613
F0.0
sVexisitng
p4614
F0.0
sVeso
p4615
F0.0
sVregain
p4616
F2.182297661332704e-05
sVpepper
p4617
F3.559174187016914e-05
sVnoise
p4618
F4.8325268138909584e-05
sVslight
p4619
F0.00010911488306663518
sVstellar
p4620
F0.0
sVhost
p4621
F6.884382628421053e-05
sVexpire
p4622
F0.00010677522561050743
sValthough
p4623
F0.0003141142429029123
sVworthy
p4624
F2.182297661332704e-05
sVpreventative
p4625
F0.0
sVactual
p4626
F0.00028473393496135314
sVtendonitis
p4627
F0.0
sVdiscard
p4628
F0.0
sVfunctional
p4629
F0.0003203256768315223
sVchronic
p4630
F0.001957545802859303
sVdoesnt
p4631
F4.364595322665408e-05
sVesteem
p4632
F3.559174187016914e-05
sVfemale
p4633
F8.261259154105263e-05
sVadolescent
p4634
F0.0
sVintrovert
p4635
F0.0
sVbiggest
p4636
F0.0003709906024265596
sVonlabel
p4637
F0.0
sVbuy
p4638
F0.00019276271359578947
sVdextroamphetamine
p4639
F0.0
sVbus
p4640
F3.559174187016914e-05
sVcoke
p4641
F7.118348374033829e-05
sVbuu
p4642
F0.0
sVplague
p4643
F3.559174187016914e-05
sVbum
p4644
F1.3768765256842106e-05
sVkraft
p4645
F0.0
sVbug
p4646
F4.364595322665408e-05
sVbud
p4647
F0.0
sVpartially
p4648
F0.00010911488306663518
sVwise
p4649
F7.118348374033829e-05
sVdangerous
p4650
F0.0001789939483389474
sVflip
p4651
F7.118348374033829e-05
sVpin
p4652
F0.00010677522561050743
sVpig
p4653
F2.182297661332704e-05
sVtabletop
p4654
F0.0
sVpit
p4655
F3.559174187016914e-05
sVpiv
p4656
F0.0
sV48
p4657
F4.364595322665408e-05
sV45
p4658
F2.7537530513684212e-05
sVoak
p4659
F3.559174187016914e-05
sVdetail
p4660
F0.00026187571935992445
sV40
p4661
F8.261259154105263e-05
sV41
p4662
F3.559174187016914e-05
sVspecial
p4663
F2.5351612918789122e-05
sVstimulant
p4664
F0.0
sVirritability
p4665
F0.0
sVearplug
p4666
F0.0
sVwallow
p4667
F3.559174187016914e-05
sVaugmentation
p4668
F0.0
sVnuvaring
p4669
F0.0
sVgodsend
p4670
F0.0
sVramble
p4671
F0.0
sVlactose
p4672
F3.559174187016914e-05
sVcommorbidities
p4673
F0.0
sVfucker
p4674
F7.118348374033829e-05
sVyell
p4675
F7.118348374033829e-05
sV8th
p4676
F7.118348374033829e-05
sVsleep
p4677
F0.001803708248646316
sVappetite
p4678
F0.0010677522561050744
sVhate
p4679
F0.000996568772364736
sVpoorly
p4680
F7.118348374033829e-05
sVparis
p4681
F0.0
sVtweet
p4682
F0.0
sVwhatsoever
p4683
F2.182297661332704e-05
sVtenacity
p4684
F0.0
sV50mg
p4685
F0.0
sVrisk
p4686
F0.00042683172296210524
sV3tnzzk
p4687
F0.0
sVcitalopram
p4688
F0.0
sVdispense
p4689
F0.0
sVrise
p4690
F4.364595322665408e-05
sVlurk
p4691
F0.0
sVevery
p4692
F0.00035130092187464935
sVjack
p4693
F0.000249142193091184
sVvastly
p4694
F0.0
sVencounter
p4695
F3.559174187016914e-05
sVschool
p4696
F0.0010677522561050744
sVconceive
p4697
F3.559174187016914e-05
sVenjoy
p4698
F0.00024783777462315793
sVfentora
p4699
F0.0
sVoverdo
p4700
F0.0
sVpharmaceauticals
p4701
F0.0
sVlessen
p4702
F0.0
sVconsistent
p4703
F7.118348374033829e-05
sValmond
p4704
F2.182297661332704e-05
sVdirect
p4705
F7.118348374033829e-05
sVstreet
p4706
F0.00010677522561050743
sVkratom
p4707
F0.0
sVexpressive
p4708
F3.559174187016914e-05
sVblue
p4709
F0.00015145641782526317
sVhide
p4710
F6.884382628421053e-05
sVchrist
p4711
F0.0
sVworsen
p4712
F0.0
sVpoison
p4713
F7.118348374033829e-05
sVblur
p4714
F3.559174187016914e-05
sVpata
p4715
F0.0
sVpath
p4716
F1.610842271296986e-05
sVvoice
p4717
F0.0001745838129066163
sVforum
p4718
F0.00028473393496135314
sVchanger
p4719
F0.0
sVpatience
p4720
F7.118348374033829e-05
sVdiabetes
p4721
F0.0006762430955332137
sVwould
p4722
F0.0
sVhospital
p4723
F0.00026187571935992445
sVtail
p4724
F1.3768765256842106e-05
sVmenopausal
p4725
F0.0
sVassessment
p4726
F3.559174187016914e-05
sVbreathe
p4727
F0.00021355045122101486
sVfosamax
p4728
F0.0
sVnaive
p4729
F0.0
sVphony
p4730
F0.0
sVphone
p4731
F8.729190645330815e-05
sVclonazolam
p4732
F0.0
sVexcellent
p4733
F0.00021355045122101486
sVmouthbreathy
p4734
F0.0
sVmust
p4735
F0.0
sVcerebellum
p4736
F3.559174187016914e-05
sVmd
p4737
F0.0
sVmg
p4738
F0.0
sVjoin
p4739
F1.610842271296986e-05
sVcheapest
p4740
F3.559174187016914e-05
sVmo
p4741
F3.559174187016914e-05
sVmn
p4742
F0.0
sVmi
p4743
F0.0
sVmj
p4744
F0.0
sVdizzy
p4745
F0.0
sVexistant
p4746
F3.559174187016914e-05
sVmp
p4747
F0.0
sVmr
p4748
F0.0
sVsalvage
p4749
F0.0
sVaddictive
p4750
F0.0
sVloosen
p4751
F0.0
sVdebone
p4752
F0.0
sVjoyous
p4753
F0.0
sVpyschiatrist
p4754
F0.0
sVkickassedness
p4755
F0.0
sVlexapro
p4756
F0.0
sVguarantee
p4757
F0.00014236696748067657
sVend
p4758
F0.00026075944716468815
sVndris
p4759
F0.0
sVtoxic
p4760
F0.0
sVgate
p4761
F7.118348374033829e-05
sVwidespread
p4762
F0.0
sVcyberspace
p4763
F0.0
sVmispronounce
p4764
F0.0
sVmess
p4765
F0.0005237514387198489
sVarthritis
p4766
F0.0
sVlump
p4767
F0.0
sVcarefree
p4768
F0.0
sVpreconception
p4769
F0.0
sVparallel
p4770
F0.0
sVcopay
p4771
F0.0
sVaaaaaannnnnyway
p4772
F0.0
sVtetracyclic
p4773
F0.0
sVpatent
p4774
F0.0
sVpoppyseed
p4775
F3.559174187016914e-05
sVupside
p4776
F6.546892983998111e-05
sVenter
p4777
F4.027105678242465e-05
sVfall
p4778
F0.0003709906024265596
sVsociability
p4779
F0.0
sVdigest
p4780
F3.559174187016914e-05
sVncbi
p4781
F0.0
sVimo
p4782
F0.0
sVdrawback
p4783
F0.0
sVfade
p4784
F0.00013093785967996222
sV400
p4785
F6.546892983998111e-05
sVurination
p4786
F3.559174187016914e-05
sVpropanalol
p4787
F0.0
sVabsolutism
p4788
F0.0
sVconfuse
p4789
F0.00013093785967996222
sVpotentater
p4790
F0.0
sVdiseased
p4791
F0.0
sVlento
p4792
F0.0
sVnumebrs
p4793
F0.0
sVgloom
p4794
F0.0
sVlithium
p4795
F0.0
sVexplode
p4796
F0.0
sVvictory
p4797
F0.0
sVfitness
p4798
F3.559174187016914e-05
sVconstipation
p4799
F7.118348374033829e-05
sVdiane
p4800
F0.0
sVsaturday
p4801
F0.0
sVclothe
p4802
F0.0
sVdepress
p4803
F7.118348374033829e-05
sVgon
p4804
F3.559174187016914e-05
sVgod
p4805
F0.0003709906024265596
sVsane
p4806
F7.118348374033829e-05
sVnewly
p4807
F3.559174187016914e-05
sVgov
p4808
F0.0003203256768315223
sVperception
p4809
F3.559174187016914e-05
sVassociate
p4810
F0.0005455744153331759
sVfree
p4811
F0.000233572129338063
sVcirrhosis
p4812
F0.0
sVmanagement
p4813
F0.0009253852886243977
sVicky
p4814
F3.559174187016914e-05
sVdamper
p4815
F0.0
sVfret
p4816
F0.0
sVtolerant
p4817
F0.0
sVhopeless
p4818
F0.00010677522561050743
sVonto
p4819
F5.5075061027368425e-05
sValready
p4820
F0.00013400138257074252
sVprimary
p4821
F0.0003709906024265596
sVrestrict
p4822
F0.0
sVrant
p4823
F0.0
sVinsulation
p4824
F0.0
sVcategorize
p4825
F0.0
sVcalorie
p4826
F0.0007118348374033828
sVsharpest
p4827
F0.0
sVlaserbeam
p4828
F0.0
sVdysfunction
p4829
F0.0
sVsarcasm
p4830
F0.0
sVtop
p4831
F0.0001610842271296986
sVeuphoria
p4832
F0.0
sVkinder
p4833
F0.0
sVton
p4834
F0.0009253852886243977
sVinconvenient
p4835
F0.0
sVsubmersion
p4836
F0.0
sVduress
p4837
F0.0
sVglucose
p4838
F0.0
sVmurder
p4839
F0.00014236696748067657
sVantihypertensive
p4840
F0.0
sVreframing
p4841
F0.0
sVtool
p4842
F0.00014236696748067657
sVserve
p4843
F0.00013093785967996222
sVcolitis
p4844
F0.0
sV150mg
p4845
F0.0
sVepisodic
p4846
F0.0
sVrampage
p4847
F0.0
sV10th
p4848
F1.3768765256842106e-05
sVbridge
p4849
F2.7537530513684212e-05
sVfashion
p4850
F7.118348374033829e-05
sVraw
p4851
F2.7537530513684212e-05
sVrat
p4852
F0.00013093785967996222
sVefecto
p4853
F0.0
sVlunchtime
p4854
F3.559174187016914e-05
sVadhd
p4855
F0.0
sVregulate
p4856
F0.0
sVleafy
p4857
F3.559174187016914e-05
sVspade
p4858
F0.0
sVrelatively
p4859
F0.0001779587093508457
sVpaliar
p4860
F0.0
sVrelapse
p4861
F0.0
sVclient
p4862
F4.364595322665408e-05
sVeffectiveness
p4863
F0.0
sVplenty
p4864
F0.00019640678951994334
sVcoin
p4865
F3.559174187016914e-05
sVpotency
p4866
F0.0
sVlifesaver
p4867
F0.0
sVinterject
p4868
F3.559174187016914e-05
sVreputation
p4869
F4.364595322665408e-05
sVnorepenephrine
p4870
F0.0
sVrandom
p4871
F0.00015276083629328925
sVsynergistic
p4872
F0.0
sVearth
p4873
F1.610842271296986e-05
sVbail
p4874
F3.559174187016914e-05
sVminnesota
p4875
F0.0
sVdisgust
p4876
F0.0
sVwatch
p4877
F0.0
sVfluid
p4878
F7.118348374033829e-05
sVamazon
p4879
F7.118348374033829e-05
sVwedding
p4880
F1.3768765256842106e-05
sVreport
p4881
F0.00019640678951994334
sVtoolbox
p4882
F0.0
sVhospitalize
p4883
F0.0
sVtwice
p4884
F0.00030291283565052633
sVhippocratical
p4885
F0.0
sVcataplexy
p4886
F0.0
sVhabit
p4887
F0.0
sVnut
p4888
F3.559174187016914e-05
sVbeg
p4889
F0.0
sVresist
p4890
F3.559174187016914e-05
sVdepressive
p4891
F0.0
sVcapacity
p4892
F0.0
sVgrandmother
p4893
F3.559174187016914e-05
sVfinger
p4894
F8.261259154105263e-05
sVhopefully
p4895
F0.0
sVmum
p4896
F2.182297661332704e-05
sVapproach
p4897
F6.546892983998111e-05
sVwean
p4898
F0.0
sVweak
p4899
F0.00010677522561050743
sVhowever
p4900
F0.00117844073711966
sVadage
p4901
F0.0
sVwear
p4902
F0.00015276083629328925
sVnews
p4903
F0.00012391888731157896
sVoxidase
p4904
F0.0
sVdrowsy
p4905
F0.0
sVimprove
p4906
F0.0004146365556532138
sVprotect
p4907
F3.559174187016914e-05
sVfault
p4908
F8.05421135648493e-06
sVmildly
p4909
F0.0
sVconfide
p4910
F0.0
sVcypralex
p4911
F0.0
sVinactivate
p4912
F0.0
sVtrust
p4913
F0.00043645953226654073
sVbathroom
p4914
F0.0001779587093508457
sVformulary
p4915
F0.0
sV7ish
p4916
F0.0
sVbinge
p4917
F0.0
sVquickly
p4918
F0.00019330107255563833
sVconfident
p4919
F0.0
sVbeer
p4920
F0.00010677522561050743
sVbp2
p4921
F0.0
sVbladder
p4922
F7.118348374033829e-05
sVuncommon
p4923
F2.182297661332704e-05
sVcraft
p4924
F0.0
sVneurontin
p4925
F0.0
sVcatch
p4926
F0.00013093785967996222
sVseriacyl
p4927
F0.0
sVapprehension
p4928
F0.0
sVdepo
p4929
F0.0
sVcracker
p4930
F3.559174187016914e-05
sVbuproprion
p4931
F0.0
sVn
p4932
F2.1729953930390678e-05
sVweren
p4933
F0.00012391888731157896
sVprecede
p4934
F0.0
sVprocedure
p4935
F3.559174187016914e-05
sVciprilix
p4936
F0.0
sVexperience
p4937
F0.003120685655705767
sVpathology
p4938
F0.0
sVsuggest
p4939
F0.0009609770304945668
sVcomplex
p4940
F9.638135679789473e-05
sVfructise
p4941
F0.0
sVseveral
p4942
F0.0009383879943730627
sVdiazepam
p4943
F0.0
sVsocial
p4944
F8.05421135648493e-05
sVaction
p4945
F0.00021822976613327036
sVwhenver
p4946
F0.0
sVcycle
p4947
F0.00039281357903988667
sVspecialize
p4948
F0.0
sVshortly
p4949
F0.00010677522561050743
sVprioritize
p4950
F3.559174187016914e-05
sVdarnet
p4951
F0.0
sVmother
p4952
F3.6216589883984466e-05
sVtldr
p4953
F0.0
sVseasonal
p4954
F0.0
sVlaptop
p4955
F2.182297661332704e-05
sVbruise
p4956
F0.0
sVinflammatories
p4957
F0.0
sVdopamine
p4958
F0.0
sVmodulate
p4959
F0.0
sVenlighten
p4960
F0.0
sVpharmacy
p4961
F0.0013524861910664274
sVteenager
p4962
F3.559174187016914e-05
sVtolerable
p4963
F0.0
sVjudge
p4964
F6.546892983998111e-05
sVapart
p4965
F8.261259154105263e-05
sVditto
p4966
F0.0
sVgift
p4967
F7.118348374033829e-05
sV50
p4968
F0.0001288673817037589
sVspecific
p4969
F0.00042683172296210524
sVdissociative
p4970
F0.0
sVarbitrary
p4971
F3.559174187016914e-05
sVhunchback
p4972
F3.559174187016914e-05
sVsuccessfully
p4973
F0.0001779587093508457
sVselectivity
p4974
F0.0
sVelection
p4975
F0.0
sVescape
p4976
F2.4162634069454792e-05
sVadvertise
p4977
F8.729190645330815e-05
sVguess
p4978
F0.0006058256713010527
sVincontinence
p4979
F0.00010677522561050743
sVice
p4980
F0.00013093785967996222
sVicd
p4981
F0.0
sVeverything
p4982
F0.0002100562213271099
sVatenolol
p4983
F0.0
sVintolerant
p4984
F7.118348374033829e-05
sVchristmas
p4985
F0.0
sVcord
p4986
F0.0
sVcore
p4987
F2.7537530513684212e-05
sVesophagitis
p4988
F0.0
sVdiscount
p4989
F3.559174187016914e-05
sVpathic
p4990
F0.0
sVchapter
p4991
F0.0001779587093508457
sVlimitation
p4992
F0.0
sVsurround
p4993
F0.0
sVdinner
p4994
F6.884382628421053e-05
sVplus
p4995
F0.0002203002441094737
sValgo
p4996
F0.0
sVrefuerza
p4997
F0.0
sVmismo
p4998
F0.0
sVtwitch
p4999
F0.00010677522561050743
sVaha
p5000
F0.0
sVppd
p5001
F0.0
sVobscene
p5002
F0.0
sVbath
p5003
F0.0001779587093508457
sVaccommodate
p5004
F3.559174187016914e-05
sVppt
p5005
F0.0
sVrely
p5006
F4.364595322665408e-05
sVsunlight
p5007
F0.0
sVseeker
p5008
F0.0
sVhumalog
p5009
F0.0
sVgin
p5010
F3.559174187016914e-05
sVmetabolism
p5011
F0.0003559174187016914
sVpurposely
p5012
F0.0
sVquestionable
p5013
F3.559174187016914e-05
sVintolerance
p5014
F0.0
sVhead
p5015
F0.00013762304155914097
sVmedium
p5016
F1.3768765256842106e-05
sVhangover
p5017
F3.559174187016914e-05
sVheal
p5018
F0.0
sVdeny
p5019
F0.0003559174187016914
sVheat
p5020
F0.0001745838129066163
sVhear
p5021
F0.0004510358359631561
sVhistory_adhd_2
p5022
F0.0
sVdeltasone
p5023
F0.0
sVcounsel
p5024
F0.0
sVbargain
p5025
F3.559174187016914e-05
sVlimbic
p5026
F0.0
sVtrip
p5027
F0.00026187571935992445
sVregime
p5028
F0.0
sVnh
p5029
F0.0
sVradically
p5030
F0.0
sVwhee
p5031
F0.0
sVwhereas
p5032
F0.00014236696748067657
sVnc
p5033
F3.559174187016914e-05
sVtip
p5034
F5.5075061027368425e-05
sVtil
p5035
F1.3768765256842106e-05
sVtin
p5036
F4.364595322665408e-05
sVvicodin
p5037
F0.0
sVsoundly
p5038
F0.0
sVnp
p5039
F0.0
sVtie
p5040
F4.364595322665408e-05
sVimplant
p5041
F0.0
sVcompany
p5042
F6.518986179117204e-05
sVtic
p5043
F0.0
sVnode
p5044
F0.0
sVpicture
p5045
F9.638135679789473e-05
sVnuance
p5046
F0.0
sVuniformly
p5047
F0.0
sVmiscellaneous
p5048
F3.559174187016914e-05
sVyounger
p5049
F4.130629577052632e-05
sVlonger
p5050
F0.00014124470054753942
sVbullet
p5051
F2.182297661332704e-05
sVvietnam
p5052
F0.0
sVserious
p5053
F0.0003579878966778948
sVnortryptyline
p5054
F0.0
sVaffair
p5055
F2.182297661332704e-05
sVrob
p5056
F2.182297661332704e-05
sVfocus
p5057
F0.0014236696748067656
sVmodafinil
p5058
F0.0
sVremarkably
p5059
F0.0
sVempathize
p5060
F0.0
sVrow
p5061
F2.7537530513684212e-05
sVclarification
p5062
F0.0
sVenvironment
p5063
F6.546892983998111e-05
sVcharge
p5064
F8.729190645330815e-05
sVneckbeards
p5065
F0.0
sVpropanonol
p5066
F0.0
sVadvantage
p5067
F6.546892983998111e-05
sVimpend
p5068
F0.0
sVunfamiliar
p5069
F7.118348374033829e-05
sVsloppy
p5070
F3.559174187016914e-05
sVmasturbate
p5071
F0.00010677522561050743
sVcook
p5072
F0.0001745838129066163
sVcannabinoid
p5073
F0.0
sVcool
p5074
F7.118348374033829e-05
sVextreamly
p5075
F0.0
sVhour
p5076
F0.0005920569060442106
sVlevel
p5077
F9.416313369835962e-05
sVhawaii
p5078
F0.0
sVcloudy
p5079
F4.364595322665408e-05
sVquick
p5080
F2.1729953930390678e-05
sVwellbutrin
p5081
F0.0
sVslower
p5082
F0.00013093785967996222
sVtougher
p5083
F0.0
sVdorothy
p5084
F0.0
sVinyecta
p5085
F0.0
sVprefrontal
p5086
F0.0
sVpedo
p5087
F0.0
sVbake
p5088
F0.0
sVfear
p5089
F0.00013768765256842106
sVsubstitute
p5090
F0.0
sVstressful
p5091
F0.0001779587093508457
sV25mg
p5092
F0.0
sVreply
p5093
F0.0001745838129066163
sVwithdrawls
p5094
F0.0
sVwater
p5095
F0.0002065314788526316
sVthirty
p5096
F4.364595322665408e-05
sVhealthy
p5097
F0.0002065314788526316
sVweird
p5098
F0.00042683172296210524
sVstsrted
p5099
F0.0
sVemerge
p5100
F2.182297661332704e-05
sVtweak
p5101
F0.0
sV1st
p5102
F6.546892983998111e-05
sVcrisis
p5103
F0.0
sVsledgehammer
p5104
F3.559174187016914e-05
sVando
p5105
F0.0
sVvivid
p5106
F0.0
sVmst
p5107
F0.0
sVmsp
p5108
F0.0
sVprey
p5109
F3.559174187016914e-05
sVmemory
p5110
F0.00030291283565052633
sVpregabalin
p5111
F0.0
sVtoday
p5112
F0.00021746370662509314
sVsrni
p5113
F0.0
sVferraris
p5114
F0.0
sVchocolate
p5115
F2.182297661332704e-05
sVfuel
p5116
F0.0
sVedible
p5117
F0.00010677522561050743
sVelectroconvulsive
p5118
F0.0
sVreflux
p5119
F0.0
sVslightest
p5120
F0.0
sVtrump
p5121
F0.0
sVfigure
p5122
F0.0006765122750131381
sVnexus
p5123
F0.0
sVtdj6xlsnn9s
p5124
F0.0
sVsnris
p5125
F0.0
sV1
p5126
F0.0002100562213271099
sVvital
p5127
F7.118348374033829e-05
sVfourth
p5128
F2.182297661332704e-05
sVensure
p5129
F0.0001779587093508457
sVcocktail
p5130
F0.0003559174187016914
sVinformation
p5131
F0.0001745838129066163
sVscoff
p5132
F3.559174187016914e-05
sVservira
p5133
F0.0
sVbirthday
p5134
F6.546892983998111e-05
sVdexedrine
p5135
F0.0
sVmisdiagnosed
p5136
F0.0
sVeighth
p5137
F3.559174187016914e-05
sVunbelievably
p5138
F0.0
sVjoint
p5139
F0.0009253852886243977
sVstupidly
p5140
F0.0
sVinform
p5141
F0.0003203256768315223
sV1ohm
p5142
F0.0
sVlegitimate
p5143
F0.0
sVrefund
p5144
F0.0
sVexclusive
p5145
F3.559174187016914e-05
sVblocker
p5146
F0.0006050596117928754
sVmainly
p5147
F0.0001745838129066163
sVymmv
p5148
F0.0
sVmoducare
p5149
F0.0
sVgoverement
p5150
F0.0
sVideation
p5151
F0.0
sVamelioration
p5152
F0.0
sVtramacet
p5153
F0.0
sVlonely
p5154
F2.182297661332704e-05
sVpartiuclar
p5155
F0.0
sVwagon
p5156
F3.559174187016914e-05
sVterm
p5157
F0.000647131967071579
sVname
p5158
F9.054147470996116e-05
sVstabilize
p5159
F0.0
sVstahl
p5160
F0.0
sVnami
p5161
F0.0
sVrealistic
p5162
F0.0
sVftjvekw
p5163
F0.0
sVrealise
p5164
F0.0
sVshy
p5165
F1.3768765256842106e-05
sVindividually
p5166
F2.182297661332704e-05
sVailment
p5167
F0.0
sVdistributor
p5168
F0.0
sVultimately
p5169
F0.0001779587093508457
sVconcur
p5170
F0.0
sVprofit
p5171
F0.0001779587093508457
sVmiddleman
p5172
F0.0
sVsomeplace
p5173
F3.559174187016914e-05
sVsweet
p5174
F4.130629577052632e-05
sVtheory
p5175
F0.00021355045122101486
sVclozaril
p5176
F0.0
sVescitralopram
p5177
F0.0
sVcompression
p5178
F0.0
sVflare
p5179
F0.0
sVgranule
p5180
F0.0
sV10mg
p5181
F0.0
sVmotion
p5182
F2.182297661332704e-05
sVturn
p5183
F0.0003221684542593972
sVplace
p5184
F0.00015573133650113318
sVswing
p5185
F0.000498284386182368
sVchildhood
p5186
F0.0
sV1000
p5187
F4.364595322665408e-05
sVorigin
p5188
F7.118348374033829e-05
sVrevenue
p5189
F0.0
sVawfully
p5190
F2.182297661332704e-05
sVhypothyroid
p5191
F0.0
sVnecessarily
p5192
F0.00019640678951994334
sVcarbonate
p5193
F0.0
sVoids
p5194
F0.0
sVstimulation
p5195
F7.118348374033829e-05
sVwelfare
p5196
F3.559174187016914e-05
sVlegally
p5197
F0.00010677522561050743
sVwhite
p5198
F7.248790220836437e-05
sVfexofenadine
p5199
F0.0
sVhug
p5200
F0.000249142193091184
sVbeyondmeds
p5201
F0.0
sVcope
p5202
F0.00014236696748067657
sVseason
p5203
F3.559174187016914e-05
sVhun
p5204
F0.0
sVholder
p5205
F3.559174187016914e-05
sVspecify
p5206
F3.559174187016914e-05
sVpopulation
p5207
F2.182297661332704e-05
sVwide
p5208
F4.027105678242465e-05
sVunfortunately
p5209
F0.0010677522561050744
sVrequire
p5210
F0.0003203256768315223
sVoutcome
p5211
F0.0
sVoath
p5212
F3.559174187016914e-05
sVpre
p5213
F0.00010911488306663518
sVdecemberists
p5214
F0.0
sVpro
p5215
F0.0
sVprn
p5216
F0.0
sVant
p5217
F0.0
sVrent
p5218
F7.118348374033829e-05
sVtylenol
p5219
F0.0
sVmarathon
p5220
F0.0
sVsumatriptan
p5221
F0.0
sVexploratory
p5222
F0.0
sVacclimatize
p5223
F0.0
sVideal
p5224
F6.546892983998111e-05
sVfracture
p5225
F0.0
sVcrimini
p5226
F0.0
sVblunt
p5227
F7.118348374033829e-05
sVurge
p5228
F0.0
sVsure
p5229
F0.0008779090378568574
sVmultiple
p5230
F0.00045828250887986784
sVimpulsively
p5231
F0.0
sVtendon
p5232
F0.0
sVneuro
p5233
F0.0
sVcortef
p5234
F0.0
sVhungry
p5235
F8.729190645330815e-05
sVcortex
p5236
F0.0
sVreadjust
p5237
F0.0
sVuncle
p5238
F3.559174187016914e-05
sVsenior
p5239
F3.559174187016914e-05
sVquantity
p5240
F0.0
sVwebmd
p5241
F0.0
sVdrastically
p5242
F0.0
sVset
p5243
F6.156820280277359e-05
sVcheat
p5244
F7.118348374033829e-05
sVrecipe
p5245
F0.0
sVtizanidine
p5246
F0.0
sVhack
p5247
F3.559174187016914e-05
sVvenlafaxin
p5248
F0.0
sVspacey
p5249
F0.0
sVpercs
p5250
F0.0
sVnlm
p5251
F0.0
sVlopram
p5252
F0.0
sVpartake
p5253
F3.559174187016914e-05
sVvyvanse
p5254
F0.0
sVnootropics
p5255
F0.0
sVtinnitus
p5256
F0.0
sVhorrible
p5257
F0.0007201582282397922
sVexpectation
p5258
F0.0
sVtailor
p5259
F0.0
sVssi
p5260
F0.0
sVssd
p5261
F0.0
sVreveal
p5262
F2.182297661332704e-05
sVattentiveness
p5263
F0.0
sVendorphin
p5264
F0.0
sVpicnic
p5265
F0.0
sVcollege
p5266
F0.0005338761280525372
sVability
p5267
F0.0005237514387198489
sVdetect
p5268
F3.559174187016914e-05
sVinhibitory
p5269
F0.0
sVreview
p5270
F0.0
sVoutside
p5271
F3.6216589883984466e-05
sVstims
p5272
F0.0
sVcomp
p5273
F3.559174187016914e-05
sVcomo
p5274
F0.0
sVvenlafaxine
p5275
F0.0
sVrapidly
p5276
F2.7537530513684212e-05
sVcomb
p5277
F2.182297661332704e-05
sVcome
p5278
F0.00044908571456140733
sVreaction
p5279
F0.0006546892983998111
sVtopamax
p5280
F0.0
sVwhatevers
p5281
F0.0
sVregion
p5282
F0.00010911488306663518
sV23
p5283
F2.7537530513684212e-05
sVquiet
p5284
F8.05421135648493e-06
sVcontract
p5285
F4.364595322665408e-05
sVduty
p5286
F4.364595322665408e-05
sVafterwards
p5287
F4.130629577052632e-05
sVhepatotoxicity
p5288
F0.0
sVcolor
p5289
F5.5075061027368425e-05
sVpot
p5290
F0.0001745838129066163
sVpor
p5291
F3.559174187016914e-05
sVperiod
p5292
F0.00014497580441672874
sVinsist
p5293
F0.00010677522561050743
sVmessin
p5294
F0.0
sVsatisfaction
p5295
F7.118348374033829e-05
sVthegov
p5296
F0.0
sVpole
p5297
F2.182297661332704e-05
sV66
p5298
F0.00010677522561050743
sVapproval
p5299
F0.0
sVbizarre
p5300
F3.559174187016914e-05
sVdorsolateral
p5301
F0.0
sVturkey
p5302
F0.0016372201260277804
sVpeaceful
p5303
F3.559174187016914e-05
sVhardly
p5304
F8.729190645330815e-05
sV500
p5305
F0.0001779587093508457
sVdoluxetine
p5306
F0.0
sVdirection
p5307
F3.6216589883984467e-06
sVpioglitazone
p5308
F0.0
sVreimburse
p5309
F0.0
sVtiger
p5310
F0.0
sVmuscular
p5311
F2.182297661332704e-05
sVcareful
p5312
F0.00039281357903988667
sVspirit
p5313
F2.7537530513684212e-05
sVcase
p5314
F0.0004349274132501863
sVcash
p5315
F6.546892983998111e-05
sVpremature
p5316
F3.559174187016914e-05
sVcast
p5317
F8.05421135648493e-06
sVvest
p5318
F4.364595322665408e-05
sVside_effect
p5319
F0.0
sVsomeone
p5320
F0.0
sVmentalhealthdaily
p5321
F0.0
sV23440848
p5322
F0.0
sVresentful
p5323
F0.0
sVrheumatologist
p5324
F0.0
sVbowl
p5325
F3.559174187016914e-05
sVrelaxant
p5326
F0.0
sVcheck
p5327
F0.0007201582282397922
sVhtml
p5328
F0.0001779587093508457
sVmacaroni
p5329
F3.559174187016914e-05
sVsuboxone
p5330
F0.0
sVreminder
p5331
F0.00014236696748067657
sVweek
p5332
F0.0011290387510610527
sVween
p5333
F0.0
sVrefusal
p5334
F0.0
sVdriver
p5335
F8.729190645330815e-05
sVness
p5336
F3.559174187016914e-05
sVweed
p5337
F0.0009609770304945668
sVoxycontin
p5338
F0.0
sVdelicate
p5339
F3.559174187016914e-05
sVminimize
p5340
F7.118348374033829e-05
sVranch
p5341
F3.559174187016914e-05
sVwithout
p5342
F0.0
sVrelief
p5343
F0.0
sVinability
p5344
F0.00010677522561050743
sVmodel
p5345
F2.7537530513684212e-05
sVreward
p5346
F4.364595322665408e-05
sVjustify
p5347
F0.0
sVninth
p5348
F0.0
sVdysautonomia
p5349
F0.0
sVclot
p5350
F0.0
sVviolent
p5351
F7.118348374033829e-05
sVunclear
p5352
F2.182297661332704e-05
sVcease
p5353
F3.559174187016914e-05
sVnaproate
p5354
F0.0
sVhalfway
p5355
F7.118348374033829e-05
sVblow
p5356
F3.221684542593972e-05
sVexcept
p5357
F0.00020135528391212326
sVcomplain
p5358
F0.00021822976613327036
sVdisrupt
p5359
F0.0
sVanchovy
p5360
F0.0
sVfridge
p5361
F3.559174187016914e-05
sVtanto
p5362
F0.0
sVhydros
p5363
F0.0
sVfurniture
p5364
F7.118348374033829e-05
sVacute
p5365
F0.0
sVfibromyalgia
p5366
F0.0
sVsanity
p5367
F0.0
sVneuralgia
p5368
F0.0
sVibuprofen
p5369
F0.0
sVslice
p5370
F0.0001779587093508457
sVmood
p5371
F0.001593077292772874
sVrenounce
p5372
F0.0
sVlegal
p5373
F0.00039150916057186056
sV2g
p5374
F0.0
sVprovider
p5375
F0.0
sVcompulsion
p5376
F0.0
sVkilter
p5377
F0.0
sVpolite
p5378
F0.0
sVinhale
p5379
F7.118348374033829e-05
sVfantasize
p5380
F0.0
sVcalmer
p5381
F0.0
sVyay
p5382
F0.0
sVol
p5383
F2.182297661332704e-05
sVok
p5384
F0.0002203002441094737
sVoh
p5385
F0.0008510960879197546
sVketoprofen
p5386
F0.0
sVod
p5387
F0.0
sVob
p5388
F0.0
sVmutually
p5389
F3.559174187016914e-05
sVstand
p5390
F8.05421135648493e-05
sVdoze
p5391
F0.0
sVspondyloarthropathy
p5392
F0.0
sVot
p5393
F0.0
sVop
p5394
F0.0005338761280525372
sVamber
p5395
F0.00014236696748067657
sVtribe
p5396
F3.559174187016914e-05
sVcambridge
p5397
F0.0
sVlantus
p5398
F0.0
sVcommunication
p5399
F0.0
sVgarner
p5400
F0.0
sVspinal
p5401
F0.0
sVdetermine
p5402
F0.000249142193091184
sVjanuvia
p5403
F0.0
sVtheoretically
p5404
F0.0
sVstrictly
p5405
F4.364595322665408e-05
sVracism
p5406
F0.00010677522561050743
sVstrict
p5407
F3.559174187016914e-05
sVvalley
p5408
F3.559174187016914e-05
sVenergy
p5409
F0.0017439953516382879
sV750
p5410
F3.559174187016914e-05
sVregard
p5411
F0.0
sVaniracetam
p5412
F0.0
sVstrenuous
p5413
F0.0
sVpromote
p5414
F3.559174187016914e-05
sVfaster
p5415
F4.130629577052632e-05
sVwholesale
p5416
F0.0
sVexcruciate
p5417
F0.0
sVmedrol
p5418
F0.0
sVnootropic
p5419
F0.0
sVgrasp
p5420
F0.0
sVennui
p5421
F0.0
sVgrass
p5422
F1.3768765256842106e-05
sVstrongly
p5423
F0.0
sVtoilet
p5424
F3.559174187016914e-05
sVautoimmune
p5425
F0.0
sVtaste
p5426
F0.00015145641782526317
sVssri
p5427
F0.0
sVtasty
p5428
F0.0
sVcbt
p5429
F0.0
sVincorrect
p5430
F7.118348374033829e-05
sVtasing
p5431
F0.0
sVpuberty
p5432
F0.0
sVbiochemistry
p5433
F0.0
sVdeserve
p5434
F0.000249142193091184
sVdiarrhea
p5435
F0.0001779587093508457
sV5
p5436
F0.0001955695853735161
sVbesos
p5437
F0.0
sVbriefly
p5438
F0.00021355045122101486
sVseparate
p5439
F6.546892983998111e-05
sVtaperig
p5440
F0.0
sVspouse
p5441
F3.559174187016914e-05
sVcarbs
p5442
F7.118348374033829e-05
sVclinically
p5443
F0.0
sVwife
p5444
F0.0003491676258132326
sVcurve
p5445
F4.364595322665408e-05
sVfizzle
p5446
F0.0
sVcatapres
p5447
F0.0
sVlace
p5448
F0.0
sVlack
p5449
F0.0001530300157732137
sVala
p5450
F2.182297661332704e-05
sVsulfonylurea
p5451
F0.0
sVdisc
p5452
F0.0
sVgeneralize
p5453
F0.0
sVfollow
p5454
F0.0001530300157732137
sVmeditation
p5455
F0.0
sVsynthetic
p5456
F3.559174187016914e-05
sVapartment
p5457
F0.0001779587093508457
sValbenza
p5458
F0.0
sVprogram
p5459
F0.00032734464919990556
sVdairy
p5460
F0.0
sVpresentation
p5461
F3.559174187016914e-05
sVtraditionally
p5462
F0.0
sVuptick
p5463
F0.0
sVwoman
p5464
F4.8325268138909584e-05
sVworse
p5465
F0.0007409874447966136
sVsong
p5466
F8.05421135648493e-06
sVfar
p5467
F0.00027524608311828194
sVfat
p5468
F0.00032734464919990556
sVpsychologist
p5469
F0.0
sVworst
p5470
F0.001112971807279679
sVpcos
p5471
F0.0
sVawful
p5472
F0.0003992941924484211
sVticket
p5473
F7.118348374033829e-05
sVchronic_painc05_fig
p5474
F0.0
sVstimulus
p5475
F0.0
sVlist
p5476
F0.0005507506102736843
sVoveruse
p5477
F0.0
sVpsycadelics
p5478
F0.0
sVremeron
p5479
F0.0
sVten
p5480
F8.859632492133424e-05
sVtea
p5481
F4.130629577052632e-05
sVrate
p5482
F0.0002836986959732515
sVdesign
p5483
F6.546892983998111e-05
sVaropax
p5484
F0.0
sVsue
p5485
F3.559174187016914e-05
sVsub
p5486
F5.5075061027368425e-05
sVdeeply
p5487
F2.182297661332704e-05
sVbrief
p5488
F7.118348374033829e-05
sVoverload
p5489
F0.0
sVcrush
p5490
F7.118348374033829e-05
sVversion
p5491
F0.00026187571935992445
sVnoraml
p5492
F0.0
sVsupposedly
p5493
F7.118348374033829e-05
sVshouldn
p5494
F0.00016522518308210527
sVmethyphendiate
p5495
F0.0
sVhopelessness
p5496
F0.0
sVgabaa
p5497
F0.0
sVgabab
p5498
F0.0
sVrelaxation
p5499
F0.0
sVepitome
p5500
F0.0
sVtragedy
p5501
F0.0
sVmisinterpret
p5502
F0.0
sVverry
p5503
F0.0
sVtightness
p5504
F0.0
sVthankfully
p5505
F0.0
sVsuddenly
p5506
F0.00010470474763430411
sVsolitude
p5507
F0.0
sVmunchies
p5508
F7.118348374033829e-05
sVproceed
p5509
F4.130629577052632e-05
sVfaint
p5510
F0.00010677522561050743
sVinterception
p5511
F0.0
sVirritate
p5512
F0.0
sVminor
p5513
F0.00015145641782526317
sVflat
p5514
F2.4162634069454792e-05
sVflag
p5515
F5.5075061027368425e-05
sVoxymorphone
p5516
F0.0
sVbasically
p5517
F0.0007830183211437211
sV20000
p5518
F0.0
sVmellow
p5519
F3.559174187016914e-05
sVglad
p5520
F0.00019330107255563833
sVactua
p5521
F0.0
sVorignarly
p5522
F0.0
sVv
p5523
F0.0003203256768315223
sVatrocious
p5524
F3.559174187016914e-05
sVabandonment
p5525
F0.0
sVconspire
p5526
F0.0
sVarise
p5527
F0.0
sVpond
p5528
F3.559174187016914e-05
sVcourt
p5529
F4.364595322665408e-05
sVgoal
p5530
F0.0003559174187016914
sVrather
p5531
F0.00021746370662509314
sVoccasionally
p5532
F0.00013768765256842106
sVactivator
p5533
F0.0
sVlns0pfnyj4u
p5534
F0.0
sVsandwich
p5535
F0.00010677522561050743
sVubiquitous
p5536
F0.0
sVfungus
p5537
F0.0
sVmaprotiline
p5538
F0.0
sVadventure
p5539
F3.559174187016914e-05
sVnumb
p5540
F0.0
sVahhhem
p5541
F0.0
sVshort
p5542
F7.605483875636738e-05
sVshady
p5543
F0.0
sVsupervision
p5544
F0.0
sVdentro
p5545
F0.0
sVmultivitamin
p5546
F0.0
sVseptember
p5547
F0.0
sVscientist
p5548
F0.0
sVstyle
p5549
F8.05421135648493e-06
sV2leqii
p5550
F0.0
sVsusceptible
p5551
F0.0
sVsale
p5552
F3.559174187016914e-05
sVmattress
p5553
F7.118348374033829e-05
sVresort
p5554
F0.0
sVstephen
p5555
F0.0
sVbout
p5556
F0.00014236696748067657
sVsoccer
p5557
F0.0
sVpram
p5558
F3.559174187016914e-05
sVpolypharmacy
p5559
F0.0
sVwouldn
p5560
F0.0002577347634075178
sVreturn
p5561
F9.665053627781917e-05
sVnumber
p5562
F0.00023406900936631577
sVframework
p5563
F3.559174187016914e-05
sVbelittle
p5564
F0.0
sVbigger
p5565
F8.261259154105263e-05
sV400mg
p5566
F0.0
sVinequality
p5567
F0.0
sVinherent
p5568
F3.559174187016914e-05
sVklean
p5569
F0.0
sVnicotine
p5570
F0.0
sVweight
p5571
F0.0010792643217689807
sVgeneration
p5572
F0.0
sVbrother
p5573
F0.00010911488306663518
sVexpect
p5574
F9.778479268675805e-05
sVinflict
p5575
F0.0
sValcohol
p5576
F0.000567397391946503
sVadhere
p5577
F0.0
sVhealth
p5578
F0.0013880779329365966
sVshipment
p5579
F0.0
sVfiber
p5580
F0.0
sVhydroxyzine
p5581
F0.0
sVfriday
p5582
F0.0
sVforgive
p5583
F4.364595322665408e-05
sVteach
p5584
F3.559174187016914e-05
sVgenerate
p5585
F3.559174187016914e-05
sVthread
p5586
F0.00021355045122101486
sVthreat
p5587
F0.0
sVtwenty
p5588
F1.3768765256842106e-05
sVconsequence
p5589
F0.0
sVrecolocando
p5590
F0.0
sVding
p5591
F0.0
sVunhealthy
p5592
F7.118348374033829e-05
sVfeel
p5593
F0.001412447005475394
sVrelate
p5594
F0.0
sVsympathy
p5595
F0.00021355045122101486
sVblank
p5596
F1.3768765256842106e-05
sVadderal
p5597
F0.0
sVstory
p5598
F0.000567397391946503
sVtemperature
p5599
F4.364595322665408e-05
sVscript
p5600
F0.0003559174187016914
sVinteract
p5601
F0.000498284386182368
sVporn
p5602
F3.559174187016914e-05
sVantiseizure
p5603
F0.0
sVstort
p5604
F0.0
sVstorm
p5605
F4.364595322665408e-05
sVsyrup
p5606
F0.0
sVstore
p5607
F6.546892983998111e-05
sVheadache
p5608
F0.0018507705772487955
sV12yrs
p5609
F0.0
sVoption
p5610
F0.0017439953516382879
sVpump
p5611
F0.00014236696748067657
sVhotel
p5612
F2.182297661332704e-05
sVserotonin
p5613
F0.0
sVluckily
p5614
F0.0
sVhorrifically
p5615
F0.0
sVreliever
p5616
F0.0
sVneuropathic
p5617
F0.0
sVking
p5618
F6.546892983998111e-05
sVkind
p5619
F0.0
sVvial
p5620
F0.0
sVdouble
p5621
F0.00010911488306663518
sVinstruction
p5622
F0.00010677522561050743
sVoutrageous
p5623
F4.364595322665408e-05
sVmedicate
p5624
F0.0
sVdank
p5625
F0.0
sV1800mgs
p5626
F0.0
sV800mg
p5627
F0.0
sVrestful
p5628
F0.0
sVrisky
p5629
F3.559174187016914e-05
sVmotivation
p5630
F0.0
sVstorytelling
p5631
F0.0
sVexert
p5632
F0.0
sVstrengthen
p5633
F0.0
sVcognizant
p5634
F0.0
sVetizolam
p5635
F0.0
sVgall
p5636
F0.0
sVrochester
p5637
F0.0
sVlardass
p5638
F0.0
sVeffexor
p5639
F0.0
sVeff
p5640
F0.0
sVbuff
p5641
F0.0
sVjsf
p5642
F0.0
sVelectric
p5643
F8.729190645330815e-05
sVcustomize
p5644
F3.559174187016914e-05
sVreach
p5645
F0.00012391888731157896
sVreact
p5646
F0.00032734464919990556
sVcigarette
p5647
F6.546892983998111e-05
sV75
p5648
F0.00010677522561050743
sVjsp
p5649
F3.559174187016914e-05
sVantihistaminic
p5650
F0.0
sV70
p5651
F2.7537530513684212e-05
sVnothing
p5652
F0.000300597696037071
sVsatanmd
p5653
F0.0
sVmineral
p5654
F3.559174187016914e-05
sVkapvay
p5655
F0.0
sVnefazodone
p5656
F0.0
sVtraditional
p5657
F6.546892983998111e-05
sVnotch
p5658
F3.559174187016914e-05
sVindomethacin
p5659
F0.0
sVwayside
p5660
F0.0
sVroutinely
p5661
F0.0
sVpostsynaptic
p5662
F0.0
sVaggravate
p5663
F0.0
sVpradaxa
p5664
F0.0
sVhip
p5665
F0.000249142193091184
sVtriangle
p5666
F3.559174187016914e-05
sVbabble
p5667
F0.0
sVlongest
p5668
F3.559174187016914e-05
sVdeaden
p5669
F0.0
sVdose
p5670
F0.0058726374085779085
sVtratamiento
p5671
F0.0
sVxopenex
p5672
F0.0
sVclonic
p5673
F0.0
sVinvestigate
p5674
F8.729190645330815e-05
sVactivity
p5675
F0.0006762430955332137
sVdizziness
p5676
F0.0006050596117928754
sVfireteam
p5677
F0.0
sVvulva
p5678
F0.0
sVart
p5679
F1.3768765256842106e-05
sVdump
p5680
F0.0001745838129066163
sVintelligence
p5681
F0.0
sVpvc
p5682
F0.0
sVdumb
p5683
F0.00010911488306663518
sVthistle
p5684
F0.0
sVarm
p5685
F4.130629577052632e-05
sVvarious
p5686
F0.00033045036616421053
sVnumerous
p5687
F8.729190645330815e-05
sVrecently
p5688
F0.0002577347634075178
sVinitially
p5689
F0.00015276083629328925
sVattention
p5690
F0.00012081317034727396
sVulcerative
p5691
F0.0
sVsucceed
p5692
F0.0
sVsolu
p5693
F0.0
sVc
p5694
F2.8973271907187574e-05
sVprescription
p5695
F0.0
sVcontext
p5696
F2.182297661332704e-05
sValbeit
p5697
F0.0
sVdistress
p5698
F3.559174187016914e-05
sVsepsis
p5699
F0.0
sVwhelp
p5700
F0.0
sVdecline
p5701
F0.00014236696748067657
sVseratraline
p5702
F0.0
sVpt
p5703
F0.00010677522561050743
sVduo
p5704
F3.559174187016914e-05
sVdud
p5705
F0.0
sVdue
p5706
F0.0012002637137329872
sVchronic_painc02_fig
p5707
F0.0
sVstrategy
p5708
F0.00010677522561050743
sVpc
p5709
F3.559174187016914e-05
sVreduction
p5710
F7.118348374033829e-05
sVpa
p5711
F0.0
sVresultat
p5712
F0.0
sVpm
p5713
F0.0
sVflight
p5714
F1.3768765256842106e-05
sVvaguely
p5715
F3.559174187016914e-05
sVdemand
p5716
F5.5075061027368425e-05
sVgeorgia
p5717
F0.0
sVnoticeable
p5718
F7.118348374033829e-05
sVbatch
p5719
F0.0
sVkick
p5720
F0.0002203002441094737
sVbehavior
p5721
F8.729190645330815e-05
sVconcurrently
p5722
F0.0
sVrit
p5723
F0.0
sVdemon
p5724
F0.00010677522561050743
sVrip
p5725
F3.559174187016914e-05
sVrid
p5726
F0.0002836986959732515
sVlengthy
p5727
F3.559174187016914e-05
sVdelicious
p5728
F8.05421135648493e-06
sVwidely
p5729
F0.0
sV9
p5730
F8.859632492133424e-05
sVitchy
p5731
F0.0
sVhigher
p5732
F0.00022551791798157804
sVliterature
p5733
F0.00010677522561050743
sVrecalibrate
p5734
F0.0
sVrobust
p5735
F2.182297661332704e-05
sVlower
p5736
F0.00017719264984266848
sVnoodle
p5737
F3.559174187016914e-05
sVcingulate
p5738
F0.0
sVanybody
p5739
F7.118348374033829e-05
sVcheer
p5740
F0.0
sVedge
p5741
F8.05421135648493e-05
sVgaveanxiety
p5742
F0.0
sVcompetitive
p5743
F0.0
sVvigilant
p5744
F0.0
sVprofitable
p5745
F0.0
sVtablet
p5746
F0.000249142193091184
sVk2
p5747
F0.0
sVinternal
p5748
F4.364595322665408e-05
sVproblematic
p5749
F0.00010677522561050743
sVcomplaint
p5750
F0.0
sVapnea
p5751
F0.0
sVzofran
p5752
F0.0
sVadvocate
p5753
F0.0
sVunlimited
p5754
F0.0
sVahem
p5755
F0.0
sVskeptical
p5756
F7.118348374033829e-05
sVconfront
p5757
F7.118348374033829e-05
sVseparately
p5758
F3.559174187016914e-05
sVdistrust
p5759
F0.0
sVmitrazapine
p5760
F0.0
sVunstable
p5761
F3.559174187016914e-05
sVessential
p5762
F0.0
sVecology
p5763
F0.0
sVpaxil
p5764
F0.0
sVdiclofenac
p5765
F0.0
sVgradually
p5766
F0.0
sVprop
p5767
F0.0
sVtendr
p5768
F0.0
sVapathetic
p5769
F0.0
sVzzz
p5770
F0.0
sVlose
p5771
F0.00027524608311828194
sVzombie
p5772
F0.0008542018048840594
sVintense
p5773
F0.00026187571935992445
sVcautious
p5774
F3.559174187016914e-05
sVordeal
p5775
F0.0
sVrange
p5776
F4.027105678242465e-05
sVhatred
p5777
F0.0
sVwanna
p5778
F4.364595322665408e-05
sVnortriptyline
p5779
F0.0
sVmomma
p5780
F3.559174187016914e-05
sVwaklert
p5781
F0.0
sVentitlement
p5782
F3.559174187016914e-05
sVquestion
p5783
F0.00020940949526860822
sVfast
p5784
F0.0001530300157732137
sVanalyze
p5785
F0.0
sVplunge
p5786
F0.0
sVreassurance
p5787
F0.0
sVfamilia
p5788
F0.0
sVjunior
p5789
F0.0
sVeclampsia
p5790
F0.0
sVmalate
p5791
F0.0
sV6lbs
p5792
F0.0
sVhighlight
p5793
F3.559174187016914e-05
sVfreak
p5794
F0.0003203256768315223
sVworthwhile
p5795
F7.118348374033829e-05
sVamitryptyline
p5796
F0.0
sVsuggestible
p5797
F0.0
sVantidysrhythmic
p5798
F0.0
sVlemon
p5799
F4.364595322665408e-05
sVstraterra
p5800
F0.0
sVendurance
p5801
F0.0
sVpeace
p5802
F0.00014236696748067657
sVnico
p5803
F0.0
sVincome
p5804
F0.0
sVmock
p5805
F0.0
sVnice
p5806
F0.0
sVamphetamine
p5807
F0.0
sV2d6
p5808
F0.0
sVhappier
p5809
F0.00010677522561050743
sVvice
p5810
F0.00010677522561050743
sV25lbs
p5811
F0.0
sVintentional
p5812
F0.0
sVcomingling
p5813
F0.0
sVresistance
p5814
F0.00010677522561050743
sVneigborhood
p5815
F0.0
sVadjustment
p5816
F0.0
sVshowthread
p5817
F0.0
sVitll
p5818
F0.0
sVrepackage
p5819
F0.0
sVstable
p5820
F0.0005338761280525372
sVinclude
p5821
F0.0012002637137329872
sVdramatically
p5822
F0.00010677522561050743
sVrag
p5823
F0.00021355045122101486
sVfwiw
p5824
F0.0
sVmainstream
p5825
F3.559174187016914e-05
sVfluoxetine
p5826
F0.0
sVoutdoorsy
p5827
F3.559174187016914e-05
sVdisclaimer
p5828
F7.118348374033829e-05
sVsomeday
p5829
F3.559174187016914e-05
sVsmaller
p5830
F9.638135679789473e-05
sVsensation
p5831
F0.0
sVfold
p5832
F4.364595322665408e-05
sVsciatica
p5833
F0.0
sVacid
p5834
F0.00024005274274659745
sVfolk
p5835
F0.00021355045122101486
sVcopays
p5836
F0.0
sVdegree
p5837
F0.0001745838129066163
sVtopomax
p5838
F0.0
sVbulimia
p5839
F0.0
sVexplore
p5840
F0.00014236696748067657
sVseparation
p5841
F0.0
sVibs
p5842
F0.0
sVrobaxin
p5843
F0.0
sVlarger
p5844
F5.5075061027368425e-05
sVopiate
p5845
F0.0
sVinatentive
p5846
F0.0
sVapple
p5847
F2.4162634069454792e-05
sVforbid
p5848
F3.559174187016914e-05
sVaps
p5849
F0.0
sVapt
p5850
F0.0
sVduck
p5851
F2.182297661332704e-05
sVapply
p5852
F6.546892983998111e-05
sVuse
p5853
F0.000836603226320041
sVfee
p5854
F0.0
sVlottery
p5855
F3.559174187016914e-05
sVhippie
p5856
F7.118348374033829e-05
sVconsumption
p5857
F3.559174187016914e-05
sVfem
p5858
F7.118348374033829e-05
sVscariest
p5859
F0.0
sVattribute
p5860
F6.546892983998111e-05
sVfrot
p5861
F0.0
sVpsoriasis
p5862
F0.0
sVclever
p5863
F1.3768765256842106e-05
sVosteo
p5864
F0.0
sVcpy2d6
p5865
F0.0
sVmusician
p5866
F0.0
sVinfection
p5867
F7.118348374033829e-05
sVsore
p5868
F7.118348374033829e-05
sVrabbit
p5869
F2.182297661332704e-05
sVpenis
p5870
F3.559174187016914e-05
sVannoy
p5871
F0.000249142193091184
sVgeodon
p5872
F0.0
sVaugment
p5873
F0.0
sVcolumn
p5874
F3.559174187016914e-05
sVanywhere
p5875
F6.443369085187944e-05
sVstabilizer
p5876
F0.0
sVproof
p5877
F0.0
sVtomarlo
p5878
F0.0
sVthirsty
p5879
F3.559174187016914e-05
sVhypersomnia
p5880
F0.0
sVtax
p5881
F0.00014236696748067657
sVcarrot
p5882
F3.559174187016914e-05
sVsomething
p5883
F0.0005613571432017592
sVtab
p5884
F2.182297661332704e-05
sVtai
p5885
F0.0
sVsyndrome
p5886
F0.0008074501346931003
sVsit
p5887
F0.0001789939483389474
sVtamper
p5888
F0.0
sVsix
p5889
F0.0003491676258132326
sVfortunate
p5890
F0.0
sVbrian
p5891
F0.0
sVaurorix
p5892
F0.0
sVinstead
p5893
F0.0005232130797600001
sVpanic
p5894
F0.0
sVsin
p5895
F7.118348374033829e-05
sVsil
p5896
F0.0
sVtension
p5897
F0.0
sVmaternal
p5898
F0.0
sVattend
p5899
F6.546892983998111e-05
sV6mg
p5900
F0.0
sVnormalcy
p5901
F0.0
sVdiscomfort
p5902
F0.0
sVabuse
p5903
F0.0003203256768315223
sVwrist
p5904
F7.118348374033829e-05
sVhahahaha
p5905
F0.0
sVlight
p5906
F0.00013692159306024382
sVneuroimaging
p5907
F0.0
sVhonestly
p5908
F0.0007856271580797733
sVmeager
p5909
F0.0
sVwhilst
p5910
F2.182297661332704e-05
sV130
p5911
F2.182297661332704e-05
sV134
p5912
F0.0
sVsuperior
p5913
F0.0
sVcomplicate
p5914
F0.0
sVpermanent
p5915
F9.638135679789473e-05
sVrestrain
p5916
F0.0
sVchoose
p5917
F0.00015145641782526317
sVorange
p5918
F4.364595322665408e-05
sVricotta
p5919
F0.0
sVholiday
p5920
F0.00010911488306663518
sVpending
p5921
F0.0
sVcrash
p5922
F2.7537530513684212e-05
sVproair
p5923
F0.0
sVflour
p5924
F0.0
sVpractice
p5925
F0.0
sVnegligent
p5926
F0.0
sVeli5
p5927
F0.0
sVrepublican
p5928
F0.0
sVprofound
p5929
F3.559174187016914e-05
sVedit
p5930
F0.0009609770304945668
sVunpredictable
p5931
F0.00014236696748067657
sVtrap
p5932
F0.0
sVchamp
p5933
F0.0
sV180
p5934
F0.0
sVconvulsant
p5935
F0.0
sVmyelin
p5936
F0.0
sVweening
p5937
F0.0
sV80
p5938
F0.0
sVruptake
p5939
F0.0
sVcategory
p5940
F0.00013093785967996222
sVobvs
p5941
F0.0
sVyup
p5942
F0.0
sVplural
p5943
F3.559174187016914e-05
sVdisclose
p5944
F3.559174187016914e-05
sVmolly
p5945
F0.0
sVovertake
p5946
F0.0
sVorganic
p5947
F0.0
sVg
p5948
F2.7537530513684212e-05
sVmusculatura
p5949
F0.0
sVconversation
p5950
F5.637947949539451e-05
sVhence
p5951
F7.118348374033829e-05
sVhypomanic
p5952
F0.0
sVhealither
p5953
F0.0
sVpublication
p5954
F0.0
sVunknown
p5955
F2.182297661332704e-05
sVpriority
p5956
F0.0
sV1500
p5957
F0.0
sVanaemia
p5958
F0.0
sVshell
p5959
F2.182297661332704e-05
sVshelf
p5960
F0.0
sVropiniorole
p5961
F0.0
sVdiminish
p5962
F0.0
sVjuly
p5963
F3.559174187016914e-05
sVinstitution
p5964
F3.559174187016914e-05
sVcongenital
p5965
F0.0
sVisolation
p5966
F0.0
sVinfectious
p5967
F3.559174187016914e-05
sVrarity
p5968
F0.0
sVarouse
p5969
F0.0
sVelongate
p5970
F0.0
sVclit
p5971
F7.118348374033829e-05
sVsidewalk
p5972
F3.559174187016914e-05
sVunbearable
p5973
F0.0
sVafraid
p5974
F0.00012081317034727396
sVcspine
p5975
F0.0
sVsevela
p5976
F0.0
sVrout
p5977
F0.0
sVasshole
p5978
F7.118348374033829e-05
sVpharmacist
p5979
F0.0
sVcombat
p5980
F0.0
sVcentre
p5981
F0.00010677522561050743
sVharmful
p5982
F0.0
sVdigestive
p5983
F3.559174187016914e-05
sVlidocaine
p5984
F0.0
sVdelve
p5985
F0.0
sVhighschool
p5986
F3.559174187016914e-05
sVclass
p5987
F0.0004107647791807315
sVvortioxetine
p5988
F0.0
sVdiscourage
p5989
F0.0
sVatypical
p5990
F0.0004271009024420297
sV_is
p5991
F0.0
sVidiosyncratic
p5992
F0.0
sVgain
p5993
F0.002225943614559358
sVcheezit
p5994
F0.0
sVtrimester
p5995
F0.0
sVneurotoxic
p5996
F0.0
sVchicken
p5997
F0.00013093785967996222
sVear
p5998
F7.118348374033829e-05
sVmanacle
p5999
F0.0
sV60mg
p6000
F0.0
sVcombo
p6001
F0.0007830183211437211
sVcontortionist
p6002
F0.0
sVlocal
p6003
F0.00013093785967996222
sVphenylpiracetam
p6004
F0.0
sVcuba
p6005
F0.0
sVmidnight
p6006
F4.364595322665408e-05
sVdope
p6007
F0.00010677522561050743
sVdissolvable
p6008
F0.0
sVpenetrate
p6009
F0.0
sVqt
p6010
F7.118348374033829e-05
sV15th
p6011
F3.559174187016914e-05
sVview
p6012
F4.027105678242465e-05
sVeurope
p6013
F0.0
sVexpel
p6014
F0.0
sVmethylprednisolone
p6015
F0.0
sVcloser
p6016
F0.0001745838129066163
sVglucophage
p6017
F0.0
sVarguably
p6018
F0.0
sVreishi
p6019
F0.0
sVxray
p6020
F0.0
sVfavor
p6021
F4.364595322665408e-05
sVdoxepin
p6022
F0.0
sVjot
p6023
F0.0
sVexam
p6024
F3.559174187016914e-05
sVjoy
p6025
F2.182297661332704e-05
sVjob
p6026
F0.0004956755492463159
sVhypothesis
p6027
F3.559174187016914e-05
sVjoe
p6028
F0.0
sVprofanity
p6029
F0.0
sVapril
p6030
F0.0
sVgrain
p6031
F0.0
sVatleast
p6032
F0.0
sVtiffany
p6033
F0.0
sVsafely
p6034
F0.00010677522561050743
sVhehehe
p6035
F0.0
sVwall
p6036
F8.729190645330815e-05
sVwalk
p6037
F0.0004406004882189474
sVrph
p6038
F0.0
sVrosiglitazone
p6039
F0.0
sVwithdrawl
p6040
F0.0
sVdecent
p6041
F8.261259154105263e-05
sVproudest
p6042
F0.0
sVharshest
p6043
F0.0
sVsufficient
p6044
F0.0
sVcrappy
p6045
F6.546892983998111e-05
sVhmm
p6046
F5.5075061027368425e-05
sVpresent
p6047
F1.4486635953593787e-05
sVdangit
p6048
F0.0
sVunlike
p6049
F8.261259154105263e-05
sVwilt
p6050
F0.0
sVoding
p6051
F0.0
sVwild
p6052
F1.3768765256842106e-05
sVmedicinal
p6053
F7.118348374033829e-05
sVlayer
p6054
F8.729190645330815e-05
sVthus
p6055
F0.00039281357903988667
sVencouragement
p6056
F0.0
sVdual
p6057
F4.364595322665408e-05
sVave
p6058
F3.559174187016914e-05
sVrestrict_sr
p6059
F0.0
sVwhore
p6060
F3.559174187016914e-05
sVperhaps
p6061
F0.00032734464919990556
sVcross
p6062
F3.259493089558602e-05
sVmember
p6063
F0.00021355045122101486
sVadverse
p6064
F0.0
sVbuddhism
p6065
F0.0
sVdisorient
p6066
F0.0
sVdifficult
p6067
F0.0004130629577052632
sVbcps
p6068
F0.0
sVdefinately
p6069
F0.0
sVdisagree
p6070
F0.0
sVbeast
p6071
F1.3768765256842106e-05
sVstudent
p6072
F8.729190645330815e-05
sVpdf
p6073
F0.00010677522561050743
sVnonpainful
p6074
F0.0
sVwhole
p6075
F0.00037175666193473684
sVbrintilinex
p6076
F0.0
sV2lqzsb
p6077
F0.0
sVenglish
p6078
F3.559174187016914e-05
sVexcessive
p6079
F2.7537530513684212e-05
sVrocket
p6080
F0.0
sVheavily
p6081
F6.546892983998111e-05
sVpercent
p6082
F2.182297661332704e-05
sVwealthy
p6083
F0.0
sVobtain
p6084
F0.0
sVmfp
p6085
F0.0
sVrecollection
p6086
F3.559174187016914e-05
sVminiscule
p6087
F0.0
sVhappiness
p6088
F0.00021355045122101486
sVtca
p6089
F0.0
sVrapid
p6090
F0.0003203256768315223
sVsupply
p6091
F0.0003203256768315223
sVsky
p6092
F6.546892983998111e-05
sVadoption
p6093
F7.118348374033829e-05
sVusage
p6094
F6.546892983998111e-05
sVsmart
p6095
F4.364595322665408e-05
sVtizzy
p6096
F0.0
sVmyth
p6097
F3.559174187016914e-05
sVknow
p6098
F0.0011842824892062918
sVknot
p6099
F7.118348374033829e-05
sVpress
p6100
F4.130629577052632e-05
sVhelpful
p6101
F0.0010321605142349052
sVsafest
p6102
F0.0
sVsophomore
p6103
F0.0
sValpha2a
p6104
F0.0
sVexceed
p6105
F3.559174187016914e-05
sVsmoothly
p6106
F0.0
sVcx82q1f
p6107
F0.0
sVchurch
p6108
F2.182297661332704e-05
sVmelee
p6109
F0.0
sVgrowth
p6110
F3.559174187016914e-05
sVnsaid
p6111
F0.0
sVpsychoanalyst
p6112
F0.0
sVlead
p6113
F0.00022551791798157804
sVlean
p6114
F3.559174187016914e-05
sVlocate
p6115
F7.118348374033829e-05
sVslur
p6116
F0.0
sVdrol
p6117
F0.0
sVrare
p6118
F0.00028473393496135314
sVincline
p6119
F0.0
sVhookup
p6120
F0.0
sVndc
p6121
F0.0
sVdependence
p6122
F0.0
sVdependency
p6123
F0.00014236696748067657
sVepiphany
p6124
F0.0
sVswear
p6125
F7.118348374033829e-05
sVsweat
p6126
F0.0005694678699227063
sVresentida
p6127
F0.0
sVkinda
p6128
F0.0006762430955332137
sVsugary
p6129
F3.559174187016914e-05
sVtag
p6130
F2.182297661332704e-05
sVmras
p6131
F0.0
sVweather
p6132
F4.130629577052632e-05
sVpromise
p6133
F6.546892983998111e-05
sVbrush
p6134
F1.3768765256842106e-05
sVnegate
p6135
F0.0
sVeh
p6136
F1.3768765256842106e-05
sVuncontrollably
p6137
F0.0
sVnuke
p6138
F0.0
sVvag
p6139
F3.559174187016914e-05
sVuncontrollable
p6140
F0.0
sVvolume
p6141
F3.559174187016914e-05
sVphenelzineu
p6142
F0.0
sVsqueeze
p6143
F7.118348374033829e-05
sVtemp
p6144
F7.118348374033829e-05
sVwhether
p6145
F8.691981572156271e-05
sVdistract
p6146
F0.0
sVrecord
p6147
F0.00010911488306663518
sVcake
p6148
F6.546892983998111e-05
sVdemonstrate
p6149
F7.118348374033829e-05
sVhorrific
p6150
F0.0
sVcarbohydrate
p6151
F0.0
sVcounteract
p6152
F0.0
sVlobotomy
p6153
F3.559174187016914e-05
sVincredible
p6154
F0.00014236696748067657
sVboot
p6155
F0.00010677522561050743
sVbook
p6156
F0.00021822976613327036
sVsick
p6157
F0.0009609770304945668
sVincredibly
p6158
F0.0004146365556532138
sVsica
p6159
F0.0
sVconclusion
p6160
F4.364595322665408e-05
sVjunk
p6161
F2.182297661332704e-05
sVjune
p6162
F0.0
sVfrustrate
p6163
F0.0
sVpreform
p6164
F0.0
sVmetabolizer
p6165
F0.0
sVcliff
p6166
F2.182297661332704e-05
sVnexplanon
p6167
F0.0
sVhypervigilance
p6168
F0.0
sVintentionally
p6169
F7.118348374033829e-05
sVwellburtin
p6170
F0.0
s.