(dp0
Vsince
p1
F0.0009621190332134807
sVantipsychotics
p2
F0.0
sVvary
p3
F0.002898713162712691
sVmonth
p4
F0.0042793151251521305
sVtms
p5
F0.0
sVfile
p6
F0.004727597544137348
sVyears
p7
F0.0010698287812880326
sVconverting
p8
F0.0
sVlabel
p9
F0.0018288843814246577
sVlisinopril
p10
F0.0
sVthyroid
p11
F0.0
sVcopy
p12
F0.0018288843814246577
sVfit
p13
F0.0010698287812880326
sVwrites
p14
F0.004727597544137348
sVepileptic
p15
F0.0
sVsometimes
p16
F0.0010698287812880326
sVfailed
p17
F0.005797426325425382
sVenzyme
p18
F0.0
sVgoing
p19
F0.0
sV4
p20
F0.001443178549820221
sVstable
p21
F0.004727597544137348
sVamitriptyline
p22
F0.0
sVworth
p23
F0.0018288843814246577
sVhope
p24
F0.00048105951660674034
sVcognitive
p25
F0.0
sVtests
p26
F0.004727597544137348
sVgood
p27
F0.0
sVaround
p28
F0.00048105951660674034
sVchecking
p29
F0.002898713162712691
sVlisted
p30
F0.002898713162712691
sVmatters
p31
F0.002898713162712691
sVones
p32
F0.0018288843814246577
sVevery
p33
F0.0033674166162471824
sVeffects
p34
F0.002898713162712691
sVmom
p35
F0.009455195088274696
sVreport
p36
F0.002898713162712691
sVspecific
p37
F0.0018288843814246577
sVdose
p38
F0.004727597544137348
sVday
p39
F0.0
sVlike
p40
F0.0
sVschool
p41
F0.004727597544137348
sVinvestigational
p42
F0.0
sVfibromyalgia
p43
F0.0
sVd
p44
F0.0
sV_____________________________________________________
p45
F0.0
sVobsessive
p46
F0.0
sVprophylaxis
p47
F0.0
sVcry
p48
F0.005797426325425382
sVsolution
p49
F0.0
sVzonegran
p50
F0.0
sVtwice
p51
F0.0018288843814246577
sVbad
p52
F0.00048105951660674034
sVstuff
p53
F0.005486653144273974
sVstopped
p54
F0.0018288843814246577
sVmedications
p55
F0.0
sVactivity
p56
F0.004727597544137348
sVdone
p57
F0.00048105951660674034
sVround
p58
F0.0010698287812880326
sVgabapentin
p59
F0.0
sVheadache
p60
F0.009455195088274696
sVwork
p61
F0.0
sVold
p62
F0.0
sVyeah
p63
F0.002898713162712691
sVvalsartan
p64
F0.0
sVdepends
p65
F0.002898713162712691
sVbeta
p66
F0.004727597544137348
sVmarplan
p67
F0.0
sVduration
p68
F0.0
sVterms
p69
F0.0018288843814246577
sVmigraines
p70
F0.0
sVacid
p71
F0.002898713162712691
sVinsurance
p72
F0.004727597544137348
sVbest
p73
F0.00048105951660674034
sVplans
p74
F0.004727597544137348
sVeven
p75
F0.0019242380664269614
sVtry
p76
F0.0009621190332134807
sVallergic
p77
F0.004727597544137348
sVstill
p78
F0.0
sVrecently
p79
F0.0010698287812880326
sVvitamins
p80
F0.004727597544137348
sVnortryptiline
p81
F0.0
sVselected
p82
F0.004727597544137348
sVper
p83
F0.005797426325425382
sV25mg
p84
F0.0
sVlooking
p85
F0.0
sVeverything
p86
F0.001443178549820221
sV3
p87
F0.0010698287812880326
sVdoxepin
p88
F0.0
sVatenolol
p89
F0.0
sVprovider
p90
F0.0
sVmedicine
p91
F0.004727597544137348
sVprobably
p92
F0.0010698287812880326
sVspeak
p93
F0.002898713162712691
sVapproach
p94
F0.002898713162712691
sVfull
p95
F0.0
sVanticholinergic
p96
F0.0
sVdiltiazem
p97
F0.0
sVcandidate
p98
F0.002898713162712691
sVgenes
p99
F0.004727597544137348
sVvitamin
p100
F0.0
sVdiagnostic
p101
F0.0
sVhours
p102
F0.0032094863438640983
sVg
p103
F0.00914442190712329
sVqualify
p104
F0.0
sVadd
p105
F0.0018288843814246577
sVtopiramate
p106
F0.0
sValthough
p107
F0.0010698287812880326
sVmeet
p108
F0.002898713162712691
sVask
p109
F0.00048105951660674034
sVpost
p110
F0.002898713162712691
sVdry
p111
F0.002898713162712691
sVscary
p112
F0.004727597544137348
sVate
p113
F0.002898713162712691
sVlast
p114
F0.00048105951660674034
sVworking
p115
F0.0
sVlanguage
p116
F0.0018288843814246577
sVtopamax
p117
F0.0
sVjoke
p118
F0.002898713162712691
sVtaking
p119
F0.00048105951660674034
sVmonths
p120
F0.0018288843814246577
sVdays
p121
F0.006418972687728197
sVect
p122
F0.0
sVlasting
p123
F0.009455195088274696
sVmakes
p124
F0.0009621190332134807
sVside_effects
p125
F0.0
sVexperimental
p126
F0.0
sVfirst
p127
F0.00048105951660674034
sVsequenced
p128
F0.0
sVnerve
p129
F0.004727597544137348
sVslept
p130
F0.004727597544137348
sVtimolol
p131
F0.0
sVvalproic
p132
F0.0
sVgrade
p133
F0.004727597544137348
sVseems
p134
F0.0009621190332134807
sVnortriptyline
p135
F0.0
sVtwo
p136
F0.0
sV60
p137
F0.005797426325425382
sVchronic
p138
F0.004727597544137348
sVtons
p139
F0.002898713162712691
sVreceptor
p140
F0.0
sVnext
p141
F0.00048105951660674034
sVpointless
p142
F0.004727597544137348
sVpropranolol
p143
F0.0
sV14
p144
F0.007315537525698631
sVheadaches
p145
F0.0
sVlittle
p146
F0.0
sVtcas
p147
F0.0
sVtakes
p148
F0.0010698287812880326
sVwould
p149
F0.0
sVtest
p150
F0.0018288843814246577
sVcaught
p151
F0.0018288843814246577
sVnight
p152
F0.00048105951660674034
sVdue
p153
F0.002898713162712691
sVleast
p154
F0.0
sVlyme
p155
F0.0
sVclomipramine
p156
F0.0
sVstrict
p157
F0.004727597544137348
sV2
p158
F0.00048105951660674034
sVcall
p159
F0.00048105951660674034
sVlow
p160
F0.0021396575625760653
sVway
p161
F0.00048105951660674034
sV6
p162
F0.00048105951660674034
sVlosartan
p163
F0.0
sVnimodipine
p164
F0.0
sVantifungal
p165
F0.0
sVback
p166
F0.00048105951660674034
sVlife
p167
F0.00048105951660674034
sVlot
p168
F0.0
sVcriteria
p169
F0.0
sVrequires
p170
F0.004727597544137348
sVhurt
p171
F0.004727597544137348
sVpolicy
p172
F0.014182792632412046
sVappendix
p173
F0.0
sVbotox
p174
F0.0
sVhaven
p175
F0.0021396575625760653
sVcouldn
p176
F0.0021396575625760653
sVcase
p177
F0.0021396575625760653
sVlook
p178
F0.001443178549820221
sVtricyclics
p179
F0.0
sVrequire
p180
F0.004727597544137348
sVdepressants
p181
F0.0
sVsee
p182
F0.0009621190332134807
sVeasier
p183
F0.0018288843814246577
sVcalcium
p184
F0.0
sVclasses
p185
F0.0021396575625760653
sVthree
p186
F0.00048105951660674034
sVpolicies
p187
F0.0
sVanticonvulsants
p188
F0.0
sVmetoprolol
p189
F0.0
sVhappy
p190
F0.0010698287812880326
sVexample
p191
F0.0021396575625760653
sVmirtazapine
p192
F0.0
sVnifedipine
p193
F0.0
sVcrazy
p194
F0.002898713162712691
sVneeding
p195
F0.004727597544137348
sVautoimmune
p196
F0.0
sVadults
p197
F0.004727597544137348
sVll
p198
F0.0009621190332134807
sVgive
p199
F0.00048105951660674034
sValmost
p200
F0.00048105951660674034
sVssri
p201
F0.0
sVdivalproex
p202
F0.0
sValongside
p203
F0.002898713162712691
sVmine
p204
F0.0010698287812880326
sVii
p205
F0.0
sVheard
p206
F0.0010698287812880326
sVevening
p207
F0.002898713162712691
sVsomething
p208
F0.00048105951660674034
sVpushing
p209
F0.0010698287812880326
sVallowed
p210
F0.0010698287812880326
sVend
p211
F0.0009621190332134807
sVanymore
p212
F0.0018288843814246577
sVpreventives
p213
F0.0
sVtrials
p214
F0.0
sVmake
p215
F0.00048105951660674034
sVable
p216
F0.0010698287812880326
sVtreatment
p217
F0.004727597544137348
sVthinks
p218
F0.0018288843814246577
sVnardil
p219
F0.0
sVnadolol
p220
F0.0
sVpatient
p221
F0.004727597544137348
sVtoxin
p222
F0.0
sVonline
p223
F0.002898713162712691
sVfinding
p224
F0.0021396575625760653
sVinstead
p225
F0.0018288843814246577
sVchannel
p226
F0.002898713162712691
sVprofile
p227
F0.002898713162712691
sVbegin
p228
F0.0018288843814246577
sVused
p229
F0.0021396575625760653
sVblocks
p230
F0.0018288843814246577
sVtried
p231
F0.010973306288547948
sVbotulinum
p232
F0.0
sVverapamil
p233
F0.0
sVclass
p234
F0.0010698287812880326
sVblockers
p235
F0.014182792632412046
sVmoment
p236
F0.00048105951660674034
sVlevels
p237
F0.004727597544137348
sVmouth
p238
F0.0018288843814246577
sVplan
p239
F0.0036577687628493154
sVsnp
p240
F0.0
sVantinflammatory
p241
F0.0
sV23andme
p242
F0.0
sVunimaginably
p243
F0.0
sVmissed
p244
F0.002898713162712691
sVvortioxetine
p245
F0.0
sVlower
p246
F0.0010698287812880326
sVe
p247
F0.002405297583033702
sVlonger
p248
F0.00048105951660674034
sVolder
p249
F0.0010698287812880326
sVconsidered
p250
F0.002898713162712691
sVmaybe
p251
F0.0
sVangiotensin
p252
F0.0
sVinhibitors
p253
F0.0
sVminocycline
p254
F0.0
sVthink
p255
F0.0009621190332134807
sVaetna
p256
F0.0
sVmigraine
p257
F0.0
sVqualified
p258
F0.009455195088274696
sVprevention
p259
F0.0
sVpush
p260
F0.0018288843814246577
sVcure
p261
F0.004727597544137348
sVsounded
p262
F0.0
sVtalk
p263
F0.0018288843814246577
sVknow
p264
F0.0009621190332134807
s.