(dp0
Vescitalopram
p1
F0.0
sVcurrently
p2
F0.0016425288638861263
sVsuicidal
p3
F0.004245875519497761
sVhelp
p4
F0.0004320416037771436
sVstay
p5
F0.0009608177917255081
sVsertraline
p6
F0.0
sVfluvoxamine
p7
F0.0
sVchloropyridin
p8
F0.0
sVurine
p9
F0.004245875519497761
sVimipramine
p10
F0.0
sVsupplement
p11
F0.0
sVsleep
p12
F0.004927586591658379
sV4
p13
F0.0008640832075542872
sVtiredness
p14
F0.0
sVgo
p15
F0.0
sVactivating
p16
F0.008491751038995523
sVfind
p17
F0.0
sVc17h17cln6o3
p18
F0.0
sValiases
p19
F0.0
sVthyroid
p20
F0.0
sV25
p21
F0.0032850577277722527
sV45
p22
F0.0016425288638861263
sVcompose
p23
F0.004245875519497761
sVsystem
p24
F0.0009608177917255081
sV22
p25
F0.0016425288638861263
sVthinking
p26
F0.0016425288638861263
sVnervous
p27
F0.0026033466556116347
sV3
p28
F0.00480408895862754
sVtripsit
p29
F0.0
sVfinally
p30
F0.0026033466556116347
sVsedated
p31
F0.0
sVtreatment
p32
F0.004245875519497761
sVamitriptyline
p33
F0.0
sVsent
p34
F0.0004320416037771436
sVcytochrome
p35
F0.0
sVkingdom
p36
F0.004245875519497761
sV50mg
p37
F0.0
sVapnea
p38
F0.0
sVrisk
p39
F0.0016425288638861263
sVpharmacology
p40
F0.0
sVfluoxetine
p41
F0.0
sVcitalopram
p42
F0.0
sVdbt
p43
F0.0
sVcyclopyrrolone
p44
F0.0
sVinduce
p45
F0.0
sVbuspirone
p46
F0.0
sVolanzipene
p47
F0.0
sVb
p48
F0.0009608177917255081
sVevery
p49
F0.0004320416037771436
sVeffects
p50
F0.007810039966834903
sVmol
p51
F0.0
sVamp
p52
F0.0052066933112232695
sVdose
p53
F0.016983502077991045
sVday
p54
F0.0
sVcategories
p55
F0.0
sVlmao
p56
F0.0
sVantagonizes
p57
F0.0
sVschool
p58
F0.004245875519497761
sVincreasing
p59
F0.004245875519497761
sVformula
p60
F0.0
sVbpd
p61
F0.0
sVmodulator
p62
F0.0
sVht2a
p63
F0.0
sVtransmission
p64
F0.0
sVpounds
p65
F0.0026033466556116347
sV50
p66
F0.0009608177917255081
sVoxcarbazepine
p67
F0.0
sVsummary
p68
F0.0
sVanxious
p69
F0.025475253116986563
sVgood
p70
F0.0
sVoxo
p71
F0.0
sVcommon
p72
F0.0032850577277722527
sVreceptor
p73
F0.0
sVp450
p74
F0.0
sVside
p75
F0.0004320416037771436
sVtherapeutic
p76
F0.0
sVheavy
p77
F0.0019216355834510161
sVallosteric
p78
F0.0
sVdidn
p79
F0.0008640832075542872
sVlethargy
p80
F0.0
sVquestions
p81
F0.0016425288638861263
sVweight
p82
F0.0009608177917255081
sVhabit
p83
F0.0
sVfucking
p84
F0.004245875519497761
sVscared
p85
F0.0026033466556116347
sVwaking
p86
F0.0052066933112232695
sVthreshold
p87
F0.0
sVservice
p88
F0.0016425288638861263
sVvalue
p89
F0.0009608177917255081
sVduration
p90
F0.0
sVhome
p91
F0.0009608177917255081
sV80
p92
F0.0
sVbest
p93
F0.0004320416037771436
sVsubject
p94
F0.004245875519497761
sVeven
p95
F0.0004320416037771436
sVtry
p96
F0.0008640832075542872
sVmedications
p97
F0.0
sValcohol
p98
F0.0026033466556116347
sVbenzodiazepine
p99
F0.0
sVsun
p100
F0.0009608177917255081
sVhorribly
p101
F0.0
sVplease
p102
F0.0004320416037771436
sVcaffeine
p103
F0.004245875519497761
sVcomments
p104
F0.004245875519497761
sV25mg
p105
F0.0
sVemphysema
p106
F0.0
sVziprasidone
p107
F0.0
sVstate
p108
F0.0016425288638861263
sVvarious
p109
F0.0016425288638861263
sVrare
p110
F0.004245875519497761
sV7
p111
F0.00480408895862754
sVitraconazole
p112
F0.0
sVirc
p113
F0.004245875519497761
sVever
p114
F0.0004320416037771436
sVmethod
p115
F0.004245875519497761
sVerythromycin
p116
F0.0
sVreddit
p117
F0.0
sVbed
p118
F0.0026033466556116347
sVexcretion
p119
F0.0
sVschedule
p120
F0.004245875519497761
sVsmelled
p121
F0.004245875519497761
sVweak
p122
F0.004245875519497761
sVmethylpiperazine
p123
F0.0
sVforming
p124
F0.0
sVhours
p125
F0.0009608177917255081
sVg
p126
F0.0016425288638861263
sVconcentrate
p127
F0.004245875519497761
sVfocused
p128
F0.0026033466556116347
sVzopiclone
p129
F0.0
sVadderall
p130
F0.0
sV388
p131
F0.0
sVlatuda
p132
F0.0
sVstrong
p133
F0.0016425288638861263
sVproperties
p134
F0.0016425288638861263
sVdrowsy
p135
F0.0
sVboy
p136
F0.0016425288638861263
sVz
p137
F0.004245875519497761
sVprescription
p138
F0.0
sVrespiration
p139
F0.0
sVagonist
p140
F0.0
sVattacks
p141
F0.004245875519497761
sVtaking
p142
F0.0004320416037771436
sV30
p143
F0.0009608177917255081
sVnonbenzodiazepine
p144
F0.0
sV10mg
p145
F0.0
sVdreamlike
p146
F0.0
sVmoderators
p147
F0.0
sV75mg
p148
F0.0
sVinteresting
p149
F0.0009608177917255081
sVgaba
p150
F0.0
sVweird
p151
F0.0016425288638861263
sVdepressant
p152
F0.0
sVthorazine
p153
F0.0
sVcomment
p154
F0.0026033466556116347
sVliked
p155
F0.0026033466556116347
sVstabilization
p156
F0.0
sVsri
p157
F0.0
sVfeel
p158
F0.0030242912264400053
sVcarbonate
p159
F0.0
sVimovane
p160
F0.0
sVobliterated
p161
F0.0
sVperiod
p162
F0.0009608177917255081
sVcommunity
p163
F0.0
sVzimovane
p164
F0.0
sVchronic
p165
F0.004245875519497761
sVpom
p166
F0.004245875519497761
sVseroquel
p167
F0.0
sVhooo
p168
F0.0
sVwasn
p169
F0.0012961248113314307
sVpyrrolo
p170
F0.0
sVmessage
p171
F0.006570115455544505
sVexpensive
p172
F0.0016425288638861263
sV2fr
p173
F0.0
sVprozac
p174
F0.0
sVworking
p175
F0.0
sVpositive
p176
F0.0016425288638861263
sVdruggitor
p177
F0.0
sVvisit
p178
F0.0016425288638861263
sVeuphoric
p179
F0.0
sV2ftripsit
p180
F0.0
sVuk
p181
F0.004245875519497761
sVgravis
p182
F0.0
sV2
p183
F0.0004320416037771436
sVway
p184
F0.0004320416037771436
sVdepakote
p185
F0.0
sVmood
p186
F0.0052066933112232695
sVneurotransmitter
p187
F0.0
sVmolecular
p188
F0.004245875519497761
sV20issue
p189
F0.0
sVmetabolism
p190
F0.004245875519497761
sV15mg
p191
F0.0
sV5h
p192
F0.0
sVinsomnia
p193
F0.0
sVphenytoin
p194
F0.0
sVonset
p195
F0.0
sVcontrolled
p196
F0.004245875519497761
sVenough
p197
F0.0
sV900mg
p198
F0.0
sVbinding
p199
F0.0026033466556116347
sV6
p200
F0.0008640832075542872
sVcarbamazepine
p201
F0.0
sV250mg
p202
F0.0
sVlong
p203
F0.0
sVawake
p204
F0.004245875519497761
sVliver
p205
F0.0052066933112232695
sVpyrazin
p206
F0.0
sVautomated
p207
F0.0
sVknown
p208
F0.0009608177917255081
sVcentral
p209
F0.0
sVmyasthenia
p210
F0.0
sVlamotrigine
p211
F0.0
sVrifampicin
p212
F0.0
sV10
p213
F0.0004320416037771436
sVmg
p214
F0.0
sVmade
p215
F0.006048582452880011
sV15
p216
F0.0008640832075542872
sVlast
p217
F0.0004320416037771436
sVunlike
p218
F0.0016425288638861263
sVwork
p219
F0.0
sVus
p220
F0.0004320416037771436
sV5mg
p221
F0.0
sVstabilizer
p222
F0.0
sVwww
p223
F0.0026033466556116347
sVdisease
p224
F0.0026033466556116347
sVmaking
p225
F0.0004320416037771436
sVfactsheet
p226
F0.0
sVschema
p227
F0.0
sVminutes
p228
F0.0009608177917255081
sVdihydro
p229
F0.0
sVmirtazapine
p230
F0.0
sVheart
p231
F0.0016425288638861263
sVwould
p232
F0.0
sVchat
p233
F0.0016425288638861263
sVbronchitis
p234
F0.0
sVir
p235
F0.0
sVside_effect
p236
F0.0
sVagent
p237
F0.0016425288638861263
sViv
p238
F0.0
sVstates
p239
F0.0026033466556116347
sVgland
p240
F0.0
sVaustralia
p241
F0.0
sVcbt
p242
F0.0
sVpharmacokinetics
p243
F0.0
sVtca
p244
F0.0
sVabnormalities
p245
F0.0
sVprotein
p246
F0.0
sVapparently
p247
F0.0016425288638861263
sVeveryday
p248
F0.004245875519497761
sVlexapro
p249
F0.0
sVyl
p250
F0.0
sVhypomanic
p251
F0.0
sVdiazepam
p252
F0.0
sVdifferent
p253
F0.0009608177917255081
sVunited
p254
F0.0
sVmake
p255
F0.0004320416037771436
sVbenzodiazepines
p256
F0.0
sVrs
p257
F0.0
sVs4
p258
F0.0
sV1
p259
F0.0004320416037771436
sVnick
p260
F0.004245875519497761
sVwierd
p261
F0.004245875519497761
sV808
p262
F0.0
sV5
p263
F0.003456332830217149
sVclomipramine
p264
F0.0
sVketoconazole
p265
F0.0
sVagitated
p266
F0.0
sV9
p267
F0.0009608177917255081
sVplus
p268
F0.0016425288638861263
sVlithium
p269
F0.0
sVpanic
p270
F0.0
sVnice
p271
F0.0
sVcanada
p272
F0.0
sVused
p273
F0.0009608177917255081
sVtried
p274
F0.0016425288638861263
sVnormal
p275
F0.0016425288638861263
sVclonazepam
p276
F0.0
sVstop
p277
F0.0004320416037771436
sVfelt
p278
F0.004927586591658379
sVhydroxyzine
p279
F0.0
sVtreatments
p280
F0.0
sVcontraindictions
p281
F0.0
sVtripsitbot
p282
F0.0
sVbrintellix
p283
F0.0
sVsulfaphenazole
p284
F0.0
sVkinda
p285
F0.004245875519497761
sVpossible
p286
F0.0009608177917255081
sVchanging
p287
F0.0016425288638861263
sVextremely
p288
F0.0026033466556116347
sVcarboxylate
p289
F0.0
sVlegal
p290
F0.008491751038995523
sVparoxetine
p291
F0.0
sVchemistry
p292
F0.0
sVeffective
p293
F0.012737626558493281
sVanxiety
p294
F0.012737626558493281
sVenzymes
p295
F0.0
sVlight
p296
F0.0009608177917255081
sViupac
p297
F0.0
sVwell
p298
F0.0
sVeps
p299
F0.0
sVhypnotic
p300
F0.0
sVnefazodone
p301
F0.0
sVsevere
p302
F0.0026033466556116347
sVwithout
p303
F0.0
sVmass
p304
F0.004245875519497761
sVtime
p305
F0.0
sVtherapy
p306
F0.004245875519497761
sVolanzapine
p307
F0.0
sVer
p308
F0.0016425288638861263
sVorder
p309
F0.0004320416037771436
sVgain
p310
F0.0052066933112232695
s.