(dp0
Vdownvoting
p1
F0.0
sVsuicidal
p2
F0.00043844032689104116
sVtelmisartan
p3
F0.0
sVchild
p4
F3.307219478859416e-05
sVbear
p5
F0.00017921897041894123
sVfour
p6
F7.435626296653939e-05
sVandre
p7
F0.0
sVdisinhibits
p8
F0.0
sVsleep
p9
F0.0009045966467340232
sVasian
p10
F0.0
sVappetite
p11
F0.0002922935512606941
sVflomax
p12
F0.0
sVhate
p13
F0.00043844032689104116
sVforget
p14
F0.0001130745808417529
sVpasa
p15
F0.0
sVseleg
p16
F0.0
sVswap
p17
F8.960948520947061e-05
sVwhatsoever
p18
F8.960948520947061e-05
sVstationery
p19
F0.0
sVsorry
p20
F6.614438957718832e-05
sVworth
p21
F0.00039576103294613514
sVmodstrid
p22
F0.0
sV50mg
p23
F0.0
sVrisk
p24
F0.0007915220658922703
sVkristendom
p25
F0.0
sVhypertensive
p26
F0.0
sVactivation
p27
F0.0002922935512606941
sVexception
p28
F8.960948520947061e-05
sVmanic
p29
F0.0007307338781517354
sVmania
p30
F0.0
sVevery
p31
F0.00017845503111969455
sVaffect
p32
F0.0008768806537820823
sVbaicalin
p33
F0.0
sVdisturb
p34
F0.00014614677563034705
sVbrokket
p35
F0.0
sVprobiotic
p36
F0.0
sVdaydream
p37
F0.0
sVcause
p38
F0.0005502363459523915
sVconvenience
p39
F0.0
sVunrelated
p40
F0.00014614677563034705
sVenhance
p41
F0.0002826864521043823
sVmonologue
p42
F0.0
sV295
p43
F0.0
sVreliable
p44
F8.960948520947061e-05
sVenjoy
p45
F5.653729042087645e-05
sVnmdar
p46
F0.0
sVforce
p47
F0.0001130745808417529
sV10g
p48
F0.0
sVpulse
p49
F0.0
sVnail
p50
F8.960948520947061e-05
sV10x
p51
F0.0
sVstreet
p52
F0.0002922935512606941
sVspontaneously
p53
F0.00014614677563034705
sVmeditation
p54
F0.0
sVeven
p55
F0.0003717813148326969
sVbromantane
p56
F0.0
sVhide
p57
F5.653729042087645e-05
sVweren
p58
F5.653729042087645e-05
sVpoison
p59
F0.0007307338781517354
sVkun
p60
F0.0
sVbipolar
p61
F0.0010230274294124294
sV8429371
p62
F0.0
sVnew
p63
F0.0
sVnet
p64
F8.960948520947061e-05
sVimproperly
p65
F0.00014614677563034705
sVever
p66
F0.00014871252593307878
sVsimultaneously
p67
F0.00014614677563034705
sVbehavior
p68
F8.960948520947061e-05
sVpresynaptic
p69
F0.0
sVmeo
p70
F0.0
sVmen
p71
F0.0002261491616835058
sVflere
p72
F0.0
sVlammintausta
p73
F0.0
sVneurotoxicity
p74
F0.0
sVprotection
p75
F0.0002922935512606941
sVchina
p76
F0.0
sVpursuit
p77
F0.00014614677563034705
sVuddannelsesforvaltning
p78
F0.0
sVactive
p79
F5.653729042087645e-05
sVpath
p80
F3.307219478859416e-05
sV100
p81
F0.0005653729042087646
sV_really_
p82
F0.0
sVbuddy
p83
F0.00014614677563034705
sVdry
p84
F0.00035843794083788245
sVcyclical
p85
F0.0
sVsubstance
p86
F0.0
sVforum
p87
F0.00014614677563034705
sVtaper
p88
F0.0
sVphenelzine
p89
F0.0
sVstudy
p90
F0.001164923307723118
sVusps
p91
F0.0
sVcredit
p92
F6.614438957718832e-05
sVamisulpride
p93
F0.0
sVsmoke
p94
F0.00035843794083788245
sVintrigue
p95
F0.0
sVclonidine
p96
F0.0
sVfantastic
p97
F8.960948520947061e-05
sVstraw
p98
F0.00017921897041894123
sVreplace
p99
F0.00035843794083788245
sVnauseate
p100
F0.0
sVsynergized
p101
F0.0
sVhindsight
p102
F0.0
sVhablar
p103
F0.0
sVglance
p104
F5.653729042087645e-05
sVtotal
p105
F5.653729042087645e-05
sVobliteration
p106
F0.0
sVexperimentation
p107
F0.0
sVplow
p108
F0.0
sVdna
p109
F0.0
sVwould
p110
F0.0
sVsnri
p111
F0.0
sVhospital
p112
F0.00044804742604735313
sVuddannelse
p113
F0.0
sVnegative
p114
F0.0005376569112568237
sVbleed
p115
F0.00016961187126262936
sVtela
p116
F0.0
sVmediate
p117
F0.0
sVtm
p118
F0.00014614677563034705
sVcall
p119
F0.00016358377852638666
sVknoll
p120
F0.0
sVstrike
p121
F0.0002922935512606941
sVinner
p122
F0.0001130745808417529
sVcare
p123
F0.0002688284556284118
sVassessment
p124
F0.0002922935512606941
sVtell
p125
F0.0003307219478859416
sVbreathe
p126
F0.0002922935512606941
sVpaperwork
p127
F0.0
sVnootropax
p128
F0.0
sVholy
p129
F5.653729042087645e-05
sVwary
p130
F0.0
sVsuccessful
p131
F0.0001130745808417529
sVexpose
p132
F8.960948520947061e-05
sVaware
p133
F0.0
sVwarn
p134
F0.0001130745808417529
sVglass
p135
F1.4871252593307878e-05
sVreversible
p136
F0.0
sVloose
p137
F0.0001130745808417529
sVexcellent
p138
F0.0002922935512606941
sV91
p139
F8.960948520947061e-05
sV90
p140
F0.00017921897041894123
sVexhorbitant
p141
F0.0
sVmust
p142
F0.0
sV1991
p143
F0.00014614677563034705
sVmg
p144
F0.0
sVjoin
p145
F3.307219478859416e-05
sVroom
p146
F6.614438957718832e-05
sVpursue
p147
F0.0
sVml
p148
F0.0
sVnoots
p149
F0.0
sVwork
p150
F0.0
sVmk
p151
F0.00014614677563034705
sVwhack
p152
F0.0
sVoxide
p153
F0.0
sVeighteen
p154
F0.00014614677563034705
sVfosterbarn
p155
F0.0
sVakin
p156
F0.0
sVroot
p157
F0.0002688284556284118
sVexample
p158
F0.0005291551166175066
sVaddictive
p159
F0.0
sVacetylcholine
p160
F0.0
sVgive
p161
F0.00038665256742600486
sVindia
p162
F0.0
sVinvolve
p163
F0.0
sVhormone
p164
F0.0
sVcaution
p165
F0.00043844032689104116
sVwant
p166
F0.0
sVhonest
p167
F5.653729042087645e-05
sVlooser
p168
F0.0
sVguarantee
p169
F0.0005845871025213882
sVpreferably
p170
F0.00014614677563034705
sVend
p171
F0.00013384127333977092
sVturn
p172
F0.0001653609739429708
sVprovide
p173
F0.00043844032689104116
sVtravel
p174
F6.614438957718832e-05
sVfeature
p175
F0.00017921897041894123
sVrevisit
p176
F0.00014614677563034705
sVcompassion
p177
F0.00014614677563034705
sVtoxin
p178
F0.0
sVhop
p179
F0.0005845871025213882
sVanswer
p180
F9.921658436578247e-05
sVstereochemistry
p181
F0.0
sVactuality
p182
F0.0
sVpreferable
p183
F0.0
sVcvwynk4
p184
F0.0
sVclassify
p185
F0.0
sVbadly
p186
F3.307219478859416e-05
sVearlier
p187
F6.614438957718832e-05
sVwrong
p188
F3.307219478859416e-05
sVstefans
p189
F0.0
sVlay
p190
F0.0002688284556284118
sVcuriosity
p191
F8.960948520947061e-05
sVlaw
p192
F0.00014614677563034705
sVmeaningful
p193
F8.960948520947061e-05
sVture
p194
F0.0
sVfoolhardy
p195
F0.0
sVdanny
p196
F0.0
sVattempt
p197
F3.307219478859416e-05
sVanymore
p198
F0.0003392237425252587
sVthird
p199
F1.4871252593307878e-05
sVmove
p200
F0.00016961187126262936
sVpulsate
p201
F0.0
sVspout
p202
F0.0
sVtetracyclic
p203
F0.0
sVchildhood
p204
F0.0
sVmaintain
p205
F0.00017921897041894123
sVupside
p206
F0.00017921897041894123
sVultimate
p207
F0.0
sVtrileptal
p208
F0.0
sVvapor
p209
F0.0
sVorder
p210
F0.00014871252593307878
sVpdoc
p211
F0.0
sVrestriction
p212
F0.0
sVmyclonus
p213
F0.0
sVoffice
p214
F5.653729042087645e-05
sVdevote
p215
F0.0
sVtyramine
p216
F0.0
sVvary
p217
F0.00035843794083788245
sVjordb
p218
F0.0
sVverticales
p219
F0.0
sVthesis
p220
F0.00014614677563034705
sVresponsive
p221
F0.00014614677563034705
sVchronically
p222
F0.0
sVtalkative
p223
F0.0
sVadolescence
p224
F0.0
sVsomnolence
p225
F0.0
sVtraer
p226
F0.0
sVime
p227
F0.00014614677563034705
sVpharma
p228
F0.0
sVncbi
p229
F0.0
sVauditory
p230
F0.0
sVpersonal
p231
F0.0002315053635201591
sVfix
p232
F0.00017921897041894123
sVrecreational
p233
F0.00043844032689104116
sVavocado
p234
F0.00014614677563034705
sVimo
p235
F0.0
sVpropyne
p236
F0.0
sVbarato
p237
F0.0
sVenefokus
p238
F0.0
sVproduction
p239
F0.0002922935512606941
sVfig
p240
F0.00014614677563034705
sVfade
p241
F0.0002688284556284118
sV400
p242
F0.00017921897041894123
sVcarve
p243
F0.00014614677563034705
sVfik
p244
F0.0
sVeasier
p245
F0.00016961187126262936
sVversus
p246
F8.960948520947061e-05
sVeventually
p247
F0.0005845871025213882
sVcoffee
p248
F0.0002688284556284118
sVcombination
p249
F0.0009611339371548996
sVlevoamphetamine
p250
F0.0
sVsafe
p251
F0.0004522983233670116
sVschool
p252
F0.0005845871025213882
sVscene
p253
F5.653729042087645e-05
sVbreak
p254
F0.0009857043373041768
sVmodification
p255
F0.0
sVtherapy
p256
F0.0014614677563034707
sVoxidant
p257
F0.0
sVinterrupt
p258
F0.0
sVsulbutiamine
p259
F0.0
sVmxe
p260
F0.0
sVscholar
p261
F8.960948520947061e-05
sVunregistered
p262
F0.0
sVlithium
p263
F0.0
sVphenylethylamine
p264
F0.0
sVreasonably
p265
F0.00014614677563034705
sVsleepless
p266
F0.0
sVl
p267
F0.0016961187126262934
sVexplode
p268
F0.0
sVnoticable
p269
F0.00014614677563034705
sVdlpa
p270
F0.0
sVreasonable
p271
F8.960948520947061e-05
sVside
p272
F7.435626296653939e-05
sVluck
p273
F0.0006784474850505174
sVconstipation
p274
F0.00043844032689104116
sVevolve
p275
F8.960948520947061e-05
sVtrain
p276
F0.0002922935512606941
sVlifeextension
p277
F0.0
sV24h
p278
F0.0
sVmdd
p279
F0.0
sVt3
p280
F0.0
sVsammenligner
p281
F0.0
sV2fma
p282
F0.0
sVlaboratory
p283
F0.00014614677563034705
sVrecognizable
p284
F0.0
sVextract
p285
F0.00043844032689104116
sVrt
p286
F0.0
sVpraksis
p287
F0.0
sVumiddelbare
p288
F0.0
sVcontraindicate
p289
F0.0
sV00am
p290
F0.0
sVrx
p291
F0.0
sVcontent
p292
F0.0005845871025213882
sVsafety
p293
F0.0006272663964662943
sVrare
p294
F0.00014614677563034705
sVreader
p295
F0.00014614677563034705
sVmedicine
p296
F0.0007307338781517354
sVsurprise
p297
F5.653729042087645e-05
sVrn
p298
F0.0
sVgov
p299
F0.0013153209806731237
sVcomedown
p300
F0.0
sVschizophrenia
p301
F0.00014614677563034705
sVassociate
p302
F0.0010753138225136473
sVlittle
p303
F0.0
sVfree
p304
F0.00013228877915437664
sVstandard
p305
F5.653729042087645e-05
sVdecent
p306
F0.0001130745808417529
sVstruggle
p307
F0.00044804742604735313
sVnmda
p308
F0.0
sVbromentane
p309
F0.0
sVinadequately
p310
F0.0
sVknit
p311
F0.0
sVfret
p312
F0.0
sVstudere
p313
F0.0
sVlocal
p314
F8.960948520947061e-05
sVatt
p315
F0.0
sVspeedy
p316
F0.00014614677563034705
sVisn
p317
F0.00022306878889961817
sVsoda
p318
F0.00014614677563034705
sVaca
p319
F0.0
sVpurpose
p320
F3.307219478859416e-05
sValready
p321
F0.00019332628371300243
sVdunce
p322
F0.0
sV200mcg
p323
F0.0
sVgrade
p324
F0.00014614677563034705
sVvitro
p325
F0.0
sVthereof
p326
F0.0
sVcurlad
p327
F0.0
sVdownside
p328
F0.0
sVanother
p329
F0.00017845503111969455
sVwasn
p330
F0.00011897002074646303
sVsober
p331
F0.00014614677563034705
sVcategorize
p332
F0.0
sVcomic
p333
F0.00014614677563034705
sVclarity
p334
F8.960948520947061e-05
sVelectronic
p335
F0.0
sVpristiq
p336
F0.0
sVmercury
p337
F0.0
sVstimulation
p338
F0.0005845871025213882
sVten
p339
F3.307219478859416e-05
sVservice
p340
F5.653729042087645e-05
sVopportunity
p341
F0.00017921897041894123
sVtop
p342
F0.00019843316873156494
sVbitcoin
p343
F0.0
sVapproximately
p344
F0.0
sVeuphoria
p345
F0.0
sVeldepryl
p346
F0.0
sVpalpitation
p347
F0.0
sVdrugnerds
p348
F0.0
sVton
p349
F0.0005845871025213882
sVwildly
p350
F0.00017921897041894123
sVairy
p351
F0.0
sVkid
p352
F0.00014614677563034705
sVbitter
p353
F0.00014614677563034705
sVmutate
p354
F0.0
sVmurder
p355
F0.00014614677563034705
sVgym
p356
F8.960948520947061e-05
sVserve
p357
F0.0002688284556284118
sVadopter
p358
F0.0
sVpalsy
p359
F0.0
sVcrawl
p360
F5.653729042087645e-05
sVpeculiar
p361
F0.0
sVsymptom
p362
F0.0
sVrasageline
p363
F0.0
sVpast
p364
F0.0002315053635201591
sV150mg
p365
F0.0
sV5ht2c
p366
F0.0
sV3iscuo
p367
F0.0
sVsecond
p368
F8.922751555984727e-05
sVshower
p369
F0.00014614677563034705
sVmatter
p370
F6.614438957718832e-05
sV5mg
p371
F0.0
sVguilt
p372
F0.00014614677563034705
sVendure
p373
F0.00014614677563034705
sVhallucination
p374
F0.0
sVkunnet
p375
F0.0
sVmini
p376
F0.00014614677563034705
sVfashion
p377
F0.00014614677563034705
sVprinsesser
p378
F0.0
sVmichaellustgarten
p379
F0.0
sVprozac
p380
F0.0
sVmind
p381
F0.0005653729042087646
sVspectrum
p382
F0.0
sVginger
p383
F8.960948520947061e-05
sVraw
p384
F5.653729042087645e-05
sVrat
p385
F0.00035843794083788245
sVseed
p386
F0.00014614677563034705
sVmanner
p387
F5.653729042087645e-05
sVadhd
p388
F0.0
sVarousal
p389
F0.0
sVseem
p390
F0.0008030476400386255
sVregulate
p391
F0.0
sVseek
p392
F6.614438957718832e-05
sVray
p393
F0.00014614677563034705
sVephedrin
p394
F0.0
sVapoptotic
p395
F0.0
sVthoroughly
p396
F0.0
sVlatter
p397
F0.0002922935512606941
sVresponsible
p398
F0.00017921897041894123
sVderes
p399
F0.0
sVsnow
p400
F0.00014614677563034705
sVchest
p401
F5.653729042087645e-05
sVeducator
p402
F0.0
sVtransmit
p403
F0.0
sVeffectiveness
p404
F0.0
sVpns
p405
F0.0
sVtidigt
p406
F0.0
sVblue
p407
F0.0001130745808417529
sVacquire
p408
F0.0
sVclonazepam
p409
F0.0
sVmethylphenidate
p410
F0.0
sVnorepinephrine
p411
F0.0
sVregular
p412
F0.0007307338781517354
sVmouth
p413
F0.0002826864521043823
sVhonor
p414
F8.960948520947061e-05
sVphase
p415
F0.0002922935512606941
sVautopsy
p416
F0.00043844032689104116
sVmitigate
p417
F0.0
sVepisode
p418
F0.0032152290638676356
sVobservation
p419
F0.0002922935512606941
sVdoc
p420
F0.0002688284556284118
sVmedical
p421
F0.0002261491616835058
sVmetal
p422
F0.00017921897041894123
sVdog
p423
F0.0001130745808417529
sVrer
p424
F0.0
sVdoe
p425
F0.0
sVpsychology
p426
F0.00014614677563034705
sVmellem
p427
F0.0
sVdefinitely
p428
F0.00039576103294613514
sVdystonia
p429
F0.0
sVurgency
p430
F0.0
sVreserve
p431
F0.00014614677563034705
sVbomb
p432
F0.00014614677563034705
sVhedberg
p433
F0.0
sVrandom
p434
F8.960948520947061e-05
sVsubreddit
p435
F0.0
sVmalleable
p436
F0.0
sVunfrequent
p437
F0.0
sVsubtle
p438
F0.0002922935512606941
sVcheaply
p439
F0.0
sVd2
p440
F0.0
sVd3
p441
F0.0
sV3obf2f
p442
F0.0
sVoch
p443
F0.0
sVbotox
p444
F0.0
sVacne
p445
F0.0
sVocd
p446
F0.0
sVnegligible
p447
F0.0
sVsugar
p448
F0.00017921897041894123
sVknuckle
p449
F0.0
sVfolder
p450
F0.00014614677563034705
sVrice
p451
F0.0002922935512606941
sVbehond
p452
F0.0
sVpersonality
p453
F0.00017921897041894123
sVplate
p454
F0.00014614677563034705
sVdl
p455
F0.00014614677563034705
sVmixture
p456
F0.00014614677563034705
sVcolorful
p457
F0.0
sVwide
p458
F3.307219478859416e-05
sVde
p459
F0.0002825537992728497
sVstop
p460
F0.0004163950726126206
sVfulde
p461
F0.0
sVda
p462
F0.0007168758816757649
sVbelviq
p463
F0.0
sVmeditate
p464
F0.00014614677563034705
sVdansk
p465
F0.0
sVdespite
p466
F0.00013228877915437664
sVreport
p467
F0.00035843794083788245
sVnasty
p468
F0.00017921897041894123
sVdu
p469
F0.00043844032689104116
sVdr
p470
F0.0002922935512606941
sVunfortunately
p471
F0.0010230274294124294
sVhospitalize
p472
F0.0
sVbpii
p473
F0.0
sVdisco
p474
F0.0
sVtwice
p475
F0.0003392237425252587
sVbad
p476
F0.00029742505186615756
sVcarrier
p477
F0.0
sVrelease
p478
F0.0006784474850505174
sVmovement
p479
F5.653729042087645e-05
sVdisincline
p480
F0.0
sVaspiration
p481
F0.0
sVrespond
p482
F0.0005376569112568237
sVdeprenyl
p483
F0.0
sVresveratrol
p484
F0.0
sVhavde
p485
F0.0
sVvictim
p486
F0.0005845871025213882
sVfair
p487
F1.4871252593307878e-05
sVsensitivity
p488
F0.0
sVresult
p489
F0.001164923307723118
sVhorrendous
p490
F0.00014614677563034705
sVfail
p491
F0.0001653609739429708
sVmiserable
p492
F8.960948520947061e-05
sVdepressive
p493
F0.0
sVfostermodern
p494
F0.0
sVkommunal
p495
F0.0
sVbest
p496
F0.00026768254667954185
sVsubject
p497
F0.00014614677563034705
sVmonoamine_oxidase_inhibitor
p498
F0.0
sV00
p499
F0.00014614677563034705
sV01
p500
F0.0002922935512606941
sV96btc
p501
F0.0
sVbecareful
p502
F0.0
sVaway
p503
F0.0
sViirc
p504
F0.0
sVwikipedia
p505
F0.0
sVimipramine
p506
F0.0
sVartificial
p507
F0.00014614677563034705
sVmodulate
p508
F0.0
sVamidate
p509
F0.0
sVunable
p510
F8.960948520947061e-05
sVhopefully
p511
F0.0
sVtolerance
p512
F0.0005845871025213882
sVlethargic
p513
F0.0
sVpreserve
p514
F0.00014614677563034705
sVaccord
p515
F0.0
sVnever
p516
F0.0
sVomg
p517
F0.00014614677563034705
sVextend
p518
F0.0002688284556284118
sVnature
p519
F2.9742505186615757e-05
sVwean
p520
F0.0
sVweak
p521
F0.00043844032689104116
sVvitamin
p522
F0.0
sVresidual
p523
F0.00014614677563034705
sVandrogen
p524
F0.0
sVwear
p525
F0.00017921897041894123
sVextent
p526
F0.00014614677563034705
sVcousin
p527
F0.00014614677563034705
sVoxidase
p528
F0.0
sVimprove
p529
F0.0010753138225136473
sVessentially
p530
F0.0
sVagonist
p531
F0.0
sVbrat
p532
F0.00014614677563034705
sVresistant
p533
F0.0
sVcountry
p534
F3.307219478859416e-05
sVill
p535
F0.0001130745808417529
sVeyeball
p536
F0.00014614677563034705
sVmildly
p537
F0.0
sVcomponentes
p538
F0.0
sVcon
p539
F0.0
sVtough
p540
F5.653729042087645e-05
sVcalamus
p541
F0.0
sVseizure
p542
F0.0
sVabilify
p543
F0.0
sV100mcg
p544
F0.0
sVillness
p545
F0.0
sVarsenic
p546
F0.0
sVtrust
p547
F0.00017921897041894123
sVwakefulness
p548
F0.0
sVpresumable
p549
F0.0
sVspeak
p550
F0.00017921897041894123
sVcontraindication
p551
F0.0
sVfra
p552
F0.0
sVreputake
p553
F0.0
sVnicer
p554
F8.960948520947061e-05
sVbewilder
p555
F0.0
sVsource
p556
F0.0002261491616835058
sVregenerate
p557
F0.0
sVunitedpharmacies
p558
F0.0
sVthree
p559
F0.00010409876815315514
sVtiny
p560
F3.307219478859416e-05
sVquickly
p561
F0.00019843316873156494
sVting
p562
F0.00014614677563034705
sVbeer
p563
F0.00014614677563034705
sVaccentuate
p564
F0.0
sVinterest
p565
F0.0012545327929325886
sVbasic
p566
F0.0001130745808417529
sVrelearn
p567
F0.0
sVwarmth
p568
F0.0
sVlocation
p569
F8.960948520947061e-05
sVwebsite
p570
F8.960948520947061e-05
sVlife
p571
F0.0004163950726126206
sVcymbalta
p572
F0.0
sVhospitalization
p573
F0.0
sVworker
p574
F0.00014614677563034705
sVbladder
p575
F0.00014614677563034705
sVwish
p576
F5.653729042087645e-05
sVcoherent
p577
F0.0
sVlift
p578
F0.0006272663964662943
sVtaiwan
p579
F0.0
sVpersonally
p580
F0.0001653609739429708
sVcatch
p581
F0.00017921897041894123
sVmct
p582
F0.0
sVspin
p583
F0.0
sV5g
p584
F0.0
sVinhibit
p585
F0.0
sVplasma
p586
F0.00014614677563034705
sVlessen
p587
F0.0
sVn
p588
F0.00022306878889961817
sVnear
p589
F5.9485010373231514e-05
sVsuppose
p590
F0.0002688284556284118
sVbalance
p591
F0.0005845871025213882
sVprocedure
p592
F0.00014614677563034705
sVmistake
p593
F3.307219478859416e-05
sVir
p594
F0.0
sVtilfredsstillende
p595
F0.0
sVii
p596
F0.0
sVcharacterize
p597
F0.0
sVelicit
p598
F0.0
sVtissue
p599
F0.0002922935512606941
sVim
p600
F0.00043844032689104116
sVanhedonic
p601
F0.0
sVcurcumin
p602
F0.0
sVmouse
p603
F0.0002688284556284118
sVinsatiable
p604
F0.0
sVdisappear
p605
F0.0002688284556284118
sVsammen
p606
F0.0
sVseverity
p607
F0.0
sVminiature
p608
F0.00014614677563034705
sVperform
p609
F5.653729042087645e-05
sVsuggest
p610
F0.001899908083194512
sVnobody
p611
F8.960948520947061e-05
sVrecurrent
p612
F0.0
sVdha
p613
F0.0
sVnardil
p614
F0.0
sVexcessive
p615
F0.0001130745808417529
sVpotentially
p616
F0.0008768806537820823
sVdihydroxyflavone
p617
F0.0
sVunfortunate
p618
F5.653729042087645e-05
sVincorrectly
p619
F0.00014614677563034705
sVsuccess
p620
F0.00035843794083788245
sVseveral
p621
F0.00044804742604735313
sVambien
p622
F0.0
sVwheel
p623
F5.653729042087645e-05
sVfairly
p624
F0.0005376569112568237
sVnih
p625
F0.0
sVnil
p626
F0.0
sVpick
p627
F5.653729042087645e-05
sVhang
p628
F3.307219478859416e-05
sVhand
p629
F0.0
sVireport
p630
F0.0
sVpharmacological
p631
F0.0
sVtimmersorterare
p632
F0.0
sVpharmateutical
p633
F0.0
sVnit
p634
F0.0
sVcycle
p635
F0.0017921897041894125
sVscenario
p636
F0.0
sV1977
p637
F0.0
sVgame
p638
F9.921658436578247e-05
sVchanger
p639
F0.0
sVacademic
p640
F0.00014614677563034705
sVcontact
p641
F0.00016961187126262936
sVgrundlag
p642
F0.0
sVmother
p643
F2.9742505186615757e-05
sV801
p644
F0.0
sVparadigm
p645
F0.0
sVhacen
p646
F0.0
sVtldr
p647
F0.0
sVepa
p648
F0.0
sVprotocol
p649
F0.00014614677563034705
sVlaptop
p650
F0.00017921897041894123
sVsleepy
p651
F0.00014614677563034705
sVdisguise
p652
F0.00014614677563034705
sVvirgina
p653
F0.0
sVpsych
p654
F0.0
sVmig
p655
F0.0
sVhuman
p656
F0.00016961187126262936
sVdopamine
p657
F0.0
sVyep
p658
F0.00014614677563034705
sVyes
p659
F0.00010409876815315514
sVdouchey
p660
F0.0
sVyet
p661
F0.00014871252593307878
sVprevious
p662
F1.4871252593307878e-05
sVthyroid
p663
F0.0
sVham
p664
F8.960948520947061e-05
sVhan
p665
F0.0
sVinstance
p666
F5.653729042087645e-05
sV1_meetingabstracts
p667
F0.0
sVpharmacy
p668
F0.00014614677563034705
sVpuama
p669
F0.0
sVaffinity
p670
F0.0
sVteenager
p671
F0.00014614677563034705
sVtilsvarende
p672
F0.0
sVhar
p673
F0.0
sVsave
p674
F5.653729042087645e-05
sVhat
p675
F5.653729042087645e-05
sVtolerable
p676
F0.0
sVdesire
p677
F0.0002922935512606941
sVajcn
p678
F0.0
sVrapidly
p679
F5.653729042087645e-05
sVpossible
p680
F0.0002645775583087533
sVpossibly
p681
F6.614438957718832e-05
sVwhichever
p682
F0.0
sVjudge
p683
F8.960948520947061e-05
sVshadow
p684
F8.960948520947061e-05
sVunique
p685
F8.960948520947061e-05
sVcognitive
p686
F0.0
sVshoulder
p687
F5.653729042087645e-05
sVpsychological
p688
F0.0002922935512606941
sVbpd
p689
F0.0
sV55
p690
F0.00014614677563034705
sVimpairment
p691
F0.0
sV50
p692
F0.00019843316873156494
sV53
p693
F0.00035843794083788245
sVspecific
p694
F0.0002826864521043823
sVremind
p695
F0.00017921897041894123
sVnight
p696
F2.9742505186615757e-05
sVinterestingly
p697
F0.00014614677563034705
sVhyperventilate
p698
F0.0
sVright
p699
F0.0002081975363063103
sVold
p700
F0.0
sVenvision
p701
F0.0
sVdeal
p702
F0.00029764975309734743
sVkunne
p703
F0.0
sVeasy
p704
F0.0
sVdead
p705
F0.00013228877915437664
sVoh
p706
F0.00035843794083788245
sVselectivity
p707
F0.0
sVitemsampler
p708
F0.0
sVpain
p709
F0.000508835613787888
sVguess
p710
F0.0003392237425252587
sVcreep
p711
F0.00014614677563034705
sVcocaine
p712
F0.00014614677563034705
sVindre
p713
F0.0
sVump
p714
F0.0
sVparesthesia
p715
F0.0
sVopposite
p716
F8.960948520947061e-05
sVcreative
p717
F8.960948520947061e-05
sVeverything
p718
F0.00010409876815315514
sVfog
p719
F0.0
sVtrazodone
p720
F0.0
sVchristmas
p721
F0.0
sVnardosinone
p722
F0.0
sVstefan
p723
F0.0
sVfven
p724
F0.0
sVtranshumanist
p725
F0.0
sVselvf
p726
F0.0
sVpost
p727
F0.0010753138225136473
sVsuper
p728
F0.00017921897041894123
sVvalium
p729
F0.0
sVlimitation
p730
F0.0
sVrestlessness
p731
F0.0
sVlightheaded
p732
F0.0
sVadipose
p733
F0.0
sVassault
p734
F0.00014614677563034705
sVo
p735
F4.461375777992364e-05
sVptsd
p736
F0.0
sVdinner
p737
F5.653729042087645e-05
sVplus
p738
F0.00016961187126262936
sVafternoon
p739
F0.00014614677563034705
sVtannic
p740
F0.00014614677563034705
sV466886
p741
F0.0
sVslightly
p742
F0.0002315053635201591
sVcroak
p743
F0.0
sVnerve
p744
F0.0002922935512606941
sVwhats
p745
F0.0
sVxyz
p746
F0.0
sVfloat
p747
F8.960948520947061e-05
sVsom
p748
F0.0
sVbeneficial
p749
F0.00014614677563034705
sVbath
p750
F0.00014614677563034705
sVmontelukast
p751
F0.0
sVthankful
p752
F0.0
sVjatamansi
p753
F0.0
sVarmado
p754
F0.0
sVsoy
p755
F0.00014614677563034705
sVhallucinogenic
p756
F0.0
sVanorexia
p757
F0.00014614677563034705
sVrely
p758
F8.960948520947061e-05
sVvaldoxan
p759
F0.0
sVpropynyl
p760
F0.0
sVchlorpromazine
p761
F0.0
sVsupport
p762
F0.00017921897041894123
sVconstantly
p763
F5.653729042087645e-05
sVwordpress
p764
F0.0
sVway
p765
F0.0003569100622393891
sVfreebase
p766
F0.0
sVgik
p767
F0.0
sVmetabolism
p768
F0.0007307338781517354
sVhappy
p769
F0.00019843316873156494
sVlowest
p770
F0.00014614677563034705
sVpamelor
p771
F0.0
sVhead
p772
F4.461375777992364e-05
sVfadern
p773
F0.0
sVform
p774
F0.0002315053635201591
sVoffer
p775
F0.00039576103294613514
sVlorazepam
p776
F0.0
sVrecommend
p777
F0.0021922016344552058
sVfailure
p778
F0.00044804742604735313
sVdesipramine
p779
F0.0
sVhear
p780
F0.00029764975309734743
sVephedrine
p781
F0.0
sVnootropaxjkmrlta
p782
F0.0
sV24hr
p783
F0.0
sVrenal
p784
F0.0
sVcounsel
p785
F0.0
sVspelade
p786
F0.0
sVtype
p787
F0.0004522983233670116
sVinside
p788
F2.9742505186615757e-05
sVmaximum
p789
F0.0002922935512606941
sVvivo
p790
F0.0
sVzodiac
p791
F0.0
sValguna
p792
F0.0
sVlatuda
p793
F0.0
sV150
p794
F0.0
sV8mg
p795
F0.0
sVflat
p796
F3.307219478859416e-05
sVrequest
p797
F0.0001130745808417529
sVabstract
p798
F0.0002922935512606941
sVdrive
p799
F0.00035843794083788245
sVsometime
p800
F5.653729042087645e-05
sVexist
p801
F0.0002688284556284118
sVlunde
p802
F0.0
sVship
p803
F0.0001653609739429708
sVtrip
p804
F0.0006272663964662943
sVshit
p805
F0.0006272663964662943
sVcomorbid
p806
F0.0
sVni
p807
F0.00014614677563034705
sV200mg
p808
F0.0
sVaccomodating
p809
F0.0
sVgenerally
p810
F0.0001130745808417529
sVne
p811
F0.00035843794083788245
sVreality
p812
F0.00043844032689104116
sVtil
p813
F0.0001130745808417529
sVtio
p814
F0.0
sVrole
p815
F0.00014614677563034705
sVtid
p816
F0.0
sVcarbolines
p817
F0.0
sVroll
p818
F0.00016961187126262936
sVpakinson
p819
F0.0
sVeternity
p820
F0.00014614677563034705
sV51btc
p821
F0.0
sVintend
p822
F0.00014614677563034705
sVfelt
p823
F0.000621910194629641
sVupdate
p824
F0.0005845871025213882
sVdiet
p825
F0.0020460548588248587
sVconcurrent
p826
F0.00014614677563034705
sVfell
p827
F5.653729042087645e-05
sVprofessional
p828
F8.960948520947061e-05
sVvariable
p829
F8.960948520947061e-05
sVtransporter
p830
F0.0
sVdanske
p831
F0.0
sVhurt
p832
F0.00043844032689104116
sVomega
p833
F0.0
sVlonger
p834
F0.00010409876815315514
sVhippocampal
p835
F0.0
sVassume
p836
F0.0007307338781517354
sVpenge
p837
F0.0
sVinterval
p838
F0.0
sVpseudo
p839
F0.00014614677563034705
sVdaily
p840
F0.0024844951857159
sVwarm
p841
F3.307219478859416e-05
sVtime
p842
F0.0
sVpush
p843
F0.0001130745808417529
sVserious
p844
F0.0003392237425252587
sVstick
p845
F0.0002688284556284118
sVurinary
p846
F0.0
sVconcept
p847
F0.0002922935512606941
sVskogsarbetare
p848
F0.0
sVrob
p849
F8.960948520947061e-05
sVrelieve
p850
F0.0
sVfocus
p851
F0.0007307338781517354
sVmild
p852
F0.0
sVsupplement
p853
F0.0
sVmodafinil
p854
F0.0
sVskin
p855
F2.9742505186615757e-05
sVbattle
p856
F0.00014614677563034705
sVchair
p857
F8.960948520947061e-05
sVmilk
p858
F0.0008768806537820823
sVretention
p859
F0.00014614677563034705
sVcertainly
p860
F0.00029764975309734743
sVvarenicline
p861
F0.0
sVdepend
p862
F0.0024844951857159
sVtranylcypromine
p863
F0.0
sVfather
p864
F5.653729042087645e-05
sV0
p865
F0.0019714086746083536
sVfinally
p866
F0.00017921897041894123
sVunpleasant
p867
F0.00014614677563034705
sVtext
p868
F8.960948520947061e-05
sVride
p869
F0.0001130745808417529
sVshoot
p870
F8.960948520947061e-05
sVmethyl
p871
F0.0
sVstring
p872
F3.307219478859416e-05
sVadvantage
p873
F8.960948520947061e-05
sVintake
p874
F0.0
sVvegan
p875
F0.00043844032689104116
sVchoice
p876
F0.0003392237425252587
sVliability
p877
F0.0
sVmyrbetriq
p878
F0.0
sVrationality
p879
F0.0
sVcook
p880
F0.00017921897041894123
sVword
p881
F5.9485010373231514e-05
sVtrouble
p882
F7.435626296653939e-05
sVexact
p883
F0.0001130745808417529
sVminute
p884
F0.0002261491616835058
sVcool
p885
F0.00014614677563034705
sVlevel
p886
F0.00014871252593307878
sVtear
p887
F6.614438957718832e-05
sVdie
p888
F0.00019843316873156494
sVdig
p889
F0.0002922935512606941
sVdecennial
p890
F0.0
sVaccidentally
p891
F5.653729042087645e-05
sVisocarboxazid
p892
F0.0
sVleave
p893
F0.0001653609739429708
sVp
p894
F0.0005653729042087646
sVsoooo
p895
F0.00014614677563034705
sVgut
p896
F0.0005845871025213882
sVquick
p897
F4.461375777992364e-05
sVguy
p898
F0.00016961187126262936
sVperceptual
p899
F0.0
sVaccumulation
p900
F0.0
sVwellbutrin
p901
F0.0
sVanesthetic
p902
F0.0
sVprevent
p903
F0.0005376569112568237
sVtremendously
p904
F0.0
sVsigh
p905
F8.960948520947061e-05
sVmeasurable
p906
F0.0
sVagitate
p907
F0.0
sVsign
p908
F4.461375777992364e-05
sVtetracyclics
p909
F0.0
sVcost
p910
F0.0001130745808417529
sVfasebj
p911
F0.0
sVhtp
p912
F0.0
sVrun
p913
F8.922751555984727e-05
sVmj
p914
F0.0
sVsubstitute
p915
F0.0
sVbold
p916
F5.653729042087645e-05
sVessence
p917
F0.0
sVaddy
p918
F0.00014614677563034705
sV25mg
p919
F0.0
sVcurrent
p920
F0.0001130745808417529
sVtranscontinental
p921
F0.0
sVdrunkard
p922
F0.0
sVaspartic
p923
F0.0
sVboost
p924
F0.0
sValertness
p925
F0.0
sVparadoxical
p926
F0.0
sVsatisfy
p927
F0.0
sVfocalin
p928
F0.0
sVburn
p929
F8.960948520947061e-05
sVtitrate
p930
F0.0
sVefficacious
p931
F0.0
sVv
p932
F0.0002922935512606941
sVngf
p933
F0.0
sVwater
p934
F0.0001130745808417529
sVabandon
p935
F0.00014614677563034705
sVmoren
p936
F0.0
sVupgrade
p937
F0.00014614677563034705
sVwitch
p938
F0.0002688284556284118
sVaddress
p939
F0.00035843794083788245
sValone
p940
F0.0002261491616835058
sValong
p941
F4.461375777992364e-05
sVaunque
p942
F0.0
sVchange
p943
F0.0009045966467340232
sVwait
p944
F0.00019843316873156494
sVbox
p945
F3.307219478859416e-05
sVsubconscious
p946
F0.0
sVendte
p947
F0.0
sVnoticeable
p948
F0.00043844032689104116
sVhealthy
p949
F0.00016961187126262936
sVshift
p950
F0.00014614677563034705
sVbos
p951
F0.0
sVguilty
p952
F0.00014614677563034705
sVcommonly
p953
F0.0
sVtrial
p954
F0.0006272663964662943
sVesben
p955
F0.0
sVsuggestion
p956
F0.0006272663964662943
sVusually
p957
F0.0010742085179966526
sVbp
p958
F0.0
sVweird
p959
F0.0001130745808417529
sVmirtazapine
p960
F0.0
sVeks
p961
F0.0
sV20mg
p962
F0.0
sVgenesightrx
p963
F0.0
sVemerge
p964
F8.960948520947061e-05
sVvirker
p965
F0.0
sVlove
p966
F0.0001653609739429708
sVextra
p967
F0.0002826864521043823
sVproblematic
p968
F0.00014614677563034705
sVprefer
p969
F0.0002261491616835058
sVrarely
p970
F0.0
sVinositol
p971
F0.0
sVmarket
p972
F8.960948520947061e-05
sVprimrose
p973
F0.0
sVprove
p974
F0.0
sVsubvert
p975
F0.0
sVpositive
p976
F0.0003392237425252587
sVangry
p977
F0.00017921897041894123
sVvisit
p978
F5.653729042087645e-05
sVoptimize
p979
F0.0
sVlive
p980
F0.0002081975363063103
sVapproach
p981
F0.0002688284556284118
sVpmpd
p982
F0.0
sVmemory
p983
F0.000734984775471394
sVvores
p984
F0.0
sVscope
p985
F0.00014614677563034705
sVsharpen
p986
F0.0
sVthru
p987
F0.0002922935512606941
sVtheoretical
p988
F0.0
sVtoday
p989
F0.00013228877915437664
sVaspirin
p990
F0.0
sVbioperine
p991
F0.0
sVafford
p992
F0.0002922935512606941
sVenvelope
p993
F0.0
sVclue
p994
F8.960948520947061e-05
sVfuel
p995
F0.0
sVvisual
p996
F0.0002922935512606941
sVtandem
p997
F0.0
sVdegrade
p998
F0.0
sVeffort
p999
F0.00014614677563034705
sVeasiest
p1000
F0.0
sVimpair
p1001
F0.0
sVcar
p1002
F5.653729042087645e-05
sVelectroconvulsive
p1003
F0.0
sVbeliever
p1004
F0.0
sVadrenic
p1005
F0.0
sVwallet
p1006
F8.960948520947061e-05
sVsastre
p1007
F0.0
sVhope
p1008
F0.00011897002074646303
sVarrive
p1009
F5.653729042087645e-05
sVpickle
p1010
F0.00014614677563034705
sVdosage
p1011
F0.0029229355126069415
sVcae
p1012
F0.0
sVheart
p1013
F0.000621910194629641
sVisomer
p1014
F0.0
sVfigure
p1015
F0.00017921897041894123
sVattribute
p1016
F8.960948520947061e-05
sVawesome
p1017
F0.00043844032689104116
sVfuck
p1018
F0.0002922935512606941
sVagent
p1019
F0.000508835613787888
sVsample
p1020
F6.614438957718832e-05
sVdrawer
p1021
F0.0
sVdxm
p1022
F0.0
sVworkin
p1023
F0.00014614677563034705
sVoccur
p1024
F0.0002922935512606941
sV232
p1025
F0.0
sVpink
p1026
F0.00017921897041894123
sVsudddenly
p1027
F0.0
sV500mcg
p1028
F0.0
sVfortunately
p1029
F0.0
sVwrite
p1030
F0.0001653609739429708
sVsnris
p1031
F0.0
sV1
p1032
F0.00032716755705277333
sVtill
p1033
F8.960948520947061e-05
sVvital
p1034
F0.0002922935512606941
sVlexapro
p1035
F0.0
sVchrispy_chken_org_295235
p1036
F0.0
sVoptimal
p1037
F0.0
sVaxis
p1038
F0.0
sVtachycardiac
p1039
F0.0
sVpathway
p1040
F0.0
sVnonstop
p1041
F0.00014614677563034705
sVproduct
p1042
F0.0002688284556284118
sVmar
p1043
F0.0
sVcocktail
p1044
F0.00043844032689104116
sVhuge
p1045
F4.461375777992364e-05
sVmay
p1046
F0.0007584338822587018
sVmax
p1047
F0.00014614677563034705
sVdive
p1048
F0.00014614677563034705
sVspot
p1049
F0.00016961187126262936
sVmismo
p1050
F0.0
sVproduce
p1051
F0.0005376569112568237
sVlevo
p1052
F0.0
sVpave
p1053
F0.0
sVcardiac
p1054
F0.0
sVlidt
p1055
F0.0
sVsuck
p1056
F8.960948520947061e-05
sVrasagiline
p1057
F0.0
sVdata
p1058
F0.00014614677563034705
sVgrow
p1059
F8.960948520947061e-05
sVmao
p1060
F0.0
sVman
p1061
F0.00013384127333977092
sVtritrated
p1062
F0.0
sVstress
p1063
F0.00017921897041894123
sVnatural
p1064
F0.00017921897041894123
sVremember
p1065
F8.922751555984727e-05
sV80
p1066
F0.0
sVwhenever
p1067
F0.00017921897041894123
sVmaybe
p1068
F0.0
sVsv
p1069
F0.0
sVsu
p1070
F0.0
sVst
p1071
F0.0
sVsk
p1072
F0.0
sVswitch
p1073
F0.0008064853668852356
sVblock
p1074
F0.0008960948520947063
sVsm
p1075
F0.0
sVtalk
p1076
F0.000621910194629641
sVtypical
p1077
F0.00017921897041894123
sVlsd
p1078
F0.0
sVresiliency
p1079
F0.0
sVwebpage
p1080
F0.00014614677563034705
sVindeed
p1081
F0.0002261491616835058
sVmianserin
p1082
F0.0
sVmainly
p1083
F0.00017921897041894123
sVganske
p1084
F0.0
sVstability
p1085
F0.0
sVbrain
p1086
F0.0015830441317845406
sVnbsp
p1087
F0.0005845871025213882
sVstatistical
p1088
F0.0
sVshake
p1089
F8.960948520947061e-05
sVcold
p1090
F0.0001130745808417529
sVfosterfadern
p1091
F0.0
sVtendency
p1092
F0.00014614677563034705
sVderive
p1093
F0.0
sVgroup
p1094
F9.921658436578247e-05
sVmonitor
p1095
F0.00014614677563034705
sVfidgety
p1096
F0.0
sVvinpocetine
p1097
F0.0
sVideation
p1098
F0.0
sVwindow
p1099
F6.614438957718832e-05
sVamelioration
p1100
F0.0
sVbajisimos
p1101
F0.0
sVthanx
p1102
F0.0
sVmail
p1103
F0.00017921897041894123
sVmain
p1104
F1.4871252593307878e-05
sVuptake
p1105
F0.0
sVpuzzle
p1106
F0.0005845871025213882
sVentrada
p1107
F0.0
sVcholine
p1108
F0.0
sVmodestly
p1109
F0.0
sVnon
p1110
F0.00017845503111969455
sVahi
p1111
F0.0
sVazilect
p1112
F0.0
sVnok
p1113
F0.0
sVtninger
p1114
F0.0
sVkiller
p1115
F0.0001130745808417529
sVinsomnia
p1116
F0.0
sVintroduce
p1117
F0.0002922935512606941
sVtoxic
p1118
F0.0
sVadrenaline
p1119
F0.0
sVhalf
p1120
F0.00017845503111969455
sVson
p1121
F6.614438957718832e-05
sVwont
p1122
F0.00014614677563034705
sVsusceptibility
p1123
F0.0
sVterm
p1124
F0.0004522983233670116
sVname
p1125
F0.00010409876815315514
sVstabilize
p1126
F0.0
sVcognition
p1127
F0.00014614677563034705
sVdidn
p1128
F0.0004163950726126206
sVvaged
p1129
F0.0
sVconcerta
p1130
F0.0
sVrealistic
p1131
F0.0
sVdesde
p1132
F0.0
sVstockholm
p1133
F0.0
sVrock
p1134
F5.653729042087645e-05
sVentirely
p1135
F0.0001653609739429708
sVem
p1136
F3.307219478859416e-05
sVel
p1137
F0.0002922935512606941
sVen
p1138
F0.0017025802189799418
sVamphetimine
p1139
F0.0
sVsignificantly
p1140
F0.0
sVed
p1141
F8.960948520947061e-05
sVyeah
p1142
F0.00017921897041894123
sVbreakthrough
p1143
F0.0
sVsupplant
p1144
F0.0
sVex
p1145
F0.00017921897041894123
sVyear
p1146
F0.00043126632520592846
sVet
p1147
F0.00043844032689104116
sVhappen
p1148
F0.0002645775583087533
sVer
p1149
F0.0003392237425252587
sVultimately
p1150
F0.0008768806537820823
sVsystemsammenst
p1151
F0.0
sVspace
p1152
F0.00017921897041894123
sVunderst
p1153
F0.0
sVfurthermore
p1154
F0.00014614677563034705
sVlgelig
p1155
F0.0
sVincrease
p1156
F0.004211645804845119
sVseriously
p1157
F0.0001130745808417529
sVbeige
p1158
F0.0
sVrational
p1159
F0.0
sVformula
p1160
F0.0
sVtrandermally
p1161
F0.0
sVhemorrhagic
p1162
F0.0
sVcorrect
p1163
F0.00017921897041894123
sVhcl
p1164
F0.0
sVneurotrophic
p1165
F0.0
sVhallucinogen
p1166
F0.0
sVtheory
p1167
F0.0002922935512606941
sVquite
p1168
F0.00010409876815315514
sVcalifornia
p1169
F0.0
sVbesides
p1170
F8.960948520947061e-05
sVldre
p1171
F0.0
sVbumpy
p1172
F0.0
sVorg
p1173
F0.0016076145319338178
sV___
p1174
F0.0
sVcough
p1175
F5.653729042087645e-05
sVcard
p1176
F8.960948520947061e-05
sVgotu
p1177
F0.0
sVadvance
p1178
F5.653729042087645e-05
sVdrowsiness
p1179
F0.0
sVgusta
p1180
F0.0
sVlifeext
p1181
F0.0
sVcouldn
p1182
F0.00013228877915437664
sVbrintellix
p1183
F0.0
sVmodest
p1184
F0.00014614677563034705
sV10mg
p1185
F0.0
sVinitiate
p1186
F0.00014614677563034705
sVcalidad
p1187
F0.0
sVplace
p1188
F5.9485010373231514e-05
sVmassive
p1189
F0.0
sVpromotion
p1190
F0.00043844032689104116
sVthink
p1191
F0.0006989488718854703
sVfrequent
p1192
F0.0002922935512606941
sVfirst
p1193
F0.0004610088303925443
sVemotion
p1194
F0.00014614677563034705
sVcheese
p1195
F0.00017921897041894123
sVfw900
p1196
F0.0
sVteologiuddannelser
p1197
F0.0
sVparkinson
p1198
F0.0
sVmucho
p1199
F0.0
sVfast
p1200
F0.00013228877915437664
sVdirectly
p1201
F0.0001130745808417529
sVspecificity
p1202
F0.0
sVxr
p1203
F0.0
sVimpossible
p1204
F8.960948520947061e-05
sVmessage
p1205
F5.653729042087645e-05
sVtachycardia
p1206
F0.0
sVopen
p1207
F0.0
sVtomorrow
p1208
F0.0002922935512606941
sVxt
p1209
F0.0
sViam
p1210
F0.0
sV1p
p1211
F0.0
sVsheer
p1212
F0.00014614677563034705
sVnecessarily
p1213
F8.960948520947061e-05
sVsheet
p1214
F5.653729042087645e-05
sVsilent
p1215
F8.960948520947061e-05
sV1x
p1216
F0.0
sVbite
p1217
F0.0004299385322517241
sVnewstar
p1218
F0.0
sVplastic
p1219
F0.00014614677563034705
sVteologi
p1220
F0.0
sVpsychotic
p1221
F0.00043844032689104116
sV2
p1222
F0.0003420388096460812
sV1g
p1223
F0.0
sVmilage
p1224
F0.0
sVwhite
p1225
F6.614438957718832e-05
sVfriend
p1226
F5.9485010373231514e-05
sV2mg
p1227
F0.0
sVnutrition
p1228
F0.0
sVmostly
p1229
F0.0005653729042087646
sVpurchase
p1230
F0.0002688284556284118
sVbenbest
p1231
F0.0
sVsuit
p1232
F8.960948520947061e-05
sVaccurately
p1233
F8.960948520947061e-05
sVshort
p1234
F4.461375777992364e-05
sVderived_neurotrophic_factor
p1235
F0.0
sV11
p1236
F4.461375777992364e-05
sV10
p1237
F0.00022306878889961817
sVtelevision
p1238
F0.00014614677563034705
sV12
p1239
F5.9485010373231514e-05
sV15
p1240
F4.461375777992364e-05
sV14
p1241
F0.0001130745808417529
sVtraverse
p1242
F0.0
sV16
p1243
F5.653729042087645e-05
sV19
p1244
F0.0001130745808417529
sVrequire
p1245
F0.0008768806537820823
sVagmatine
p1246
F0.0
sVmutilation
p1247
F0.0
sVfuture
p1248
F0.00029764975309734743
sVmagnesium
p1249
F0.0
sVcollege
p1250
F0.00014614677563034705
sVsynthesis
p1251
F0.00014614677563034705
sVdecompose
p1252
F0.0
sVanyways
p1253
F8.960948520947061e-05
sVpre
p1254
F0.00017921897041894123
sVcoconut
p1255
F6.614438957718832e-05
sVunsubstantiated
p1256
F0.0
sVrene
p1257
F0.0
sVpaywalls
p1258
F0.0
sVsam
p1259
F0.0
sVprl
p1260
F0.0
sVpro
p1261
F0.0
sVprn
p1262
F0.0
sVlevomethamphetamine
p1263
F0.0
sVinpatient
p1264
F0.0
sVsay
p1265
F0.0005353650933590837
sVpubmed
p1266
F0.0
sVpregnenolone
p1267
F0.0
sVhypnotic
p1268
F0.0
sV20g
p1269
F0.0
sVanger
p1270
F0.00017921897041894123
sVslag
p1271
F0.00014614677563034705
sVturner
p1272
F0.0
sVrecover
p1273
F5.653729042087645e-05
sVsaw
p1274
F0.0002261491616835058
sVmptp
p1275
F0.0
sVisolate
p1276
F0.0
sVaside
p1277
F0.0001130745808417529
sVpmc514561
p1278
F0.0
sVnote
p1279
F0.0002645775583087533
sVideal
p1280
F0.00035843794083788245
sVpotential
p1281
F0.0017537613075641646
sVonline
p1282
F0.0005376569112568237
sVobjective
p1283
F0.0
sVperformance
p1284
F0.0002261491616835058
sVwonder
p1285
F0.0005653729042087646
sVblunt
p1286
F0.0002922935512606941
sV200
p1287
F0.0007307338781517354
sVbegin
p1288
F0.0005653729042087646
sVsure
p1289
F0.0007606604801376657
sVmultiple
p1290
F0.00017921897041894123
sVtrace
p1291
F0.0
sVnormal
p1292
F0.0005653729042087646
sVtrack
p1293
F0.0002688284556284118
sVprice
p1294
F0.0002826864521043823
sVclearer
p1295
F0.0
sVbeta
p1296
F0.0010230274294124294
sVpaiy
p1297
F0.0
sVattack
p1298
F0.0002315053635201591
sVsymtoms
p1299
F0.0
sVpair
p1300
F0.00017921897041894123
sVgrateful
p1301
F0.0
sVespecially
p1302
F0.0002645775583087533
sVaverage
p1303
F0.0002688284556284118
sVlater
p1304
F0.0002261491616835058
sVsale
p1305
F0.00014614677563034705
sVproperly
p1306
F3.307219478859416e-05
sVwind
p1307
F5.653729042087645e-05
sVpattern
p1308
F0.0
sVjittery
p1309
F0.0
sVdrenge
p1310
F0.0
sVtypically
p1311
F0.0008768806537820823
sVshop
p1312
F0.0002922935512606941
sVdrastically
p1313
F0.0
sVshow
p1314
F0.00022306878889961817
sVcheap
p1315
F0.00044804742604735313
sVgedtestingservice
p1316
F0.0
sVelevate
p1317
F0.0
sVtherapist
p1318
F0.0002922935512606941
sVtiredness
p1319
F0.0
sVhace
p1320
F0.0
sVlabel
p1321
F0.00016961187126262936
sVnlm
p1322
F0.0
sVline
p1323
F6.614438957718832e-05
sVground
p1324
F5.653729042087645e-05
sVnemesis
p1325
F0.0
sVratio
p1326
F0.00014614677563034705
sVbrain_dopamine_and_kinematics_of_graphomotor
p1327
F0.0
sVtitle
p1328
F8.960948520947061e-05
sV500mg
p1329
F0.0
sVhusband
p1330
F8.960948520947061e-05
sVsimpelthen
p1331
F0.0
sVhockey
p1332
F0.0
sVnalt
p1333
F0.0
sVdoxepin
p1334
F0.0
sVawareness
p1335
F0.0
sVnootropics
p1336
F0.0
sVcorrectly
p1337
F5.653729042087645e-05
sVwheezy
p1338
F0.0
sVnogle
p1339
F0.0
sVtruly
p1340
F0.00035843794083788245
sVrefina
p1341
F0.0
sVloath
p1342
F0.0
sVcannot
p1343
F0.00013228877915437664
sVnearly
p1344
F2.9742505186615757e-05
sVdistinctly
p1345
F0.0
sVbromocriptine
p1346
F0.0
sVconjunction
p1347
F0.0
sVfirstborn
p1348
F0.0
sVsecondary
p1349
F5.653729042087645e-05
sVcatecholamine
p1350
F0.0
sVresource
p1351
F0.0002922935512606941
sVbodybuilder
p1352
F0.0
sVhordenine
p1353
F0.0
sVdecarboxylase
p1354
F0.0
sVatomoxetine
p1355
F0.0
sVsaliva
p1356
F0.00014614677563034705
sVyield
p1357
F0.0
sVmorning
p1358
F0.0002688284556284118
sVtheanine
p1359
F0.0
sVstupid
p1360
F0.00016961187126262936
sVdejes
p1361
F0.0
sVvision
p1362
F0.0
sVwiki
p1363
F0.0
sVaffordable
p1364
F0.0
sVtransdermal
p1365
F0.0
sVbuuuuut
p1366
F0.0
sVphysically
p1367
F0.0002922935512606941
sVhypotension
p1368
F0.0
sVnamely
p1369
F0.0
sVactively
p1370
F0.0
sVasleep
p1371
F8.960948520947061e-05
sVragey
p1372
F0.0
sV1926
p1373
F0.0
sVstigma
p1374
F0.0
sVsurgery
p1375
F0.0005845871025213882
sVestamos
p1376
F0.0
sVconcern
p1377
F0.0011691742050427764
sVgiver
p1378
F0.0
sVinhibitory
p1379
F0.0
sVestan
p1380
F0.0
sVreview
p1381
F0.0
sVdefinite
p1382
F0.0002922935512606941
sVphosphatidylserine
p1383
F0.0
sVenough
p1384
F0.0
sVestar
p1385
F0.0
sVherbal
p1386
F0.00014614677563034705
sVimport
p1387
F0.00014614677563034705
sVacross
p1388
F0.0001130745808417529
sVpsychedelics
p1389
F0.0
sVnotice
p1390
F0.0005952995061946949
sVuk
p1391
F0.0002922935512606941
sVvertical
p1392
F5.653729042087645e-05
sVscreen
p1393
F0.0002688284556284118
sVdome
p1394
F0.0
sVcomt
p1395
F0.0
sVblame
p1396
F5.653729042087645e-05
sVsympathomimetic
p1397
F0.0
sVconcentrate
p1398
F0.0002922935512606941
sVcomo
p1399
F0.0
sVvenlafaxine
p1400
F0.0
sVreevaluate
p1401
F0.0
sVgauntlet
p1402
F0.0
sVcome
p1403
F0.0002825537992728497
sVligand
p1404
F0.0
sVreaction
p1405
F0.00044804742604735313
sVcleave
p1406
F0.0
sVstun
p1407
F0.0
sVsuperstar
p1408
F0.0
sVfit
p1409
F3.307219478859416e-05
sVcramp
p1410
F0.0
sVbioactive
p1411
F0.0
sVregion
p1412
F0.00017921897041894123
sVballpark
p1413
F0.0
sVmoreso
p1414
F0.0
sVbelig
p1415
F0.0
sVvilazodone
p1416
F0.0
sVjo
p1417
F0.0
sVtout
p1418
F0.0
sVexpression
p1419
F0.00016961187126262936
sVsheaf
p1420
F0.0
sVnoopept
p1421
F0.0
sVduty
p1422
F0.00017921897041894123
sVamong
p1423
F0.0002688284556284118
sVqhi
p1424
F0.0
sVafterwards
p1425
F0.0001130745808417529
sVcancer
p1426
F0.0008768806537820823
sVcolor
p1427
F5.653729042087645e-05
sVeffective
p1428
F0.0040921097176497175
sVpor
p1429
F0.00014614677563034705
sVperiod
p1430
F9.921658436578247e-05
sVpop
p1431
F0.00017921897041894123
sVmonton
p1432
F0.0
sVtwin
p1433
F8.960948520947061e-05
sVludiomil
p1434
F0.0
sVamine
p1435
F0.0
sVarticle
p1436
F0.0001130745808417529
sVpod
p1437
F0.0
sVboat
p1438
F0.00014614677563034705
sVnarcissistic
p1439
F0.0
sVbetter
p1440
F0.00044613757779923634
sVunusual
p1441
F8.960948520947061e-05
sVstretch
p1442
F0.00017921897041894123
sVrebuild
p1443
F0.0
sVsker
p1444
F0.0
sVbreath
p1445
F3.307219478859416e-05
sVcoinrx
p1446
F0.0
sVlder
p1447
F0.0
sV15mg
p1448
F0.0
sVdifferently
p1449
F8.960948520947061e-05
sVdesmethylselegiline
p1450
F0.0
sVgist
p1451
F0.00014614677563034705
sVinfluence
p1452
F5.653729042087645e-05
sVthousand
p1453
F5.653729042087645e-05
sVpersist
p1454
F0.00014614677563034705
sVayone
p1455
F0.0
sVdramatic
p1456
F8.960948520947061e-05
sVwake
p1457
F0.0001130745808417529
sVgamble
p1458
F0.00014614677563034705
sVoverdose
p1459
F0.0008768806537820823
sVcareful
p1460
F0.0005376569112568237
sV1mg
p1461
F0.0
sVskriver
p1462
F0.0
sVsound
p1463
F0.00019843316873156494
sV1294791551579fdnyemsambulancefit
p1464
F0.0
sVtrick
p1465
F0.0001130745808417529
sVrefractory
p1466
F0.0
sVongoing
p1467
F0.0
sVmany
p1468
F0.0
sVsituation
p1469
F0.0002688284556284118
sVunderstand
p1470
F0.00010409876815315514
sVcigs
p1471
F0.0
sValcoholic
p1472
F0.00014614677563034705
sVside_effect
p1473
F0.0
sVbror
p1474
F0.0
sVsudden
p1475
F0.0001130745808417529
sVironic
p1476
F0.00014614677563034705
sVprotein
p1477
F0.0
sVproperty
p1478
F9.921658436578247e-05
sVawhile
p1479
F0.00014614677563034705
sVworry
p1480
F0.00013228877915437664
sVdifferent
p1481
F0.0004299385322517241
sVpas
p1482
F0.00035843794083788245
sVritalin
p1483
F0.0
sVharsh
p1484
F8.960948520947061e-05
sVinquire
p1485
F0.0002922935512606941
sVpay
p1486
F4.461375777992364e-05
sVlave
p1487
F0.0
sVmagyar
p1488
F0.0
sVcheck
p1489
F0.0008960948520947063
sVya
p1490
F0.0002688284556284118
sVreleaser
p1491
F0.0
sVhtml
p1492
F0.00043844032689104116
sVmanila
p1493
F0.0
sVlite
p1494
F0.0
sVphysical
p1495
F0.0
sVhvis
p1496
F0.0
sVweek
p1497
F0.0009045966467340232
sVexhaust
p1498
F0.0
sVoil
p1499
F0.0007168758816757649
sVdrivel
p1500
F0.0
sVuddannelser
p1501
F0.0
sVtotally
p1502
F9.921658436578247e-05
sVtradition
p1503
F0.00014614677563034705
sVcosta
p1504
F0.0
sVcyp1a2
p1505
F0.0
sVburrito
p1506
F0.00014614677563034705
sVlargely
p1507
F0.0
sVminimize
p1508
F0.0002922935512606941
sVantihistamine
p1509
F0.0
sVroughly
p1510
F0.0
sVc60
p1511
F0.0
sVcosto
p1512
F0.0
sVsevere
p1513
F0.0015233612485610003
sVwithout
p1514
F0.0
sVsolve
p1515
F0.00017921897041894123
sVrelief
p1516
F0.0
sValleviate
p1517
F0.0005845871025213882
sVhubby
p1518
F0.0
sVjustify
p1519
F0.0
sV215
p1520
F0.0
sVbenzo
p1521
F0.0
sVmoney
p1522
F0.0002688284556284118
sVvaluable
p1523
F8.960948520947061e-05
sVtipos
p1524
F0.0
sVdehydration
p1525
F0.0
sVinflammatory
p1526
F0.0
sVkill
p1527
F9.921658436578247e-05
sVanerkendte
p1528
F0.0
sVaspect
p1529
F0.0002688284556284118
sVsufficiently
p1530
F0.0
sVtouch
p1531
F9.921658436578247e-05
sVbehavioural
p1532
F0.0
sVng
p1533
F0.0
sVsatin
p1534
F0.0
sVketamine
p1535
F0.0
sVdeath
p1536
F0.0003392237425252587
sVtrigger
p1537
F0.00043844032689104116
sVdopaminergic
p1538
F0.0
sVexcept
p1539
F0.0001653609739429708
sVimprovement
p1540
F0.00035843794083788245
sVfisetin
p1541
F0.0
sVpile
p1542
F8.960948520947061e-05
sVtreatment
p1543
F0.003799816166389024
sVversa
p1544
F0.00014614677563034705
sVelectrical
p1545
F0.0002922935512606941
sVunviable
p1546
F0.0
sVpill
p1547
F0.002338348410085553
sVreal
p1548
F0.0
sVkalde
p1549
F0.0
sVaround
p1550
F0.00019332628371300243
sVdesperately
p1551
F8.960948520947061e-05
sVread
p1552
F0.000628371700983289
sVmor
p1553
F0.0002922935512606941
sVpsa
p1554
F0.0
sVdiscontinue
p1555
F0.0
sVvirginia
p1556
F0.0
sVbuspirone
p1557
F0.0
sVtest
p1558
F0.0007915220658922703
sVinhibition
p1559
F0.0
sVinsist
p1560
F0.00014614677563034705
sValldaychemist
p1561
F0.0
sVworld
p1562
F6.614438957718832e-05
sVamt
p1563
F0.0
sVmod
p1564
F0.00014614677563034705
sVacute
p1565
F0.0
sVstranger
p1566
F0.00014614677563034705
sVachieve
p1567
F0.00014614677563034705
sVracetams
p1568
F0.0
sVpole
p1569
F8.960948520947061e-05
sVvenderlo
p1570
F0.0
sVsanity
p1571
F0.0
sVbenefit
p1572
F0.002338348410085553
sVeither
p1573
F0.0002825537992728497
sVfully
p1574
F6.614438957718832e-05
sVtic
p1575
F0.0
sVveggiefitness
p1576
F0.0
sVpapernotes
p1577
F0.0
sVpronounce
p1578
F0.00014614677563034705
sVparnate
p1579
F0.0
sVoxazepam
p1580
F0.0
sVbiloba
p1581
F0.0
sVuden
p1582
F0.0
sVkola
p1583
F0.0
sVduration
p1584
F0.0
sVoctane
p1585
F0.0
sVviral
p1586
F0.0
sVfabricas
p1587
F0.0
sVgenetics
p1588
F0.0
sVmood
p1589
F0.002688284556284118
sVbenzodiazepine
p1590
F0.0
sVtube
p1591
F0.00014614677563034705
sVlegal
p1592
F0.0002922935512606941
sVnoot
p1593
F0.0
sVmaob
p1594
F0.0
sVdeficit
p1595
F0.0
sVxten
p1596
F0.0
sVmaoi
p1597
F0.0
sVamino
p1598
F0.0
sVintravenous
p1599
F0.0
sVrefer
p1600
F0.00014614677563034705
sV3meo
p1601
F0.0
sVproveen
p1602
F0.0
sVmethamphetamine
p1603
F0.0
sVwelcome
p1604
F1.4871252593307878e-05
sVscientific
p1605
F0.00014614677563034705
sVbusiness
p1606
F1.4871252593307878e-05
sVepsom
p1607
F0.0
sVintrude
p1608
F0.0
sVmiscellaneous
p1609
F0.00014614677563034705
sVhjemme
p1610
F0.0
sVsixty
p1611
F0.0
sVfinicky
p1612
F0.0
sVthrow
p1613
F8.960948520947061e-05
sVmicrodose
p1614
F0.0
sVmanufacturer
p1615
F0.0
sVoo
p1616
F0.00014614677563034705
sVjournaling
p1617
F0.0
sVom
p1618
F0.0
sVpaises
p1619
F0.0
sVcentral
p1620
F0.0
sVtease
p1621
F0.00014614677563034705
sVog
p1622
F0.0
sVintolerable
p1623
F0.0
sVod
p1624
F0.0
sVfavorite
p1625
F5.653729042087645e-05
sVmeal
p1626
F5.653729042087645e-05
sVbenzos
p1627
F0.0
sV75mg
p1628
F0.0
sVgreatly
p1629
F0.0002922935512606941
sVhindu
p1630
F0.0
sVbond
p1631
F8.960948520947061e-05
sVroad
p1632
F8.960948520947061e-05
sVop
p1633
F0.0002922935512606941
sVdextro
p1634
F0.0
sVpotentiate
p1635
F0.0
sVimage
p1636
F8.960948520947061e-05
sVproblemsame
p1637
F0.0
sVvnte
p1638
F0.0
sVnicotine
p1639
F0.0
sVinvolvement
p1640
F0.0
sVbedtime
p1641
F0.0
sVeinstein
p1642
F0.0
sVmark
p1643
F0.00016961187126262936
sVintervention
p1644
F0.00014614677563034705
sVpharmaceutical
p1645
F0.0
sVweight
p1646
F0.0003307219478859416
sVaren
p1647
F0.00013384127333977092
sVweekend
p1648
F8.960948520947061e-05
sVstrictly
p1649
F8.960948520947061e-05
sVmelander
p1650
F0.0
sVhey
p1651
F8.960948520947061e-05
sVlol
p1652
F0.00014614677563034705
sVstart
p1653
F0.0004960829218289124
sVparachute
p1654
F0.0
sVbromide
p1655
F0.0
sVlow
p1656
F0.0010583102332350131
sVlot
p1657
F0.0
sVhellish
p1658
F0.0
sVmarlboros
p1659
F0.0
sVallergic
p1660
F0.00014614677563034705
sVirreversibly
p1661
F0.0
sVcomplete
p1662
F0.00013228877915437664
sVeksempel
p1663
F0.0
sVregard
p1664
F0.0
sVaniracetam
p1665
F0.0
sVnerve_growth_factor
p1666
F0.0
sVintoxication
p1667
F0.0
sVelimination
p1668
F0.0
sVorthostatic
p1669
F0.0
sVirreversible
p1670
F0.0
sVldte
p1671
F0.0
sVfaster
p1672
F5.653729042087645e-05
sVvolume
p1673
F0.00014614677563034705
sVpull
p1674
F6.614438957718832e-05
sVregimen
p1675
F0.0
sVpropargyl
p1676
F0.0
sVcirculation
p1677
F0.0
sVrage
p1678
F0.00014614677563034705
sVattenuate
p1679
F0.0
sVvice
p1680
F0.00014614677563034705
sVprimarly
p1681
F0.0
sVuniversitetsavisen
p1682
F0.0
sVashwagandha
p1683
F0.0
sVhydrolase
p1684
F0.0
sVnootropic
p1685
F0.0
sVnetop
p1686
F0.0
sVagree
p1687
F3.307219478859416e-05
sVstrongly
p1688
F0.0
sV600
p1689
F8.960948520947061e-05
sVaf
p1690
F0.0
sVtaste
p1691
F5.653729042087645e-05
sVcertain
p1692
F0.00016358377852638666
sVdescribe
p1693
F0.00017921897041894123
sVdeep
p1694
F6.614438957718832e-05
sVnerv
p1695
F0.0
sVap
p1696
F0.0
sVexamine
p1697
F8.960948520947061e-05
sVhypertension
p1698
F0.0
sVinulin
p1699
F0.0
sVfile
p1700
F0.0002922935512606941
sVformulation
p1701
F0.0
sVlifetime
p1702
F8.960948520947061e-05
sVmelatonin
p1703
F0.0
sVillegal
p1704
F0.00014614677563034705
sVfill
p1705
F0.0001130745808417529
sVhigh
p1706
F0.0
sVrosea
p1707
F0.0
sVidiot
p1708
F0.00014614677563034705
sVdiarrhea
p1709
F0.00043844032689104116
sVringtone
p1710
F0.00014614677563034705
sVgraduate
p1711
F0.00014614677563034705
sV5
p1712
F0.0002528112940862339
sVm9re
p1713
F0.0
sVpoor
p1714
F1.4871252593307878e-05
sVseparate
p1715
F0.00017921897041894123
sVpharmaceutically
p1716
F0.0
sVdrift
p1717
F0.0
sVimportant
p1718
F0.0008064853668852356
sVunless
p1719
F0.00039576103294613514
sVconclusive
p1720
F0.0
sVtricky
p1721
F0.00014614677563034705
sVunbind
p1722
F0.0
sVclinically
p1723
F0.0
sVoxiracetam
p1724
F0.0
sVtransporte
p1725
F0.0
sVcorea
p1726
F0.0
sVpramiracetam
p1727
F0.0
sVadderrall
p1728
F0.0
sVtitration
p1729
F0.0
sVmimic
p1730
F0.00014614677563034705
sVc8
p1731
F0.0
sVhugely
p1732
F0.0
sVbehavioral
p1733
F0.0
sVoverseas
p1734
F0.0
sVresolution
p1735
F8.960948520947061e-05
sVnunca
p1736
F0.0
sVrepresent
p1737
F0.00014614677563034705
sVdepropargylated
p1738
F0.0
sVconsider
p1739
F0.0003637941426745358
sVchinese
p1740
F0.0
sVlack
p1741
F0.00013228877915437664
sVmonth
p1742
F0.001025238038446419
sVthoughtful
p1743
F0.00014614677563034705
sVdeadline
p1744
F0.00014614677563034705
sVzinc
p1745
F0.0
sVinvariably
p1746
F0.0
sVfollow
p1747
F0.00019843316873156494
sValt
p1748
F0.00017921897041894123
sVdisk
p1749
F0.00014614677563034705
sVreluctant
p1750
F0.0
sVrd
p1751
F0.0
sVtv
p1752
F0.00014614677563034705
sVtr
p1753
F0.00014614677563034705
sVextraneous
p1754
F0.00014614677563034705
sVhyperthermia
p1755
F0.0
sVprogram
p1756
F8.960948520947061e-05
sVamphs
p1757
F0.0
sVsmile
p1758
F0.00017921897041894123
sV17646220
p1759
F0.0
sVcase
p1760
F0.0007937326749262597
sV697901
p1761
F0.0
sVparcel
p1762
F0.0
sVfar
p1763
F0.0003569100622393891
sVhorror
p1764
F0.0002922935512606941
sVfaq
p1765
F0.0
sVmph
p1766
F0.0
sVpsychologist
p1767
F0.0
sVmirapex
p1768
F0.0
sVworst
p1769
F0.00017921897041894123
sVsublingually
p1770
F0.0
sVdecide
p1771
F0.0007168758816757649
sVfall
p1772
F0.00017921897041894123
sVsourly
p1773
F0.0
sVdifference
p1774
F0.0002688284556284118
sVmppe
p1775
F0.0
sVfald
p1776
F0.0
sVmotor
p1777
F0.00014614677563034705
sVpotentiation
p1778
F0.0
sVunlike
p1779
F0.0003392237425252587
sVlist
p1780
F0.0003392237425252587
sVapplicable
p1781
F0.0
sVlarge
p1782
F0.0
sVadjust
p1783
F0.0008768806537820823
sVsedation
p1784
F0.0
sVsmall
p1785
F5.9485010373231514e-05
sVbiological
p1786
F0.0
sVremeron
p1787
F0.0
sVmethodical
p1788
F0.0
sVphenibut
p1789
F0.0
sVsynergy
p1790
F0.0
sVpdocs
p1791
F0.0
sVrate
p1792
F0.00035843794083788245
sVfiber
p1793
F0.0
sVdesign
p1794
F8.960948520947061e-05
sVenhancement
p1795
F0.0002922935512606941
sVlawyer
p1796
F0.00014614677563034705
sVwyeth
p1797
F0.0
sVrnene
p1798
F0.0
sVlla
p1799
F0.0
sVribbon
p1800
F0.0
sVmaterial
p1801
F8.960948520947061e-05
sVsun
p1802
F9.921658436578247e-05
sVsection
p1803
F0.00017921897041894123
sVdirt
p1804
F0.00017921897041894123
sVstool
p1805
F0.00014614677563034705
sVcaffeine
p1806
F0.0017537613075641646
sVoverload
p1807
F0.0
sVcrush
p1808
F0.00014614677563034705
sVversion
p1809
F0.00017921897041894123
sVjudicious
p1810
F0.0
sVaby
p1811
F0.0
sVdiscern
p1812
F0.0
sVmethod
p1813
F0.0007307338781517354
sVextention
p1814
F0.00014614677563034705
sVhemsamarit
p1815
F0.0
sVhasn
p1816
F6.614438957718832e-05
sVfull
p1817
F0.0
sVma
p1818
F0.0005845871025213882
sVhungover
p1819
F0.0
sVfuld
p1820
F0.0
sVcomponent
p1821
F0.0002688284556284118
sVsupposedly
p1822
F0.00043844032689104116
sVoveractive
p1823
F0.0
sVtage
p1824
F0.0
sVshouldn
p1825
F0.0001130745808417529
sVselective
p1826
F0.0
sVexcess
p1827
F0.0002688284556284118
sVepitome
p1828
F0.0
sVstrong
p1829
F0.0002261491616835058
sV900
p1830
F0.0
sVahead
p1831
F0.00016961187126262936
sVmdma
p1832
F0.0
sVexperience
p1833
F0.0014337517633515298
sVrefinar
p1834
F0.0
sVprior
p1835
F0.0010230274294124294
sVamount
p1836
F0.000621910194629641
sVheroin
p1837
F0.00014614677563034705
sV9mg
p1838
F0.0
sVsocial
p1839
F0.00019843316873156494
sVclinical_significance
p1840
F0.0
sVschtick
p1841
F0.0
sVtoxicity
p1842
F0.0
sVproducto
p1843
F0.0
sV1521307
p1844
F0.0
sVvia
p1845
F0.0002922935512606941
sVverbose
p1846
F0.0
sVfamily
p1847
F0.0002826864521043823
sVagomelatine
p1848
F0.0
sVvil
p1849
F0.0
sVput
p1850
F0.00019332628371300243
sVglade
p1851
F0.0
sVseroquel
p1852
F0.0
sVvit
p1853
F0.0
sVestablish
p1854
F0.00014614677563034705
sVresearch
p1855
F0.0016076145319338178
sVreadily
p1856
F0.0
sVeye
p1857
F0.0006272663964662943
sVscore
p1858
F5.653729042087645e-05
sVfaint
p1859
F0.00014614677563034705
sVtwo
p1860
F0.0
sVensablado
p1861
F0.0
sV6
p1862
F0.00010409876815315514
sVhomework
p1863
F0.00014614677563034705
sVminor
p1864
F0.00016961187126262936
sV12333
p1865
F0.0
sVtryna
p1866
F0.00014614677563034705
sVneuron
p1867
F0.0
sVinsulin
p1868
F0.0
sVrelevant
p1869
F0.0
sVprecios
p1870
F0.0
sVforuds
p1871
F0.0
sVsite
p1872
F5.653729042087645e-05
sVbasically
p1873
F0.0010230274294124294
sVparticular
p1874
F0.00029764975309734743
sVemsamblarlos
p1875
F0.0
sVhurry
p1876
F3.307219478859416e-05
sVnineteen
p1877
F8.960948520947061e-05
sVkaraoke
p1878
F0.00014614677563034705
sVglad
p1879
F3.307219478859416e-05
sVdex
p1880
F0.0
sVnone
p1881
F0.00016961187126262936
sVinclude
p1882
F0.0017025802189799418
sVhour
p1883
F0.0007915220658922703
sVdep
p1884
F0.0
sVrecall
p1885
F0.0007307338781517354
sVder
p1886
F0.0
sVdet
p1887
F0.0
sVdopac
p1888
F0.0
sVuridine
p1889
F0.0
sVremain
p1890
F0.0002688284556284118
sVparagraph
p1891
F0.0
sVnine
p1892
F3.307219478859416e-05
sV14btc
p1893
F0.0
sVden
p1894
F0.00044804742604735313
sVlearn
p1895
F0.0008768806537820823
sVindtil
p1896
F0.0
sVtianeptine
p1897
F0.0
sVmarble
p1898
F0.0
sVhistory
p1899
F0.0001130745808417529
sVcompare
p1900
F0.0005376569112568237
sVshare
p1901
F3.307219478859416e-05
sVashwaghanda
p1902
F0.0
sVcollision
p1903
F0.0
sVminimum
p1904
F8.960948520947061e-05
sVsense
p1905
F2.9742505186615757e-05
sVexclude
p1906
F0.00014614677563034705
sVbpap
p1907
F0.0
sVfirmly
p1908
F0.00014614677563034705
sVinformation
p1909
F0.00044804742604735313
sVstim
p1910
F0.0
sVgoal
p1911
F0.0002922935512606941
sVrather
p1912
F0.0003307219478859416
sVfluoxetine
p1913
F0.0
sVundervisningen
p1914
F0.0
sVchorea
p1915
F0.0
sVoccasionally
p1916
F0.0001130745808417529
sVreject
p1917
F0.00014614677563034705
sVfr
p1918
F0.0002922935512606941
sVsemax
p1919
F0.0
sVokay
p1920
F0.00017921897041894123
sVthreat
p1921
F0.0
sVfx
p1922
F0.0
sVadvice
p1923
F0.00014614677563034705
sVreuptake
p1924
F0.0
sVfa
p1925
F0.0
sVmaprotiline
p1926
F0.0
sVunfamiliar
p1927
F0.0002922935512606941
sVnumb
p1928
F0.0
sVparticipant
p1929
F0.0
sVvidenskabeligt
p1930
F0.0
sV10btc
p1931
F0.0
sVresponse
p1932
F0.0016076145319338178
sVrefuse
p1933
F5.653729042087645e-05
sVmisanthropic
p1934
F0.0
sVmorphine
p1935
F0.00014614677563034705
sVselegeline
p1936
F0.0
sVcoat
p1937
F8.960948520947061e-05
sVsupervision
p1938
F0.0
sVbipolarity
p1939
F0.0
sVego
p1940
F0.0
sVfundamental
p1941
F0.0
sVsaphris
p1942
F0.0
sVpleasure
p1943
F0.0002261491616835058
sVequation
p1944
F0.0
sVhelp
p1945
F0.0007435626296653938
sVsertraline
p1946
F0.0
sVslouch
p1947
F0.0
sVsoon
p1948
F2.9742505186615757e-05
sVpaper
p1949
F0.00016961187126262936
sVkristendomsfilologi
p1950
F0.0
sVhell
p1951
F0.0003392237425252587
sVsuffer
p1952
F0.0006272663964662943
sVcardiovascular
p1953
F0.0
sV24
p1954
F5.653729042087645e-05
sV25
p1955
F0.0004522983233670116
sV27
p1956
F5.653729042087645e-05
sV20
p1957
F0.00013384127333977092
sV21
p1958
F5.653729042087645e-05
sV22
p1959
F5.653729042087645e-05
sVpray
p1960
F5.653729042087645e-05
sVlateral
p1961
F0.0
sVselenium
p1962
F0.0
sV29
p1963
F8.960948520947061e-05
sVpct
p1964
F0.0
sVactually
p1965
F0.00019332628371300243
sVlate
p1966
F3.307219478859416e-05
sVresort
p1967
F0.0
sVpharmacotherapy
p1968
F0.0
sVargentino
p1969
F0.0
sVbypass
p1970
F0.00043844032689104116
sVneuroprotective
p1971
F0.0
sVamitriptyline
p1972
F0.0
sVhvor
p1973
F0.0
sVbout
p1974
F0.00014614677563034705
sVmight
p1975
F0.0003717813148326969
sValter
p1976
F0.0
sVally
p1977
F0.0
sVcolleague
p1978
F0.0
sVwouldn
p1979
F9.921658436578247e-05
sVgood
p1980
F0.0
sVyo
p1981
F0.00017921897041894123
sVfood
p1982
F0.0002645775583087533
sVpropose
p1983
F0.00014614677563034705
sVarmodafinil
p1984
F0.0
sVprimary
p1985
F0.0002688284556284118
sVvomit
p1986
F0.00014614677563034705
sVmonolaurin
p1987
F0.0
sVcompound
p1988
F0.0
sVfoot
p1989
F5.653729042087645e-05
sVcopious
p1990
F0.0
sVcomplain
p1991
F8.960948520947061e-05
sVmystery
p1992
F0.0
sVeasily
p1993
F0.00019843316873156494
sValways
p1994
F0.0
sV2x
p1995
F0.0
sVrefresh
p1996
F0.00014614677563034705
sVsomeone
p1997
F0.0
sV2g
p1998
F0.0
sVdisorient
p1999
F0.0
sV22btc
p2000
F0.0
sVincoordination
p2001
F0.0
sVheavy
p2002
F6.614438957718832e-05
sVbreakdown
p2003
F0.00014614677563034705
sVeveryone
p2004
F0.0001130745808417529
sVdetect
p2005
F0.00014614677563034705
sV300mg
p2006
F0.0
sVgeneration
p2007
F0.0
sVenergy
p2008
F0.001899908083194512
sVhard
p2009
F0.0002645775583087533
sVreduce
p2010
F0.0015233612485610003
sVidea
p2011
F8.922751555984727e-05
sVorally
p2012
F0.0
sVclockwork
p2013
F0.0
sVfinish
p2014
F0.0001130745808417529
sVexpect
p2015
F7.435626296653939e-05
sVcarry
p2016
F1.4871252593307878e-05
sVthing
p2017
F0.00017845503111969455
sVtodo
p2018
F0.0
sVinsurance
p2019
F0.0010230274294124294
sVterrify
p2020
F0.0
sVovermodent
p2021
F0.0
sValcohol
p2022
F0.0008960948520947063
sVitem
p2023
F5.653729042087645e-05
sVsince
p2024
F0.00032716755705277333
sVtemporary
p2025
F0.00043844032689104116
sVdesvenlafaxine
p2026
F0.0
sVadhere
p2027
F0.0
sVsi
p2028
F0.0
sVhealth
p2029
F0.0007307338781517354
sV7
p2030
F0.00019843316873156494
sVdysfunction
p2031
F0.0
sVissue
p2032
F0.000734984775471394
sVass
p2033
F8.960948520947061e-05
sVbald
p2034
F0.00014614677563034705
sVbelief
p2035
F0.0
sVcircumstance
p2036
F0.0002922935512606941
sVhydroxyzine
p2037
F0.0
sVmoclobemide
p2038
F0.0
sVribose
p2039
F0.0
sVforgive
p2040
F8.960948520947061e-05
sVissue_with_generic_bioequivalence
p2041
F0.0
sVdifficulty
p2042
F0.0002922935512606941
sVreason
p2043
F0.0003968663374631299
sVbase
p2044
F0.0002315053635201591
sValzheimer
p2045
F0.0
sVimagine
p2046
F5.653729042087645e-05
sVask
p2047
F0.00011897002074646303
sVtudet
p2048
F0.0
sVash
p2049
F0.0
sVgenerate
p2050
F0.0007307338781517354
sVbring
p2051
F1.4871252593307878e-05
sVthread
p2052
F0.00014614677563034705
sVinterpretation
p2053
F0.00014614677563034705
sVterrible
p2054
F0.0001130745808417529
sVw
p2055
F0.0002826864521043823
sVanecdote
p2056
F0.0
sVassign
p2057
F0.0
sVbupropion
p2058
F0.0
sVmajor
p2059
F0.0002645775583087533
sVprobability
p2060
F0.0
sVpurport
p2061
F0.0
sVfeel
p2062
F0.0005353650933590837
sVrelate
p2063
F0.0
sVnumber
p2064
F0.0003392237425252587
sVfancy
p2065
F0.00014614677563034705
sVeuphoric
p2066
F0.0
sV40mg
p2067
F0.0
sVfiction
p2068
F0.00014614677563034705
sVmiss
p2069
F5.9485010373231514e-05
sVpropranolol
p2070
F0.0
sVunexplained
p2071
F0.00014614677563034705
sVnoma
p2072
F0.0
sVkom
p2073
F0.0
sVprovagil
p2074
F0.0
sVscript
p2075
F0.0002922935512606941
sVintroduction
p2076
F0.00014614677563034705
sVtwenty
p2077
F0.0001130745808417529
sVinteract
p2078
F0.0005845871025213882
sVleast
p2079
F0.0
sVfosterfamiljen
p2080
F0.0
sVcontra
p2081
F0.0
sVregulation
p2082
F0.0
sVracemic
p2083
F0.0
sV189
p2084
F0.0
sVstore
p2085
F0.00017921897041894123
sVheadache
p2086
F0.0021922016344552058
sVscare
p2087
F0.0002922935512606941
sVimperfect
p2088
F0.0
sVoption
p2089
F0.0011691742050427764
sVrelationship
p2090
F5.653729042087645e-05
sVbehind
p2091
F1.4871252593307878e-05
sVpramipexole
p2092
F0.0
sVneedle
p2093
F8.960948520947061e-05
sVpark
p2094
F0.00014614677563034705
sVdiscover
p2095
F8.960948520947061e-05
sVserotonin
p2096
F0.0
sVpart
p2097
F0.00013228877915437664
sVdrunkenness
p2098
F0.0
sVconsult
p2099
F0.0
sVbelieve
p2100
F0.00019843316873156494
sVpersian
p2101
F0.0
sValbeit
p2102
F0.0
sVkind
p2103
F0.0
sVb
p2104
F0.0011905990123893897
sVyum
p2105
F0.0
sVglutamate
p2106
F0.0
sVdouble
p2107
F8.960948520947061e-05
sVinstruction
p2108
F0.0002922935512606941
sVgrey
p2109
F8.960948520947061e-05
sVmedicate
p2110
F0.0
sVcysteine
p2111
F0.0
sVaap
p2112
F0.0
sVsedate
p2113
F0.0002688284556284118
sVteacrine
p2114
F0.0
sVfasoracetam
p2115
F0.0
sVrisky
p2116
F0.0002922935512606941
sVladasten
p2117
F0.0
sVtofranil
p2118
F0.0
sVmotivation
p2119
F0.0
sVpcp
p2120
F0.0
sVexert
p2121
F0.0
sVhoneymoon
p2122
F0.00014614677563034705
sV30am
p2123
F0.0
sValongside
p2124
F8.960948520947061e-05
sVstefan_l
p2125
F0.0
sVbiggest
p2126
F0.00017921897041894123
sVseleginline
p2127
F0.0
sVgten
p2128
F0.0
sVpharmacokinetics
p2129
F0.0
sVconcentration
p2130
F0.0005376569112568237
sVderfor
p2131
F0.0
sVkarl
p2132
F0.0
sVsell
p2133
F3.307219478859416e-05
sVmountain
p2134
F0.0
sVgeneric
p2135
F0.0017537613075641646
sVmonophosphate
p2136
F0.0
sVpara
p2137
F0.0
sVzero
p2138
F0.0002688284556284118
sV21635908
p2139
F0.0
sVself
p2140
F0.00010409876815315514
sVkristne
p2141
F0.0
sVaccumulative
p2142
F0.0
sVthreonate
p2143
F0.0
sVfind
p2144
F0.0
sVbuild
p2145
F6.614438957718832e-05
sVselv
p2146
F0.0
sVcarbidopa
p2147
F0.0
sVplay
p2148
F0.0002826864521043823
sVtowards
p2149
F5.9485010373231514e-05
sVbottle
p2150
F5.653729042087645e-05
sVquote
p2151
F8.960948520947061e-05
sVreach
p2152
F0.0002826864521043823
sVkan
p2153
F0.0
sVallergy
p2154
F0.00014614677563034705
sVcigarette
p2155
F0.0006272663964662943
sV75
p2156
F0.0002922935512606941
sVplan
p2157
F0.0003392237425252587
sVsignificant
p2158
F0.0008768806537820823
sV70
p2159
F5.653729042087645e-05
sVnothing
p2160
F0.00017845503111969455
sValpha
p2161
F0.0002922935512606941
sVextremely
p2162
F0.0006272663964662943
sVsamtidigt
p2163
F0.0
sVbasal
p2164
F0.0
sVreward
p2165
F0.00017921897041894123
sVkg
p2166
F0.00014614677563034705
sVmobile
p2167
F0.0002922935512606941
sVclear
p2168
F4.461375777992364e-05
sVsometimes
p2169
F0.00019843316873156494
sVcover
p2170
F0.00019843316873156494
sVsalt
p2171
F0.00014614677563034705
sVtraditional
p2172
F0.00017921897041894123
sVoverdrive
p2173
F0.0
sVclean
p2174
F1.4871252593307878e-05
sVweigh
p2175
F0.00044804742604735313
sVgaba
p2176
F0.0
sVscience
p2177
F8.960948520947061e-05
sVguzzle
p2178
F0.0
sVparticularly
p2179
F0.00035843794083788245
sVsomewhat
p2180
F0.0007307338781517354
sVrestore
p2181
F0.00014614677563034705
sVtenes
p2182
F0.0
sVmuira
p2183
F0.0
sVcdn
p2184
F0.0
sVcdp
p2185
F0.0
sVcarefully
p2186
F0.00043844032689104116
sVse
p2187
F0.00044804742604735313
sVchock
p2188
F0.0
sVfine
p2189
F0.0
sVpostsynaptic
p2190
F0.0
sVimpact
p2191
F0.0
sVcardioprotective
p2192
F0.0
sVrocket
p2193
F0.0
sValprazolam
p2194
F0.0
sVjustice
p2195
F0.00014614677563034705
sVvalgt
p2196
F0.0
sVruin
p2197
F0.00014614677563034705
sVdestabilize
p2198
F0.0
sVenzyme
p2199
F0.0
sVindian
p2200
F0.0
sVgelatinize
p2201
F0.0
sVfactor
p2202
F0.0010230274294124294
sV8
p2203
F0.00016358377852638666
sVp53
p2204
F0.0
sVaccurate
p2205
F0.00014614677563034705
sVporque
p2206
F0.0
sVhit
p2207
F9.921658436578247e-05
sVdependent
p2208
F0.0005845871025213882
sVbluelight
p2209
F0.0
sVgrocery
p2210
F0.00014614677563034705
sVcheaper
p2211
F0.00017921897041894123
sVcapsule
p2212
F0.00014614677563034705
sVanxiety
p2213
F0.007745779108408394
sVrest
p2214
F1.4871252593307878e-05
sVreply
p2215
F8.960948520947061e-05
sVpdf
p2216
F0.00043844032689104116
sVresolve
p2217
F5.653729042087645e-05
sVblocker
p2218
F0.00014614677563034705
sVbadge
p2219
F0.0
sVcry
p2220
F0.00017921897041894123
sVremove
p2221
F0.0001130745808417529
sVgastrointestinal
p2222
F0.0
sVhypo
p2223
F0.0
sVcommon
p2224
F0.0003392237425252587
sVwithdrawal
p2225
F0.0
sVsustainable
p2226
F0.0
sVx
p2227
F0.0007307338781517354
sVdizziness
p2228
F0.0010230274294124294
sVhinder
p2229
F0.0
sVrelentless
p2230
F0.0
sVderhjemme
p2231
F0.0
sVinsane
p2232
F0.00014614677563034705
sVpakkede
p2233
F0.0
sVset
p2234
F7.435626296653939e-05
sVdump
p2235
F0.00017921897041894123
sVfinansieret
p2236
F0.0
sVoverwhelm
p2237
F0.0
sVintelligence
p2238
F0.0
sVpotent
p2239
F0.0
sVsex
p2240
F0.00017921897041894123
sVskulle
p2241
F0.0
sVsee
p2242
F0.00038665256742600486
sVindividual
p2243
F0.00039576103294613514
sVbare
p2244
F8.960948520947061e-05
sVthistle
p2245
F0.0
sVcleverly
p2246
F0.0
sVsen
p2247
F0.0
sVged
p2248
F0.0
sVarm
p2249
F5.653729042087645e-05
sVanalog
p2250
F0.0
sVbarn
p2251
F0.00043844032689104116
sVspeed
p2252
F1.4871252593307878e-05
sVwow
p2253
F0.00043844032689104116
sVcurrently
p2254
F0.000508835613787888
sVplease
p2255
F0.00010409876815315514
sVcrossword
p2256
F0.0
sVvarious
p2257
F0.0001130745808417529
sVmodulators
p2258
F0.0
sVrytary
p2259
F0.0
sVnumerous
p2260
F8.960948520947061e-05
sVacutely
p2261
F0.0
sVavailable
p2262
F0.0005653729042087646
sVblow
p2263
F6.614438957718832e-05
sVrhodiola
p2264
F0.0
sVrecently
p2265
F0.00019843316873156494
sVstatistically
p2266
F0.0
sVnemlig
p2267
F0.0
sVcreatine
p2268
F0.0
sVattention
p2269
F9.921658436578247e-05
sVdermatillomania
p2270
F0.0
sVpams
p2271
F0.0
sVrapid
p2272
F0.0010230274294124294
sVsneakier
p2273
F0.0
sVinertia
p2274
F0.0
sVc
p2275
F4.461375777992364e-05
sVtoward
p2276
F0.0002688284556284118
sVprescription
p2277
F0.0
sVreverse
p2278
F5.653729042087645e-05
sVredefine
p2279
F0.0
sVbarely
p2280
F0.00017921897041894123
sVevent
p2281
F0.0002261491616835058
sVpiracetam
p2282
F0.0
sVconnection
p2283
F8.960948520947061e-05
sVbuzz
p2284
F8.960948520947061e-05
sVpiribedil
p2285
F0.0
sVdepartment
p2286
F0.0002922935512606941
sVmean
p2287
F0.00029764975309734743
sVwhole
p2288
F0.0001130745808417529
sVhistamine
p2289
F0.0
sVexperimental
p2290
F0.0
sVload
p2291
F0.00016961187126262936
sVconsume
p2292
F8.960948520947061e-05
sVsamme
p2293
F0.0
sVpoint
p2294
F0.00013384127333977092
sVsimple
p2295
F4.461375777992364e-05
sVothers
p2296
F0.0003968663374631299
sVwhatever
p2297
F6.614438957718832e-05
sV100mg
p2298
F0.0
sVpm
p2299
F0.0
sVmstn
p2300
F0.0
sVb6fven
p2301
F0.0
sVsimply
p2302
F5.653729042087645e-05
sVveggie
p2303
F0.0
sVunsuccessful
p2304
F0.00014614677563034705
sVthroughout
p2305
F5.653729042087645e-05
sVmission
p2306
F0.0
sVexpensive
p2307
F0.0003392237425252587
sV30mg
p2308
F0.0
sVcomplication
p2309
F0.0
sVraise
p2310
F0.0002826864521043823
sVjackoffknifefighter
p2311
F0.0
sVnader
p2312
F0.0
sVcreate
p2313
F0.0002688284556284118
sVoverlook
p2314
F0.0
sVdue
p2315
F0.001344142278142059
sVnachr
p2316
F0.0
sVnother
p2317
F0.0
sVmaintenance
p2318
F0.0
sVdonde
p2319
F0.0
sVhtr2a
p2320
F0.0
sVkommun
p2321
F0.0
sVempty
p2322
F4.461375777992364e-05
sV4
p2323
F0.0002081975363063103
sVved
p2324
F0.0
sValto
p2325
F0.0
sVheller
p2326
F0.0
sVpartly
p2327
F8.960948520947061e-05
sVj04kim
p2328
F0.0
sVvinegar
p2329
F8.960948520947061e-05
sVfire
p2330
F6.614438957718832e-05
sVwet
p2331
F8.960948520947061e-05
sVconvert
p2332
F0.00014614677563034705
sVelse
p2333
F0.00019332628371300243
sVdetermination
p2334
F0.0
sVliver
p2335
F0.0006272663964662943
sVdemand
p2336
F5.653729042087645e-05
sVsuicide
p2337
F0.00014614677563034705
sV528
p2338
F0.0
sVlamotrigine
p2339
F0.0
sVlook
p2340
F0.00043126632520592846
sVsolid
p2341
F0.0002688284556284118
sVstraight
p2342
F1.4871252593307878e-05
sVtolerate
p2343
F0.0
sVeuthymia
p2344
F0.0
sVcoq10
p2345
F0.0
sVsesame
p2346
F0.00014614677563034705
sVprecursor
p2347
F0.0
sVcyp2c19
p2348
F0.0
sVmatch
p2349
F5.653729042087645e-05
sVrigour
p2350
F0.0
sVerror
p2351
F0.0002922935512606941
sVfun
p2352
F3.307219478859416e-05
sVfleet
p2353
F0.00014614677563034705
sVpack
p2354
F6.614438957718832e-05
sVpound
p2355
F0.0002688284556284118
sVagitation
p2356
F0.0
sVbot
p2357
F0.0
sVpakistan
p2358
F0.0
sVjpg
p2359
F0.00017921897041894123
sVconfound
p2360
F0.0
sVdestabilization
p2361
F0.0
sVstubbornly
p2362
F0.0
sVeczema
p2363
F0.0
sVrid
p2364
F0.0002688284556284118
sVadulted
p2365
F0.0
sVbdnf
p2366
F0.0
sVunaffected
p2367
F0.0
sVbaseline
p2368
F0.0005845871025213882
sVldrene
p2369
F0.0
sVgrant
p2370
F0.0
sVmigraine
p2371
F0.0
sVwhiny
p2372
F0.0
sVtextile
p2373
F0.0
sVbenign
p2374
F0.00014614677563034705
sV9
p2375
F0.0002315053635201591
sVadvise
p2376
F0.0
sVrelatively
p2377
F0.00043844032689104116
sVyucca
p2378
F0.0
sV05
p2379
F0.00017921897041894123
sVhigher
p2380
F0.0004299385322517241
sVdevelopment
p2381
F8.960948520947061e-05
sVliterature
p2382
F0.00014614677563034705
sVslyr
p2383
F0.0
sVfatty
p2384
F0.00014614677563034705
sVlie
p2385
F0.0001130745808417529
sVcomprehensive
p2386
F0.0
sVdepersonalization
p2387
F0.0
sVyesterday
p2388
F0.00043844032689104116
sVprincipally
p2389
F0.0
sVmoment
p2390
F7.435626296653939e-05
sVpower
p2391
F6.614438957718832e-05
sVuser
p2392
F0.00017921897041894123
sVbromo
p2393
F0.0
sVrobust
p2394
F8.960948520947061e-05
sVnoticeably
p2395
F0.0
sVrecent
p2396
F0.00017921897041894123
sVhows
p2397
F0.0
sVlower
p2398
F0.0003637941426745358
sVtask
p2399
F5.653729042087645e-05
sVolder
p2400
F6.614438957718832e-05
sVmemantine
p2401
F0.0
sVanalysis
p2402
F0.00014614677563034705
sVrdh
p2403
F0.0
sVperson
p2404
F0.0001653609739429708
sVedge
p2405
F3.307219478859416e-05
sVy
p2406
F0.00019843316873156494
sVentry
p2407
F0.0002688284556284118
sVclearance
p2408
F0.0
sVspend
p2409
F5.653729042087645e-05
sVgrossly
p2410
F0.0
sVcyp2a6
p2411
F0.0
sVchore
p2412
F0.0
sVchord
p2413
F0.00014614677563034705
sVburden
p2414
F0.0
sVslc6a4
p2415
F0.0
sVinactive
p2416
F0.00014614677563034705
sVad
p2417
F0.0012545327929325886
sVregardless
p2418
F0.0002922935512606941
sValternative
p2419
F0.0007168758816757649
sVbliver
p2420
F0.0
sVcut
p2421
F4.461375777992364e-05
sVtablet
p2422
F0.0020460548588248587
sVk2
p2423
F0.0
sVlongecity
p2424
F0.0
sVindoktrineret
p2425
F0.0
sVhoras
p2426
F0.0
sVeager
p2427
F0.0
sVbenzedrine
p2428
F0.0
sVplateau
p2429
F0.0
sVaps
p2430
F0.0
sVwoiuldn
p2431
F0.0
sVe_for_ecstasy
p2432
F0.0
sVfinder
p2433
F0.00014614677563034705
sVuseless
p2434
F0.0002922935512606941
sVvendor
p2435
F8.960948520947061e-05
sVemergency
p2436
F0.00043844032689104116
sVbroscience
p2437
F0.0
sVevaluate
p2438
F0.0
sVcouple
p2439
F0.00029764975309734743
sVadvocate
p2440
F0.0
sVadrafinil
p2441
F0.0
sVjudgement
p2442
F0.00014614677563034705
sVshitty
p2443
F0.00014614677563034705
sVexpecially
p2444
F0.0
sVdamage
p2445
F0.0002688284556284118
sVeffexor
p2446
F0.0
sVhelpful
p2447
F0.0008768806537820823
sVstimulators
p2448
F0.0
sVd
p2449
F0.0
sVsignal
p2450
F0.0005376569112568237
sVseemingly
p2451
F0.00014614677563034705
sVinos
p2452
F0.0
sVmanifest
p2453
F0.00014614677563034705
sVcollect
p2454
F0.0
sVzoloft
p2455
F0.0
sVcontinue
p2456
F9.921658436578247e-05
sVunstable
p2457
F0.0002922935512606941
sVbyproduct
p2458
F0.0
sVpopular
p2459
F0.0002922935512606941
sVprrvious
p2460
F0.0
sVdisorder
p2461
F0.0011691742050427764
sVessential
p2462
F0.0
sVmcts
p2463
F0.0
sVmathematical
p2464
F0.0
sVgoogle
p2465
F0.0002688284556284118
sVoften
p2466
F0.0002261491616835058
sVabsolutely
p2467
F0.00013228877915437664
sVspring
p2468
F5.653729042087645e-05
sVnmethyl_npropynyl2phenylethylamine_mppe_a
p2469
F0.0
sVback
p2470
F0.00022306878889961817
sVphone
p2471
F8.960948520947061e-05
sVautophagy
p2472
F0.0
sVpaxil
p2473
F0.0
sVstrongest
p2474
F0.00014614677563034705
sVcatalyze
p2475
F0.0
sVcurious
p2476
F9.921658436578247e-05
sVoddly
p2477
F8.960948520947061e-05
sVeasygoing
p2478
F0.00014614677563034705
sVgradually
p2479
F0.0
sVscale
p2480
F0.00017921897041894123
sVpet
p2481
F0.00014614677563034705
sVdecision
p2482
F5.653729042087645e-05
sVintegration
p2483
F0.00014614677563034705
sVper
p2484
F0.0008960948520947063
sVcrisis
p2485
F0.0
sVenergic
p2486
F0.0
sVbehave
p2487
F8.960948520947061e-05
sVeliminate
p2488
F0.0
sV12mg
p2489
F0.0
sVprod
p2490
F0.0
sVpea
p2491
F0.0016076145319338178
sVminimal
p2492
F0.0
sVbuspar
p2493
F0.0
sVcgi
p2494
F0.00014614677563034705
sVpatient
p2495
F0.0007307338781517354
sVnu
p2496
F0.00014614677563034705
sVzombie
p2497
F0.00014614677563034705
sVstep
p2498
F3.307219478859416e-05
sVtinker
p2499
F0.0
sVordning
p2500
F0.0
sVnowhere
p2501
F0.00014614677563034705
sVbuccal
p2502
F0.0
sVviibryd
p2503
F0.0
sVintense
p2504
F0.00035843794083788245
sV3t39ar
p2505
F0.0
sVdiscus
p2506
F0.0
sVreact
p2507
F8.960948520947061e-05
sVpipeline
p2508
F0.0
sVpassionate
p2509
F5.653729042087645e-05
sVanything
p2510
F0.00022306878889961817
sVaccustom
p2511
F0.0
sVglaucoma
p2512
F0.0
sVrange
p2513
F9.921658436578247e-05
sVlinezolid
p2514
F0.0
sVchi
p2515
F0.0
sVmodaf
p2516
F0.0
sVndet
p2517
F0.0
sVsilence
p2518
F0.0001130745808417529
sVinte
p2519
F0.0
sVnsi
p2520
F0.0
sVmaca
p2521
F0.0
sVswastika
p2522
F0.0
sVdude
p2523
F0.00014614677563034705
sVnortriptyline
p2524
F0.0
sVwithin
p2525
F6.614438957718832e-05
sVnonsense
p2526
F0.0
sVappropriate
p2527
F0.0002922935512606941
sVmitochondrial
p2528
F0.0
sVprimarily
p2529
F0.0
sVfrance
p2530
F0.0
sVmethylene
p2531
F0.0
sVspan
p2532
F0.00014614677563034705
sVklynke
p2533
F0.0
sVaspudden
p2534
F0.0
sVunorthodox
p2535
F0.0
sVquestion
p2536
F0.0002645775583087533
sVprovigil
p2537
F0.0
sVtransdermally
p2538
F0.0
sVforward
p2539
F0.0
sV100323
p2540
F0.0
sVmanufacture
p2541
F0.0
sVenantiomer
p2542
F0.0
sVpsychoactive
p2543
F0.0
sVgithub
p2544
F0.0
sVginkgo
p2545
F0.0
sVsubjectively
p2546
F0.0
sVlink
p2547
F0.0002688284556284118
sVrepeatedly
p2548
F8.960948520947061e-05
sVnewer
p2549
F0.00043844032689104116
sVinjection
p2550
F0.0
sVphenylalanine
p2551
F0.0
sVconsiderable
p2552
F8.960948520947061e-05
sVinfo
p2553
F0.0011691742050427764
sVinverse
p2554
F0.00014614677563034705
sVdicearx
p2555
F0.0
sVrejection
p2556
F0.0
sVconsist
p2557
F0.0
sVnoradrenaline
p2558
F0.0
sVlifespan
p2559
F0.0
sVpar
p2560
F0.00014614677563034705
sVun
p2561
F9.921658436578247e-05
sVuh
p2562
F0.0001130745808417529
sVprolintane
p2563
F0.0
sVischemic
p2564
F0.0
sVsimilar
p2565
F0.0002645775583087533
sVparoxetine
p2566
F0.0
sVtricyclic
p2567
F0.0
sVconstant
p2568
F8.960948520947061e-05
sVhinanden
p2569
F0.0
sVanhedonia
p2570
F0.0
sVnuvigil
p2571
F0.0
sVunsafe
p2572
F0.00014614677563034705
sVtogether
p2573
F0.0
sVdoesn
p2574
F0.00019332628371300243
sVmagazine
p2575
F0.00014614677563034705
sVsingle
p2576
F5.9485010373231514e-05
sVcure
p2577
F0.0002922935512606941
sVpsychopath
p2578
F0.0
sVsurmise
p2579
F0.0
sVtyskland
p2580
F0.0
sVeller
p2581
F0.0
sVnah
p2582
F0.00014614677563034705
sVdigress
p2583
F0.0
sVoccasional
p2584
F0.0
sVmydriasis
p2585
F0.0
sVemoxypine
p2586
F0.0
sVb12
p2587
F0.0
sVellen
p2588
F0.0
sVreabsorb
p2589
F0.0
sVshallower
p2590
F0.0
sVnice
p2591
F0.0
sVdraw
p2592
F2.9742505186615757e-05
sVprecipitate
p2593
F0.0
sVativan
p2594
F0.0
sVsmitter
p2595
F0.0
sVamphetamine
p2596
F0.0
sVe
p2597
F0.00011897002074646303
sVffat
p2598
F0.0
sVmetabolize
p2599
F0.0
sVsedative
p2600
F0.0
sVimpatient
p2601
F0.00014614677563034705
sV2003
p2602
F8.960948520947061e-05
sVbeverage
p2603
F0.00014614677563034705
sV2007
p2604
F0.0
sVenzymated
p2605
F0.0
sVliterally
p2606
F0.00017921897041894123
sVfresh
p2607
F5.653729042087645e-05
sVscroll
p2608
F0.00014614677563034705
sVcode
p2609
F8.960948520947061e-05
sVevidence
p2610
F0.00044804742604735313
sVwrangle
p2611
F0.0
sVhepatitis
p2612
F0.00014614677563034705
sVedu
p2613
F0.0002922935512606941
sVgo
p2614
F0.0
sVpsycho
p2615
F0.00014614677563034705
sVadjustment
p2616
F0.0
sVstrew
p2617
F0.0
sVdanmark
p2618
F0.0
sVgi
p2619
F0.0
sVcompose
p2620
F0.00014614677563034705
sVprodrug
p2621
F0.0
sVanergic
p2622
F0.0
sVyoung
p2623
F1.4871252593307878e-05
sVsend
p2624
F0.00013228877915437664
sVoutside
p2625
F4.461375777992364e-05
sVmethmeds
p2626
F0.0
sVstable
p2627
F0.00014614677563034705
sVmonoamine
p2628
F0.0
sVfatal
p2629
F0.0002688284556284118
sVinflammation
p2630
F0.0
sVannoy
p2631
F0.00014614677563034705
sVconfirmation
p2632
F0.00014614677563034705
sVmainstream
p2633
F0.00014614677563034705
sVtorture
p2634
F0.00014614677563034705
sVsusceptible
p2635
F0.0
sVcostos
p2636
F0.0
sVwe00523152
p2637
F0.0
sValcar
p2638
F0.0
sVreverberate
p2639
F0.0
sVartery
p2640
F0.0
sVenfp
p2641
F0.0
sVwipe
p2642
F8.960948520947061e-05
sVnausea
p2643
F0.0
sVentire
p2644
F0.00016961187126262936
sVfastfood
p2645
F0.0
sVmoderate
p2646
F0.0016076145319338178
sVantihistaminergic
p2647
F0.0
sVforpligtelser
p2648
F0.0
sVtrd
p2649
F0.0
sVfewer
p2650
F0.0002922935512606941
sVtry
p2651
F0.0007733051348520097
sVrace
p2652
F0.0002922935512606941
sVprep
p2653
F0.0
sVinhibtion
p2654
F0.0
sVslow
p2655
F0.00013228877915437664
sVsmaller
p2656
F5.653729042087645e-05
sVmalice
p2657
F0.0
sVjump
p2658
F0.0001130745808417529
sVlogistica
p2659
F0.0
sVdesoxyn
p2660
F0.0
sVvideo
p2661
F8.960948520947061e-05
sVuncomfortable
p2662
F0.00043844032689104116
sVacid
p2663
F0.0010753138225136473
sVodd
p2664
F0.00013228877915437664
sVlibido
p2665
F0.0
sV10bpm
p2666
F0.0
sVselegilene
p2667
F0.0
sVrandomize
p2668
F0.0
sVsqueeze
p2669
F0.00014614677563034705
sVschedule
p2670
F0.0005845871025213882
sVfat
p2671
F0.00017921897041894123
sVskr
p2672
F0.0
sVexacerbate
p2673
F0.0
sVglycinate
p2674
F0.0
sVunhelpful
p2675
F8.960948520947061e-05
sVconsistently
p2676
F0.00014614677563034705
sVmitochondrion
p2677
F0.0
sVexperiment
p2678
F0.00035843794083788245
sVhuperzine
p2679
F0.0
sVpristine
p2680
F0.0
sVgamle
p2681
F0.0
sVoriginalpostsearcher
p2682
F0.0
sVbody
p2683
F0.00019332628371300243
sVrdagen
p2684
F0.0
sVdegree
p2685
F0.00017921897041894123
sVleg
p2686
F0.0001130745808417529
sVescitralopram
p2687
F0.0
sVprescribe
p2688
F0.0024844951857159
sVnonexistent
p2689
F0.00014614677563034705
sVforney
p2690
F0.0
sVhighly
p2691
F0.0007168758816757649
sVexplore
p2692
F0.0002922935512606941
sVaggravate
p2693
F0.0
sVlet
p2694
F5.9485010373231514e-05
sVsink
p2695
F0.00016961187126262936
sVunremitting
p2696
F0.0
sVoxidative
p2697
F0.0002922935512606941
sVsing
p2698
F8.960948520947061e-05
sVsafer
p2699
F0.0
sVfifteen
p2700
F0.00014614677563034705
sVimplicit
p2701
F0.0
sVsina
p2702
F0.0
sVrdt
p2703
F0.0
sVgreat
p2704
F0.0
sVengage
p2705
F0.0
sVoleptro
p2706
F0.0
sVbitterness
p2707
F0.00014614677563034705
sVreceive
p2708
F0.00014614677563034705
sV31
p2709
F8.960948520947061e-05
sV30
p2710
F0.0003307219478859416
sVextreme
p2711
F0.00016961187126262936
sVparanoid
p2712
F0.00014614677563034705
sVdextrotatory
p2713
F0.0
sVnervous
p2714
F8.960948520947061e-05
sVexistent
p2715
F0.0002922935512606941
sVopinion
p2716
F0.00043844032689104116
sVdepressant
p2717
F0.0
sVpmc
p2718
F0.0
sVmaker
p2719
F0.0
sVapple
p2720
F3.307219478859416e-05
sVdanger
p2721
F9.921658436578247e-05
sVwin
p2722
F0.000508835613787888
sVmanage
p2723
F0.0002826864521043823
sVimpulsivity
p2724
F0.0
sVprivate
p2725
F5.653729042087645e-05
sVmicrodosing
p2726
F0.0
sVashitaba
p2727
F0.0
sVdecrease
p2728
F0.0011691742050427764
sVmening
p2729
F0.0
sVapply
p2730
F0.00017921897041894123
sVuse
p2731
F0.0013086702282110933
sVmethamp
p2732
F0.0
sVcrap
p2733
F8.960948520947061e-05
sVconsumption
p2734
F0.0002922935512606941
sVbreakup
p2735
F0.0
sVnext
p2736
F8.922751555984727e-05
sVhypersomnia
p2737
F0.0
sVdoubt
p2738
F9.921658436578247e-05
sVhjemsamtalen
p2739
F0.0
sVkunde
p2740
F0.0
sVcram
p2741
F0.0
sVsort
p2742
F5.9485010373231514e-05
sVpfc
p2743
F0.0
sVclever
p2744
F5.653729042087645e-05
sVheinonen
p2745
F0.0
sVcomparison
p2746
F8.960948520947061e-05
sVinitial
p2747
F0.00016961187126262936
sVremission
p2748
F0.0
sVpharmacologist
p2749
F0.0
sVinfection
p2750
F0.00014614677563034705
sVbodily
p2751
F0.0002922935512606941
sVtransient
p2752
F0.0
sVprinser
p2753
F0.0
sVvuelta
p2754
F0.0
sV4am
p2755
F0.0
sVadequate
p2756
F0.0
sVfan
p2757
F5.653729042087645e-05
sVtopic
p2758
F8.960948520947061e-05
sVaccount
p2759
F8.960948520947061e-05
sVgeodon
p2760
F0.0
sVf
p2761
F0.00017921897041894123
sVdullness
p2762
F0.0
sVchallenge
p2763
F0.00043844032689104116
sVpackage
p2764
F5.653729042087645e-05
sVstroke
p2765
F0.00014614677563034705
sVcentrophenoxine
p2766
F0.0
sVothe
p2767
F0.0
sVbutterknife
p2768
F0.0
sVanywhere
p2769
F3.307219478859416e-05
sVobvious
p2770
F0.0006784474850505174
sVstabilizer
p2771
F0.0
sVfetzima
p2772
F0.0
sVproceso
p2773
F0.0
sVinhibitor
p2774
F0.0
sVdissolve
p2775
F0.0
sVbend
p2776
F8.960948520947061e-05
sVcontrol
p2777
F0.0008960948520947063
sVkenny
p2778
F0.0
sVslip
p2779
F0.00014614677563034705
sVstimulatory
p2780
F0.0
sVprocess
p2781
F0.0005376569112568237
sVaco
p2782
F0.0
sVtax
p2783
F0.00014614677563034705
sVdependence
p2784
F0.0
sVmeeting_abstract
p2785
F0.0
sVeffectively
p2786
F0.0
sVcondescend
p2787
F0.0
sVsomething
p2788
F0.00026768254667954185
sVtab
p2789
F0.0007168758816757649
sVserial
p2790
F0.0
sVvoice
p2791
F8.960948520947061e-05
sVtai
p2792
F0.0
sVgtens
p2793
F0.0
sVsyndrome
p2794
F0.0007168758816757649
sVsit
p2795
F5.653729042087645e-05
sVsix
p2796
F0.00035843794083788245
sVserum
p2797
F0.0
sVpakker
p2798
F0.0
sVneuroprotection
p2799
F0.0
sVsig
p2800
F0.0
sVanimal
p2801
F0.00013228877915437664
sVinstead
p2802
F0.000621910194629641
sVinstinctively
p2803
F0.0
sVtoddler
p2804
F0.00014614677563034705
sVpanic
p2805
F0.0
sVsin
p2806
F0.0002922935512606941
sVstand
p2807
F6.614438957718832e-05
sVprofile
p2808
F0.00044804742604735313
sVtension
p2809
F0.0
sVklar
p2810
F0.0
sVikke
p2811
F0.0
sVoutlier
p2812
F0.0
sVwatch
p2813
F0.0
sVclostridium
p2814
F0.0
sVbestemt
p2815
F0.0
sVcollection
p2816
F8.960948520947061e-05
sV3
p2817
F0.0006945160905604774
sVfatigue
p2818
F0.0
sVtraumer
p2819
F0.0
sVgammal
p2820
F0.0
sVpsychedelic
p2821
F0.0
sVidebenone
p2822
F0.0
sVlight
p2823
F9.921658436578247e-05
sVpraktiseres
p2824
F0.0
sVkillswitch
p2825
F0.0
sVlauric
p2826
F0.0
sVcourage
p2827
F0.00014614677563034705
sVhonestly
p2828
F0.00035843794083788245
sVoxybutinin
p2829
F0.0
sVallow
p2830
F0.0008768806537820823
sVhealthcare
p2831
F0.0
sVaddiction
p2832
F0.0
sVduloxetine
p2833
F0.0
sVserotonergic
p2834
F0.0
sVunsolved
p2835
F0.0
sVunselective
p2836
F0.0
sVmute
p2837
F0.00014614677563034705
sValtogether
p2838
F8.960948520947061e-05
sVoffentlige
p2839
F0.0
sV800mg
p2840
F0.0
sVuniversiteter
p2841
F0.0
sVanxiolytic
p2842
F0.0
sVuniversitetet
p2843
F0.0
sVhorny
p2844
F0.00014614677563034705
sVperfect
p2845
F0.00017921897041894123
sVchemical
p2846
F0.0005845871025213882
sVld
p2847
F0.0
sVlb
p2848
F0.0
sVantipsychotic
p2849
F0.0
sVla
p2850
F0.00011897002074646303
sVlo
p2851
F0.0
sVll
p2852
F0.00031229630445946544
sVli
p2853
F0.0007168758816757649
sVmental
p2854
F0.0007307338781517354
sVage
p2855
F9.921658436578247e-05
sVpermanent
p2856
F0.0001130745808417529
sVchoose
p2857
F0.0002261491616835058
sV2015
p2858
F0.0
sV2014
p2859
F0.0
sV17296473
p2860
F0.0
sV2011
p2861
F0.0
sVdad
p2862
F0.0001130745808417529
sVdag
p2863
F0.0
sVcrash
p2864
F0.00039576103294613514
sVfrontal
p2865
F0.00017921897041894123
sVnada
p2866
F0.00014614677563034705
sVpractice
p2867
F0.0
sVmras
p2868
F0.0
sVdat
p2869
F0.0001130745808417529
sVmention
p2870
F0.000621910194629641
sVfingerprint
p2871
F0.0
sVfront
p2872
F3.307219478859416e-05
sVday
p2873
F0.0
sVsynaptic
p2874
F0.0
sVecstacy
p2875
F0.0
sVedit
p2876
F0.0014614677563034707
sVcider
p2877
F0.0
sVperfectionism
p2878
F0.0
sV13btc
p2879
F0.0
sVunpredictable
p2880
F0.00014614677563034705
sVtrustable
p2881
F0.0
sVganglion
p2882
F0.0
sVfabriksarbetare
p2883
F0.0
sVreceptor
p2884
F0.0
sVstock
p2885
F0.0001130745808417529
sVconvulsant
p2886
F0.0
sVtrichotillomania
p2887
F0.0
sVactivate
p2888
F8.960948520947061e-05
sVbeginner
p2889
F0.0
sVdensity
p2890
F0.00017921897041894123
sVdeficiency
p2891
F0.0
sVmarginally
p2892
F0.0
sVstatic
p2893
F0.00014614677563034705
sVmeasure
p2894
F0.0001130745808417529
sVmeth
p2895
F0.0
sVpatch
p2896
F0.0019714086746083536
sVsexual
p2897
F0.0010230274294124294
sVpartial
p2898
F0.00043844032689104116
sVspecial
p2899
F2.9742505186615757e-05
sVcategory
p2900
F0.00017921897041894123
sVlastly
p2901
F0.0
sVelectronica
p2902
F0.0
sVdefend
p2903
F0.00014614677563034705
sVdevelop
p2904
F0.00044804742604735313
sVradical
p2905
F0.0
sVinvestigate
p2906
F0.00017921897041894123
sVvcu
p2907
F0.0
sV6mg
p2908
F0.0
sVtechnically
p2909
F8.960948520947061e-05
sVobsessive
p2910
F0.0
sVred
p2911
F1.4871252593307878e-05
sVshut
p2912
F3.307219478859416e-05
sVdmaa
p2913
F0.0
sVuppv
p2914
F0.0
sVactivity
p2915
F0.0008768806537820823
sVanyone
p2916
F0.00019843316873156494
sVcompletely
p2917
F0.0002645775583087533
sVect
p2918
F0.0
sVque
p2919
F0.0
sVtempt
p2920
F0.0
sVearly
p2921
F3.307219478859416e-05
sVanyhow
p2922
F0.0
sVimpulsive
p2923
F0.0
sVfundamentalister
p2924
F0.0
sVlog
p2925
F0.00014614677563034705
sVscary
p2926
F0.00043844032689104116
sVinteraction
p2927
F0.0011691742050427764
sVorganic
p2928
F0.0
sVg
p2929
F0.0003392237425252587
sVspill
p2930
F5.653729042087645e-05
sVcould
p2931
F0.0
sVdrugabuse
p2932
F0.0
sVfeasible
p2933
F0.00014614677563034705
sVcounterpart
p2934
F0.0
sVconversation
p2935
F3.307219478859416e-05
sVlength
p2936
F2.9742505186615757e-05
sVtysk
p2937
F0.0
sVyngste
p2938
F0.0
sV40mcg
p2939
F0.0
sVsouth
p2940
F5.653729042087645e-05
sVdexedrine
p2941
F0.0
sVuntested
p2942
F0.0
sVpowerful
p2943
F0.00043844032689104116
sVhypomania
p2944
F0.0
sVethylphenidate
p2945
F0.0
sVhypomanic
p2946
F0.0
sV185
p2947
F0.0
sVquality
p2948
F0.00016961187126262936
sVlong
p2949
F0.0
sVreference
p2950
F0.0002688284556284118
sVlos
p2951
F0.0
sVmilder
p2952
F0.0
sVunknown
p2953
F8.960948520947061e-05
sVsystem
p2954
F6.614438957718832e-05
sVeighth
p2955
F0.00014614677563034705
sVpriority
p2956
F0.0
sVutallige
p2957
F0.0
sVsyster
p2958
F0.0
sVnoradrenergics
p2959
F0.0
sVneurotransmitter
p2960
F0.0
sVperfectly
p2961
F5.653729042087645e-05
sVperipheral
p2962
F0.0
sVflatulence
p2963
F0.0
sVprone
p2964
F0.0
sVlipoic
p2965
F0.0
sVsixteenth
p2966
F0.0
sVstomach
p2967
F8.960948520947061e-05
sVgear
p2968
F0.0
sVbig
p2969
F2.9742505186615757e-05
sVexplanation
p2970
F0.00014614677563034705
sVexactly
p2971
F0.0002315053635201591
sVogs
p2972
F0.0
sVenvironmental
p2973
F0.0
sVterrifyingly
p2974
F0.0
sVsporadically
p2975
F0.00014614677563034705
sVclearnet
p2976
F0.0
sVfuzzy
p2977
F0.0
sVmoriarty
p2978
F0.0
sVhaven
p2979
F0.0002315053635201591
sVblind
p2980
F8.960948520947061e-05
sVbeh
p2981
F0.0
sVbid
p2982
F8.960948520947061e-05
sVcounteract
p2983
F0.0
sVamide
p2984
F0.0
sVarbetade
p2985
F0.0
sVbeg
p2986
F0.0
sVbed
p2987
F0.0002688284556284118
sVclaim
p2988
F5.653729042087645e-05
sVbroad
p2989
F8.960948520947061e-05
sVbind
p2990
F0.0
sVoverindulge
p2991
F0.0
sVtyrosine
p2992
F0.0
sVok
p2993
F5.653729042087645e-05
sVworthless
p2994
F0.00014614677563034705
sVbet
p2995
F9.921658436578247e-05
sVimho
p2996
F0.0
sVdrunk
p2997
F5.653729042087645e-05
sVsemsame
p2998
F0.0
sVfalse
p2999
F0.0001130745808417529
sVbiologiska
p3000
F0.0
sVfirstworldanimeproblemsamirite
p3001
F0.0
sVtonight
p3002
F8.960948520947061e-05
sVgentle
p3003
F5.653729042087645e-05
sVatarax
p3004
F0.0
sVblir
p3005
F0.0
sVunlikely
p3006
F0.0
sVdictate
p3007
F0.0
sVneed
p3008
F0.0004758800829858521
sVinduce
p3009
F0.0
sVdementia
p3010
F0.0
sVapparently
p3011
F0.00016961187126262936
sVclearly
p3012
F0.0001130745808417529
sVcaprylic
p3013
F0.0
sVscrew
p3014
F8.960948520947061e-05
sVafraid
p3015
F9.921658436578247e-05
sVmin
p3016
F0.0002922935512606941
sVnamenda
p3017
F0.0
sVrout
p3018
F0.0
sVable
p3019
F6.614438957718832e-05
sVrerne
p3020
F0.0
sVmechanism
p3021
F0.0
sVadjunct
p3022
F0.0
sVmix
p3023
F0.0014134322605219112
sVarchive
p3024
F0.00014614677563034705
sVelavil
p3025
F0.0
sV1521307_lg
p3026
F0.0
sVpharmacist
p3027
F0.0
sVcoke
p3028
F0.00014614677563034705
sVmileage
p3029
F0.0
sVbeyond
p3030
F1.4871252593307878e-05
sVtobacco
p3031
F8.960948520947061e-05
sVkhan
p3032
F0.0
sVuseful
p3033
F0.0008768806537820823
sVnarcolepsy
p3034
F0.00014614677563034705
sVpreliminary
p3035
F0.00014614677563034705
sVsedan
p3036
F0.0
sVclass
p3037
F0.0003637941426745358
sVpolice
p3038
F8.960948520947061e-05
sVdelivery
p3039
F0.00014614677563034705
sVdeny
p3040
F0.00014614677563034705
sVatypical
p3041
F0.0017537613075641646
sVstronger
p3042
F0.0002922935512606941
sVdisease
p3043
F0.0007168758816757649
sVface
p3044
F6.614438957718832e-05
sVsnapshot
p3045
F0.0
sVidiosyncratic
p3046
F0.0
sVmonotherapy
p3047
F0.0
sVnormally
p3048
F0.00035843794083788245
sVfact
p3049
F0.0002826864521043823
sVunsettle
p3050
F0.0
sVcontaminant
p3051
F0.0
sVcognitively
p3052
F0.0
sVgranny
p3053
F0.0
sVanyway
p3054
F0.0005653729042087646
sVsublingual
p3055
F0.0
sVvistaril
p3056
F0.0
sVpurely
p3057
F8.960948520947061e-05
sVseaweed
p3058
F0.00014614677563034705
sVneurotoxic
p3059
F0.0
sVunconnected
p3060
F0.0
sVfear
p3061
F5.653729042087645e-05
sVtrivial
p3062
F0.0
sVdecade
p3063
F0.00017921897041894123
sVprincipal
p3064
F0.0
sVexercise
p3065
F0.0002922935512606941
sVhighest
p3066
F0.00043844032689104116
sVknowledge
p3067
F0.0002688284556284118
sVender
p3068
F0.0
sVrash
p3069
F5.653729042087645e-05
sVegen
p3070
F0.0
sVdarknet_deals_for_the_week_of_october_11_2015
p3071
F0.0
sVbrighter
p3072
F0.00014614677563034705
sV60mg
p3073
F0.0
sVjam
p3074
F3.307219478859416e-05
sVcombo
p3075
F0.0017537613075641646
sVemployee
p3076
F0.00014614677563034705
sVforeg
p3077
F0.0
sVhangover
p3078
F0.00014614677563034705
sVinferior
p3079
F0.0002922935512606941
sVregularly
p3080
F0.0002922935512606941
sVphenylpiracetam
p3081
F0.0
sVrighteousness
p3082
F0.0
sVinsight
p3083
F0.00014614677563034705
sVhandle
p3084
F9.921658436578247e-05
sVklassiske
p3085
F0.0
sVpharmacology
p3086
F0.0
sVlobe
p3087
F0.0
sVmidnight
p3088
F8.960948520947061e-05
sVglutamine
p3089
F0.0
sVoverall
p3090
F0.0005845871025213882
sVarrhythmia
p3091
F0.0
sVdopa
p3092
F0.0
sVact
p3093
F0.0002315053635201591
sV120
p3094
F0.0
sVcommunity
p3095
F0.0
sVprobably
p3096
F0.0006945160905604774
sVtecas
p3097
F0.0
sVantagonist
p3098
F0.0
sVmetabolite
p3099
F0.0
sVmolybdenum
p3100
F0.0
sVcourse
p3101
F0.0002315053635201591
sVh
p3102
F0.0003392237425252587
sVkn
p3103
F0.0
sVganan
p3104
F0.0
sVstuff
p3105
F0.0005653729042087646
sVcr
p3106
F0.0005845871025213882
sVgram
p3107
F0.0
sVcontain
p3108
F0.0008768806537820823
sVcycler
p3109
F0.0
sVgabapentin
p3110
F0.0
sVenhancer
p3111
F0.0
sVeurope
p3112
F0.0
sVexpel
p3113
F0.0
sVpitch
p3114
F0.00014614677563034705
sVreddit
p3115
F0.0
sVimmigrant
p3116
F0.00014614677563034705
sVintensity
p3117
F0.00043844032689104116
sVrelatable
p3118
F0.0
sVdexmethylphenidate
p3119
F0.0
sVpowder
p3120
F0.0006272663964662943
sVndret
p3121
F0.0
sVmoclobomide
p3122
F0.0
sVstack
p3123
F0.0013153209806731237
sVgyp2d6
p3124
F0.0
sVegentlig
p3125
F0.0
sVstill
p3126
F0.0
sVcomputer
p3127
F8.960948520947061e-05
sVarguably
p3128
F0.0
sVhorribly
p3129
F0.0
sVprofessorerne
p3130
F0.0
sVtend
p3131
F0.0014614677563034707
sVgenius
p3132
F0.00014614677563034705
sVstate
p3133
F0.0004522983233670116
sVmethionine
p3134
F0.0
sVtte
p3135
F0.0
sVaction
p3136
F0.0002688284556284118
sVhorrible
p3137
F8.960948520947061e-05
sVebola
p3138
F0.0
sVdmt
p3139
F0.0
sVneither
p3140
F0.00017921897041894123
sVemail
p3141
F0.00035843794083788245
sVcomparable
p3142
F0.0
sVability
p3143
F0.0002688284556284118
sVparadoxically
p3144
F0.00014614677563034705
sVjoy
p3145
F8.960948520947061e-05
sVdeliver
p3146
F0.00017921897041894123
sVhowever
p3147
F0.0016129707337704713
sVjob
p3148
F0.0002261491616835058
sVhypothesis
p3149
F0.0002922935512606941
sVdisconnect
p3150
F0.00014614677563034705
sVprecious
p3151
F8.960948520947061e-05
sVlegit
p3152
F0.00014614677563034705
sVh2o2
p3153
F0.0
sVketo
p3154
F0.0
sVfluorenol
p3155
F0.0
sVcareer
p3156
F0.00017921897041894123
sVsunnersta
p3157
F0.0
sVetc
p3158
F0.00011897002074646303
sVinsidious
p3159
F0.0
sVatleast
p3160
F0.0
sVlavede
p3161
F0.0
sVuncaught
p3162
F0.00014614677563034705
sVswallow
p3163
F0.00035843794083788245
sVplacebo
p3164
F0.0
sVsafely
p3165
F0.00014614677563034705
sVotherwise
p3166
F0.00016961187126262936
sVcomment
p3167
F0.0006272663964662943
sVunclear
p3168
F8.960948520947061e-05
sVco
p3169
F0.00035843794083788245
sVspliff
p3170
F0.0
sValla
p3171
F0.0
sVwalk
p3172
F5.653729042087645e-05
sVcarboline
p3173
F0.0
sVadderral
p3174
F0.0
sVcompany
p3175
F4.461375777992364e-05
sV00pm
p3176
F0.0
sVrespect
p3177
F0.0001130745808417529
sVelectrocardiogram
p3178
F0.0
sVwithdrawl
p3179
F0.0
sVklare
p3180
F0.0
sVquit
p3181
F0.00017921897041894123
sVtread
p3182
F0.0
sVbias
p3183
F0.0
sVtransferase
p3184
F0.0
sVaddition
p3185
F0.001899908083194512
sVdisintegrate
p3186
F0.0
sVcent
p3187
F0.00014614677563034705
sVsnort
p3188
F0.00014614677563034705
sVrestless
p3189
F0.0
sVgenetic
p3190
F0.0
sVgaze
p3191
F0.0
sVslowly
p3192
F0.0001130745808417529
sVtreat
p3193
F0.0018091932934680465
sVssri
p3194
F0.0
sVwaste
p3195
F5.653729042087645e-05
sVmandarlos
p3196
F0.0
sVhelvede
p3197
F0.0
sV1272
p3198
F0.0
sVcontribute
p3199
F0.00014614677563034705
sVgeneral
p3200
F0.0
sVwanna
p3201
F8.960948520947061e-05
sVroute
p3202
F5.653729042087645e-05
sVsufficient
p3203
F0.0
sVreplenishment
p3204
F0.0
sVarginine
p3205
F0.0
sVanorgasmia
p3206
F0.0
sV250mg
p3207
F0.0
sVhmm
p3208
F5.653729042087645e-05
sVcontroller
p3209
F0.0
sVmisguide
p3210
F0.0
sVderivative
p3211
F0.0
sVc3
p3212
F0.0
sVlast
p3213
F0.0003420388096460812
sVdreng
p3214
F0.0
sVpresent
p3215
F4.461375777992364e-05
sVthankfully
p3216
F0.0
sVnovel
p3217
F0.0
sVlaser
p3218
F0.00014614677563034705
sVmega
p3219
F0.0
sVcorset
p3220
F0.0
sVkava
p3221
F0.0
sVtremor
p3222
F0.0
sVharder
p3223
F8.960948520947061e-05
sVvalue
p3224
F0.00013228877915437664
sVspecifically
p3225
F0.0
sVexterno
p3226
F0.0
sVaccesible
p3227
F0.00014614677563034705
sVfault
p3228
F3.307219478859416e-05
sVrename
p3229
F0.00014614677563034705
sVva
p3230
F0.00017921897041894123
sVvb
p3231
F0.0
sVmotif
p3232
F0.0
sVcbt
p3233
F0.0
sValmost
p3234
F0.00022306878889961817
sVvi
p3235
F0.00043844032689104116
sVblood
p3236
F0.000621910194629641
sVdelusion
p3237
F0.0
sVthus
p3238
F0.00035843794083788245
sVsurprisingly
p3239
F0.00014614677563034705
sVpicamilon
p3240
F0.0
sVvp
p3241
F0.0
sVdespues
p3242
F0.0
sVtransmucosal
p3243
F0.0
sVmaladaptive
p3244
F0.0
sVgpc
p3245
F0.0
sVcylcyclohexylamine
p3246
F0.0
sVparent
p3247
F8.960948520947061e-05
sVwatchful
p3248
F0.00014614677563034705
sVtailandia
p3249
F0.0
sVcoluracetam
p3250
F0.0
sVperhaps
p3251
F0.0008960948520947063
sVadministration
p3252
F0.0005845871025213882
sVcross
p3253
F4.461375777992364e-05
sVunderwhelmed
p3254
F0.0
sVcoronary
p3255
F0.0
sVadverse
p3256
F0.0
sVbuddhism
p3257
F0.0
sVparty
p3258
F0.00044804742604735313
sVdownregulation
p3259
F0.0
sVinfer
p3260
F0.0
sVgrandeur
p3261
F0.0
sVdifficult
p3262
F0.0002261491616835058
sVtighten
p3263
F0.0
sVspell
p3264
F8.960948520947061e-05
sVemotionally
p3265
F0.00014614677563034705
sVcompetir
p3266
F0.0
sVabsorb
p3267
F0.00043844032689104116
sVdrink
p3268
F0.00013384127333977092
sVupon
p3269
F3.307219478859416e-05
sVeffect
p3270
F0.0008774039030051649
sV11btc
p3271
F0.0
sViop
p3272
F0.0
sVsooner
p3273
F0.00014614677563034705
sVpainful
p3274
F0.0
sVbarco
p3275
F0.0
sVfrequently
p3276
F0.00043844032689104116
sVspree
p3277
F0.0
sVphp
p3278
F0.0002922935512606941
sVantagonize
p3279
F0.0
sVkeep
p3280
F0.00029742505186615756
sVlethargy
p3281
F0.0
sVaurorix
p3282
F0.0
sVcenter
p3283
F0.0001130745808417529
sVapprove
p3284
F0.00043844032689104116
sVwell
p3285
F0.0
sVvidenskabelig
p3286
F0.0
sVthought
p3287
F6.614438957718832e-05
sVbiochemistry
p3288
F0.0
sVdrone
p3289
F0.0
sVanxiogenic
p3290
F0.0
sVsupplementation
p3291
F0.0
sVloss
p3292
F0.0002688284556284118
sVusual
p3293
F0.0002922935512606941
sVddes
p3294
F0.0
sVroutinely
p3295
F0.0
sVglycine
p3296
F0.0
sVflesh
p3297
F8.960948520947061e-05
sVproximity
p3298
F0.0
sVdomestic
p3299
F0.00014614677563034705
sVobtain
p3300
F0.0
sVdose
p3301
F0.013007063031100888
sVgeneralize
p3302
F0.0
sVdistant
p3303
F0.00017921897041894123
sVaromatic
p3304
F0.00014614677563034705
sVoverstimulation
p3305
F0.0
sVskill
p3306
F0.0
sVtcas
p3307
F0.0
sVhappiness
p3308
F0.0005845871025213882
sVweb
p3309
F5.653729042087645e-05
sVdisturbance
p3310
F0.00014614677563034705
sV750mg
p3311
F0.0
sVwed
p3312
F0.0
sVabsorption
p3313
F0.0
sVclose
p3314
F0.0003392237425252587
sVsupply
p3315
F0.00014614677563034705
sVjare
p3316
F0.0
sVvyvanse
p3317
F0.0
sVrealize
p3318
F0.0002922935512606941
sVske
p3319
F0.0
sVarrest
p3320
F8.960948520947061e-05
sVadd
p3321
F0.0011872830988384055
sVcombine
p3322
F0.0009857043373041768
sVadc
p3323
F0.0
sVstimulate
p3324
F0.0
sVcrack
p3325
F8.960948520947061e-05
sVusage
p3326
F0.00017921897041894123
sVc12
p3327
F0.0
sVcrossroad
p3328
F0.0
sVwarrant
p3329
F0.00014614677563034705
sVsmart
p3330
F8.960948520947061e-05
sVkirke
p3331
F0.0
sVunaccounted
p3332
F0.0
sVndris
p3333
F0.0
sVutan
p3334
F0.0
sVfyi
p3335
F0.0
sVferritin
p3336
F0.0
sVknow
p3337
F0.0007435626296653938
sVfacial
p3338
F0.00014614677563034705
sVimmediately
p3339
F0.0001130745808417529
sVintersection
p3340
F0.0
sVyeesh
p3341
F0.0
sVmuscle
p3342
F0.0002922935512606941
sVinsert
p3343
F0.00043844032689104116
sVtl
p3344
F0.0
sVnecessary
p3345
F6.614438957718832e-05
sVlike
p3346
F0.0
sVonion
p3347
F0.0008768806537820823
sVcandy
p3348
F0.00014614677563034705
sV230pm
p3349
F0.0
sVdietary
p3350
F0.0
sVchemist
p3351
F0.0
sVlose
p3352
F0.00011897002074646303
sVbecome
p3353
F0.00013384127333977092
sVpage
p3354
F0.00017921897041894123
sVtherapeutic
p3355
F0.0
sVklonopin
p3356
F0.0
sVdrop
p3357
F0.00016961187126262936
sVselgin
p3358
F0.0
sValive
p3359
F6.614438957718832e-05
sV985
p3360
F0.0
sVmotive
p3361
F0.0
sVgrowth
p3362
F0.00043844032689104116
sVocks
p3363
F0.0
sVstory
p3364
F0.00017921897041894123
sVflush
p3365
F0.00014614677563034705
sVproper
p3366
F6.614438957718832e-05
sVhome
p3367
F6.614438957718832e-05
sV250
p3368
F0.0002922935512606941
sVdage
p3369
F0.0
sVsureplastik
p3370
F0.0
sVlead
p3371
F0.00029764975309734743
sVpsychosis
p3372
F0.0
sVleak
p3373
F0.00014614677563034705
sVavoid
p3374
F0.0003968663374631299
sVxanax
p3375
F0.0
sVthank
p3376
F0.0003392237425252587
sVreligionsvidenskabelig
p3377
F0.0
sVfedex
p3378
F0.0
sVdextroamphetmine
p3379
F0.0
sVsustain
p3380
F0.0
sVmutation
p3381
F0.0
sVfanns
p3382
F0.0
sVeso
p3383
F0.0
sVblurry
p3384
F0.0
sVhypomanias
p3385
F0.0
sVlocate
p3386
F0.00014614677563034705
sVbiology
p3387
F0.0
sVnoise
p3388
F3.307219478859416e-05
sVmayoria
p3389
F0.0
sVslight
p3390
F0.00035843794083788245
sVslur
p3391
F0.0
sVpueda
p3392
F0.0
sVfordi
p3393
F0.0
sVdarknetmarkets
p3394
F0.0
sVlightly
p3395
F0.00014614677563034705
sVstellar
p3396
F0.0
sVpressure
p3397
F0.0011691742050427764
sValthough
p3398
F0.0003307219478859416
sVstay
p3399
F6.614438957718832e-05
sVpanel
p3400
F8.960948520947061e-05
sVpeptide
p3401
F0.0
sViris
p3402
F0.0
sVsister
p3403
F8.960948520947061e-05
sVactual
p3404
F0.00014614677563034705
sVtestosterone
p3405
F0.0
sVextension
p3406
F0.0005845871025213882
sVidra
p3407
F0.0
sVcondition
p3408
F0.0002261491616835058
sVmommy
p3409
F0.00014614677563034705
sVbasis
p3410
F9.921658436578247e-05
sVavsnittet
p3411
F0.0
sVingest
p3412
F0.0
sVdependency
p3413
F0.0002922935512606941
sVa2
p3414
F0.0
sVsweat
p3415
F0.0002922935512606941
sVbloodstream
p3416
F0.00014614677563034705
sVsoftware
p3417
F8.960948520947061e-05
sVequally
p3418
F0.0
sVacceptance
p3419
F0.0
sVoctopamine
p3420
F0.0
sVfunctional
p3421
F0.00014614677563034705
sV80mg
p3422
F0.0
sVchronic
p3423
F0.00014614677563034705
sVdoesnt
p3424
F8.960948520947061e-05
sVpromise
p3425
F0.00017921897041894123
sVfemale
p3426
F0.0001130745808417529
sVstrategy
p3427
F0.0002922935512606941
sVpointless
p3428
F0.0002922935512606941
sVmere
p3429
F0.0002922935512606941
sVndri
p3430
F0.0
sVkontraintuitivt
p3431
F0.0
sVnuke
p3432
F0.0
sVadditional
p3433
F0.00017921897041894123
sVtrackmystack
p3434
F0.0
sV16413604
p3435
F0.0
sVpcl
p3436
F0.0
sVspiral
p3437
F0.00014614677563034705
sVricin
p3438
F0.0
sVsolidify
p3439
F0.0
sVskole
p3440
F0.0
sVgene
p3441
F0.0007307338781517354
sVvar
p3442
F0.0
sVvat
p3443
F0.0
sVfunction
p3444
F0.0007307338781517354
sVlamictal
p3445
F0.0
sVbuy
p3446
F0.0001130745808417529
sVfrisk
p3447
F0.0
sVdextroamphetamine
p3448
F0.0
sVhr
p3449
F0.0002922935512606941
sVbus
p3450
F0.00014614677563034705
sVbrand
p3451
F0.0004522983233670116
sVht
p3452
F0.0
sVmethamphatmine
p3453
F0.0
sVsubjective
p3454
F0.0
sVhi
p3455
F0.00014614677563034705
sVgain
p3456
F0.0008960948520947063
sVlarger
p3457
F0.0002826864521043823
sVphenelzineu
p3458
F0.0
sVoverflow
p3459
F0.00014614677563034705
sVha
p3460
F5.653729042087645e-05
sVcapitalize
p3461
F0.0
sVeat
p3462
F9.921658436578247e-05
sVcount
p3463
F0.00017921897041894123
sVterritory
p3464
F0.00014614677563034705
sVacetyl
p3465
F0.0
sVevident
p3466
F0.00014614677563034705
sVsociety
p3467
F8.960948520947061e-05
sVwhether
p3468
F8.922751555984727e-05
sVdangerous
p3469
F0.0005653729042087646
sVwife
p3470
F0.00017921897041894123
sVsmooth
p3471
F5.653729042087645e-05
sVdistract
p3472
F0.0
sVrecord
p3473
F8.960948520947061e-05
sVfrequency
p3474
F0.00014614677563034705
sVlimit
p3475
F0.00017921897041894123
sVhuden
p3476
F0.0
sVcake
p3477
F8.960948520947061e-05
sVadderall
p3478
F0.0
sVproblem
p3479
F0.0006945160905604774
sVpiece
p3480
F5.653729042087645e-05
sVmindste
p3481
F0.0
sVfirm
p3482
F5.653729042087645e-05
sVmarketplace
p3483
F0.0
sVlivsstilssygdomme
p3484
F0.0
sVhorrific
p3485
F0.0
sVrecognize
p3486
F8.960948520947061e-05
sVproblemet
p3487
F0.0
sVdopaminergics
p3488
F0.0
sVsarcosine
p3489
F0.0
sVind
p3490
F0.0
sVsollefte
p3491
F0.0
sVanesthesia
p3492
F0.0
sVworse
p3493
F0.00029764975309734743
sVtick
p3494
F0.00017921897041894123
sVvariety
p3495
F0.00017921897041894123
sV45
p3496
F5.653729042087645e-05
sVpercent
p3497
F8.960948520947061e-05
sVdetail
p3498
F8.960948520947061e-05
sV40
p3499
F0.000621910194629641
sV87
p3500
F0.0
sVsick
p3501
F0.0002922935512606941
sVincredibly
p3502
F0.00017921897041894123
sVstimulant
p3503
F0.0
sVirritability
p3504
F0.0
sVjunk
p3505
F8.960948520947061e-05
sVrepeat
p3506
F0.0002922935512606941
sVstar
p3507
F5.653729042087645e-05
sVsalesperson
p3508
F0.0
sVecstatic
p3509
F0.0
sVtraumatic
p3510
F0.0
sVbioavailability
p3511
F0.0
sVvariation
p3512
F0.00014614677563034705
sVfrustrate
p3513
F0.0
sVchance
p3514
F6.614438957718832e-05
sVaugmentation
p3515
F0.0
sVadf
p3516
F0.0
sVtiden
p3517
F0.0
sVgap
p3518
F0.00043844032689104116
sVsunifiram
p3519
F0.0
sVtamox
p3520
F0.0
sVexposure
p3521
F0.0
sVramble
p3522
F0.0
sV4x
p3523
F0.0
sVeod
p3524
F0.0
sVoral
p3525
F0.00043844032689104116
sVpode
p3526
F0.0
sVhvert
p3527
F0.0
sVselank
p3528
F0.0
sVrule
p3529
F0.00035843794083788245
sVcerebral
p3530
F0.0
sV_apasserby_
p3531
F0.0
sVinhibtits
p3532
F0.0
sVdiagnosis
p3533
F0.0
sVneurodegenerative
p3534
F0.0
sV4f
p3535
F0.0
sVawake
p3536
F0.0002922935512606941
sVindirectly
p3537
F0.0
sVlongevityman
p3538
F0.0
s.