(dp0
Vescitalopram
p1
F0.0
sVcurrently
p2
F0.0016542892137468863
sVsuicidal
p3
F0.0042762755828831866
sVhelp
p4
F0.0004351349804151661
sVstay
p5
F0.0009676971553894139
sVsertraline
p6
F0.0
sVfluvoxamine
p7
F0.0
sVchloropyridin
p8
F0.0
sVurine
p9
F0.0042762755828831866
sVimipramine
p10
F0.0
sVsupplement
p11
F0.0
sVsleep
p12
F0.004962867641240659
sV4
p13
F0.0008702699608303322
sVtiredness
p14
F0.0
sVgo
p15
F0.0
sVactivating
p16
F0.008552551165766373
sVfind
p17
F0.0
sVc17h17cln6o3
p18
F0.0
sValiases
p19
F0.0
sVthyroid
p20
F0.0
sV25
p21
F0.0033085784274937725
sV45
p22
F0.0016542892137468863
sVcompose
p23
F0.0042762755828831866
sVsystem
p24
F0.0009676971553894139
sV22
p25
F0.0016542892137468863
sVthinking
p26
F0.0016542892137468863
sVnervous
p27
F0.0026219863691363003
sV3
p28
F0.004838485776947069
sVtripsit
p29
F0.0
sVfinally
p30
F0.0026219863691363003
sVsedated
p31
F0.0
sVtreatment
p32
F0.0042762755828831866
sVamitriptyline
p33
F0.0
sVsent
p34
F0.0004351349804151661
sVcytochrome
p35
F0.0
sVkingdom
p36
F0.0042762755828831866
sV50mg
p37
F0.0
sVapnea
p38
F0.0
sVrisk
p39
F0.0016542892137468863
sVpharmacology
p40
F0.0
sVfluoxetine
p41
F0.0
sVcitalopram
p42
F0.0
sVdbt
p43
F0.0
sVcyclopyrrolone
p44
F0.0
sVinduce
p45
F0.0
sVbuspirone
p46
F0.0
sVolanzipene
p47
F0.0
sVb
p48
F0.0009676971553894139
sVevery
p49
F0.0004351349804151661
sVeffects
p50
F0.007865959107408902
sVmol
p51
F0.0
sVdose
p52
F0.017105102331532746
sVday
p53
F0.0
sVcategories
p54
F0.0
sVlmao
p55
F0.0
sVantagonizes
p56
F0.0
sVschool
p57
F0.0042762755828831866
sVincreasing
p58
F0.0042762755828831866
sVformula
p59
F0.0
sVbpd
p60
F0.0
sVmodulator
p61
F0.0
sVht2a
p62
F0.0
sVtransmission
p63
F0.0
sVpounds
p64
F0.0026219863691363003
sV50
p65
F0.0009676971553894139
sVoxcarbazepine
p66
F0.0
sVsummary
p67
F0.0
sVanxious
p68
F0.025657653497299118
sVgood
p69
F0.0
sVoxo
p70
F0.0
sVcommon
p71
F0.0033085784274937725
sVreceptor
p72
F0.0
sVp450
p73
F0.0
sVside
p74
F0.0004351349804151661
sVtherapeutic
p75
F0.0
sVheavy
p76
F0.0019353943107788278
sVallosteric
p77
F0.0
sVdidn
p78
F0.0008702699608303322
sVlethargy
p79
F0.0
sVquestions
p80
F0.0016542892137468863
sVweight
p81
F0.0009676971553894139
sVhabit
p82
F0.0
sVfucking
p83
F0.0042762755828831866
sVscared
p84
F0.0026219863691363003
sVwaking
p85
F0.0052439727382726006
sVthreshold
p86
F0.0
sVservice
p87
F0.0016542892137468863
sVvalue
p88
F0.0009676971553894139
sVduration
p89
F0.0
sVhome
p90
F0.0009676971553894139
sV80
p91
F0.0
sVbest
p92
F0.0004351349804151661
sVsubject
p93
F0.0042762755828831866
sVeven
p94
F0.0004351349804151661
sVtry
p95
F0.0008702699608303322
sVmedications
p96
F0.0
sValcohol
p97
F0.0026219863691363003
sVbenzodiazepine
p98
F0.0
sVsun
p99
F0.0009676971553894139
sVhorribly
p100
F0.0
sVplease
p101
F0.0004351349804151661
sVcaffeine
p102
F0.0042762755828831866
sVcomments
p103
F0.0042762755828831866
sV25mg
p104
F0.0
sVemphysema
p105
F0.0
sVziprasidone
p106
F0.0
sVstate
p107
F0.0016542892137468863
sVvarious
p108
F0.0016542892137468863
sVrare
p109
F0.0042762755828831866
sV7
p110
F0.004838485776947069
sVitraconazole
p111
F0.0
sVirc
p112
F0.0042762755828831866
sVever
p113
F0.0004351349804151661
sVmethod
p114
F0.0042762755828831866
sVerythromycin
p115
F0.0
sVreddit
p116
F0.0
sVbed
p117
F0.0026219863691363003
sVexcretion
p118
F0.0
sVschedule
p119
F0.0042762755828831866
sVsmelled
p120
F0.0042762755828831866
sVweak
p121
F0.0042762755828831866
sVmethylpiperazine
p122
F0.0
sVforming
p123
F0.0
sVhours
p124
F0.0009676971553894139
sVg
p125
F0.0016542892137468863
sVconcentrate
p126
F0.0042762755828831866
sVfocused
p127
F0.0026219863691363003
sVzopiclone
p128
F0.0
sVadderall
p129
F0.0
sV388
p130
F0.0
sVlatuda
p131
F0.0
sVstrong
p132
F0.0016542892137468863
sVproperties
p133
F0.0016542892137468863
sVdrowsy
p134
F0.0
sVboy
p135
F0.0016542892137468863
sVz
p136
F0.0042762755828831866
sVprescription
p137
F0.0
sVrespiration
p138
F0.0
sVagonist
p139
F0.0
sVattacks
p140
F0.0042762755828831866
sVtaking
p141
F0.0004351349804151661
sV30
p142
F0.0009676971553894139
sVnonbenzodiazepine
p143
F0.0
sV10mg
p144
F0.0
sVdreamlike
p145
F0.0
sVmoderators
p146
F0.0
sV75mg
p147
F0.0
sVinteresting
p148
F0.0009676971553894139
sVgaba
p149
F0.0
sVweird
p150
F0.0016542892137468863
sVdepressant
p151
F0.0
sVthorazine
p152
F0.0
sVcomment
p153
F0.0026219863691363003
sVliked
p154
F0.0026219863691363003
sVstabilization
p155
F0.0
sVsri
p156
F0.0
sVfeel
p157
F0.0030459448629061624
sVcarbonate
p158
F0.0
sVimovane
p159
F0.0
sVobliterated
p160
F0.0
sVperiod
p161
F0.0009676971553894139
sVcommunity
p162
F0.0
sVzimovane
p163
F0.0
sVchronic
p164
F0.0042762755828831866
sVpom
p165
F0.0042762755828831866
sVseroquel
p166
F0.0
sVhooo
p167
F0.0
sVwasn
p168
F0.0013054049412454982
sVpyrrolo
p169
F0.0
sVmessage
p170
F0.006617156854987545
sVexpensive
p171
F0.0016542892137468863
sV2fr
p172
F0.0
sVprozac
p173
F0.0
sVworking
p174
F0.0
sVpositive
p175
F0.0016542892137468863
sVdruggitor
p176
F0.0
sVvisit
p177
F0.0016542892137468863
sVeuphoric
p178
F0.0
sV2ftripsit
p179
F0.0
sVuk
p180
F0.0042762755828831866
sVgravis
p181
F0.0
sV2
p182
F0.0004351349804151661
sVway
p183
F0.0004351349804151661
sVdepakote
p184
F0.0
sVmood
p185
F0.0052439727382726006
sVneurotransmitter
p186
F0.0
sVmolecular
p187
F0.0042762755828831866
sV20issue
p188
F0.0
sVmetabolism
p189
F0.0042762755828831866
sV15mg
p190
F0.0
sV5h
p191
F0.0
sVinsomnia
p192
F0.0
sVphenytoin
p193
F0.0
sVonset
p194
F0.0
sVcontrolled
p195
F0.0042762755828831866
sVenough
p196
F0.0
sV900mg
p197
F0.0
sVbinding
p198
F0.0026219863691363003
sV6
p199
F0.0008702699608303322
sVcarbamazepine
p200
F0.0
sV250mg
p201
F0.0
sVlong
p202
F0.0
sVawake
p203
F0.0042762755828831866
sVliver
p204
F0.0052439727382726006
sVpyrazin
p205
F0.0
sVautomated
p206
F0.0
sVknown
p207
F0.0009676971553894139
sVcentral
p208
F0.0
sVmyasthenia
p209
F0.0
sVlamotrigine
p210
F0.0
sVrifampicin
p211
F0.0
sV10
p212
F0.0004351349804151661
sVmg
p213
F0.0
sVmade
p214
F0.006091889725812325
sV15
p215
F0.0008702699608303322
sVlast
p216
F0.0004351349804151661
sVunlike
p217
F0.0016542892137468863
sVwork
p218
F0.0
sVus
p219
F0.0004351349804151661
sV5mg
p220
F0.0
sVstabilizer
p221
F0.0
sVwww
p222
F0.0026219863691363003
sVdisease
p223
F0.0026219863691363003
sVmaking
p224
F0.0004351349804151661
sVfactsheet
p225
F0.0
sVschema
p226
F0.0
sVminutes
p227
F0.0009676971553894139
sVdihydro
p228
F0.0
sVmirtazapine
p229
F0.0
sVheart
p230
F0.0016542892137468863
sVwould
p231
F0.0
sVchat
p232
F0.0016542892137468863
sVbronchitis
p233
F0.0
sVir
p234
F0.0
sVside_effect
p235
F0.0
sVagent
p236
F0.0016542892137468863
sViv
p237
F0.0
sVstates
p238
F0.0026219863691363003
sVgland
p239
F0.0
sVaustralia
p240
F0.0
sVcbt
p241
F0.0
sVpharmacokinetics
p242
F0.0
sVtca
p243
F0.0
sVabnormalities
p244
F0.0
sVprotein
p245
F0.0
sVapparently
p246
F0.0016542892137468863
sVeveryday
p247
F0.0042762755828831866
sVlexapro
p248
F0.0
sVyl
p249
F0.0
sVhypomanic
p250
F0.0
sVdiazepam
p251
F0.0
sVdifferent
p252
F0.0009676971553894139
sVunited
p253
F0.0
sVmake
p254
F0.0004351349804151661
sVbenzodiazepines
p255
F0.0
sVrs
p256
F0.0
sVs4
p257
F0.0
sV1
p258
F0.0004351349804151661
sVnick
p259
F0.0042762755828831866
sVwierd
p260
F0.0042762755828831866
sV808
p261
F0.0
sV5
p262
F0.0034810798433213288
sVclomipramine
p263
F0.0
sVketoconazole
p264
F0.0
sVagitated
p265
F0.0
sV9
p266
F0.0009676971553894139
sVplus
p267
F0.0016542892137468863
sVlithium
p268
F0.0
sVpanic
p269
F0.0
sVnice
p270
F0.0
sVcanada
p271
F0.0
sVused
p272
F0.0009676971553894139
sVnormal
p273
F0.0016542892137468863
sVclonazepam
p274
F0.0
sVstop
p275
F0.0004351349804151661
sVfelt
p276
F0.004962867641240659
sVhydroxyzine
p277
F0.0
sVtreatments
p278
F0.0
sVcontraindictions
p279
F0.0
sVtripsitbot
p280
F0.0
sVbrintellix
p281
F0.0
sVsulfaphenazole
p282
F0.0
sVkinda
p283
F0.0042762755828831866
sVpossible
p284
F0.0009676971553894139
sVchanging
p285
F0.0016542892137468863
sVextremely
p286
F0.0026219863691363003
sVcarboxylate
p287
F0.0
sVlegal
p288
F0.008552551165766373
sVparoxetine
p289
F0.0
sVchemistry
p290
F0.0
sVeffective
p291
F0.012828826748649559
sVanxiety
p292
F0.012828826748649559
sVenzymes
p293
F0.0
sVlight
p294
F0.0009676971553894139
sViupac
p295
F0.0
sVwell
p296
F0.0
sVeps
p297
F0.0
sVhypnotic
p298
F0.0
sVnefazodone
p299
F0.0
sVsevere
p300
F0.0026219863691363003
sVwithout
p301
F0.0
sVmass
p302
F0.0042762755828831866
sVtime
p303
F0.0
sVtherapy
p304
F0.0042762755828831866
sVolanzapine
p305
F0.0
sVer
p306
F0.0016542892137468863
sVorder
p307
F0.0004351349804151661
sVgain
p308
F0.0052439727382726006
s.