(dp0
Vfour
p1
F4.104492498738284e-05
sVlocalized
p2
F5.042096660367106e-05
sVlooking
p3
F0.0
sVivabradine
p4
F0.0
sVdisinhibit
p5
F0.0
sVlord
p6
F3.091547412956185e-05
sVimmature
p7
F0.0
sVhormone
p8
F0.0
sVtrileptal
p9
F0.0
sVleisurely
p10
F0.0
sVscreaming
p11
F6.18309482591237e-05
sVscholar
p12
F3.091547412956185e-05
sVcommenter
p13
F0.0
sVkbar
p14
F0.0
sVstereotypical
p15
F0.0
sVspecially
p16
F5.042096660367106e-05
sVnigh
p17
F0.0
sVtired
p18
F0.0005656592817491674
sVpulse
p19
F0.0
sVtires
p20
F5.042096660367106e-05
sVsecond
p21
F7.182861872791998e-05
sVloathing
p22
F0.0
sVbolts
p23
F5.042096660367106e-05
sVrelieving
p24
F0.0
sVfingers
p25
F3.091547412956185e-05
sVincreasing
p26
F0.0004537886994330396
sVhallucinating
p27
F0.0
sVcull
p28
F0.0
sVspecialist
p29
F0.0
sVherb
p30
F0.0
sVreported
p31
F5.042096660367106e-05
sVching
p32
F0.0
sVkids
p33
F0.00015457737064780922
sVphenelzine
p34
F0.0
sVk
p35
F6.18309482591237e-05
sVreports
p36
F3.091547412956185e-05
sVcontroversy
p37
F5.042096660367106e-05
sVamitryptaline
p38
F0.0
sVneurologist
p39
F0.0
sVmilitary
p40
F0.00015126289981101318
sVprojection
p41
F0.0
sVwikimedia
p42
F0.0
sVexplained
p43
F5.042096660367106e-05
sVpsychological
p44
F0.0002521048330183553
sVcocaine
p45
F0.00010084193320734212
sVtrazodone
p46
F0.0
sVsexual
p47
F0.0019664176975431715
sVspoke
p48
F3.091547412956185e-05
sVklonipin
p49
F0.0
sVmusic
p50
F5.643677185765141e-05
sVtherefore
p51
F0.00010084193320734212
sVcomorbid
p52
F0.0
sVholy
p53
F1.9505492474109223e-05
sVrelax
p54
F9.274642238868553e-05
sVsuccessful
p55
F1.9505492474109223e-05
sVbrings
p56
F3.091547412956185e-05
sVhurt
p57
F0.00020168386641468425
sV99
p58
F3.091547412956185e-05
sVglass
p59
F5.130615623422855e-06
sV90
p60
F0.00018549284477737107
sVhold
p61
F5.704990827726311e-05
sVbenedryl
p62
F0.0
sVcircumstances
p63
F6.18309482591237e-05
sVintake
p64
F0.0
sVpursue
p65
F0.0
sV105lbs
p66
F0.0
sVtemperatures
p67
F0.0
sVexample
p68
F0.0001483297615208841
sVwane
p69
F0.0
sVcaution
p70
F0.00010084193320734212
sVwant
p71
F0.0
sVcounseling
p72
F0.0
sVabsolute
p73
F9.274642238868553e-05
sVpreferably
p74
F5.042096660367106e-05
sVpreventives
p75
F0.0
sVtravel
p76
F2.2819963310905243e-05
sVdamage
p77
F6.18309482591237e-05
sVmachine
p78
F0.0001236618965182474
sVhot
p79
F3.9010984948218445e-05
sVmediating
p80
F0.0
sVmodulation
p81
F0.0
sVminimized
p82
F5.042096660367106e-05
sVwrong
p83
F0.0002167896514535998
sVtypes
p84
F0.00011703295484465532
sVeffective
p85
F0.0023193644637688688
sVtetra
p86
F0.0
sVchildhood
p87
F0.0
sVorally
p88
F0.0
sVhorribly
p89
F0.0
sVkeeps
p90
F0.00015604393979287378
sVwind
p91
F1.9505492474109223e-05
sVvary
p92
F0.0001236618965182474
sVantacid
p93
F0.0
sVactivating
p94
F0.00015126289981101318
sVfit
p95
F5.704990827726311e-05
sVbringing
p96
F2.2819963310905243e-05
sVfix
p97
F0.0002473237930364948
sVeasier
p98
F0.0002925823871116383
sVzoning
p99
F0.0
sVeffects
p100
F0.0025968998268831953
sVsixteen
p101
F3.091547412956185e-05
sVelavil
p102
F0.0
sVlosartan
p103
F0.0
sVaddicted
p104
F0.0005042096660367106
sVinterfering
p105
F0.0
sVwhim
p106
F0.0
sVfinancial
p107
F5.042096660367106e-05
sVknockout
p108
F0.0
sVmda
p109
F0.0
sVspider
p110
F5.042096660367106e-05
sVmdd
p111
F0.0
sVcommons
p112
F0.0
sVring
p113
F3.091547412956185e-05
sVru
p114
F0.0
sVrx
p115
F0.0
sVencourage
p116
F5.042096660367106e-05
sVdsm
p117
F0.0
sVadapt
p118
F0.0
sVrc
p119
F0.00015126289981101318
sVrn
p120
F0.0
sVwritten
p121
F6.18309482591237e-05
sVsensory
p122
F0.00020168386641468425
sVfaculties
p123
F0.0
sVsheet
p124
F1.9505492474109223e-05
sVredhair
p125
F0.0
sVate
p126
F0.00018549284477737107
sVatm
p127
F0.0
sVmusicians
p128
F3.091547412956185e-05
sVdentures
p129
F5.042096660367106e-05
sVwobbling
p130
F5.042096660367106e-05
sVsteroids
p131
F0.00015126289981101318
sVvitro
p132
F0.0
sVchannels
p133
F5.042096660367106e-05
sVkurzgesagt
p134
F0.0
sVwasn
p135
F0.0002052246249369142
sVclarity
p136
F3.091547412956185e-05
sVseizures
p137
F0.0006050515992440527
sVfluvoxamine
p138
F0.0
sVneeded
p139
F0.0005461537892750581
sVmaster
p140
F1.9505492474109223e-05
sVnoradrenergic_and_specific_serotonergic_antidepressant
p141
F0.0
sVlegs
p142
F5.851647742232766e-05
sVbitter
p143
F5.042096660367106e-05
sVlisten
p144
F9.75274623705461e-05
sVrelative
p145
F0.00015126289981101318
sVminnies
p146
F0.0
sVpredictable
p147
F0.0
sVpositively
p148
F5.042096660367106e-05
sVshowed
p149
F0.0001236618965182474
sVcrave
p150
F0.0
sVfeeling
p151
F0.0005020391928399154
sVspectrum
p152
F0.0
sVshittiness
p153
F0.0
sVarousal
p154
F0.0
sVdozen
p155
F0.0001236618965182474
sVaffairs
p156
F5.042096660367106e-05
sVperson
p157
F0.0002624295780754103
sVresponsible
p158
F3.091547412956185e-05
sVrecommended
p159
F0.0004033677328293685
sVcausing
p160
F0.00040190116368430404
sVresponsibly
p161
F0.0
sVgrips
p162
F1.9505492474109223e-05
sVdiminishing
p163
F0.0
sVwells
p164
F0.0
sVresonates
p165
F5.042096660367106e-05
sVmouth
p166
F0.0001950549247410922
sVdissociatives
p167
F0.0
sVchemistry
p168
F0.0
sVepisode
p169
F0.0005546306326403818
sVerectile
p170
F0.0
sVprofessor
p171
F5.042096660367106e-05
sVlose
p172
F6.669800310449712e-05
sVtech
p173
F5.042096660367106e-05
sVteca
p174
F0.0
sVcame
p175
F0.0003706043570080752
sVsaying
p176
F0.00012550979820997885
sVsetraline
p177
F0.0
sVmeetings
p178
F3.091547412956185e-05
sVlethal
p179
F0.0
sVbusy
p180
F1.1409981655452621e-05
sVclicked
p181
F5.042096660367106e-05
sVcousins
p182
F5.042096660367106e-05
sVkinase
p183
F0.0
sVbliss
p184
F0.0
sVtouched
p185
F3.091547412956185e-05
sVpsychiatric
p186
F0.0
sVforemost
p187
F0.0
sVpocket
p188
F0.00010084193320734212
sValtogether
p189
F3.091547412956185e-05
sVanxiolytic
p190
F0.0
sV80lbs
p191
F0.0
sVibotenic
p192
F0.0
sVnicely
p193
F3.091547412956185e-05
sVdipping
p194
F0.0
sVyohimbe
p195
F0.0
sVpatch
p196
F6.18309482591237e-05
sVrelease
p197
F0.0002535714021634199
sVrespond
p198
F0.00018549284477737107
sVdeprenyl
p199
F0.0
sVblew
p200
F5.042096660367106e-05
sVfair
p201
F2.052246249369142e-05
sVperipheral
p202
F0.0
sVresult
p203
F0.0002473237930364948
sVetiz
p204
F0.0
sVfail
p205
F6.845988993271573e-05
sVbleh
p206
F0.0
sVbest
p207
F0.0002411389343008742
sVavandia
p208
F0.0
sVlots
p209
F0.0002535714021634199
sVwikipedia
p210
F0.0
sVscore
p211
F1.9505492474109223e-05
sVoccupational
p212
F0.0
sVirc
p213
F5.042096660367106e-05
sVletting
p214
F5.042096660367106e-05
sVmen
p215
F3.9010984948218445e-05
sVdeltasone
p216
F0.0
sVnature
p217
F2.5653078117114275e-05
sVsmelled
p218
F5.042096660367106e-05
sVmeh
p219
F0.0
sVextent
p220
F0.00010084193320734212
sVaccident
p221
F0.00015126289981101318
sVtriggers
p222
F5.042096660367106e-05
sVcountry
p223
F5.704990827726311e-05
sVadventures
p224
F0.0
sVdemanded
p225
F0.0
sVplanned
p226
F0.00010084193320734212
sVlogic
p227
F5.042096660367106e-05
sVpita
p228
F0.0
sVargue
p229
F0.00010084193320734212
sVadapted
p230
F0.0
sVasked
p231
F0.00013653844731876453
sVirresponsible
p232
F0.0
sV2nd
p233
F9.274642238868553e-05
sVpregnancy
p234
F0.00010084193320734212
sVlorcaserin
p235
F0.0
sVsubside
p236
F0.0
sVbothers
p237
F0.0
sVnorvasc
p238
F0.0
sVfatlogic
p239
F0.0
sVlife
p240
F0.0004207104811206742
sV25i
p241
F0.0
sVrecomend
p242
F0.0
sVhospitalized
p243
F0.0
sVworker
p244
F5.042096660367106e-05
sVwish
p245
F0.00013653844731876453
sVlift
p246
F6.18309482591237e-05
sVchild
p247
F3.422994496635786e-05
sVworked
p248
F0.0005362691378062733
sVcalcium
p249
F0.0
sVbacolfen
p250
F0.0
sVarevailablell
p251
F0.0
sVremembering
p252
F0.00015126289981101318
sVplayed
p253
F3.091547412956185e-05
sVupregulates
p254
F0.0
sVweirdness
p255
F5.042096660367106e-05
sVplayer
p256
F3.091547412956185e-05
sVanhedonia
p257
F0.0
sVanhedonic
p258
F0.0
sVinsatiable
p259
F0.0
sVseverity
p260
F0.0
sVdhc
p261
F0.0
sV10yrs
p262
F0.0
sVeuropean
p263
F0.0
sVfairly
p264
F0.00027823926716605664
sVmyocardial
p265
F0.0
sVtops
p266
F3.091547412956185e-05
sVtune
p267
F5.042096660367106e-05
sVabound
p268
F0.0
sVsleepy
p269
F0.000756314499055066
sVphenubit
p270
F0.0
sVfinancially
p271
F0.00010084193320734212
sVprevious
p272
F2.052246249369142e-05
sVhah
p273
F0.0
sVantidopaminergic
p274
F0.0
sVdining
p275
F5.042096660367106e-05
sVacetylsalicylic
p276
F0.0
sVease
p277
F6.18309482591237e-05
sVeasy
p278
F0.0
sVprison
p279
F0.0001236618965182474
sVhat
p280
F1.9505492474109223e-05
sVpossible
p281
F0.0002167896514535998
sVpossibly
p282
F0.00012550979820997885
sVbirth
p283
F0.00015126289981101318
sVshadow
p284
F3.091547412956185e-05
sVunique
p285
F9.274642238868553e-05
sVtolerable
p286
F0.0
sVmassively
p287
F0.0
sVoccurring
p288
F0.0
sVdesire
p289
F0.00010084193320734212
sVbrought
p290
F2.052246249369142e-05
sVtapering
p291
F0.0
sVremind
p292
F6.18309482591237e-05
sVsteps
p293
F3.9010984948218445e-05
sVbeneficial
p294
F0.00010084193320734212
sVright
p295
F0.00031809816865221703
sVold
p296
F0.0
sVcrowd
p297
F6.18309482591237e-05
sVdepakene
p298
F0.0
sVtxt
p299
F5.042096660367106e-05
sVbottom
p300
F2.052246249369142e-05
sVparesthesia
p301
F0.0
sVcreative
p302
F0.0001236618965182474
sVfog
p303
F0.0
sVperiphery
p304
F0.0
sVumm
p305
F0.0
sVdiltiazem
p306
F0.0
sVdental
p307
F5.042096660367106e-05
sVshifting
p308
F5.042096660367106e-05
sVlosing
p309
F5.704990827726311e-05
sVvalium
p310
F0.0
sVrestlessness
p311
F0.0
sVboiling
p312
F0.0
sVinderal
p313
F0.0
sVo
p314
F1.026123124684571e-05
sVlacked
p315
F0.0
sVslightly
p316
F0.0001026898348990736
sVraised
p317
F1.9505492474109223e-05
sVson
p318
F3.422994496635786e-05
sVthankful
p319
F0.0
sVraises
p320
F3.091547412956185e-05
sVwrap
p321
F1.9505492474109223e-05
sVreducing
p322
F0.0
sVvaldoxan
p323
F0.0
sVsupport
p324
F9.274642238868553e-05
sVconstantly
p325
F0.00013653844731876453
sVtame
p326
F0.00010084193320734212
sVavail
p327
F0.0
sVhumorous
p328
F5.042096660367106e-05
sVcarthage_nursing_home_shooting
p329
F0.0
sVjane
p330
F0.0
sVacross
p331
F0.000175549432266983
sVhappy
p332
F0.0002053796697981472
sVpamelor
p333
F0.0
sVoffer
p334
F0.0008582416688608058
sVforming
p335
F0.0
sVmorpine
p336
F0.0
sVunderstandable
p337
F0.0
sVcircumstantial
p338
F0.0
sV2000ug
p339
F0.0
sVaza
p340
F0.0
sVinside
p341
F2.052246249369142e-05
sVbouncy
p342
F0.0
sVdevices
p343
F0.0
sVtonne
p344
F0.0
sV8mg
p345
F0.0
sV155
p346
F0.0
sVproven
p347
F0.00015126289981101318
sVrestorative
p348
F0.0
sVsoothe
p349
F0.0
sVexist
p350
F3.091547412956185e-05
sVdealer
p351
F0.00010084193320734212
sV200mg
p352
F0.0
sVfloor
p353
F3.091547412956185e-05
sVactor
p354
F5.042096660367106e-05
sVactos
p355
F0.0
sVrole
p356
F0.00015126289981101318
sVbecuase
p357
F0.0
sVsmell
p358
F6.18309482591237e-05
sVroll
p359
F3.9010984948218445e-05
sVintend
p360
F5.042096660367106e-05
sVinvested
p361
F0.0
sVrolling
p362
F1.9505492474109223e-05
sVnoradrenergic
p363
F0.0
sVreabsorption
p364
F0.0
sVtime
p365
F0.0
sVpush
p366
F1.9505492474109223e-05
sVmasturbation
p367
F5.042096660367106e-05
sVlamactil
p368
F0.0
sVwhoever
p369
F1.9505492474109223e-05
sVhangovers
p370
F0.0
sVactivated
p371
F5.042096660367106e-05
sVtrichotillomania
p372
F0.0
sVasymptomatic
p373
F0.0
sVvet
p374
F0.00035294676622569745
sVobsessively
p375
F0.0
sV94
p376
F3.091547412956185e-05
sVrecurrence
p377
F0.0
sVcheat
p378
F5.042096660367106e-05
sVpersevere
p379
F0.0
sVgooglefu
p380
F0.0
sVcheap
p381
F0.0001236618965182474
sVchoice
p382
F7.802196989643689e-05
sV977x
p383
F0.0
sVexact
p384
F0.000175549432266983
sVdextropropoxyphene
p385
F0.0
sVtear
p386
F1.1409981655452621e-05
sVskewed
p387
F0.0
sVleave
p388
F9.127985324362097e-05
sVsolved
p389
F0.0
sVpropanolol
p390
F0.0
sVteam
p391
F0.00015126289981101318
sVloads
p392
F3.091547412956185e-05
sVorganon
p393
F0.0
sVprevent
p394
F9.274642238868553e-05
sVspiritual
p395
F0.00010084193320734212
sVfindings
p396
F0.0
sVinsignificant
p397
F0.0
sVsigh
p398
F3.091547412956185e-05
sVsign
p399
F1.026123124684571e-05
sVstrenghts
p400
F0.0
sVagonists
p401
F0.0
sVpatient
p402
F0.0010084193320734213
sVeducate
p403
F0.0
sVpsychotropic
p404
F0.0
sVrealizing
p405
F0.0
sVcurrent
p406
F0.000175549432266983
sVremembered
p407
F1.9505492474109223e-05
sVamericansubs
p408
F0.0
sVfalling
p409
F0.00018549284477737107
sVcrashing
p410
F3.9010984948218445e-05
sVboost
p411
F0.0
sVfocalin
p412
F0.0
sVgrandparents
p413
F5.042096660367106e-05
sVfuneral
p414
F5.042096660367106e-05
sVunderstanding
p415
F5.851647742232766e-05
sVaddress
p416
F0.0001236618965182474
sValone
p417
F0.0002535714021634199
sValong
p418
F6.156738748107426e-05
sVstudied
p419
F5.042096660367106e-05
sVcommonly
p420
F0.0
sVineffective
p421
F0.00015126289981101318
sVstudies
p422
F0.00030252579962202636
sVpepto
p423
F0.0
sVlove
p424
F0.00017114972483178934
sVconfidentiality
p425
F5.042096660367106e-05
sVprefer
p426
F3.9010984948218445e-05
sVlogical
p427
F0.0
sVlogically
p428
F5.042096660367106e-05
sVfake
p429
F0.00010084193320734212
sVempathogens
p430
F0.0
sVworking
p431
F0.0
sV4ish
p432
F0.0
sVpositive
p433
F0.00023406590968931063
sVangry
p434
F9.274642238868553e-05
sVtightly
p435
F6.18309482591237e-05
sVopposed
p436
F3.091547412956185e-05
sVbender
p437
F0.0
sVscope
p438
F5.042096660367106e-05
sVtheoretical
p439
F0.0
sVafford
p440
F0.00010084193320734212
sVoregon
p441
F0.0
sVatarax
p442
F0.0
sVmirtazap
p443
F0.0
sVappendix
p444
F0.0
sVeverywhere
p445
F3.9010984948218445e-05
sVopioids
p446
F0.0
sVoriginally
p447
F3.091547412956185e-05
sVhomie
p448
F0.0
sVaripiprazole
p449
F0.0
sVbelieved
p450
F0.0
sVmetoprolol
p451
F0.0
sVawesome
p452
F0.0005546306326403818
sVallowed
p453
F4.5639926621810486e-05
sVoffense
p454
F5.042096660367106e-05
sVstole
p455
F5.042096660367106e-05
sVdiclazepam
p456
F0.0
sVwinter
p457
F3.091547412956185e-05
sVimmune
p458
F5.042096660367106e-05
sVblasting
p459
F0.0
sVspot
p460
F3.9010984948218445e-05
sVlaxative
p461
F0.0
sVexplored
p462
F0.0
sVdate
p463
F3.091547412956185e-05
sVsuck
p464
F0.00021640831890693292
sVdata
p465
F0.00020168386641468425
sVcontraindicated
p466
F0.0
sVlids
p467
F0.0
sVstress
p468
F0.00030915474129561844
sVnatural
p469
F9.274642238868553e-05
sVvarieties
p470
F5.042096660367106e-05
sVconscious
p471
F5.042096660367106e-05
sVsr
p472
F0.0
sVse
p473
F6.18309482591237e-05
sVtachy
p474
F0.0
sVepilepsy
p475
F0.0
sVunacceptable
p476
F3.091547412956185e-05
sVyears
p477
F0.0008329286608480415
sVpreskorn
p478
F0.0
sVcourse
p479
F0.00022819963310905244
sVepisodes
p480
F0.0
sVexperiments
p481
F0.0
sVtendency
p482
F0.00015126289981101318
sVlimbs
p483
F5.042096660367106e-05
sVtorn
p484
F0.0
sVtroubles
p485
F0.0
sVtwitching
p486
F5.042096660367106e-05
sVdecreases
p487
F0.0
sVjiu
p488
F0.0
sVconstitutes
p489
F0.0
sVsuspension
p490
F0.0
sVdecades
p491
F5.042096660367106e-05
sVinstantly
p492
F5.042096660367106e-05
sVstabilizers
p493
F0.0
sVthereby
p494
F0.0
sVinsomnia
p495
F0.0
sVrecords
p496
F0.00010084193320734212
sVoverpowering
p497
F0.0
sVarriving
p498
F0.00020168386641468425
sVmatched
p499
F5.042096660367106e-05
sVprophylaxis
p500
F0.0
sVdidn
p501
F0.0004104492498738284
sVestablishing
p502
F5.042096660367106e-05
sVbowling
p503
F3.091547412956185e-05
sVquarter
p504
F3.091547412956185e-05
sVsuffixes
p505
F5.042096660367106e-05
sVcrushing
p506
F5.042096660367106e-05
sVbreakthrough
p507
F0.0
sVhcp
p508
F0.0
sVseriously
p509
F0.000175549432266983
sVtrauma
p510
F0.0
sVinternet
p511
F9.274642238868553e-05
sVsuggesting
p512
F3.091547412956185e-05
sVastral
p513
F0.0
sVcurbs
p514
F0.0
sVmillion
p515
F0.00010084193320734212
sVinhaled
p516
F0.0
sVpossibility
p517
F9.274642238868553e-05
sVquite
p518
F0.00015904908432610852
sVcomplicated
p519
F0.00010084193320734212
sVintensely
p520
F0.0
sVvenlaflaxine
p521
F0.0
sVtraining
p522
F9.274642238868553e-05
sVhypnogogic
p523
F0.0
sVdunno
p524
F6.18309482591237e-05
sVdownsides
p525
F0.0
sVmassive
p526
F0.0
sVroutes
p527
F0.0
sVemotion
p528
F0.00010084193320734212
sVsaving
p529
F3.9010984948218445e-05
sVspoken
p530
F5.042096660367106e-05
sVentheogens
p531
F0.0
sVspecifically
p532
F0.0
sVchubby
p533
F5.042096660367106e-05
sVcustom
p534
F0.0011092612652807636
sVopen
p535
F0.0
sVlanguish
p536
F0.0
sVcity
p537
F3.9010984948218445e-05
sVbite
p538
F2.2819963310905243e-05
sV2
p539
F0.0008003760372539654
sVrealization
p540
F0.0
sVbits
p541
F3.091547412956185e-05
sVwilliams
p542
F0.0
sVfma
p543
F0.0
sVsurges
p544
F0.0
sVridiculous
p545
F0.00015126289981101318
sVboyfriend
p546
F0.0002521048330183553
sVrehab
p547
F0.00015126289981101318
sVunfit
p548
F0.0
sVinmediatly
p549
F0.0
sVcounselor
p550
F5.042096660367106e-05
sVprospect
p551
F0.0
sVillness
p552
F0.0
sVtasted
p553
F3.091547412956185e-05
sVnicer
p554
F3.091547412956185e-05
sVturned
p555
F4.104492498738284e-05
sVlocations
p556
F0.00010084193320734212
sVdiabeta
p557
F0.0
sVssris
p558
F0.0
sVtastes
p559
F5.851647742232766e-05
sVpubmed
p560
F0.0
sVinhibiting
p561
F0.0
sVsaw
p562
F9.75274623705461e-05
sVaside
p563
F0.00013653844731876453
sVnote
p564
F0.0001026898348990736
sVrumination
p565
F0.0
sVdestroy
p566
F0.00010084193320734212
sVopposite
p567
F0.00015457737064780922
sVknew
p568
F0.00015604393979287378
sVcrochet
p569
F0.0
sVknee
p570
F0.0
sVpages
p571
F6.18309482591237e-05
sVenamel
p572
F0.0
sVaverage
p573
F9.274642238868553e-05
sVdrive
p574
F0.00030915474129561844
sVmanaging
p575
F5.042096660367106e-05
sVsalt
p576
F0.00010084193320734212
sVstimulator
p577
F0.0
sVbright
p578
F1.9505492474109223e-05
sVaggressive
p579
F0.0
sVslow
p580
F0.00013691977986543145
sVsativa
p581
F0.0
sVconduction
p582
F0.0
sVrelaxes
p583
F0.0
sVtears
p584
F6.18309482591237e-05
sVgoing
p585
F0.0
sVcarolina
p586
F0.0
sVoutlet
p587
F0.0
sVprime
p588
F5.042096660367106e-05
sVmaniacal
p589
F0.0
sVworried
p590
F0.00015604393979287378
sVtdoc
p591
F0.0
sVliable
p592
F0.0
sVsurgeries
p593
F0.0
sVvision
p594
F0.0
sVattenuates
p595
F0.0
sVanyways
p596
F0.0001236618965182474
sVsurgery
p597
F0.00010084193320734212
sVintoxicating
p598
F0.0
sVpoops
p599
F0.00010084193320734212
sVsites
p600
F0.00010084193320734212
sVrefreshed
p601
F5.042096660367106e-05
sVaffecting
p602
F0.0
sVteens
p603
F5.042096660367106e-05
sVwalks
p604
F1.9505492474109223e-05
sVinappropriately
p605
F0.0
sVjobs
p606
F6.18309482591237e-05
sVmature
p607
F1.9505492474109223e-05
sVsmooths
p608
F0.0
sVconcentrate
p609
F0.00010084193320734212
sVspark
p610
F0.0
sVcircumference
p611
F0.0
sVmany
p612
F0.0
sVflipped
p613
F0.0
sVexpression
p614
F1.9505492474109223e-05
sVcoma
p615
F0.00010084193320734212
sVludiomil
p616
F0.0
sVpanicy
p617
F0.0
sV3000
p618
F0.0
sVcomeback
p619
F5.042096660367106e-05
sVboat
p620
F0.00010084193320734212
sVcaring
p621
F5.042096660367106e-05
sVstretch
p622
F3.091547412956185e-05
sVcombined
p623
F0.00021640831890693292
sV15mg
p624
F0.0
sVwants
p625
F0.0
sVlanes
p626
F0.0
sVinfluence
p627
F3.9010984948218445e-05
sVpersist
p628
F0.00010084193320734212
sVpsychotherapy
p629
F0.0
sVformer
p630
F4.5639926621810486e-05
sVzispin
p631
F0.0
sVpolicies
p632
F0.0
sVsituation
p633
F0.00046373211194342774
sVive
p634
F0.0
sVctrl
p635
F5.042096660367106e-05
sVbros
p636
F0.0
sVblah
p637
F6.18309482591237e-05
sVblab
p638
F0.0
sVantihistiminergic
p639
F0.0
sVshuts
p640
F5.042096660367106e-05
sVperpetually
p641
F0.00010084193320734212
sVunderestimate
p642
F5.042096660367106e-05
sVunemployed
p643
F0.0
sVbreakdown
p644
F0.00020168386641468425
sVvisually
p645
F3.091547412956185e-05
sVsickness
p646
F5.042096660367106e-05
sVcheers
p647
F5.042096660367106e-05
sVesmirtazapine
p648
F0.0
sVunmanageable
p649
F0.0
sVpsychiatrists
p650
F0.0
sVawesomeness
p651
F0.0
sVantihistamine
p652
F0.0
sVcosts
p653
F5.042096660367106e-05
sVcomes
p654
F0.0001950549247410922
sVsummer
p655
F0.000175549432266983
sVbenzo
p656
F0.0
sVexaggerating
p657
F0.0
sVslime
p658
F5.042096660367106e-05
sVrest
p659
F2.052246249369142e-05
sVsummed
p660
F0.0
sVwiki_laboratory_analysis
p661
F0.0
sVprovocation
p662
F0.0
sVoccasional
p663
F0.0
sVgrounded
p664
F0.0
sVghostly
p665
F0.0
sVntioned
p666
F0.0
sVstarving
p667
F5.042096660367106e-05
sVaround
p668
F0.00022574708743060563
sVdiphenhydramine
p669
F0.0
sVmorphine
p670
F0.0004033677328293685
sVdart
p671
F5.042096660367106e-05
sVdark
p672
F0.0
sVtraffic
p673
F5.042096660367106e-05
sVworld
p674
F0.0001483297615208841
sVdecomposes
p675
F0.0
sVmeaning
p676
F3.9010984948218445e-05
sV60
p677
F0.00015457737064780922
sVstranger
p678
F5.042096660367106e-05
sVbuspan
p679
F0.0
sVbuspar
p680
F0.0
sVunderweight
p681
F0.0
sVconditional
p682
F0.0
sVcognitive
p683
F0.0
sVdiving
p684
F0.0
sVdivine
p685
F5.042096660367106e-05
sVthinks
p686
F3.9010984948218445e-05
sVdissociated
p687
F0.0
sVsubstance
p688
F0.0
sVdds
p689
F0.0
sVability
p690
F0.00037098568955474214
sVcannabis
p691
F0.0
sVexit
p692
F1.9505492474109223e-05
sVwenlafaxine
p693
F0.0
sVpropylthiouracil
p694
F0.0
sV911
p695
F0.0
sVsided
p696
F0.0
sVrefer
p697
F0.00010084193320734212
sVdestroys
p698
F0.0
sVscientific
p699
F0.00010084193320734212
sVpower
p700
F6.845988993271573e-05
sVintimate
p701
F3.091547412956185e-05
sVstandpoint
p702
F0.0
sVstone
p703
F7.802196989643689e-05
sVindustry
p704
F5.042096660367106e-05
sVfavorite
p705
F7.802196989643689e-05
sVside
p706
F5.643677185765141e-05
sV75mg
p707
F0.0
sVact
p708
F4.5639926621810486e-05
sVmean
p709
F0.00017114972483178934
sVimage
p710
F3.091547412956185e-05
sVfreaked
p711
F5.042096660367106e-05
sVdxms
p712
F0.0
sVtechnically
p713
F3.091547412956185e-05
sVhes
p714
F0.0
sVhey
p715
F0.0002473237930364948
sVbrazilian
p716
F0.0
sVpsychopharmacology
p717
F0.0
sVrecommends
p718
F0.0
sVcomplete
p719
F4.5639926621810486e-05
sVsurvived
p720
F5.042096660367106e-05
sVbuying
p721
F0.00015126289981101318
sVhandsome
p722
F3.091547412956185e-05
sVcard
p723
F3.091547412956185e-05
sVpull
p724
F2.2819963310905243e-05
sVregimen
p725
F0.0
sVrage
p726
F0.0002521048330183553
sVdirty
p727
F6.18309482591237e-05
sVdispensing
p728
F0.0
sVtrips
p729
F9.274642238868553e-05
sVmisery
p730
F5.042096660367106e-05
sVaa
p731
F0.0
sVgone
p732
F8.722046559818855e-05
sVac
p733
F0.0
sVab
p734
F0.0
sVohh
p735
F0.0
sVad
p736
F0.00015457737064780922
sVexhausted
p737
F0.00020168386641468425
sVcertain
p738
F9.23510812216114e-05
sVdoug
p739
F0.0
sVal
p740
F5.042096660367106e-05
sVap
p741
F0.0
sVhypertension
p742
F0.0
sVaw
p743
F0.0
sVav
p744
F0.0
sVyoga
p745
F5.042096660367106e-05
sVmandated
p746
F0.0
sVgraduate
p747
F5.042096660367106e-05
sVsomeones
p748
F0.0
sVpuppy
p749
F0.0
sVa2
p750
F0.0
sVtricky
p751
F5.042096660367106e-05
sVaday
p752
F0.0
sVgastric
p753
F0.0
sVmask
p754
F0.00010084193320734212
sVmimic
p755
F5.042096660367106e-05
sVbehavioral
p756
F0.0
sVexternal
p757
F3.091547412956185e-05
sVconsider
p758
F0.00017114972483178934
sVcaused
p759
F0.0006183094825912369
sVquietapine
p760
F0.0
sVcauses
p761
F0.0008656332756277317
sVimproperly
p762
F5.042096660367106e-05
sVcareful
p763
F0.00021640831890693292
sVtv
p764
F0.00015126289981101318
sVsulfate
p765
F0.0
sVtl
p766
F0.0
sVpaying
p767
F0.00010084193320734212
sVappointment
p768
F0.0005546306326403818
sVzapping
p769
F0.0
sVblockade
p770
F0.0
sVdiary
p771
F5.042096660367106e-05
sVcondition
p772
F3.9010984948218445e-05
sVnoobs
p773
F0.0
sVpotentiation
p774
F0.0
sVlaying
p775
F5.042096660367106e-05
sVt3
p776
F0.0
sVlarge
p777
F0.0
sVadjust
p778
F0.00015126289981101318
sVsmall
p779
F4.61755406108057e-05
sVpsychopharmacologist
p780
F0.0
sVquicker
p781
F5.042096660367106e-05
sVantibiotic
p782
F0.0
sVpast
p783
F0.0003194794863526734
sVpass
p784
F2.2819963310905243e-05
sVcomedown
p785
F0.0
sVsection
p786
F9.274642238868553e-05
sVfucks
p787
F5.042096660367106e-05
sVtrialing
p788
F0.0
sVmethod
p789
F0.00010084193320734212
sVhasn
p790
F5.704990827726311e-05
sVfull
p791
F0.0
sVvomiting
p792
F0.00015126289981101318
sVhours
p793
F0.000604729027738989
sVnovember
p794
F0.0
sV20lbs
p795
F0.0
sVcompliance
p796
F0.0
sVcyproheptadine
p797
F0.0
sVbrutal
p798
F0.0
sVprior
p799
F0.00010084193320734212
sVhealthier
p800
F0.0
sVpick
p801
F0.00048763731185273056
sVcessation
p802
F0.0
sVmurdering
p803
F5.042096660367106e-05
sVvia
p804
F0.00020168386641468425
sVfollowed
p805
F5.851647742232766e-05
sVagomelatine
p806
F0.0
sVbenifited
p807
F0.0
sVpulls
p808
F3.091547412956185e-05
sVoccassion
p809
F0.0
sV6
p810
F0.0002206164718071828
sVmetformin
p811
F0.0
sVdoor
p812
F1.1409981655452621e-05
sVsubstances
p813
F0.0005042096660367106
sVenormous
p814
F5.042096660367106e-05
sVtested
p815
F5.042096660367106e-05
sVdood
p816
F0.0
sVdislike
p817
F5.042096660367106e-05
sVkeeping
p818
F0.00013653844731876453
sVscience
p819
F0.00018549284477737107
sVnovolog
p820
F0.0
sVlearn
p821
F0.00015126289981101318
sVknocked
p822
F5.851647742232766e-05
sVmale
p823
F0.00011703295484465532
sVallegra
p824
F0.0
sVantagonists
p825
F0.0
sVstated
p826
F5.042096660367106e-05
sVaccept
p827
F3.9010984948218445e-05
sVstates
p828
F0.00018549284477737107
sVnejmp0907708
p829
F0.0
sVsense
p830
F6.669800310449712e-05
sVaxit
p831
F0.0
sVdisliked
p832
F0.0
sVsalts
p833
F0.0
sVaxis
p834
F0.0
sVhuge
p835
F5.130615623422855e-05
sVdismissed
p836
F5.042096660367106e-05
sVsalvia
p837
F0.0
sVhugs
p838
F5.042096660367106e-05
sVingesting
p839
F0.0
sVplant
p840
F5.042096660367106e-05
sVplans
p841
F5.042096660367106e-05
sVblotter
p842
F0.0
sVsympathize
p843
F0.0
sVtreatments
p844
F0.0
sVbrintellix
p845
F0.0
sVrefuse
p846
F3.9010984948218445e-05
sVsertraline
p847
F0.0
sVmayoclinic
p848
F0.0
sVtramadol
p849
F0.0
sVtrade
p850
F1.9505492474109223e-05
sVmixing
p851
F0.00020168386641468425
sVattitude
p852
F5.042096660367106e-05
sVpaper
p853
F7.802196989643689e-05
sVsmiling
p854
F5.042096660367106e-05
sVorexigenic
p855
F0.0
sVrapidly
p856
F5.851647742232766e-05
sVepileptic
p857
F0.0
sVsymptoms
p858
F0.0
sV2hours
p859
F0.0
sVindividuals
p860
F0.0
sVbypass
p861
F5.042096660367106e-05
sVamitriptyline
p862
F0.0
sVally
p863
F0.0
sVskipped
p864
F0.00010084193320734212
sVentire
p865
F0.00011703295484465532
sVflonase
p866
F0.0
sVsnowball
p867
F0.0
sVrespire
p868
F0.0
sVmisuse
p869
F0.0
sVsucked
p870
F0.0002521048330183553
sVeverytime
p871
F5.042096660367106e-05
sVcoping
p872
F0.0
sValways
p873
F0.0
sVnauseous
p874
F0.0
sVfound
p875
F0.00030783693740537134
sVreactions
p876
F0.0
sVaccelerator
p877
F5.042096660367106e-05
sVreduce
p878
F0.00027823926716605664
sVfinish
p879
F5.851647742232766e-05
sVdoses
p880
F0.0
sVtry
p881
F0.0004874084842251713
sVpsychology
p882
F0.00010084193320734212
sVresearch
p883
F0.0011092612652807636
sVoccurs
p884
F6.18309482591237e-05
sVnervously
p885
F5.042096660367106e-05
sVbelief
p886
F0.0
sVness
p887
F5.042096660367106e-05
sVqualify
p888
F0.0
sVimagine
p889
F0.00013653844731876453
sVw
p890
F5.851647742232766e-05
sVbupropion
p891
F0.0
sVmajor
p892
F0.0001597397431763367
sVrooted
p893
F0.0
sVthereafter
p894
F0.0
sVnumber
p895
F0.0002535714021634199
sVnumbed
p896
F0.0
sVcomedowns
p897
F0.0
sVhiatal
p898
F0.0
sVguess
p899
F0.000351098864533966
sVcalculations
p900
F0.00020168386641468425
sVlisted
p901
F0.00018549284477737107
sVrelationship
p902
F0.00013653844731876453
sVimmediate
p903
F3.091547412956185e-05
sVconsult
p904
F0.0
sVfocusing
p905
F5.042096660367106e-05
sVstairs
p906
F0.00021640831890693292
sVaaa
p907
F0.0
sVsyringes
p908
F0.00030252579962202636
sVrecreationally
p909
F0.0
sVdetermined
p910
F5.042096660367106e-05
sVrefrain
p911
F0.0
sVfights
p912
F3.091547412956185e-05
sVorganisations
p913
F0.0
sVdefect
p914
F0.0001236618965182474
sVincidentally
p915
F0.0
sVantagonizes
p916
F0.0
sVself
p917
F7.182861872791998e-05
sVinternal
p918
F3.091547412956185e-05
sVgeneralized
p919
F5.042096660367106e-05
sVplay
p920
F5.851647742232766e-05
sVrisperidone
p921
F0.0
sVfirsthand
p922
F0.0
sVeffecting
p923
F0.0
sVplat
p924
F0.0
sVyawn
p925
F0.0
sVvirus
p926
F0.00020168386641468425
sVplan
p927
F0.00015604393979287378
sVaccepting
p928
F0.00010084193320734212
sVcchrint
p929
F0.0
sVfunnier
p930
F5.042096660367106e-05
sVsometimes
p931
F0.0005020391928399154
sVcover
p932
F7.986987158816836e-05
sVartistic
p933
F0.0
sVgaba
p934
F0.0
sVugh
p935
F0.0
sVgold
p936
F3.9010984948218445e-05
sVblended
p937
F0.0
sVdegrades
p938
F0.0
sVtranquilizer
p939
F0.0
sVsession
p940
F5.042096660367106e-05
sVfianc
p941
F3.091547412956185e-05
sVimpact
p942
F0.0
sVwrites
p943
F5.042096660367106e-05
sVfailed
p944
F0.00018549284477737107
sVenzyme
p945
F0.0
sVfactor
p946
F0.00015126289981101318
sVcolumns
p947
F5.042096660367106e-05
sVdependent
p948
F0.00015126289981101318
sVbanned
p949
F0.0
sVremedy
p950
F0.0
sVadapts
p951
F0.0
sVprogressive
p952
F0.0
sVcry
p953
F6.18309482591237e-05
sVcrf
p954
F0.0
sVkill
p955
F0.00012550979820997885
sVinsane
p956
F0.0002521048330183553
sVautoreceptors
p957
F0.0
sVset
p958
F3.591430936395999e-05
sVpotent
p959
F0.0
sVsex
p960
F0.00043281663781386583
sVsee
p961
F0.0004207104811206742
sVvitamins
p962
F0.00015126289981101318
sVmuted
p963
F0.0
sVmovie
p964
F6.18309482591237e-05
sVcurrently
p965
F0.00046813181937862126
sVtenormin
p966
F0.0
sVnope
p967
F0.00015126289981101318
sVmonsters
p968
F5.042096660367106e-05
sVavailable
p969
F0.00027307689463752907
sVmilder
p970
F0.0
sVincident
p971
F0.0
sVselectively
p972
F0.0
sVrecreantional
p973
F0.0
sVtangible
p974
F0.0
sVbarely
p975
F0.00030915474129561844
sVconnection
p976
F6.18309482591237e-05
sVimproves
p977
F5.042096660367106e-05
sVretarded
p978
F5.042096660367106e-05
sVgoverment
p979
F0.0
sVtoxicology
p980
F0.0
sVwhole
p981
F0.00033159337205985675
sVdepersonalisation
p982
F0.0
sVload
p983
F1.9505492474109223e-05
sVbell
p984
F5.042096660367106e-05
sVultrashort
p985
F0.0
sVexcept
p986
F0.0001597397431763367
sVbiiiiig
p987
F0.0
sVagents
p988
F0.00035294676622569745
sVadaptation
p989
F0.0
sVscottish
p990
F0.0
sVpsychoanalyst
p991
F0.0
sVhitting
p992
F3.9010984948218445e-05
sVmindset
p993
F0.0
sVfogginess
p994
F0.0
sVnri
p995
F0.0
sVsobriety
p996
F0.0
sVfire
p997
F2.2819963310905243e-05
sVmoderation
p998
F0.0
sVawake
p999
F0.0004537886994330396
sVsnfis
p1000
F0.0
sVlamotrigine
p1001
F0.0
sVuncertain
p1002
F5.042096660367106e-05
sVstraight
p1003
F0.00015391846870268567
sVerror
p1004
F0.00015126289981101318
sVrobin
p1005
F0.0
sVpound
p1006
F0.0001236618965182474
sVhoping
p1007
F0.0004033677328293685
sVstopdrinking
p1008
F0.0
sVagitation
p1009
F0.0
sVhyperactivity
p1010
F0.0
sVbinding
p1011
F3.091547412956185e-05
sVhydrocodone
p1012
F0.0
sVhypoxiam
p1013
F0.0
sVfunny
p1014
F4.5639926621810486e-05
sVmethoxetamine
p1015
F0.0
sVelevated
p1016
F0.0
sVshorter
p1017
F6.18309482591237e-05
sVrules
p1018
F0.00018549284477737107
sVvirtually
p1019
F0.0
sVelevates
p1020
F0.0
sVknitting
p1021
F0.0
sVupbringing
p1022
F0.0
sValert
p1023
F3.091547412956185e-05
sVveeery
p1024
F0.0
sVviewing
p1025
F5.042096660367106e-05
sVlevels
p1026
F0.0007058935324513949
sVgonna
p1027
F0.00015604393979287378
sVimplement
p1028
F5.042096660367106e-05
sVinfamous
p1029
F0.0
sVbuspirone
p1030
F0.0
sVexpend
p1031
F0.0
sVconcrete
p1032
F0.0
sVstrobe
p1033
F0.0
sVkelly
p1034
F0.0
sVdieting
p1035
F0.0
sVlads
p1036
F3.091547412956185e-05
sVsuffolk
p1037
F0.0
sValtho
p1038
F0.0
sVsignal
p1039
F3.091547412956185e-05
sVchest
p1040
F5.851647742232766e-05
sVsignals
p1041
F5.042096660367106e-05
sVeager
p1042
F0.0
sVparents
p1043
F0.000756314499055066
sVinput
p1044
F5.042096660367106e-05
sVsurprised
p1045
F3.9010984948218445e-05
sVemergency
p1046
F0.00015126289981101318
sVformat
p1047
F5.042096660367106e-05
sV11229449
p1048
F0.0
sVcouple
p1049
F0.0002167896514535998
sVshitty
p1050
F0.0004537886994330396
sVsuffering
p1051
F3.9010984948218445e-05
sVquest
p1052
F5.042096660367106e-05
sVhallucinate
p1053
F0.0
sVsnore
p1054
F5.042096660367106e-05
sVd
p1055
F0.0
sVspine
p1056
F5.042096660367106e-05
sVcontinue
p1057
F0.0001483297615208841
sVdisorder
p1058
F0.001663891897921145
sVnames
p1059
F3.9010984948218445e-05
sVpertaining
p1060
F0.0
sVproscaline
p1061
F0.0
sVmethods
p1062
F0.00010084193320734212
sVgoddamn
p1063
F0.00020168386641468425
sVunloved
p1064
F0.0
sVb6
p1065
F0.0
sVoxcarbazepine
p1066
F0.0
sVb2
p1067
F0.0
sVb3
p1068
F0.0
sVcurious
p1069
F3.422994496635786e-05
sVamicable
p1070
F0.0
sVreligion
p1071
F0.0002521048330183553
sVdating
p1072
F3.091547412956185e-05
sVbd
p1073
F0.0
sVbf
p1074
F0.0
sVbi
p1075
F1.9505492474109223e-05
sVturkeying
p1076
F0.0
sVnowhere
p1077
F5.042096660367106e-05
sVbs
p1078
F0.0
sVcranked
p1079
F0.0
sVanything
p1080
F0.00033862063114590847
sVnetflix
p1081
F0.0
sVaddict
p1082
F0.00020168386641468425
sVrepair
p1083
F0.0
sVtegretal
p1084
F0.0
sVgarbage
p1085
F6.18309482591237e-05
sVappropriate
p1086
F0.0004033677328293685
sVprimarily
p1087
F0.0
sVgreenies
p1088
F0.0
sVnext
p1089
F0.0001026123124684571
sVspan
p1090
F5.042096660367106e-05
sVpalinopsia
p1091
F0.0
sVspending
p1092
F0.00010084193320734212
sVsubmit
p1093
F6.18309482591237e-05
sVdelirients
p1094
F0.0
sVconsiderably
p1095
F5.042096660367106e-05
sVelsewhere
p1096
F5.042096660367106e-05
sVposter
p1097
F5.042096660367106e-05
sVrelaxed
p1098
F9.274642238868553e-05
sVlink
p1099
F0.00015457737064780922
sVline
p1100
F9.127985324362097e-05
sVconsiderable
p1101
F3.091547412956185e-05
sVintestines
p1102
F5.042096660367106e-05
sVposted
p1103
F9.274642238868553e-05
sVcig
p1104
F0.0
sVflubpam
p1105
F0.0
sVsomedays
p1106
F0.0
sVus
p1107
F0.0002103552405603371
sVpaired
p1108
F0.0
sVuh
p1109
F1.9505492474109223e-05
sVuk
p1110
F0.00015126289981101318
sVfaded
p1111
F5.042096660367106e-05
sVcontinuously
p1112
F5.042096660367106e-05
sVmedical
p1113
F0.0002535714021634199
sVdocusate
p1114
F0.0
sVyelled
p1115
F0.00010084193320734212
sVparoxetine
p1116
F0.0
sVlikewise
p1117
F0.0
sVunsafe
p1118
F5.042096660367106e-05
sVchat
p1119
F3.9010984948218445e-05
sVpageid
p1120
F0.0
sVpreventing
p1121
F5.042096660367106e-05
sVpoints
p1122
F7.802196989643689e-05
sVenergetic
p1123
F0.0
sVbeginnings
p1124
F5.042096660367106e-05
sVlucid
p1125
F0.0
sVmaois
p1126
F0.0
sVativan
p1127
F0.0
sVsticklers
p1128
F0.0
sVmeals
p1129
F0.00030252579962202636
sVago
p1130
F0.0010820415945346647
sVworsened
p1131
F0.0
sVtailored
p1132
F0.0
sVland
p1133
F5.130615623422855e-06
sVnapping
p1134
F0.0
sVwalked
p1135
F0.00015126289981101318
sVhella
p1136
F0.0
sVpsychiatry
p1137
F0.0
sVfresh
p1138
F0.00044862632690451207
sVhello
p1139
F0.0001236618965182474
sVpartial
p1140
F5.042096660367106e-05
sVscratch
p1141
F3.091547412956185e-05
sVresults
p1142
F0.00034007021542518034
sVexisting
p1143
F5.042096660367106e-05
sVenjoyable
p1144
F0.00010084193320734212
sVtoggle
p1145
F0.00010084193320734212
sVfreakin
p1146
F5.042096660367106e-05
sVflashback
p1147
F0.0
sVseemed
p1148
F0.00013691977986543145
sVconcerned
p1149
F0.0001236618965182474
sVyoung
p1150
F5.130615623422855e-06
sVsend
p1151
F2.2819963310905243e-05
sVciting
p1152
F0.0
sVoutlooks
p1153
F5.042096660367106e-05
sVmonoamine
p1154
F0.0
sVsent
p1155
F2.5653078117114275e-05
sVstocked
p1156
F5.042096660367106e-05
sVtorture
p1157
F5.042096660367106e-05
sVcontinues
p1158
F3.091547412956185e-05
sVmanipulated
p1159
F0.0
sValcar
p1160
F0.0
sVdihydracodiene
p1161
F0.0
sVenfp
p1162
F0.0
sVcontinued
p1163
F0.0
sVcategories
p1164
F0.0
sVmagic
p1165
F6.18309482591237e-05
sVtransmission
p1166
F0.0
sVexperiencing
p1167
F0.0
sVeve
p1168
F0.0
sVfewer
p1169
F0.00020168386641468425
sVanxious
p1170
F0.0008571564322624081
sVcrazymeds
p1171
F0.0
sVobesity
p1172
F0.0
sVvisuals
p1173
F0.0
sVlicensed
p1174
F5.042096660367106e-05
sVvideo
p1175
F6.18309482591237e-05
sVhppd
p1176
F0.0
sVodd
p1177
F4.5639926621810486e-05
sVsoulcrushing
p1178
F0.0
sVindex
p1179
F5.042096660367106e-05
sVconsistently
p1180
F5.042096660367106e-05
sVunreal
p1181
F0.0
sVbismol
p1182
F0.0
sVnonrecreational
p1183
F0.0
sVproliferation
p1184
F0.0
sVled
p1185
F0.0
sVleg
p1186
F7.802196989643689e-05
sVpill_testing
p1187
F0.0
sVgathered
p1188
F0.0
sVsuicidality
p1189
F0.0
sVlel
p1190
F0.0
sVpunch
p1191
F0.00010084193320734212
sVpoverty
p1192
F5.042096660367106e-05
sVlex
p1193
F0.0
sVconsideration
p1194
F0.0
sVfifteen
p1195
F0.00020168386641468425
sVgreat
p1196
F0.0
sVoleptro
p1197
F0.0
sVreceive
p1198
F0.00010084193320734212
sVinvolved
p1199
F6.18309482591237e-05
sVscientology
p1200
F0.0
sVresulting
p1201
F3.091547412956185e-05
sVinsulin
p1202
F0.0
sVpopcorn
p1203
F5.042096660367106e-05
sVopinion
p1204
F0.00020168386641468425
sVmakes
p1205
F0.00031809816865221703
sVexplain
p1206
F0.000175549432266983
sVthats
p1207
F3.091547412956185e-05
sVholmes
p1208
F0.0
sVpanicked
p1209
F0.0
sVvalproic
p1210
F0.0
sVimpulsivity
p1211
F0.0
sVthiamine
p1212
F0.0
sVtools
p1213
F0.0001236618965182474
sVexenatide
p1214
F0.0
sVstanding
p1215
F1.1409981655452621e-05
sVconfidence
p1216
F5.042096660367106e-05
sVperfusion
p1217
F0.0
sVbinged
p1218
F0.0
sVdoubt
p1219
F2.2819963310905243e-05
sVoccurred
p1220
F5.042096660367106e-05
sVidra21
p1221
F0.0
sVrubbish
p1222
F5.042096660367106e-05
sV90mg
p1223
F0.0
sVbaby
p1224
F6.18309482591237e-05
sVballs
p1225
F5.042096660367106e-05
sVpracticing
p1226
F0.00010084193320734212
sVintegrating
p1227
F5.042096660367106e-05
sVclients
p1228
F6.18309482591237e-05
sVmodalert
p1229
F0.0
sVthin
p1230
F3.9010984948218445e-05
sVanticonvulsants
p1231
F0.0
sVpozac
p1232
F0.0
sVweaker
p1233
F5.042096660367106e-05
sVprocess
p1234
F9.274642238868553e-05
sVslim
p1235
F3.091547412956185e-05
sVpurposes
p1236
F0.0
sVhigh
p1237
F0.0
sVslip
p1238
F0.00015126289981101318
sVcitalapram
p1239
F0.0
sVdestroying
p1240
F0.0
sVmotivating
p1241
F0.0
sVamtriptyline
p1242
F0.0
sVanimal
p1243
F2.2819963310905243e-05
sVhormones
p1244
F0.00010084193320734212
sVcomedy
p1245
F5.042096660367106e-05
sVintelligent
p1246
F3.091547412956185e-05
sVblocks
p1247
F5.851647742232766e-05
sVtied
p1248
F3.091547412956185e-05
sVdoze
p1249
F0.0
sVweighed
p1250
F0.0
sVfits
p1251
F5.042096660367106e-05
sVht1a
p1252
F0.0
sVrealized
p1253
F0.0005042096660367106
sVcounter
p1254
F0.0001236618965182474
sVelement
p1255
F1.9505492474109223e-05
sVrealizes
p1256
F0.0
sVallow
p1257
F0.00010084193320734212
sVcounted
p1258
F0.0
sVevolutionary
p1259
F0.0
sVproduces
p1260
F0.00010084193320734212
sVmove
p1261
F0.0001950549247410922
sVproduced
p1262
F6.18309482591237e-05
sVselftext
p1263
F0.0
sVperfect
p1264
F0.0001236618965182474
sVdelay
p1265
F3.091547412956185e-05
sVcompulsions
p1266
F0.0
sVvaries
p1267
F0.0
sVmeantime
p1268
F5.042096660367106e-05
sVdegrees
p1269
F5.042096660367106e-05
sV2015
p1270
F0.0
sV2014
p1271
F0.0
sV2017
p1272
F0.0
sV2011
p1273
F0.0
sV2010
p1274
F0.0
sV2013
p1275
F0.0
sV2012
p1276
F0.0
sVphysicians
p1277
F0.0
sVdocs
p1278
F0.00030252579962202636
sVdisrupted
p1279
F0.0
sVbothering
p1280
F0.0
sVrealize
p1281
F0.00020168386641468425
sVschizophrenias
p1282
F0.0
sVdextromethorphan
p1283
F0.0
sVtruth
p1284
F0.00040190116368430404
sV75g
p1285
F0.0
sVexacerbated
p1286
F0.0
sVbump
p1287
F0.0
sVdeficiency
p1288
F0.0
sVmeta
p1289
F6.18309482591237e-05
sVstatic
p1290
F0.00015126289981101318
sVmeth
p1291
F0.0
sVtenth
p1292
F3.091547412956185e-05
sVedibles
p1293
F0.0
sVagoraphobia
p1294
F0.0
sVjanuvia
p1295
F0.0
sVfundamentally
p1296
F5.042096660367106e-05
sVborderline
p1297
F5.042096660367106e-05
sVtriazolam
p1298
F0.0
sVsever
p1299
F5.042096660367106e-05
sVshitload
p1300
F0.0
sVinteractions
p1301
F0.0
sVunipolar
p1302
F0.0
sVdisintegrating
p1303
F0.0
sVregulatory
p1304
F0.0
sVscary
p1305
F0.00035294676622569745
sVcould
p1306
F0.0
sVcompulsive
p1307
F0.00010084193320734212
sVregresses
p1308
F0.0
sVscare
p1309
F5.042096660367106e-05
sVblown
p1310
F0.00010084193320734212
sVimovane
p1311
F0.0
sVscene
p1312
F3.9010984948218445e-05
sVowned
p1313
F1.9505492474109223e-05
sVjesus
p1314
F0.0
sVlol
p1315
F0.0007058935324513949
sVfuckery
p1316
F0.0
sVsystem
p1317
F0.00011409981655452622
sVsensitivity
p1318
F0.0
sVpainful
p1319
F0.0
sVinterests
p1320
F3.091547412956185e-05
sVstomach
p1321
F0.00030915474129561844
sVinjectable
p1322
F0.0
sVbotox
p1323
F0.0
sVhaven
p1324
F0.00045639926621810487
sVsteel
p1325
F6.18309482591237e-05
sVpregab
p1326
F0.0
sVbother
p1327
F3.091547412956185e-05
sVreacted
p1328
F0.0
sVsteer
p1329
F0.0
sVfalse
p1330
F7.802196989643689e-05
sVreassuring
p1331
F0.0
sVtonight
p1332
F9.274642238868553e-05
sVclearly
p1333
F9.75274623705461e-05
sVdocuments
p1334
F3.091547412956185e-05
sVstudying
p1335
F0.00020168386641468425
sVprobly
p1336
F0.0
sVmechanism
p1337
F0.0
sVaccuracy
p1338
F0.0
sVflipside
p1339
F0.0
sV01
p1340
F5.042096660367106e-05
sVamazon435hm6h3ye
p1341
F0.0
sVlunesta
p1342
F0.0
sVcabinet
p1343
F0.00010084193320734212
sVsocializing
p1344
F0.0
sVplacement
p1345
F5.042096660367106e-05
sVhyperthyroidism
p1346
F0.0
sVstronger
p1347
F0.00010084193320734212
sVface
p1348
F7.986987158816836e-05
sVdesvenlafaxine
p1349
F0.0
sVwounded
p1350
F3.091547412956185e-05
sVpainting
p1351
F1.9505492474109223e-05
sVfact
p1352
F0.0003901098494821844
sVatmosphere
p1353
F5.042096660367106e-05
sVbring
p1354
F3.078369374053713e-05
sVbedroom
p1355
F5.042096660367106e-05
sVrough
p1356
F0.0001236618965182474
sVtrivial
p1357
F0.0
sVdbt
p1358
F0.0
sVdecade
p1359
F3.091547412956185e-05
sVpause
p1360
F1.1409981655452621e-05
sVellaborate
p1361
F0.0
sVwelbutrin
p1362
F0.0
sVjan
p1363
F0.0
sVmolecules
p1364
F0.0
sVriding
p1365
F1.1409981655452621e-05
sVhope
p1366
F0.0001385266218324171
sVmeant
p1367
F9.75274623705461e-05
sVcapsules
p1368
F0.0
sVlistened
p1369
F0.0
sVantagonism
p1370
F0.0
sVfamiliar
p1371
F9.274642238868553e-05
sVdetoxing
p1372
F0.0
sVcranky
p1373
F0.0
sVlucky
p1374
F9.75274623705461e-05
sVpathophysiology
p1375
F0.0
sVmolasses
p1376
F0.0
sVantagonist
p1377
F0.0
sVsmash
p1378
F0.00010084193320734212
sVmetabolite
p1379
F0.0
sVstuff
p1380
F0.000702197729067932
sVbtw
p1381
F0.0
sVtemporarily
p1382
F5.042096660367106e-05
sVremeronfeels
p1383
F0.0
sVframe
p1384
F3.091547412956185e-05
sVlazy
p1385
F0.00015457737064780922
sVbth
p1386
F0.0
sVpersrcibed
p1387
F0.0
sVinvega
p1388
F0.0
sVends
p1389
F3.9010984948218445e-05
sVstaring
p1390
F3.091547412956185e-05
sVrestrictions
p1391
F5.042096660367106e-05
sVketo
p1392
F0.0
sVinvited
p1393
F5.042096660367106e-05
sVdeficits
p1394
F0.0
sVetc
p1395
F0.00017957154681979995
sVeta
p1396
F0.0
sVadjusted
p1397
F0.0
sVco
p1398
F0.0001236618965182474
sVwtf
p1399
F0.0
sVindica
p1400
F0.0
sVpmc3894718
p1401
F0.0
sVca
p1402
F5.042096660367106e-05
sVstabile
p1403
F0.0
sVilegally
p1404
F0.0
sVshudder
p1405
F0.0
sVhawkins
p1406
F0.0
sVgenetic
p1407
F0.0
sVdrank
p1408
F6.18309482591237e-05
sVwaste
p1409
F0.00011703295484465532
sVcruddy
p1410
F0.0
sVanorgasmia
p1411
F0.0
sV250mg
p1412
F0.0
sVdecaf
p1413
F5.042096660367106e-05
sVplanner
p1414
F3.091547412956185e-05
sVgunpowder
p1415
F5.042096660367106e-05
sVspain
p1416
F0.0
sVoregon_sheriff_wrote_gun_control_is_not_the
p1417
F0.0
sVtricyclics
p1418
F0.0
sVgrinning
p1419
F0.0
sVfibrymyalgia
p1420
F0.0
sVbathtub
p1421
F5.042096660367106e-05
sVmanicy
p1422
F0.0
sVinsanely
p1423
F0.0
sVsurprisingly
p1424
F5.042096660367106e-05
sVagonizes
p1425
F0.0
sVsits
p1426
F1.9505492474109223e-05
sVconserve
p1427
F0.0
sVmirtazapine2dacs
p1428
F0.0
sVdigging
p1429
F6.18309482591237e-05
sVinfarction
p1430
F0.0
sVbali
p1431
F0.0
sVdusk
p1432
F0.0
sVdrink
p1433
F5.643677185765141e-05
sVupon
p1434
F2.2819963310905243e-05
sVphd
p1435
F0.0
sVphp
p1436
F0.00010084193320734212
sVbroccoli
p1437
F0.0
sVidentity
p1438
F0.00030252579962202636
sVdiabetes
p1439
F0.000806735465658737
sVdrawing
p1440
F3.9010984948218445e-05
sVnewest
p1441
F5.042096660367106e-05
sVbananas
p1442
F1.9505492474109223e-05
sVless
p1443
F0.0002565307811711428
sVmoments
p1444
F0.0002521048330183553
sVclocks
p1445
F5.042096660367106e-05
sVpaul
p1446
F0.0
sVglue
p1447
F5.042096660367106e-05
sVcombine
p1448
F3.091547412956185e-05
sVexempt
p1449
F0.0
sVincreased
p1450
F0.0013613660982991188
sVgovernment
p1451
F3.091547412956185e-05
sVchecking
p1452
F6.18309482591237e-05
sVincreases
p1453
F0.0005042096660367106
sVfive
p1454
F2.052246249369142e-05
sVnvm
p1455
F0.0
sVoverdosed
p1456
F0.0
sVbenadryl
p1457
F0.0
sVonion
p1458
F0.0030756789628239353
sVnerves
p1459
F0.00010084193320734212
sVtherapeutic
p1460
F0.0
sVopioid
p1461
F0.0
sVpoor
p1462
F3.591430936395999e-05
sVklonopin
p1463
F0.0
sVphenylalanine
p1464
F0.0
sVdaylight
p1465
F5.042096660367106e-05
sVchoosing
p1466
F5.042096660367106e-05
sVflush
p1467
F0.00010084193320734212
sVrecognition
p1468
F5.042096660367106e-05
sVliterally
p1469
F0.00040190116368430404
sVavoid
p1470
F0.0001597397431763367
sVpassion
p1471
F1.9505492474109223e-05
sVtherapists
p1472
F0.0
sVschedule
p1473
F0.00035294676622569745
sVpressure
p1474
F0.0011596822318844344
sVtargeting
p1475
F5.042096660367106e-05
sVstage
p1476
F1.9505492474109223e-05
sVgained
p1477
F0.0008656332756277317
sVlifestyle
p1478
F0.00020168386641468425
sVasks
p1479
F1.9505492474109223e-05
sVdilaudid
p1480
F0.0
sVgainer
p1481
F0.0
sVletters
p1482
F1.1409981655452621e-05
sVcyclobenzaprine
p1483
F0.0
sVassess
p1484
F0.0
sVfrustration
p1485
F0.0
sVgut
p1486
F5.042096660367106e-05
sVnaturally
p1487
F5.042096660367106e-05
sVfunction
p1488
F0.0005546306326403818
sVbelieve
p1489
F0.0002624295780754103
sVlowered
p1490
F0.0012605241650917767
sVcount
p1491
F0.0002473237930364948
sVplaces
p1492
F6.18309482591237e-05
sVharvested
p1493
F0.0
sVbooks
p1494
F6.18309482591237e-05
sVadderall
p1495
F0.0
sVproblem
p1496
F0.0004335793029071996
sVreciprocated
p1497
F0.0
sVobese
p1498
F0.00010084193320734212
sVnurses
p1499
F0.0
sVrecognize
p1500
F3.091547412956185e-05
sVcontribute
p1501
F0.00010084193320734212
sVconsumed
p1502
F5.042096660367106e-05
sVcompared
p1503
F0.00013691977986543145
sVvariety
p1504
F9.274642238868553e-05
sVdeadly
p1505
F0.0
sVwander
p1506
F5.042096660367106e-05
sVirratic
p1507
F0.0
sVdetails
p1508
F0.00015126289981101318
sVchubs
p1509
F0.0
sVquantities
p1510
F0.0
sVziprasidone
p1511
F0.0
sVhpa
p1512
F0.0
sVtranscranial
p1513
F0.0
sVfrisbee
p1514
F0.0
sVmonday
p1515
F0.0
sVpsychotics
p1516
F0.0
sVchance
p1517
F7.986987158816836e-05
sVidiopathic
p1518
F0.0
sVmatrix
p1519
F5.042096660367106e-05
sVrisperdal
p1520
F0.0
sVlasted
p1521
F0.0002521048330183553
sVrule
p1522
F6.18309482591237e-05
sVstrings
p1523
F3.091547412956185e-05
sVaetna
p1524
F0.0
sVstatus
p1525
F1.9505492474109223e-05
sVsuicidal
p1526
F0.0013109451316954477
sVsaver
p1527
F0.0
sVdoubts
p1528
F0.00010084193320734212
sVdesirable
p1529
F0.0
sVblisters
p1530
F0.0
sVyikes
p1531
F0.0
sVdiss
p1532
F0.0
sVsaved
p1533
F5.851647742232766e-05
sVrelationships
p1534
F0.00015126289981101318
sVhealthland
p1535
F0.0
sVphysiological
p1536
F0.0
sVlsds
p1537
F0.0
sVworth
p1538
F0.0005071428043268398
sVale
p1539
F0.0
sVblanket
p1540
F3.091547412956185e-05
sVglimepiride
p1541
F0.0
sVmanic
p1542
F0.000756314499055066
sVmania
p1543
F0.0
sVprogression
p1544
F0.0
sVupload
p1545
F5.042096660367106e-05
sVurinating
p1546
F0.0
sVblasphemy
p1547
F5.042096660367106e-05
sVshut
p1548
F3.422994496635786e-05
sVchem
p1549
F0.0
sVbipolar
p1550
F0.001512628998110132
sVconsisting
p1551
F0.0
sVtold
p1552
F0.00048763731185273056
sVtextures
p1553
F0.0
sVsimultaneously
p1554
F0.00010084193320734212
sVresidual
p1555
F5.042096660367106e-05
sVobtained
p1556
F0.0
sVrigorously
p1557
F0.0
sVitems
p1558
F3.091547412956185e-05
sVstudy
p1559
F0.0005564785343321133
sVsmoke
p1560
F0.00018549284477737107
sVstressed
p1561
F5.042096660367106e-05
sVaka
p1562
F0.0
sVenvious
p1563
F0.0
sVsecure
p1564
F3.091547412956185e-05
sVsearch
p1565
F9.75274623705461e-05
sVhighly
p1566
F0.0001236618965182474
sVhindsight
p1567
F0.0
sVtotal
p1568
F0.00011703295484465532
sVexperimentation
p1569
F0.0
sVnegative
p1570
F0.00034007021542518034
sVinsult
p1571
F5.042096660367106e-05
sVprogram
p1572
F0.00015457737064780922
sVabusing
p1573
F0.0
sVtolerated
p1574
F0.0
sVhaha
p1575
F0.00020168386641468425
sVaware
p1576
F0.0
sV3723a635b4269dd35dc25bc269025ddd85632212
p1577
F0.0
sVbackwards
p1578
F2.2819963310905243e-05
sVadamant
p1579
F0.0
sVblocking
p1580
F0.00027823926716605664
sVword
p1581
F5.130615623422855e-06
sV1996
p1582
F5.042096660367106e-05
sVwork
p1583
F0.0
sVrefusing
p1584
F0.0
sVworn
p1585
F5.042096660367106e-05
sVtheories
p1586
F0.0
sVoxide
p1587
F0.0
sVprecuneus
p1588
F0.0
sVacetylcholine
p1589
F0.0
sVindicated
p1590
F5.042096660367106e-05
sVimpair
p1591
F0.0
sVindifferent
p1592
F5.042096660367106e-05
sVcites
p1593
F0.0
sVrecovery
p1594
F9.274642238868553e-05
sVprovide
p1595
F0.00015126289981101318
sVnuts
p1596
F6.18309482591237e-05
sVsleeplessness
p1597
F0.0
sVig
p1598
F0.0
sVrookie
p1599
F0.0
sVmoron
p1600
F0.00010084193320734212
sVmemorization
p1601
F5.042096660367106e-05
sVgamble
p1602
F5.042096660367106e-05
sVlam
p1603
F5.042096660367106e-05
sVfever
p1604
F0.0
sVdoable
p1605
F0.0
sVarcs
p1606
F5.042096660367106e-05
sVlad
p1607
F3.091547412956185e-05
sVearlier
p1608
F7.986987158816836e-05
sVlab
p1609
F0.0
sVcustoms
p1610
F0.0
sVpublicised
p1611
F0.0
sVlay
p1612
F9.274642238868553e-05
sVchilled
p1613
F5.042096660367106e-05
sVoccurence
p1614
F0.0
sVappreciate
p1615
F0.0001236618965182474
sVstimulate
p1616
F0.0
sVorder
p1617
F5.643677185765141e-05
sVpdoc
p1618
F0.0
sV7yrs
p1619
F0.0
sVneti
p1620
F0.0
sVconsent
p1621
F5.042096660367106e-05
sVawful
p1622
F0.000175549432266983
sVnsfw
p1623
F0.0
sVdefintiley
p1624
F0.0
sVsomnolence
p1625
F0.0
sVsomewhere
p1626
F3.422994496635786e-05
sVrecreational
p1627
F0.000756314499055066
sVproduction
p1628
F0.00010084193320734212
sVacupuncture
p1629
F0.0
sVprecipitate
p1630
F0.0
sVversus
p1631
F3.091547412956185e-05
sVeventually
p1632
F0.0009075773988660792
sVcoffee
p1633
F0.0002473237930364948
sVaffected
p1634
F0.0002521048330183553
sVwoken
p1635
F0.0
sVremission
p1636
F0.0
sVsafe
p1637
F0.0001950549247410922
sVsleepiness
p1638
F0.0
sVbreak
p1639
F0.00040190116368430404
sVlifelong
p1640
F0.0
sVbank
p1641
F3.091547412956185e-05
sVbread
p1642
F3.091547412956185e-05
sVreasonably
p1643
F0.00010084193320734212
sVclassified
p1644
F0.0
sVl
p1645
F7.802196989643689e-05
sVreasonable
p1646
F0.00015457737064780922
sVfeeds
p1647
F5.042096660367106e-05
sVcetirizine
p1648
F0.0
sVplea
p1649
F0.0
sVgating
p1650
F0.0
sVslew
p1651
F0.0
sVnetwork
p1652
F5.042096660367106e-05
sVhooked
p1653
F5.042096660367106e-05
sVstrangers
p1654
F9.274642238868553e-05
sVmedicine
p1655
F0.0005042096660367106
sVneuroskeptic
p1656
F0.0
sVbarrier
p1657
F3.091547412956185e-05
sVmetoclopramide
p1658
F0.0
sVleftovers
p1659
F0.0
sVadmits
p1660
F0.0
sVappointments
p1661
F0.0
sVnmda
p1662
F0.0
sVforcibly
p1663
F0.0
sVrecovering
p1664
F5.042096660367106e-05
sVcreated
p1665
F0.0004033677328293685
sVcreates
p1666
F5.042096660367106e-05
sVchronotherapy
p1667
F0.0
sVassumptions
p1668
F0.0
sVanother
p1669
F0.00030783693740537134
sVkazmierczak
p1670
F0.0
sVrated
p1671
F5.042096660367106e-05
sVrates
p1672
F0.0
sVenhancing
p1673
F0.00010084193320734212
sVinexact
p1674
F0.0
sVavanza
p1675
F0.0
sVlast
p1676
F0.0002103552405603371
sVebay
p1677
F5.042096660367106e-05
sVbinds
p1678
F0.0
sV5mg
p1679
F0.0
sVhacking
p1680
F0.0
sVsolely
p1681
F0.00010084193320734212
sVstalls
p1682
F0.0
sVforced
p1683
F3.091547412956185e-05
sVlatter
p1684
F0.00020168386641468425
sVovertook
p1685
F0.0
sVluxury
p1686
F0.0
sVtransmit
p1687
F0.0
sVaspirates
p1688
F0.0
sVcircles
p1689
F5.042096660367106e-05
sVgravy
p1690
F3.091547412956185e-05
sVmethylphenidate
p1691
F0.0
sVastepro
p1692
F0.0
sVinvolving
p1693
F3.091547412956185e-05
sVscripts
p1694
F5.042096660367106e-05
sVphase
p1695
F5.042096660367106e-05
sVautopsy
p1696
F0.00010084193320734212
sVsmoked
p1697
F0.00015126289981101318
sVmyfitnesspal
p1698
F0.0
sVaunt
p1699
F0.0
sVsun
p1700
F1.1409981655452621e-05
sVboyfriends
p1701
F5.042096660367106e-05
sVresponded
p1702
F0.0
sVreserve
p1703
F5.042096660367106e-05
sVovarian
p1704
F0.0
sVreligions
p1705
F0.0
sVdopey
p1706
F0.0
sVsubtle
p1707
F0.00020168386641468425
sVd2
p1708
F0.0
sVd3
p1709
F0.0
sVguidance
p1710
F0.0
sVversed
p1711
F0.0
sVlayman
p1712
F0.0
sVgingko
p1713
F0.0
sVadequate
p1714
F0.0
sVindepth
p1715
F0.0
sVdc
p1716
F0.0
sVpreferred
p1717
F0.00010084193320734212
sVdx
p1718
F0.0
sVcarries
p1719
F3.422994496635786e-05
sVnasty
p1720
F0.0001236618965182474
sVdr
p1721
F0.00020168386641468425
sVruns
p1722
F9.75274623705461e-05
sVcovering
p1723
F3.091547412956185e-05
sVhumanish
p1724
F0.0
sVanalytical
p1725
F0.0
sVidentify
p1726
F6.18309482591237e-05
sVnortryptaline
p1727
F0.0
sVobserved
p1728
F5.042096660367106e-05
sVdepends
p1729
F0.00018549284477737107
sVhorrendous
p1730
F0.00015126289981101318
sVtechniques
p1731
F0.0
sVsnoozing
p1732
F0.0
sVaway
p1733
F0.0
sVcaved
p1734
F0.0
sVimipramine
p1735
F0.0
sVunable
p1736
F0.00021640831890693292
sVdrawn
p1737
F1.9505492474109223e-05
sVaccord
p1738
F0.0
sVwd
p1739
F0.0
sVterms
p1740
F0.00013653844731876453
sVhandful
p1741
F0.0
sVwk
p1742
F0.0
sVws
p1743
F0.0
sVoverestimated
p1744
F0.0
sVkitchen
p1745
F5.042096660367106e-05
sVcop
p1746
F3.091547412956185e-05
sVessentially
p1747
F0.0
sVpsychologists
p1748
F0.0
sVill
p1749
F5.851647742232766e-05
sVparalyzing
p1750
F0.0
sVbrag
p1751
F0.0
sVdisappears
p1752
F3.091547412956185e-05
sVpeacefully
p1753
F0.0
sVtough
p1754
F9.75274623705461e-05
sVseizure
p1755
F0.0
sVabilify
p1756
F0.0
sVtons
p1757
F0.00015457737064780922
sVrefill
p1758
F5.042096660367106e-05
sVchka
p1759
F0.0
sVspeak
p1760
F0.00021640831890693292
sVgratitude
p1761
F5.042096660367106e-05
sVbeloved
p1762
F5.042096660367106e-05
sVrelaxing
p1763
F0.00015126289981101318
sVattacked
p1764
F0.0
sVcarbamazepine
p1765
F0.0
sVcoherent
p1766
F0.0
sVbuprenorphine
p1767
F0.0
sVcomfortable
p1768
F0.00015457737064780922
sVeuropeanneuropsychopharmacology
p1769
F0.0
sVphysician
p1770
F0.0
sVinhibit
p1771
F0.0
sVspasms
p1772
F0.0
sVaim
p1773
F3.091547412956185e-05
sVapplies
p1774
F0.0
sVaid
p1775
F0.0
sVvoice
p1776
F3.091547412956185e-05
sVmealtime
p1777
F0.0
sVmistake
p1778
F2.2819963310905243e-05
sVcons
p1779
F5.042096660367106e-05
sVweaning
p1780
F0.0
sVskipping
p1781
F3.091547412956185e-05
sVdizzy
p1782
F0.0
sVcone
p1783
F5.042096660367106e-05
sVrecurrent
p1784
F0.0
sVjerry
p1785
F0.0
sVindictment
p1786
F0.0
sVindependent
p1787
F3.091547412956185e-05
sVnih
p1788
F0.0
sVsynapsesneuro
p1789
F0.0
sVhang
p1790
F2.2819963310905243e-05
sVevil
p1791
F7.802196989643689e-05
sVhand
p1792
F0.0
sVhypnagogic
p1793
F0.0
sVprescribed
p1794
F0.0038824144284826724
sVflubromazelam
p1795
F0.0
sVkept
p1796
F0.0001950549247410922
sVwhereby
p1797
F0.0
sVscenario
p1798
F0.0
sVmirtazipine
p1799
F0.0
sVcongrats
p1800
F0.0
sVeps
p1801
F0.0
sVtho
p1802
F0.0006050515992440527
sVorgasms
p1803
F5.042096660367106e-05
sVcontact
p1804
F9.75274623705461e-05
sVprescribes
p1805
F0.0
sVprescriber
p1806
F0.0
sVthc
p1807
F0.0
sVmusical
p1808
F5.042096660367106e-05
sVphoto
p1809
F1.9505492474109223e-05
sV2844
p1810
F0.0
sVquotes
p1811
F3.091547412956185e-05
sVthanks
p1812
F0.0003901098494821844
sVsmoothies
p1813
F0.0
sVthyroid
p1814
F0.0
sVadding
p1815
F0.00020168386641468425
sVsubutex
p1816
F0.0
sVhydroxozine
p1817
F0.0
sVboard
p1818
F3.9010984948218445e-05
sVevidenced
p1819
F0.0
sVmindfuck
p1820
F0.0
sVcaps
p1821
F3.091547412956185e-05
sVunfounded
p1822
F0.0
sVbpd
p1823
F0.0
sVbpm
p1824
F0.0
sVnight
p1825
F0.0003847961717567142
sVinvaluable
p1826
F0.0
sVsecurity
p1827
F1.9505492474109223e-05
sVstarvation
p1828
F0.0
sVhassle
p1829
F0.0
sVpsychogenic
p1830
F0.0
sVantihypertensives
p1831
F0.0
sVpurple
p1832
F0.00010084193320734212
sVreflexively
p1833
F0.0
sVunavoidable
p1834
F0.0
sVcomments
p1835
F0.0004537886994330396
sVasking
p1836
F0.00013653844731876453
sVdenied
p1837
F6.18309482591237e-05
sVbeating
p1838
F3.091547412956185e-05
sVphen
p1839
F0.0
sVsubstitution
p1840
F0.0
sVgraduated
p1841
F5.042096660367106e-05
sVpost
p1842
F0.0004946475860729896
sVproperties
p1843
F0.00013653844731876453
sVlightheaded
p1844
F0.0
sVmonths
p1845
F0.0015409339054546286
sVcontinous
p1846
F0.0
sVhorizon
p1847
F5.042096660367106e-05
sVdigestion
p1848
F0.0
sVwasting
p1849
F5.042096660367106e-05
sVstumble
p1850
F0.0
sVstrangely
p1851
F5.042096660367106e-05
sVwal
p1852
F0.0
sVcausative
p1853
F0.0
sVfight
p1854
F5.851647742232766e-05
sVaccordingly
p1855
F5.042096660367106e-05
sVclinical
p1856
F0.0
sVway
p1857
F0.00031809816865221703
sVwax
p1858
F1.9505492474109223e-05
sVwar
p1859
F0.00015457737064780922
sVlowest
p1860
F5.042096660367106e-05
sVbecoming
p1861
F0.0001236618965182474
sVdead
p1862
F3.422994496635786e-05
sVtrue
p1863
F0.0001026898348990736
sVreset
p1864
F5.042096660367106e-05
sVbypassing
p1865
F0.0
sVmaximum
p1866
F0.00015126289981101318
sVemotional
p1867
F0.00030252579962202636
sVlatuda
p1868
F0.0
sVabstract
p1869
F5.042096660367106e-05
sVreligiously
p1870
F0.0
sVmuscular
p1871
F3.091547412956185e-05
sVevidence
p1872
F0.0002473237930364948
sVengeldinger
p1873
F0.0
sVphysical
p1874
F0.0
sVweaned
p1875
F0.0
sVtopped
p1876
F0.0
sVreality
p1877
F0.0005042096660367106
sVinterested
p1878
F2.2819963310905243e-05
sVholding
p1879
F1.1409981655452621e-05
sVtest
p1880
F0.00021456041721520144
sVshrink
p1881
F9.274642238868553e-05
sVwelcome
p1882
F1.026123124684571e-05
sVconvincing
p1883
F0.0
sVupdate
p1884
F5.042096660367106e-05
sVscores
p1885
F0.0
sVdetox
p1886
F0.0
sVomega
p1887
F0.0
sVcheated
p1888
F5.042096660367106e-05
sVtogether
p1889
F0.0
sV5kg
p1890
F0.0
sVantidpressents
p1891
F0.0
sVstick
p1892
F0.00021640831890693292
sVconcept
p1893
F5.042096660367106e-05
sVbolus
p1894
F0.0
sVswitched
p1895
F0.00034007021542518034
sVcerenia
p1896
F0.0
sVswitches
p1897
F5.042096660367106e-05
sVmirt
p1898
F0.0
sVsupplement
p1899
F0.0
sVmicrowave
p1900
F5.042096660367106e-05
sVgrateful
p1901
F0.0
sVbattle
p1902
F0.00010084193320734212
sVcertainly
p1903
F0.00011409981655452622
sVgrape
p1904
F3.091547412956185e-05
sVzone
p1905
F9.75274623705461e-05
sVpermanently
p1906
F0.00015126289981101318
sV50lbs
p1907
F0.0
sVrhythm
p1908
F0.00020168386641468425
sVprotective
p1909
F5.042096660367106e-05
sV3am
p1910
F0.0
sVbenzodiazepines
p1911
F0.0
sVseemingly
p1912
F0.00015126289981101318
sVtrouble
p1913
F4.61755406108057e-05
sVblast
p1914
F3.091547412956185e-05
sVpresented
p1915
F3.091547412956185e-05
sValtering
p1916
F5.042096660367106e-05
sVturns
p1917
F9.127985324362097e-05
sVgun
p1918
F3.091547412956185e-05
sVp
p1919
F0.00011703295484465532
sVsoooo
p1920
F5.042096660367106e-05
sVmoclobemide
p1921
F0.0
sVsidewalk
p1922
F5.042096660367106e-05
sVupper
p1923
F5.042096660367106e-05
sVregret
p1924
F6.18309482591237e-05
sVcost
p1925
F1.9505492474109223e-05
sVupped
p1926
F0.0
sVneuropsychiatry
p1927
F0.0
sVmigraines
p1928
F0.0
sVassistance
p1929
F0.0
sVshared
p1930
F6.18309482591237e-05
sVappeal
p1931
F5.042096660367106e-05
sValertness
p1932
F0.0
sVparadoxical
p1933
F0.0
sVsatisfy
p1934
F0.0
sVht6
p1935
F0.0
sVcyp3a4
p1936
F0.0
sVappears
p1937
F3.422994496635786e-05
sVchange
p1938
F0.00048763731185273056
sVsending
p1939
F3.091547412956185e-05
sVcondoms
p1940
F0.00010084193320734212
sVsleepys
p1941
F0.0
sVtrial
p1942
F0.00027823926716605664
sVusually
p1943
F0.000702197729067932
sVdspd
p1944
F0.0
sVpancreatitis
p1945
F0.0
sVregardless
p1946
F0.00020168386641468425
sVextra
p1947
F9.75274623705461e-05
sVcvp06t4
p1948
F0.0
sVrarely
p1949
F0.0
sVmarket
p1950
F0.0007728868532390462
sVbury
p1951
F0.0
sVlive
p1952
F6.156738748107426e-05
sVclub
p1953
F0.00010084193320734212
sVclue
p1954
F3.091547412956185e-05
sVfixed
p1955
F3.091547412956185e-05
sVcar
p1956
F7.802196989643689e-05
sVcap
p1957
F5.042096660367106e-05
sVibd
p1958
F0.0
sVcolonidine
p1959
F0.0
sVcat
p1960
F0.0001236618965182474
sVhardest
p1961
F0.00020168386641468425
sVcal
p1962
F0.0
sVibs
p1963
F0.0
sVibu
p1964
F0.0
sVstimulating
p1965
F0.0
sVheart
p1966
F0.0005851647742232766
sVhears
p1967
F0.0
sVdecember
p1968
F0.0
sVtopic
p1969
F0.0001236618965182474
sV7pm
p1970
F0.0
sVdxm
p1971
F0.0
sVrefine
p1972
F0.0
sVexclude
p1973
F0.00010084193320734212
sVhandle
p1974
F0.0001026898348990736
sVcardio
p1975
F0.0
sVoccur
p1976
F0.00015126289981101318
sVproductive
p1977
F0.00010084193320734212
sVdatura
p1978
F0.0
sVfortunately
p1979
F0.0
sVdiscussion
p1980
F6.18309482591237e-05
sVmeans
p1981
F0.00034007021542518034
sVwrite
p1982
F5.704990827726311e-05
sVnonstop
p1983
F5.042096660367106e-05
sVproduct
p1984
F0.0006801404308503607
sVinfluenced
p1985
F5.042096660367106e-05
sVproduce
p1986
F9.274642238868553e-05
sVdrastic
p1987
F0.0
sVwhathaveyou
p1988
F0.0
sVgoal
p1989
F0.00015126289981101318
sVremember
p1990
F0.00015904908432610852
sVwhenever
p1991
F9.274642238868553e-05
sVghb
p1992
F0.0
sVtypical
p1993
F0.00018549284477737107
sVindeed
p1994
F5.851647742232766e-05
sVbrain
p1995
F0.001150824055972444
sVtablets
p1996
F0.0
sVcold
p1997
F0.0003706043570080752
sVstill
p1998
F0.0
sVethic
p1999
F0.0
sVacknowledge
p2000
F0.0
sVtemporolimbical
p2001
F0.0
sVholing
p2002
F0.0
sVreacting
p2003
F0.0
sVforms
p2004
F0.00010084193320734212
sVwindow
p2005
F2.2819963310905243e-05
sVnon
p2006
F9.748169684503426e-05
sVnod
p2007
F0.00010084193320734212
sVpsychothropic
p2008
F0.0
sVadrenaline
p2009
F0.0
sVhalf
p2010
F0.0001385266218324171
sVdiscuss
p2011
F0.00015126289981101318
sVwont
p2012
F0.0002521048330183553
sVsusceptibility
p2013
F0.0
sVdeliriants
p2014
F0.0
sV3grams
p2015
F0.0
sVjames
p2016
F5.042096660367106e-05
sVdrop
p2017
F9.75274623705461e-05
sVconcerta
p2018
F0.0
sVdaytrana
p2019
F0.0
sVentirely
p2020
F0.00013691977986543145
sVem
p2021
F1.1409981655452621e-05
sVen
p2022
F0.0010202106462755408
sVeh
p2023
F3.9010984948218445e-05
sVfixes
p2024
F0.00010084193320734212
sVyeah
p2025
F0.0006801404308503607
sVchallenges
p2026
F0.0
sVex
p2027
F0.00018549284477737107
sVyear
p2028
F0.00024626954992429704
sVokay
p2029
F0.000587394008461675
sVhappen
p2030
F7.986987158816836e-05
sVavoided
p2031
F0.0002521048330183553
sVpills
p2032
F0.006403462758666226
sVer
p2033
F9.75274623705461e-05
sVshown
p2034
F0.00021456041721520144
sVmedications
p2035
F0.0
sVspace
p2036
F6.18309482591237e-05
sVfurthermore
p2037
F5.042096660367106e-05
sVincrease
p2038
F0.0008656332756277317
sVzmjjijj
p2039
F0.0
sVrational
p2040
F0.0
sVviable
p2041
F0.0
sVshows
p2042
F5.130615623422855e-06
sVdiagnostic
p2043
F0.0
sVprosource
p2044
F0.0
sVunwanted
p2045
F0.00020168386641468425
sVcounteracted
p2046
F0.0
sVcarb
p2047
F3.091547412956185e-05
sVrls
p2048
F0.0
sVcare
p2049
F0.00021640831890693292
sVcycles
p2050
F5.042096660367106e-05
sVcouldn
p2051
F0.00018255970648724194
sVdeprivation
p2052
F0.0
sVhonest
p2053
F0.0001950549247410922
sVsuffice
p2054
F5.042096660367106e-05
sVblind
p2055
F3.091547412956185e-05
sVinitial
p2056
F9.75274623705461e-05
sVxl
p2057
F0.0
sVdirectly
p2058
F7.802196989643689e-05
sVxr
p2059
F0.0
sVimpossible
p2060
F0.00021640831890693292
sVmessage
p2061
F0.00027307689463752907
sVraped
p2062
F3.091547412956185e-05
sVtomorrow
p2063
F0.00010084193320734212
sVzap
p2064
F5.042096660367106e-05
sVsize
p2065
F3.422994496635786e-05
sVsheer
p2066
F5.042096660367106e-05
sVchecked
p2067
F0.0019476748701623963
sVcaught
p2068
F1.9505492474109223e-05
sVremotely
p2069
F3.091547412956185e-05
sVcatastrophic
p2070
F0.0
sVfriend
p2071
F3.591430936395999e-05
sV__mirtazapine__
p2072
F0.0
sVnutrition
p2073
F0.0
sVmostly
p2074
F0.0002535714021634199
sVbrains
p2075
F0.00015457737064780922
sVmirtaz
p2076
F0.0
sVx3
p2077
F0.0
sVeliminated
p2078
F0.0
sVpeck
p2079
F0.0
sVpng
p2080
F5.042096660367106e-05
sV1800mg
p2081
F0.0
sVmagnesium
p2082
F0.0
sVtroublesome
p2083
F0.0
sVoverdosing
p2084
F0.0
sVremained
p2085
F0.0
sVslap
p2086
F5.042096660367106e-05
sVinpatient
p2087
F0.0
sVsupervision
p2088
F0.0
sVanger
p2089
F0.00015457737064780922
sVbreakfast
p2090
F9.274642238868553e-05
sVrecover
p2091
F3.9010984948218445e-05
sVstoners
p2092
F0.0002521048330183553
sV1000000
p2093
F0.0
sVonline
p2094
F0.0002473237930364948
sVego
p2095
F0.0
sVimpairment
p2096
F0.0
sVbegin
p2097
F5.851647742232766e-05
sVprice
p2098
F0.00044862632690451207
sVimportantly
p2099
F0.0
sVforever
p2100
F0.00015457737064780922
sVdream
p2101
F0.00030915474129561844
sVsteady
p2102
F0.0
sVtooth
p2103
F0.00010084193320734212
sVprofessional
p2104
F6.18309482591237e-05
sVtypically
p2105
F0.0004537886994330396
sVrambling
p2106
F0.0
sVfifty
p2107
F6.18309482591237e-05
sVdiscovered
p2108
F5.851647742232766e-05
sVpromosing
p2109
F0.0
sV120mg
p2110
F0.0
sVground
p2111
F1.9505492474109223e-05
sVratio
p2112
F5.042096660367106e-05
sVtitle
p2113
F6.18309482591237e-05
sVprogesterones
p2114
F0.0
sVdeveloped
p2115
F0.0
sValcoholism
p2116
F0.00015126289981101318
sVtruly
p2117
F0.00015457737064780922
sVcannot
p2118
F7.986987158816836e-05
sVstroll
p2119
F0.0
sVhusband
p2120
F9.274642238868553e-05
sVmedicated
p2121
F0.00010084193320734212
sVconcert
p2122
F5.042096660367106e-05
sVburst
p2123
F3.091547412956185e-05
sVphysically
p2124
F0.0005042096660367106
sVamtriptalyne
p2125
F0.0
sVnamely
p2126
F0.0
sVactively
p2127
F0.0
sVasleep
p2128
F0.0006492249567207988
sVconcern
p2129
F0.00015126289981101318
sV3
p2130
F0.00117522811051162
sVherbal
p2131
F0.00020168386641468425
sVlisinopril
p2132
F0.0
sVtherapies
p2133
F0.0
sVnotice
p2134
F0.0001597397431763367
sVblame
p2135
F9.75274623705461e-05
sVseroqeul
p2136
F0.0
sVhurts
p2137
F0.0002521048330183553
sVarticle
p2138
F9.75274623705461e-05
sVhydrate
p2139
F0.0
sVndri
p2140
F0.0
sVapdb
p2141
F0.0
sVnoopept
p2142
F0.0
sV150
p2143
F0.0
sVjeans
p2144
F5.042096660367106e-05
sVlearning
p2145
F0.00015457737064780922
sVsynergize
p2146
F0.0
sVcycling
p2147
F0.0004033677328293685
sVneurogenesis
p2148
F0.0
sVinformed
p2149
F5.042096660367106e-05
sVmarkedly
p2150
F0.0
sVdangers
p2151
F0.00010084193320734212
sVsesh
p2152
F0.0
sVexhaustion
p2153
F5.042096660367106e-05
sVdiscontinuing
p2154
F0.0
sVfigured
p2155
F6.18309482591237e-05
sV1ml
p2156
F0.0
sVsuspected
p2157
F0.0
sV1mg
p2158
F0.0
sVcountless
p2159
F0.0
sVdeveloping
p2160
F5.042096660367106e-05
sVtrick
p2161
F5.851647742232766e-05
sVcigs
p2162
F0.0
sValcoholic
p2163
F5.042096660367106e-05
sVanxieties
p2164
F0.0
sVembrace
p2165
F5.042096660367106e-05
sVhelium
p2166
F0.0
sVawhile
p2167
F0.00015126289981101318
sVworry
p2168
F9.127985324362097e-05
sVdevelop
p2169
F0.00021640831890693292
sVfiguring
p2170
F0.00010084193320734212
sVcoworkers
p2171
F0.00010084193320734212
sVinvestigated
p2172
F0.0
sVclosest
p2173
F3.091547412956185e-05
sVenjoyment
p2174
F0.0
sVfoam
p2175
F5.042096660367106e-05
sVfruit
p2176
F1.1409981655452621e-05
sVanecdotal
p2177
F0.0
sVfavorites
p2178
F5.042096660367106e-05
sVpassing
p2179
F5.130615623422855e-06
sVmentally
p2180
F0.0004033677328293685
sVsevere
p2181
F0.0007728868532390462
sValleviate
p2182
F5.042096660367106e-05
sVcialis
p2183
F0.0
sVheaps
p2184
F0.0
sVcomment
p2185
F0.00018549284477737107
sVescitalopram
p2186
F0.0
sVrelevant
p2187
F0.0
sVtouch
p2188
F5.704990827726311e-05
sVspeed
p2189
F2.5653078117114275e-05
sVdeath
p2190
F9.75274623705461e-05
sVangiotensin
p2191
F0.0
sVthinking
p2192
F0.00023406590968931063
sVimprovement
p2193
F0.00015457737064780922
sVtreatment
p2194
F0.001563049964713803
sVstruck
p2195
F5.042096660367106e-05
sVreal
p2196
F0.0
sVread
p2197
F0.0001483297615208841
sVtwitchy
p2198
F0.0
sVdiscontinue
p2199
F0.0
sVstools
p2200
F0.0
sVearly
p2201
F6.845988993271573e-05
sVpsy
p2202
F0.0
sVlistening
p2203
F3.091547412956185e-05
sVusing
p2204
F0.00046780924787355753
sVbodyweightfitness
p2205
F0.0
sVruled
p2206
F5.042096660367106e-05
sVtegretol
p2207
F0.0
sVx4
p2208
F0.0
sVpounds
p2209
F0.0009274642238868555
sVsuppliers
p2210
F0.0
sVmiracle
p2211
F0.0
sVbenefit
p2212
F0.000806735465658737
sVoccasions
p2213
F0.0
sVduration
p2214
F0.0
sVbusiness
p2215
F1.026123124684571e-05
sVasap
p2216
F0.0
sVequivalent
p2217
F3.091547412956185e-05
sVstrained
p2218
F0.0
sVhectic
p2219
F0.0
sVfractured
p2220
F0.0
sVsixty
p2221
F0.0
sVrutaecarpine
p2222
F0.0
sVexciting
p2223
F1.1409981655452621e-05
sVthrow
p2224
F0.0002473237930364948
sVfriendship
p2225
F6.18309482591237e-05
sVsri
p2226
F0.0
sVdrugsdb
p2227
F0.0
sVbenzos
p2228
F0.0
sVwolf
p2229
F0.0
sVgreatly
p2230
F0.00020168386641468425
sVinternalize
p2231
F5.042096660367106e-05
sVbackup
p2232
F5.042096660367106e-05
sVflashbacks
p2233
F0.0
sVresearching
p2234
F0.0
sVprotests
p2235
F0.0
sVmethylone
p2236
F0.0
sVsnooze
p2237
F0.0
sVbedtime
p2238
F0.0
sVprazosin
p2239
F0.0
sVlog
p2240
F5.042096660367106e-05
sVarea
p2241
F5.130615623422855e-06
sVaren
p2242
F0.0001487878530792628
sVremoving
p2243
F5.042096660367106e-05
sVpaywall
p2244
F0.0
sVstark
p2245
F0.0
sVstart
p2246
F0.0004335793029071996
sVcats
p2247
F0.00015126289981101318
sVlow
p2248
F0.000513449174495368
sVlot
p2249
F0.0
sVallergic
p2250
F0.00010084193320734212
sVcuriously
p2251
F0.0
sVlymph
p2252
F0.0
sVtrying
p2253
F0.0005476791194617258
sVhappening
p2254
F5.851647742232766e-05
sVstanford
p2255
F0.0
sVdefault
p2256
F5.042096660367106e-05
sVsadness
p2257
F0.0
sVbeliefs
p2258
F0.0
sVillnesses
p2259
F0.0
sV600
p2260
F3.091547412956185e-05
sVdescribe
p2261
F6.18309482591237e-05
sVmoved
p2262
F0.00021456041721520144
sV1200
p2263
F0.0
sV225mg
p2264
F0.0
sVevenings
p2265
F0.00015126289981101318
sVforcing
p2266
F0.00010084193320734212
sVgaining
p2267
F0.00035294676622569745
sVpolar
p2268
F5.042096660367106e-05
sVpoop
p2269
F5.042096660367106e-05
sVdrift
p2270
F0.0
sVsuited
p2271
F0.00010084193320734212
sVbuilding
p2272
F5.851647742232766e-05
sVridden
p2273
F3.091547412956185e-05
sVacutally
p2274
F0.0
sVtitration
p2275
F0.0
sVamaryl
p2276
F0.0
sVoutlining
p2277
F0.0
sVskeleton
p2278
F1.9505492474109223e-05
sV5htp
p2279
F0.0
sVmonth
p2280
F0.0004792192295290102
sVthoughtful
p2281
F5.042096660367106e-05
sVcardiologist
p2282
F0.0
sVmessy
p2283
F5.042096660367106e-05
sVcarpet
p2284
F5.042096660367106e-05
sVequivalence
p2285
F0.0
sVfoster
p2286
F5.042096660367106e-05
sVsthat
p2287
F0.0
sVnodes
p2288
F0.0
sVpatently
p2289
F0.0
sVhorror
p2290
F5.042096660367106e-05
sVbalancing
p2291
F6.18309482591237e-05
sVminded
p2292
F5.042096660367106e-05
sVdecide
p2293
F0.00015457737064780922
sVgeneralised
p2294
F0.0
sVheaven
p2295
F3.091547412956185e-05
sVnorthern_illinois_university_shooting
p2296
F0.0
sVmanager
p2297
F9.274642238868553e-05
sVsedation
p2298
F0.0
sVthrobbing
p2299
F5.042096660367106e-05
sVamnesiac
p2300
F0.0
sVfence
p2301
F6.18309482591237e-05
sV2012_minneapolis_workplace_shooting
p2302
F0.0
sVstreets
p2303
F5.042096660367106e-05
sVunheard
p2304
F0.0
sVpregaba
p2305
F0.0
sVorgasm
p2306
F0.00010084193320734212
sVenhancement
p2307
F0.00010084193320734212
sVdissertation
p2308
F0.00010084193320734212
sVcues
p2309
F5.042096660367106e-05
sVdarkness
p2310
F5.042096660367106e-05
sVinduce
p2311
F0.0
sVemotions
p2312
F0.00035294676622569745
sVinsomniacs
p2313
F0.0
sVlearned
p2314
F0.0002521048330183553
sVloose
p2315
F7.802196989643689e-05
sVanswers
p2316
F3.091547412956185e-05
sVselective
p2317
F0.0
sVstrong
p2318
F0.0002535714021634199
sVultra
p2319
F0.0
sVahead
p2320
F3.9010984948218445e-05
sVhypochondria
p2321
F0.0
sVmdma
p2322
F0.0
sVvasodilation
p2323
F0.0
sVamount
p2324
F0.00021456041721520144
sVheroin
p2325
F0.00015126289981101318
sVtrainer
p2326
F5.042096660367106e-05
sVfamily
p2327
F0.000175549432266983
sVrequiring
p2328
F5.042096660367106e-05
sVput
p2329
F0.0003232287842756399
sVaimed
p2330
F0.0
sVtrained
p2331
F5.042096660367106e-05
sVtoys
p2332
F5.042096660367106e-05
sVeldepryl
p2333
F0.0
sVtakes
p2334
F0.0001597397431763367
sVdpdr
p2335
F0.0
sVcontains
p2336
F3.091547412956185e-05
sVtaken
p2337
F0.0001847021624432228
sVinjury
p2338
F5.042096660367106e-05
sVoutpatient
p2339
F0.0
sVsite
p2340
F0.00015604393979287378
sVexcuse
p2341
F3.9010984948218445e-05
sVbroke
p2342
F1.9505492474109223e-05
sVhelped
p2343
F0.0013602808617007214
sVhistory
p2344
F0.00013653844731876453
sVpusher
p2345
F0.0
sVpushed
p2346
F5.851647742232766e-05
sVphrase
p2347
F3.091547412956185e-05
sVlacks
p2348
F6.18309482591237e-05
sVfirmly
p2349
F5.042096660367106e-05
sVcalms
p2350
F0.0
sV1056
p2351
F0.0
sVstayed
p2352
F0.00011703295484465532
sVvisteril
p2353
F0.0
sVfu
p2354
F0.0
sVreuptake
p2355
F0.0
sVfa
p2356
F0.0
sVtries
p2357
F1.9505492474109223e-05
sVremeronwithdrawal
p2358
F0.0
sVcriticize
p2359
F0.0
sVuracil
p2360
F0.0
sVenzymes
p2361
F0.0
sVdocumentation
p2362
F5.042096660367106e-05
sVovernight
p2363
F5.042096660367106e-05
sVanytime
p2364
F5.042096660367106e-05
sVnegligible
p2365
F0.0
sVegg
p2366
F5.042096660367106e-05
sVuninstall
p2367
F5.042096660367106e-05
sVhelp
p2368
F0.000605412643563897
sVslouch
p2369
F0.0
sVsoon
p2370
F6.156738748107426e-05
sVbcuz
p2371
F0.0
sVperceptive
p2372
F0.0
sVffi
p2373
F0.0
sVcommitted
p2374
F3.091547412956185e-05
sVhell
p2375
F0.00011703295484465532
sVmcdonalds
p2376
F0.0
sVseeming
p2377
F5.042096660367106e-05
sVactually
p2378
F0.0003129675530287942
sVsystems
p2379
F0.00010084193320734212
sVevening
p2380
F0.00018549284477737107
sVmotivated
p2381
F0.00015126289981101318
sVyo
p2382
F6.18309482591237e-05
sVya
p2383
F6.18309482591237e-05
sVknocking
p2384
F5.042096660367106e-05
sVfloating
p2385
F3.091547412956185e-05
sVvomit
p2386
F0.00015126289981101318
sVdesperately
p2387
F0.0001236618965182474
sVerection
p2388
F5.042096660367106e-05
sVholiday
p2389
F3.091547412956185e-05
sVfully
p2390
F0.00011409981655452622
sVstopped
p2391
F0.000702197729067932
sVreferred
p2392
F0.0
sVheavy
p2393
F5.704990827726311e-05
sVrestless
p2394
F0.0
sVtrip_report_mirtazapine_remeron_225mg
p2395
F0.0
sVevens
p2396
F0.0
sVbeyond
p2397
F3.078369374053713e-05
sVzonegran
p2398
F0.0
sVvertigo
p2399
F5.042096660367106e-05
sVemotionally
p2400
F0.00030252579962202636
sVrobert
p2401
F0.0
sVsince
p2402
F0.0002975757061585256
sVmeditating
p2403
F0.0
sVdouglas
p2404
F0.0
sVsustain
p2405
F0.0
sV7
p2406
F0.00017114972483178934
sVissue
p2407
F0.0004096153419562937
sVass
p2408
F0.0002473237930364948
sVpun
p2409
F5.042096660367106e-05
sVreason
p2410
F0.0002966595230417682
sVbase
p2411
F1.1409981655452621e-05
sVunsightly
p2412
F0.0
sVask
p2413
F0.0002052246249369142
sVterrible
p2414
F0.0004096153419562937
sVamerican
p2415
F0.0
sVexpecting
p2416
F5.851647742232766e-05
sVprobability
p2417
F0.0
sVmisc
p2418
F5.042096660367106e-05
sVdysthymia
p2419
F0.0
sVnutritionist
p2420
F0.0
sVmiss
p2421
F2.5653078117114275e-05
sVpropranolol
p2422
F0.0
sVwonderful
p2423
F7.802196989643689e-05
sVhivemind
p2424
F0.0
sVscheme
p2425
F3.091547412956185e-05
sVrewired
p2426
F0.0
sVselling
p2427
F5.042096660367106e-05
sVtrapped
p2428
F0.0
sVbowel
p2429
F0.0
sV1918
p2430
F0.0
sVboredom
p2431
F0.0
sVblindly
p2432
F0.0
sVgrew
p2433
F5.042096660367106e-05
sVvalporic
p2434
F0.0
sVkindly
p2435
F5.042096660367106e-05
sVgrogginess
p2436
F0.0
sVkindle
p2437
F0.0
sVgps
p2438
F0.0
sVdeciding
p2439
F0.0
sVwasnt
p2440
F0.0
sValongside
p2441
F6.18309482591237e-05
sVsitatuation
p2442
F0.0
sVsubstantial
p2443
F5.042096660367106e-05
sVsentences
p2444
F5.042096660367106e-05
sVconcentration
p2445
F9.274642238868553e-05
sVorgans
p2446
F5.042096660367106e-05
sVlie
p2447
F7.802196989643689e-05
sVpotentiated
p2448
F0.0
sVlil
p2449
F5.042096660367106e-05
sVuseless
p2450
F5.042096660367106e-05
sVtowards
p2451
F1.026123124684571e-05
sVquote
p2452
F3.091547412956185e-05
sVexperiences
p2453
F0.00034007021542518034
sVchanneling
p2454
F0.0
sVeaten
p2455
F6.18309482591237e-05
sValpha
p2456
F0.0005042096660367106
sVapproved
p2457
F0.0
sVgain
p2458
F0.003648025947288298
sVsalary
p2459
F0.0
sVclear
p2460
F5.130615623422855e-05
sVziggy
p2461
F0.0
sVclean
p2462
F1.026123124684571e-05
sVlatest
p2463
F3.091547412956185e-05
sVphysics
p2464
F5.042096660367106e-05
sVhyper
p2465
F0.0
sVaaaaand
p2466
F0.0
sVbooze
p2467
F0.00010084193320734212
sVvynase
p2468
F0.0
sVstalker
p2469
F5.042096660367106e-05
sVnorthern
p2470
F0.00010084193320734212
sVparanoid
p2471
F0.0002521048330183553
sVparanoia
p2472
F0.0
sVflights
p2473
F5.042096660367106e-05
sVpretty
p2474
F0.001326373488239427
sVcircle
p2475
F0.0
sVmeanwhile
p2476
F0.0
sVtrees
p2477
F1.9505492474109223e-05
sVfamous
p2478
F3.091547412956185e-05
sVfeels
p2479
F0.00021640831890693292
sVpretending
p2480
F3.091547412956185e-05
sVcombinations
p2481
F0.0002521048330183553
sVintensify
p2482
F0.0
sVfluff
p2483
F0.0
sVhypo
p2484
F0.0
sVwithdrawal
p2485
F0.0
sVx
p2486
F5.042096660367106e-05
sVthrowing
p2487
F5.851647742232766e-05
sVschizophrenic
p2488
F0.0
sVschizophrenia
p2489
F0.00010084193320734212
sVrtms
p2490
F0.0
sVclose
p2491
F0.0002535714021634199
sVhorrid
p2492
F0.0
sVpictures
p2493
F3.091547412956185e-05
sVwow
p2494
F0.00010084193320734212
sVwon
p2495
F8.722046559818855e-05
sVwok
p2496
F0.0
sVassertive
p2497
F5.042096660367106e-05
sVprobably
p2498
F0.0004335793029071996
sVconditions
p2499
F0.00020168386641468425
sVpictured
p2500
F0.0
sVanticholinergic
p2501
F0.0
sVstatistically
p2502
F0.0
sVmissing
p2503
F2.2819963310905243e-05
sVdibilitating
p2504
F0.0
sVleague
p2505
F0.0
sVsecrets
p2506
F0.00015126289981101318
sVsensitive
p2507
F4.5639926621810486e-05
sVbuzz
p2508
F9.274642238868553e-05
sVhistamine
p2509
F0.0
sVexperimental
p2510
F0.0
sVliked
p2511
F0.0001236618965182474
sVtofranil
p2512
F0.0
sVwhatever
p2513
F0.0001597397431763367
sV100mg
p2514
F0.0
sVlikes
p2515
F3.9010984948218445e-05
sVdescribed
p2516
F6.18309482591237e-05
sVdamn
p2517
F0.00030252579962202636
sVmetronidazole
p2518
F0.0
sVempty
p2519
F2.052246249369142e-05
sVgenerating
p2520
F3.091547412956185e-05
sVsuspicious
p2521
F0.00010084193320734212
sV0003
p2522
F0.0
sVelse
p2523
F0.0001282653905855714
sVnorepherine
p2524
F0.0
sVliver
p2525
F0.00021640831890693292
sVlook
p2526
F0.00017957154681979995
sVsmart
p2527
F3.091547412956185e-05
sVguide
p2528
F5.042096660367106e-05
sVpack
p2529
F0.0002624295780754103
sVoverlooked
p2530
F0.0
sVredacted
p2531
F5.042096660367106e-05
sVjpg
p2532
F0.00015457737064780922
sVhereis
p2533
F0.0
sVterminator
p2534
F0.0
sVready
p2535
F3.078369374053713e-05
sVhydromorphone
p2536
F0.0
sVblissful
p2537
F0.0
sVbaseline
p2538
F0.0002521048330183553
sVanymore
p2539
F0.00023406590968931063
sVenergizing
p2540
F0.0
sVused
p2541
F0.0011980480738225253
sVtemporary
p2542
F0.0004537886994330396
sVdime
p2543
F5.042096660367106e-05
sVbonus
p2544
F0.00010084193320734212
sVoverweight
p2545
F0.0
sV25gram
p2546
F0.0
sV000
p2547
F0.00020168386641468425
sVuses
p2548
F1.9505492474109223e-05
sVuser
p2549
F0.0013293653875711595
sVhaunting
p2550
F0.0
sV009
p2551
F0.0
sV80
p2552
F0.0
sVolder
p2553
F6.845988993271573e-05
sVmemantine
p2554
F0.0
sVpoland
p2555
F0.0
sVobviously
p2556
F0.0002535714021634199
sVappalled
p2557
F0.0
sVgrossly
p2558
F0.0
sVabstain
p2559
F0.0
sVtolerability
p2560
F0.0
sVreviewed
p2561
F0.0
sVpraying
p2562
F5.042096660367106e-05
sVpocinki_nonrestorative_sleep_2013_s
p2563
F0.0
sVguaranteed
p2564
F0.0
sVexercising
p2565
F0.0
sVtripsit
p2566
F0.0
sVsedated
p2567
F0.0
sVtransformation
p2568
F0.0
sVmarch
p2569
F5.042096660367106e-05
sVlacking
p2570
F5.042096660367106e-05
sVevaluate
p2571
F0.0
sVgame
p2572
F3.422994496635786e-05
sVantidepresant
p2573
F0.0
sVsubmission
p2574
F5.042096660367106e-05
sVinterestingly
p2575
F5.042096660367106e-05
sVmanifest
p2576
F0.00010084193320734212
sVpopular
p2577
F0.00010084193320734212
sVeeg
p2578
F0.0
sVterminology
p2579
F0.0
sVbrakes
p2580
F5.042096660367106e-05
sVsoma
p2581
F0.0
sVcreation
p2582
F5.042096660367106e-05
sVexperienced
p2583
F0.0006050515992440527
sVerupts
p2584
F0.0
sVdescribing
p2585
F0.00015126289981101318
sVpounding
p2586
F5.042096660367106e-05
sVminimal
p2587
F0.0
sVsweating
p2588
F5.042096660367106e-05
sVeating
p2589
F0.0012366189651824738
sVanecdotes
p2590
F0.0
sVrub
p2591
F5.042096660367106e-05
sVgoooood
p2592
F0.0
sVrue
p2593
F0.0
sVstep
p2594
F3.422994496635786e-05
sVnegatives
p2595
F0.0
sVlasts
p2596
F6.18309482591237e-05
sVbecome
p2597
F5.643677185765141e-05
sVache
p2598
F0.0
sVtaboo
p2599
F0.0
sV1snri
p2600
F0.0
sVwouldnt
p2601
F0.0
sVsimulation
p2602
F0.0
sVidk
p2603
F0.0
sVblock
p2604
F0.00018549284477737107
sVantihistaminic
p2605
F0.0
sVdisclosure
p2606
F0.0
sVvisit
p2607
F3.9010984948218445e-05
sVwithin
p2608
F0.00012550979820997885
sVnonsense
p2609
F0.0
sVstatistics
p2610
F5.042096660367106e-05
sVconsultation
p2611
F0.0
sVinept
p2612
F0.0
sVpsychoactive
p2613
F0.0
sVproperly
p2614
F3.422994496635786e-05
sVnewer
p2615
F0.0004537886994330396
sVrussian
p2616
F5.042096660367106e-05
sVtryptophan
p2617
F0.0
sVtachycardia
p2618
F0.0
sVdissolves
p2619
F0.0
sVfda
p2620
F0.0
sVpersisting
p2621
F0.0
sVrestarted
p2622
F5.042096660367106e-05
sV2gram
p2623
F0.0
sVsimilar
p2624
F0.00028524954138631556
sVtricyclic
p2625
F0.0
sVadults
p2626
F5.042096660367106e-05
sVdoesn
p2627
F0.00033862063114590847
sVunwise
p2628
F0.0
sVkidney
p2629
F0.00010084193320734212
sVinsomniac
p2630
F0.0
sVamounts
p2631
F0.0001236618965182474
sVnah
p2632
F5.042096660367106e-05
sVnap
p2633
F0.0
sVelectrical
p2634
F0.00015126289981101318
sVdepartment
p2635
F5.042096660367106e-05
sVhydrated
p2636
F0.0
sVvisits
p2637
F0.0
sVdrag
p2638
F1.1409981655452621e-05
sVrested
p2639
F0.0
sVvalidity
p2640
F0.0
sVeval
p2641
F5.042096660367106e-05
sVstructure
p2642
F0.00010084193320734212
sVindependently
p2643
F0.0
sVe
p2644
F8.722046559818855e-05
sVpractically
p2645
F5.042096660367106e-05
sVsvg
p2646
F0.0
sVsedative
p2647
F0.0
sVwellbeing
p2648
F0.0
sVvisual
p2649
F0.00010084193320734212
sVdepth
p2650
F3.9010984948218445e-05
sVignorant
p2651
F0.0002521048330183553
sVrequires
p2652
F0.00010084193320734212
sVsounded
p2653
F0.0
sVgp
p2654
F0.0
sVpsyche
p2655
F0.0
sVgo
p2656
F0.0
sVpsycho
p2657
F0.00010084193320734212
sVruminate
p2658
F0.0
sVstave
p2659
F0.0
sVsuits
p2660
F5.042096660367106e-05
sVselegiline
p2661
F0.0
sVworred
p2662
F0.0
sVwave
p2663
F1.9505492474109223e-05
sVunstructured
p2664
F0.0
sVfacebook
p2665
F0.0
sVtelling
p2666
F0.0001026898348990736
sVnausea
p2667
F0.0
sVmichael
p2668
F0.0
sVflickered
p2669
F0.0
sVchristpsychosis
p2670
F0.0
sVwaking
p2671
F0.00030915474129561844
sVjump
p2672
F3.9010984948218445e-05
sVplays
p2673
F5.851647742232766e-05
sVexacerbate
p2674
F0.0
sVunhelpful
p2675
F3.091547412956185e-05
sValprazolam
p2676
F0.0
sVexperiment
p2677
F6.18309482591237e-05
sVprescribe
p2678
F0.0007058935324513949
sVfollowing
p2679
F7.986987158816836e-05
sVfocused
p2680
F0.00021640831890693292
sVzopiclone
p2681
F0.0
sVwithdrawing
p2682
F0.0
sVpreferentially
p2683
F0.0
sVproducts
p2684
F0.0006801404308503607
sVdopamin
p2685
F0.0
sVgene
p2686
F0.00015126289981101318
sVflexeril
p2687
F0.0
sVstabilization
p2688
F0.0
sVrecommended_routine
p2689
F0.0
sVwin
p2690
F1.9505492474109223e-05
sVmanage
p2691
F9.75274623705461e-05
sVcollaborating
p2692
F0.0
sVwih
p2693
F0.0
sVorganon_international
p2694
F0.0
sVsinging
p2695
F1.9505492474109223e-05
sVtrimipramine
p2696
F0.0
sVtcas
p2697
F0.0
sVcrap
p2698
F9.274642238868553e-05
sVremains
p2699
F1.9505492474109223e-05
sVsimpler
p2700
F5.042096660367106e-05
sVpopped
p2701
F0.00020168386641468425
sVstarted
p2702
F0.0009926684040243781
sVbecomes
p2703
F9.75274623705461e-05
sVconfused
p2704
F3.091547412956185e-05
sVweened
p2705
F0.0
sVendocrinologist
p2706
F0.0
sVsalad
p2707
F5.042096660367106e-05
sVzyrtec
p2708
F0.0
sVlapse
p2709
F0.0
sVcrossed
p2710
F3.091547412956185e-05
sVmeet
p2711
F9.274642238868553e-05
sVinhibitor
p2712
F0.0
sVcontrol
p2713
F0.0010511261204051029
sVwaaaay
p2714
F0.0
sVescapes
p2715
F5.042096660367106e-05
sVhalloween
p2716
F0.0
sVsought
p2717
F5.042096660367106e-05
sVbowl
p2718
F0.00010084193320734212
sVstemmed
p2719
F0.0
sVblessings
p2720
F0.0
sVfart
p2721
F3.091547412956185e-05
sVfatigue
p2722
F0.0
sVcontraceptives
p2723
F0.0
sVserotonergic
p2724
F0.0
sVincluding
p2725
F0.00013653844731876453
sVmentioned
p2726
F0.0005042096660367106
sVconverting
p2727
F0.0
sVbrittle
p2728
F0.0
sVimbalance
p2729
F0.0
sVhalflife
p2730
F0.0
sVfrontal
p2731
F3.091547412956185e-05
sVsweets
p2732
F5.042096660367106e-05
sVhands
p2733
F0.00015457737064780922
sVfront
p2734
F4.5639926621810486e-05
sVcircadian
p2735
F0.0
sVhandy
p2736
F0.00010084193320734212
sVmods
p2737
F0.0
sVuniversity
p2738
F0.00035294676622569745
sVmesolimbic
p2739
F0.0
sVdoesnt
p2740
F0.00015457737064780922
sVmode
p2741
F3.091547412956185e-05
sVunwind
p2742
F5.042096660367106e-05
sVflunked
p2743
F0.0
sVaggravated
p2744
F0.0
sVcorticosteroids
p2745
F0.0
sVstimulants
p2746
F0.0
sVspecial
p2747
F1.026123124684571e-05
sVreboot
p2748
F5.042096660367106e-05
sVobsessive
p2749
F0.0
sVbarbiturates
p2750
F0.0
sVreacts
p2751
F0.0
sVattending
p2752
F0.0
sVcompletely
p2753
F0.0001597397431763367
sVect
p2754
F0.0
sVhostile
p2755
F5.042096660367106e-05
sVroute
p2756
F5.851647742232766e-05
sVdiminished
p2757
F0.0
sVtimes
p2758
F0.0
sVkeen
p2759
F3.091547412956185e-05
sVhassling
p2760
F0.0
sVtimed
p2761
F5.042096660367106e-05
sVmad
p2762
F1.1409981655452621e-05
sVprospective
p2763
F0.0
sVswapped
p2764
F5.042096660367106e-05
sVdepress_appd
p2765
F0.0
sVpowerful
p2766
F0.00015126289981101318
sVimproving
p2767
F6.18309482591237e-05
sVpermenant
p2768
F0.0
sVbitch
p2769
F0.00010084193320734212
sVdrinker
p2770
F5.042096660367106e-05
sVquality
p2771
F0.0005461537892750581
sVingested
p2772
F0.0
sVmanagement
p2773
F5.042096660367106e-05
sVpractitioners
p2774
F0.0
sVguys
p2775
F0.00020168386641468425
sVclomipramine
p2776
F0.0
sVattack
p2777
F5.704990827726311e-05
sVneurotransmitter
p2778
F0.0
sVperfectly
p2779
F3.9010984948218445e-05
sVcnnz7pl
p2780
F0.0
sVprone
p2781
F0.0
sVcraziest
p2782
F0.00010084193320734212
sVexactly
p2783
F0.0002738395597308629
sVlists
p2784
F0.00015126289981101318
sVchemicals
p2785
F0.0
sVwaist
p2786
F3.091547412956185e-05
sVben
p2787
F0.0
sVbed
p2788
F0.0013293653875711595
sVprobiotics
p2789
F0.0
sVcravings
p2790
F0.0005546306326403818
sVproviding
p2791
F0.0
sVbet
p2792
F1.1409981655452621e-05
sVbehaviors
p2793
F0.0
sVtabs
p2794
F3.091547412956185e-05
sVneed
p2795
F0.0004771472529783256
sVtale
p2796
F3.091547412956185e-05
sVphysique
p2797
F0.0
sVinstance
p2798
F7.802196989643689e-05
sVgrounding
p2799
F0.0
sVmountaintop
p2800
F0.0
sVmileage
p2801
F0.0
sVintentions
p2802
F0.0
sVconnected
p2803
F1.1409981655452621e-05
sVconsequences
p2804
F5.042096660367106e-05
sVupset
p2805
F0.00010084193320734212
sVindo
p2806
F0.0
sVdrunken
p2807
F0.00010084193320734212
sVindoor
p2808
F0.0011092612652807636
sVanyway
p2809
F0.00031208787958574756
sVmirtazapie
p2810
F0.0
sVbased
p2811
F0.00011703295484465532
sVtire
p2812
F6.18309482591237e-05
sVhadn
p2813
F7.802196989643689e-05
sVnitrous
p2814
F0.0
sVreceptors
p2815
F0.001512628998110132
sVemployer
p2816
F0.0
sVreactive
p2817
F0.0
sVfuel
p2818
F0.0
sVsulfur
p2819
F5.042096660367106e-05
sVachieve
p2820
F0.00015126289981101318
sVslows
p2821
F5.042096660367106e-05
sVoverall
p2822
F0.0004033677328293685
sV120
p2823
F0.0
sVtbh
p2824
F0.0
sV125
p2825
F0.0
sVneurosteroids
p2826
F0.0
sVtecas
p2827
F0.0
sVendless
p2828
F3.091547412956185e-05
sVevident
p2829
F0.00020168386641468425
sVtobacco
p2830
F3.091547412956185e-05
sVtuned
p2831
F0.0001236618965182474
sVthalamic
p2832
F0.0
sVnutmeg
p2833
F0.0
sVprocessed
p2834
F5.042096660367106e-05
sVacording
p2835
F0.0
sVgrams
p2836
F0.0
sVdph
p2837
F0.0
sVprayers
p2838
F5.042096660367106e-05
sVcomputer
p2839
F6.18309482591237e-05
sVpowder
p2840
F9.274642238868553e-05
sVdesperate
p2841
F5.042096660367106e-05
sVdanger
p2842
F1.1409981655452621e-05
sVlux
p2843
F0.0
sVnightmare
p2844
F1.9505492474109223e-05
sVillusory
p2845
F0.0
sVwillpower
p2846
F0.0
sVtend
p2847
F0.0010084193320734213
sVmacros
p2848
F0.0
sVstate
p2849
F0.0004291208344304029
sVcorrectly
p2850
F1.9505492474109223e-05
sVhorrible
p2851
F0.00040190116368430404
sVneither
p2852
F6.18309482591237e-05
sVkidneys
p2853
F5.042096660367106e-05
sVcomparable
p2854
F0.0
sVsole
p2855
F0.0
sVinterfere
p2856
F5.042096660367106e-05
sVkicking
p2857
F0.00015126289981101318
sVkey
p2858
F1.9505492474109223e-05
sVdeliriant
p2859
F0.0
sVgroup
p2860
F0.00011409981655452622
sVmonitor
p2861
F5.042096660367106e-05
sVhits
p2862
F5.851647742232766e-05
sVcareer
p2863
F3.091547412956185e-05
sVantidepressives
p2864
F0.0
sVpresentations
p2865
F0.0
sVminature
p2866
F0.0
sVstrains
p2867
F0.0
sVadmit
p2868
F0.0
sVcouncilling
p2869
F0.0
sVjourney
p2870
F0.0
sVafaik
p2871
F0.0
sVtuesday
p2872
F0.0
sVprebiotics
p2873
F0.0
sVwilly
p2874
F0.0
sVquit
p2875
F0.0007110559049799224
sVaccomplishing
p2876
F0.0
sVyay
p2877
F0.0
sVaddition
p2878
F0.00035294676622569745
sVimmense
p2879
F0.0
sVslowly
p2880
F0.00011703295484465532
sVtreat
p2881
F0.0004291208344304029
sVsars
p2882
F0.0
sVsenses
p2883
F0.0
sVcontrolled
p2884
F0.00010084193320734212
sVreleasing
p2885
F5.042096660367106e-05
sVcontroller
p2886
F0.0
sVdecreased
p2887
F0.0
sVkicks
p2888
F0.00020168386641468425
sVsmoking
p2889
F0.0002473237930364948
sVnovel
p2890
F0.0
sVkava
p2891
F0.0
sVharder
p2892
F0.00018549284477737107
sVchalk
p2893
F0.0
sV160mg
p2894
F0.0
sVdiscontinuation
p2895
F0.0
sVbcguidelines
p2896
F0.0
sVexaminer
p2897
F0.0
sVkamil330
p2898
F0.0
sVneuron
p2899
F0.0
sVsustenance
p2900
F0.0
sVexamined
p2901
F0.0
sVpiracetam
p2902
F0.0
sVgeneric
p2903
F0.0004537886994330396
sVbegan
p2904
F9.274642238868553e-05
sVstrange
p2905
F0.0001483297615208841
sVparty
p2906
F0.0007419713791094843
sVforgotten
p2907
F3.091547412956185e-05
sVeffect
p2908
F0.0003334900155224856
sVrenin
p2909
F0.0
sVfrequently
p2910
F0.00030252579962202636
sVdelsym
p2911
F0.0
sVenergized
p2912
F0.0
sVreflection
p2913
F0.0
sVlunch
p2914
F3.9010984948218445e-05
sVawakenings
p2915
F0.0
sVnonetheless
p2916
F3.091547412956185e-05
sVwell
p2917
F0.0
sVtrials
p2918
F0.0
sVmistaked
p2919
F0.0
sVchicro
p2920
F0.0
sVincreasingly
p2921
F5.042096660367106e-05
sVdesyrel
p2922
F0.0
sVdose
p2923
F0.0037815724952753303
sVsources
p2924
F0.00015126289981101318
sVdistant
p2925
F6.18309482591237e-05
sVlately
p2926
F9.274642238868553e-05
sVcoordination
p2927
F0.0
sVspells
p2928
F6.18309482591237e-05
sVdensity
p2929
F9.274642238868553e-05
sVtheroadback
p2930
F0.0
sVheaded
p2931
F5.851647742232766e-05
sVpatricia
p2932
F0.0
sVbullshit
p2933
F0.00020168386641468425
sVask_wikibot
p2934
F0.0
sVclouded
p2935
F0.0
sVfate
p2936
F5.042096660367106e-05
sV5am
p2937
F0.00015126289981101318
sVimmediately
p2938
F5.851647742232766e-05
sVprominent
p2939
F5.042096660367106e-05
sVloss
p2940
F0.0005564785343321133
sVnecessary
p2941
F4.5639926621810486e-05
sVemetophobia
p2942
F0.0
sVcortef
p2943
F0.0
sVsizes
p2944
F5.042096660367106e-05
sValternatively
p2945
F5.042096660367106e-05
sVcandy
p2946
F5.042096660367106e-05
sVsized
p2947
F3.091547412956185e-05
sV4mg
p2948
F0.0
sVamitryptiline
p2949
F0.0
sVpage
p2950
F0.0001236618965182474
sVshed
p2951
F0.0
sVhydrocortisone
p2952
F0.0
sVfrancisco
p2953
F0.0
sVhome
p2954
F0.00022819963310905244
sVdemonstrates
p2955
F0.0
sVinflammation
p2956
F0.0
sVreaching
p2957
F0.00010084193320734212
sVsyrian
p2958
F0.0
sVnaps
p2959
F0.0
sVfreedom
p2960
F1.9505492474109223e-05
sVfubinaca
p2961
F0.0
sVtongue
p2962
F3.9010984948218445e-05
sVduloxetine
p2963
F0.0
sVequally
p2964
F0.0
sVpreviously
p2965
F0.00020168386641468425
sVh1
p2966
F0.0
sVmushrooms
p2967
F9.274642238868553e-05
sVreceptor
p2968
F0.0
sVpointless
p2969
F0.00020168386641468425
sVprozac
p2970
F0.0
sVadditional
p2971
F9.274642238868553e-05
sVvolinanserin
p2972
F0.0
sVnoticed
p2973
F0.00013691977986543145
sVdelusions
p2974
F0.00010084193320734212
sVinner
p2975
F3.9010984948218445e-05
sVexposure
p2976
F0.0
sVnorth
p2977
F1.9505492474109223e-05
sVhr
p2978
F0.00010084193320734212
sVht
p2979
F0.0
sVescrow
p2980
F0.0
sVcollected
p2981
F5.042096660367106e-05
sVneutral
p2982
F0.0004033677328293685
sVhi
p2983
F0.00010084193320734212
sVvalerian
p2984
F0.0
sVho
p2985
F1.9505492474109223e-05
sVhm
p2986
F0.0
sVha
p2987
F3.9010984948218445e-05
sVeat
p2988
F0.0005476791194617258
sVcells
p2989
F3.091547412956185e-05
sVsigned
p2990
F1.9505492474109223e-05
sVboluses
p2991
F0.0
sVetifoxine
p2992
F0.0
sVprojecting
p2993
F0.0
sVstories
p2994
F0.00015457737064780922
sVpiece
p2995
F0.0004096153419562937
sVedronax
p2996
F0.0
sVlived
p2997
F3.091547412956185e-05
sVjudgemental
p2998
F5.042096660367106e-05
sVsneak
p2999
F5.042096660367106e-05
sVeducation
p3000
F5.042096660367106e-05
sVfunctions
p3001
F0.00010084193320734212
sVoffensive
p3002
F3.091547412956185e-05
sVastounding
p3003
F0.0
sVstay
p3004
F0.0002396096147645051
sVadditionally
p3005
F5.042096660367106e-05
sVfriends
p3006
F0.0001597397431763367
sVsilenor
p3007
F0.0
sVatheist
p3008
F0.0004033677328293685
sVpersistent
p3009
F0.0001236618965182474
sVescitlopram
p3010
F0.0
sVdiagnosis
p3011
F0.0
sVindirectly
p3012
F0.0
sVpowders
p3013
F0.0
sVoffenses
p3014
F0.0
sVbuddy
p3015
F5.042096660367106e-05
sVtremors
p3016
F0.0
sVblacking
p3017
F0.0
sVswap
p3018
F3.091547412956185e-05
sVteaching
p3019
F0.0
sVsorry
p3020
F0.0002053796697981472
sVmagnetic
p3021
F0.0
sVupdated
p3022
F3.091547412956185e-05
sVdownstream
p3023
F0.0
sVhypertensive
p3024
F0.0
sVmisunderstanding
p3025
F0.0
sVaffect
p3026
F0.000756314499055066
sVvast
p3027
F0.0
sVhci
p3028
F0.0
sVskills
p3029
F0.00021640831890693292
sVsolution
p3030
F0.0
sVunrelated
p3031
F0.00015126289981101318
sVprotriptyline
p3032
F0.0
sVcholesterol
p3033
F0.00020168386641468425
sVenhance
p3034
F5.851647742232766e-05
sVups
p3035
F0.00015457737064780922
sVclothes
p3036
F6.18309482591237e-05
sVforce
p3037
F0.00011703295484465532
sV10g
p3038
F0.0
sVpalps
p3039
F0.0
sVlikely
p3040
F0.0013613660982991188
sVeven
p3041
F0.000605412643563897
sVbromantane
p3042
F0.0
sVasia
p3043
F0.0
sVlights
p3044
F3.091547412956185e-05
sVnew
p3045
F0.0
sVtips
p3046
F3.091547412956185e-05
sVever
p3047
F0.0002308777030540285
sVmed
p3048
F0.0007728868532390462
sVmea
p3049
F0.0
sVpresynaptic
p3050
F0.0
sVmeo
p3051
F0.0
sVnever
p3052
F0.0
sVweirdly
p3053
F0.0
sVmet
p3054
F5.851647742232766e-05
sVactive
p3055
F9.75274623705461e-05
sV100
p3056
F0.0002925823871116383
sVeliciting
p3057
F0.0
sVdry
p3058
F0.00021640831890693292
sVtaper
p3059
F0.0
sVdrs
p3060
F0.0
sV3nkz1u
p3061
F0.0
sVjama
p3062
F0.0
sVsuitable
p3063
F0.0
sVmenial
p3064
F0.0
sVclonidine
p3065
F0.0
sVfantastic
p3066
F9.274642238868553e-05
sVhunch
p3067
F0.0
sVschooling
p3068
F0.0
sVsliced
p3069
F0.0
sVcounts
p3070
F3.091547412956185e-05
sVarmy
p3071
F3.091547412956185e-05
sVsnri
p3072
F0.0
sVarms
p3073
F1.9505492474109223e-05
sVarmo
p3074
F0.0
sVcall
p3075
F5.643677185765141e-05
sVcalm
p3076
F0.00020168386641468425
sVrecommend
p3077
F0.000756314499055066
sVsurvive
p3078
F5.042096660367106e-05
sVgilding
p3079
F0.0
sVtype
p3080
F0.00033159337205985675
sVtell
p3081
F0.0004335793029071996
sVunequivicolly
p3082
F0.0
sVdisruption
p3083
F0.0
sVwarm
p3084
F1.1409981655452621e-05
sVadult
p3085
F0.0002521048330183553
sVward
p3086
F0.00015126289981101318
sVroom
p3087
F4.5639926621810486e-05
sVrights
p3088
F3.091547412956185e-05
sVnoots
p3089
F0.0
sVroof
p3090
F6.18309482591237e-05
sVmovies
p3091
F3.9010984948218445e-05
sVsuggestive
p3092
F5.042096660367106e-05
sVexceptions
p3093
F5.042096660367106e-05
sVroot
p3094
F3.091547412956185e-05
sVamitryp
p3095
F0.0
sVgive
p3096
F0.00020009400931349136
sVdosing
p3097
F0.0
sVpromethazine
p3098
F0.0
sVfoods
p3099
F0.00035294676622569745
sVquetiapine
p3100
F0.0
sVdosages
p3101
F0.0
sVsertaline
p3102
F0.0
sVamazing
p3103
F0.00021640831890693292
sVanswer
p3104
F6.845988993271573e-05
sVshortens
p3105
F0.0
sVundesirable
p3106
F0.0
sVuntill
p3107
F5.042096660367106e-05
sVundergoing
p3108
F0.0
sVreplacing
p3109
F5.042096660367106e-05
sVthankyou
p3110
F0.0
sVgravol
p3111
F0.0
sVsummarize
p3112
F0.0
sVpurchase
p3113
F3.091547412956185e-05
sVattempt
p3114
F7.986987158816836e-05
sVthird
p3115
F1.5391846870268565e-05
sVreplication
p3116
F0.0
sVbattletag
p3117
F0.0
sVmaintain
p3118
F0.0001236618965182474
sVfrequent
p3119
F0.00015126289981101318
sVwut
p3120
F0.0
sVtochka3evlj3sxdv
p3121
F0.0
sVtyramine
p3122
F0.0
sV19185342
p3123
F0.0
sVpersonal
p3124
F0.0001597397431763367
sVbetter
p3125
F0.0005643677185765141
sVdifferently
p3126
F0.00015457737064780922
sVpharms
p3127
F0.0
sVcred
p3128
F0.0
sVpleasurable
p3129
F0.0
sVaborter
p3130
F0.0
sVwidely
p3131
F0.0
sVcombination
p3132
F0.000175549432266983
sV20cat
p3133
F0.0
sVdowns
p3134
F0.00010084193320734212
sVdrowsiness
p3135
F0.0
sVschool
p3136
F0.0009579983654697502
sVmxp
p3137
F0.0
sVtherapy
p3138
F0.002117680597354185
sVindulge
p3139
F0.0
sVvaping
p3140
F0.0
sVmxe
p3141
F0.0
sVadvise
p3142
F0.0
sVsleepless
p3143
F0.0
sVlucy
p3144
F0.0
sVacoustic
p3145
F0.0
sVwent
p3146
F0.0003334900155224856
sVmeal
p3147
F7.802196989643689e-05
sVbone
p3148
F7.802196989643689e-05
sVluck
p3149
F0.0004096153419562937
sVsomnolent
p3150
F0.0
sVbusiprone
p3151
F0.0
sVaide
p3152
F0.0
sVforgot
p3153
F0.00030252579962202636
sVaids
p3154
F0.0
sVextract
p3155
F5.042096660367106e-05
sVcrucial
p3156
F0.0
sVgenerics
p3157
F0.0
sVsurprise
p3158
F1.9505492474109223e-05
sVsluggish
p3159
F0.00010084193320734212
sVturning
p3160
F6.18309482591237e-05
sVstruggle
p3161
F0.00018549284477737107
sVinadequately
p3162
F0.0
sVzaps
p3163
F0.0
sVstirrers
p3164
F0.0
sVheteroreceptors
p3165
F0.0
sVstarts
p3166
F4.5639926621810486e-05
sVish
p3167
F5.042096660367106e-05
sVisn
p3168
F0.0002411389343008742
sVperforated
p3169
F0.0
sVstewart
p3170
F0.0
sVfeatures
p3171
F3.091547412956185e-05
sVgrade
p3172
F5.042096660367106e-05
sVcomforted
p3173
F0.0
sVhook
p3174
F3.9010984948218445e-05
sVdeplete
p3175
F0.0
sVdownside
p3176
F0.0
sVgirls
p3177
F3.091547412956185e-05
sVgym
p3178
F0.00018549284477737107
sV2am
p3179
F0.0
sVtrippy
p3180
F0.00010084193320734212
sVsomewhat
p3181
F0.0006050515992440527
sVsymptom
p3182
F0.0
sVdistance
p3183
F3.091547412956185e-05
sVanxiety
p3184
F0.00857156432262408
sVmatter
p3185
F7.986987158816836e-05
sVsilly
p3186
F1.9505492474109223e-05
sVlingering
p3187
F0.0
sVmitigating
p3188
F0.0
sVmini
p3189
F5.042096660367106e-05
sVmodulating
p3190
F0.0
sVendquote
p3191
F0.0
sVminn
p3192
F0.0
sVmodern
p3193
F1.1409981655452621e-05
sVmind
p3194
F0.0007802196989643688
sVmine
p3195
F0.00013691977986543145
sVginger
p3196
F3.091547412956185e-05
sVparamaters
p3197
F0.0
sVseen
p3198
F0.00011409981655452622
sVseem
p3199
F0.00011800415933872568
sVmins
p3200
F0.00015126289981101318
sVseek
p3201
F1.1409981655452621e-05
sVtells
p3202
F9.75274623705461e-05
sVfitting
p3203
F0.0
sVchess
p3204
F5.042096660367106e-05
sVworsening
p3205
F0.0
sVwrists
p3206
F3.091547412956185e-05
sVpsychologically
p3207
F0.0
sVclonazepam
p3208
F0.0
sVaccumbal
p3209
F0.0
sVnorepinephrine
p3210
F0.0
sVregular
p3211
F0.0005042096660367106
sV1ux484
p3212
F0.0
sVdoi
p3213
F0.0
sVobservation
p3214
F0.00010084193320734212
sVdob
p3215
F0.0
sVdoc
p3216
F0.0006801404308503607
sValarm
p3217
F3.091547412956185e-05
sVnighttime
p3218
F5.042096660367106e-05
sVdog
p3219
F5.851647742232766e-05
sVdigress
p3220
F0.0
sVdefinitely
p3221
F0.0008192306839125874
sVdot
p3222
F6.18309482591237e-05
sVhunger
p3223
F0.0006050515992440527
sVprobe
p3224
F0.0
sVending
p3225
F3.091547412956185e-05
sVndma
p3226
F0.0
sVattempts
p3227
F5.851647742232766e-05
sVchord
p3228
F5.042096660367106e-05
sVlyrica
p3229
F0.0
sVcapitulate
p3230
F0.0
sVexperiemented
p3231
F0.0
sVchamomile
p3232
F0.0
sVcarbons
p3233
F0.0
sVexcercise
p3234
F0.0
sVsugar
p3235
F0.00043281663781386583
sVjudged
p3236
F0.00015126289981101318
sVfolks
p3237
F0.00010084193320734212
sVinventor
p3238
F0.0
sVsudafed
p3239
F0.0
sVstop
p3240
F0.0001847021624432228
sVperceive
p3241
F0.0
sVmeditate
p3242
F0.00020168386641468425
sVbar
p3243
F1.9505492474109223e-05
sVbay
p3244
F6.18309482591237e-05
sVbag
p3245
F6.18309482591237e-05
sVbad
p3246
F0.0004412329436143656
sVbam
p3247
F5.042096660367106e-05
sVeffing
p3248
F0.0
sVears
p3249
F6.18309482591237e-05
sVdecides
p3250
F5.042096660367106e-05
sVfascinating
p3251
F5.042096660367106e-05
sVrockstar
p3252
F0.0
sVtesting
p3253
F0.00020168386641468425
sValterations
p3254
F0.0
sVzones
p3255
F0.0
sVdecided
p3256
F0.00023406590968931063
sVsubject
p3257
F0.00015126289981101318
sVsaid
p3258
F0.00023600831867745135
sV07
p3259
F3.091547412956185e-05
sVinappropriate
p3260
F9.274642238868553e-05
sVsorta
p3261
F5.042096660367106e-05
sVsigaint
p3262
F0.0
sVfuture
p3263
F4.5639926621810486e-05
sVomeprazole
p3264
F0.0
sVtolerance
p3265
F0.0010084193320734213
sVlethargic
p3266
F0.0
sVreddit
p3267
F0.0
sVinsurances
p3268
F0.0
sVrestricting
p3269
F0.0
sVvitamin
p3270
F0.0
sVtripled
p3271
F0.0
sVcousin
p3272
F5.042096660367106e-05
sVpicking
p3273
F3.091547412956185e-05
sVsuggested
p3274
F0.00030252579962202636
sVagonist
p3275
F0.0
sVresistant
p3276
F0.0
sVuni
p3277
F0.0004033677328293685
sVagonism
p3278
F0.0
sVanxiolytics
p3279
F0.0
sVheight
p3280
F1.9505492474109223e-05
sVawesomely
p3281
F0.0
sVhygiene
p3282
F0.00015126289981101318
sVnilly
p3283
F0.0
sVsan
p3284
F0.0
sVtint
p3285
F0.0
sVabdominal
p3286
F0.0
sVputs
p3287
F2.2819963310905243e-05
sVbasis
p3288
F0.0001026898348990736
sVphonecalls
p3289
F0.0
sVthree
p3290
F7.695923435134284e-05
sVtiny
p3291
F3.422994496635786e-05
sVtrigger
p3292
F5.042096660367106e-05
sVdetrimental
p3293
F0.0
sVinterest
p3294
F9.274642238868553e-05
sVbasic
p3295
F1.9505492474109223e-05
sVentered
p3296
F1.9505492474109223e-05
sVlovely
p3297
F1.9505492474109223e-05
sVthrew
p3298
F3.091547412956185e-05
sVwebsite
p3299
F3.091547412956185e-05
sVdeeper
p3300
F5.042096660367106e-05
sVefficacy
p3301
F0.0
sV900mg
p3302
F0.0
sVsuppress
p3303
F0.0
sVsooooo
p3304
F5.042096660367106e-05
sVargument
p3305
F6.18309482591237e-05
sVpersonally
p3306
F0.0001939696881426946
sVdeepen
p3307
F0.0
sVsad
p3308
F0.00011703295484465532
sV161
p3309
F0.0
sVexception
p3310
F9.274642238868553e-05
sVtank
p3311
F5.042096660367106e-05
sVsay
p3312
F0.0002770532436648342
sVremaining
p3313
F6.18309482591237e-05
sVnear
p3314
F2.052246249369142e-05
sVsuppose
p3315
F3.091547412956185e-05
sVbalance
p3316
F0.00030252579962202636
sVemployees
p3317
F0.0
sVseven
p3318
F6.18309482591237e-05
sViq
p3319
F0.0
sVir
p3320
F0.0
sViv
p3321
F0.0
sVii
p3322
F0.0
sVshame
p3323
F3.091547412956185e-05
sVcant
p3324
F0.00010084193320734212
sVim
p3325
F0.0009075773988660792
sVvendor
p3326
F3.091547412956185e-05
sVie
p3327
F5.042096660367106e-05
sVdisappear
p3328
F0.0001236618965182474
sVgrown
p3329
F3.9010984948218445e-05
sV20049305
p3330
F0.0
sVbottles
p3331
F5.851647742232766e-05
sVstickied
p3332
F0.0
sVmake
p3333
F0.0005541064873296684
sVnardil
p3334
F0.0
sVpotentially
p3335
F0.00020168386641468425
sVunfortunate
p3336
F3.9010984948218445e-05
sVvegetable
p3337
F5.042096660367106e-05
sVambien
p3338
F0.0
sVbells
p3339
F3.091547412956185e-05
sVverapamil
p3340
F0.0
sVkit
p3341
F0.0001236618965182474
sVpharmacological
p3342
F0.0
sVpotentials
p3343
F0.0
sVthoughts
p3344
F0.0008038023273686081
sVkid
p3345
F0.00015126289981101318
sVsettled
p3346
F0.00015126289981101318
sVfailing
p3347
F5.042096660367106e-05
sVsmokes
p3348
F5.042096660367106e-05
sVpractices
p3349
F0.0
sVqualities
p3350
F5.042096660367106e-05
sVclaims
p3351
F0.00010084193320734212
sV800
p3352
F3.091547412956185e-05
sVleft
p3353
F3.591430936395999e-05
sVsentence
p3354
F0.0002521048330183553
sVyea
p3355
F0.0
sVunited_states
p3356
F0.0
sVpsych
p3357
F0.0
sVhuman
p3358
F0.00013653844731876453
sVfacts
p3359
F0.0
sVyep
p3360
F0.00020168386641468425
sVyes
p3361
F8.722046559818855e-05
sVyet
p3362
F0.0001026123124684571
sVcandidate
p3363
F6.18309482591237e-05
sVaffinity
p3364
F0.0
sVsave
p3365
F3.9010984948218445e-05
sVflatulence
p3366
F0.0
sVbackground
p3367
F1.5391846870268565e-05
sVwanting
p3368
F0.00020168386641468425
sVdreams
p3369
F0.0006554725658477239
sVconcious
p3370
F0.0
sVunnecessary
p3371
F5.042096660367106e-05
sVnotorious
p3372
F0.0004033677328293685
sVoverslept
p3373
F0.0
sVwww
p3374
F0.0010202106462755408
sVdeal
p3375
F0.0001939696881426946
sVsomehow
p3376
F1.9505492474109223e-05
sVelderly
p3377
F5.042096660367106e-05
sVdear
p3378
F1.9505492474109223e-05
sVtripped
p3379
F5.042096660367106e-05
sVdense
p3380
F5.042096660367106e-05
sVtracked
p3381
F5.042096660367106e-05
sVdaytime
p3382
F0.00030252579962202636
sVincidence
p3383
F0.0
sVsuper
p3384
F0.0012984499134415977
sVpuking
p3385
F0.0
sVconceal
p3386
F0.0
sVafternoon
p3387
F0.0002521048330183553
sVcommit
p3388
F3.091547412956185e-05
sVautomatically
p3389
F9.274642238868553e-05
sVnerve
p3390
F5.042096660367106e-05
sVwhats
p3391
F0.0
sVhungrier
p3392
F5.042096660367106e-05
sVchooses
p3393
F0.0
sVfrightened
p3394
F0.0
sVflying
p3395
F3.091547412956185e-05
sVbodies
p3396
F9.274642238868553e-05
sVfork
p3397
F1.9505492474109223e-05
sVstarve
p3398
F5.042096660367106e-05
sVamphs
p3399
F0.0
sVform
p3400
F0.00013691977986543145
sVlorazepam
p3401
F0.0
sVspike
p3402
F0.00010084193320734212
sVanalyse
p3403
F0.0
sVpowerfully
p3404
F0.0
sVblindness
p3405
F5.042096660367106e-05
sVbuilds
p3406
F3.091547412956185e-05
sVpaxil
p3407
F0.0
sVprevents
p3408
F0.00010084193320734212
sVattached
p3409
F1.9505492474109223e-05
sVhorrifying
p3410
F0.0
sVdelete
p3411
F6.18309482591237e-05
sVreevaluate
p3412
F0.0
sVsticks
p3413
F3.091547412956185e-05
sVclassic
p3414
F6.18309482591237e-05
sVtoss
p3415
F5.042096660367106e-05
sVsale
p3416
F0.0010588402986770925
sVship
p3417
F1.1409981655452621e-05
sVshit
p3418
F0.0009892951721459792
sVclingy
p3419
F5.042096660367106e-05
sVanesthesiologist
p3420
F0.0
sVgenerally
p3421
F0.00033159337205985675
sVhandicap
p3422
F0.00020168386641468425
sVfelt
p3423
F0.0009947801161795703
sVdiet
p3424
F0.0004537886994330396
sVfell
p3425
F3.9010984948218445e-05
sVglucocorticoids
p3426
F0.0
sVneuroscience
p3427
F0.0
sVpizzas
p3428
F0.0
sVweekend
p3429
F3.091547412956185e-05
sVallright
p3430
F0.0
sVassume
p3431
F0.00020168386641468425
sVdaily
p3432
F0.002117680597354185
sVgorilla
p3433
F5.042096660367106e-05
sVteeth
p3434
F0.0001236618965182474
sVmanaged
p3435
F0.00034007021542518034
sVskip
p3436
F3.091547412956185e-05
sVrelieve
p3437
F0.0
sVwalking
p3438
F5.704990827726311e-05
sVinvent
p3439
F5.042096660367106e-05
sV______________
p3440
F0.0
sVmild
p3441
F0.0
sVskin
p3442
F5.130615623422855e-06
sVmilk
p3443
F5.042096660367106e-05
sVanony
p3444
F0.0
sVretention
p3445
F5.042096660367106e-05
sVsuicide
p3446
F0.0007058935324513949
sVdepend
p3447
F0.00010084193320734212
sVdisorders
p3448
F0.0005042096660367106
sVsufferer
p3449
F0.0
sVdisgusting
p3450
F0.00010084193320734212
sV0
p3451
F0.00015457737064780922
sVfinally
p3452
F0.0004946475860729896
sVmarks
p3453
F1.9505492474109223e-05
sVsuffered
p3454
F5.851647742232766e-05
sVaspx
p3455
F0.00015126289981101318
sVyeast
p3456
F3.091547412956185e-05
sVgeometrical
p3457
F0.0
sVadvised
p3458
F5.042096660367106e-05
sVclonazapam
p3459
F0.0
sVunifiram
p3460
F0.0
sVdie
p3461
F5.704990827726311e-05
sVaccidentally
p3462
F1.9505492474109223e-05
sVerections
p3463
F0.0
sVround
p3464
F3.422994496635786e-05
sVanesthetic
p3465
F0.0
sVtalked
p3466
F0.00030252579962202636
sVdealing
p3467
F0.00030252579962202636
sVravenous
p3468
F0.0
sVbacterial
p3469
F0.0
sVreaaaaally
p3470
F0.0
sVadds
p3471
F5.042096660367106e-05
sV75mgs
p3472
F0.0
sVheres
p3473
F0.0
sVsuspect
p3474
F9.274642238868553e-05
sVinternational
p3475
F6.18309482591237e-05
sVfilled
p3476
F1.1409981655452621e-05
sVproclaiming
p3477
F0.0
sVappetites
p3478
F0.0
sVwussy
p3479
F0.0
sVelses
p3480
F0.0
sVwithdrawals
p3481
F0.0
sVwait
p3482
F2.2819963310905243e-05
sVbox
p3483
F3.422994496635786e-05
sVboy
p3484
F1.9505492474109223e-05
sVdiagnoses
p3485
F0.0
sVbattling
p3486
F0.0
sVinstitute
p3487
F0.0
sVshift
p3488
F0.00020168386641468425
sVbot
p3489
F0.0
sVdiagnosed
p3490
F0.0
sVsuggestion
p3491
F9.274642238868553e-05
sV20mg
p3492
F0.0
sVgenuinely
p3493
F0.00010084193320734212
sVuseful
p3494
F0.0004537886994330396
sVmerely
p3495
F0.0
sVwestroads_mall_shooting
p3496
F0.0
sVflexibility
p3497
F0.0
sVeverybody
p3498
F3.091547412956185e-05
sVdeplin
p3499
F0.0
sVperk
p3500
F0.0
sVdude
p3501
F0.0004033677328293685
sVayy
p3502
F0.0
sVtachycardic
p3503
F0.0
sVsharpen
p3504
F0.0
sVcheckout
p3505
F0.0
sVlessened
p3506
F0.0
sVahha
p3507
F0.0
sVaspirin
p3508
F0.0
sVsharing
p3509
F0.0
sVacceptable
p3510
F5.042096660367106e-05
sVtandem
p3511
F0.0
sVeffort
p3512
F0.00015126289981101318
sVflubromazepam
p3513
F0.0
sVavoiding
p3514
F0.00015126289981101318
sVflu
p3515
F0.00010084193320734212
sVgrowing
p3516
F6.18309482591237e-05
sVmaking
p3517
F0.00014365723745583995
sVdosage
p3518
F0.0012101031984881054
sVclaim
p3519
F1.9505492474109223e-05
sVcrazy
p3520
F0.00034007021542518034
sVfuck
p3521
F0.0010588402986770925
sVagent
p3522
F1.9505492474109223e-05
sVednf
p3523
F0.0
sVconfuses
p3524
F0.0
sVbelsomra
p3525
F0.0
sVpink
p3526
F6.18309482591237e-05
sVtilt
p3527
F0.0
sVchemical
p3528
F0.0002521048330183553
sVtill
p3529
F6.18309482591237e-05
sVemotionless
p3530
F0.0
sVpure
p3531
F2.2819963310905243e-05
sVlooses
p3532
F5.042096660367106e-05
sVpathway
p3533
F0.0
sVsnf
p3534
F0.0
sVstaying
p3535
F0.00018549284477737107
sV145
p3536
F0.0
sV140
p3537
F5.042096660367106e-05
sV141
p3538
F0.0
sVmay
p3539
F0.0004668860217314799
sVmax
p3540
F0.00010084193320734212
sVdesigned
p3541
F5.042096660367106e-05
sVmah
p3542
F5.042096660367106e-05
sVjournals
p3543
F0.0
sVgrow
p3544
F3.091547412956185e-05
sVman
p3545
F6.156738748107426e-05
sVneck
p3546
F3.091547412956185e-05
sVmaybe
p3547
F0.0
sVq
p3548
F0.0
sVswitch
p3549
F0.0004946475860729896
sVunleash
p3550
F0.0
sVtalk
p3551
F0.0007607142064902596
sV2mg
p3552
F0.0
sVlsd
p3553
F0.0
sVseeing
p3554
F0.00031208787958574756
sVgradual
p3555
F0.0
sVpointed
p3556
F9.274642238868553e-05
sVmianserin
p3557
F0.0
sVwishing
p3558
F0.0
sVstability
p3559
F0.0
sVshake
p3560
F6.18309482591237e-05
sVdiffers
p3561
F5.042096660367106e-05
sVpolice
p3562
F3.091547412956185e-05
sVthank
p3563
F0.000351098864533966
sVinteresting
p3564
F0.00012550979820997885
sVpolicy
p3565
F0.00015126289981101318
sVenquire
p3566
F0.0
sVmain
p3567
F0.00014365723745583995
sVmorbid
p3568
F0.0
sVemailed
p3569
F6.18309482591237e-05
sVimpulses
p3570
F0.0
sVsarcastic
p3571
F5.042096660367106e-05
sVinterview
p3572
F5.042096660367106e-05
sVtouching
p3573
F0.00010084193320734212
sVrexulti
p3574
F0.0
sVkilled
p3575
F0.00013653844731876453
sVdevelopments
p3576
F0.0
sVoutweigh
p3577
F0.0
sV_____________________________________________________
p3578
F0.0
sVcognition
p3579
F0.00010084193320734212
sVlithobid
p3580
F0.0
sVdysphoric
p3581
F0.0
sVrock
p3582
F5.851647742232766e-05
sVmirtazepine
p3583
F0.0
sVeyelid
p3584
F0.0
sVmanifests
p3585
F0.0
sVsignage
p3586
F0.0
sVgirl
p3587
F2.2819963310905243e-05
sVsummary
p3588
F0.0
sVcanada
p3589
F0.0
sVliving
p3590
F3.591430936395999e-05
sVjackson
p3591
F0.0
sVsocialized
p3592
F0.0
sVsitagliptin
p3593
F0.0
sVinterference
p3594
F0.0
sVcorrect
p3595
F6.18309482591237e-05
sVneurotrophic
p3596
F0.0
sVmonster
p3597
F3.9010984948218445e-05
sVepival
p3598
F0.0
sVmechanisms
p3599
F0.0
sVcalifornia
p3600
F0.0
sVorg
p3601
F0.002420206396976211
sVadvance
p3602
F5.851647742232766e-05
sVlanguage
p3603
F1.9505492474109223e-05
sVstandby
p3604
F0.0
sVthing
p3605
F0.0003129675530287942
sVthink
p3606
F0.0006618494154215483
sVwaited
p3607
F0.0002521048330183553
sVfirst
p3608
F0.0005130615623422856
sVexotic
p3609
F5.042096660367106e-05
sVnutritional
p3610
F0.0
sVdeclared
p3611
F0.0
sVlong
p3612
F0.0
sVsuspended
p3613
F0.0
sVcarry
p3614
F1.5391846870268565e-05
sVtransdermal
p3615
F0.0
sVsounds
p3616
F0.0007110559049799224
sVchalked
p3617
F0.0
sVlittle
p3618
F0.0
sV1x
p3619
F0.0
sVslept
p3620
F0.000756314499055066
sVanyone
p3621
F7.986987158816836e-05
sVpsychotic
p3622
F0.0005546306326403818
sV1g
p3623
F0.0
sVamphetamines
p3624
F0.0
sVspeaking
p3625
F0.0001236618965182474
sVeyes
p3626
F5.704990827726311e-05
sVcontinuous
p3627
F5.042096660367106e-05
sVadrenergic
p3628
F0.0
sVaccurately
p3629
F3.091547412956185e-05
sVbutt
p3630
F0.00015126289981101318
sV11
p3631
F1.5391846870268565e-05
sV10
p3632
F0.00028218385928825706
sV13
p3633
F7.802196989643689e-05
sV12
p3634
F0.00029244509053510275
sV15
p3635
F0.0002308777030540285
sV14
p3636
F0.00031208787958574756
sV17
p3637
F0.0005071428043268398
sV16
p3638
F0.00031208787958574756
sV19
p3639
F3.9010984948218445e-05
sV18
p3640
F7.802196989643689e-05
sVgotta
p3641
F0.00015457737064780922
sVnifedipine
p3642
F0.0
sVcymbalta
p3643
F0.0
sVmarijuana
p3644
F0.00030252579962202636
sVvoices
p3645
F0.0
sVwinding
p3646
F0.0
sVcomedian
p3647
F5.042096660367106e-05
sVtetracyclic
p3648
F0.0
sVefficient
p3649
F0.0
sVanswering
p3650
F3.091547412956185e-05
sVshocked
p3651
F3.091547412956185e-05
sVpotential
p3652
F0.0006554725658477239
sVperformance
p3653
F7.802196989643689e-05
sVrages
p3654
F0.0
sVswitching
p3655
F0.00021640831890693292
sVchannel
p3656
F9.274642238868553e-05
sV200
p3657
F0.00020168386641468425
sVpain
p3658
F0.0004291208344304029
sVnormal
p3659
F0.0007802196989643688
sVtrack
p3660
F0.0001236618965182474
sVcorrelation
p3661
F0.0
sVpaid
p3662
F9.274642238868553e-05
sVbeta
p3663
F0.0009579983654697502
sVsheets
p3664
F3.091547412956185e-05
sVbowels
p3665
F5.042096660367106e-05
sVtugging
p3666
F0.0
sVespecially
p3667
F0.000330889468008126
sVsurprising
p3668
F3.091547412956185e-05
sVtriggering
p3669
F0.0
sVsigma
p3670
F0.0
sVshop
p3671
F5.042096660367106e-05
sVshot
p3672
F0.00012550979820997885
sVtragically
p3673
F0.0
sVshow
p3674
F2.052246249369142e-05
sVelevate
p3675
F0.0
sVtherapist
p3676
F0.0006554725658477239
sVtiredness
p3677
F0.0
sVcorner
p3678
F1.1409981655452621e-05
sVfend
p3679
F0.0
sVoffice
p3680
F1.9505492474109223e-05
sVglucotrol
p3681
F0.0
sVdick
p3682
F0.00010084193320734212
sV500mg
p3683
F0.0
sVbehind
p3684
F1.026123124684571e-05
sVdull
p3685
F3.091547412956185e-05
sVblack
p3686
F7.986987158816836e-05
sVextracellular
p3687
F0.0
sVawareness
p3688
F0.0
sVfluoxoetine
p3689
F0.0
sVinfo
p3690
F0.00020168386641468425
sVexaggeration
p3691
F0.0
sVreps
p3692
F0.0
sVunimportant
p3693
F5.042096660367106e-05
sVsoltab
p3694
F0.0
sVconjunction
p3695
F0.0
sVsecondary
p3696
F5.851647742232766e-05
sVmorning
p3697
F0.0009892951721459792
sVstupid
p3698
F0.0002925823871116383
sVfinishing
p3699
F5.042096660367106e-05
sVworrying
p3700
F0.0
sVwiki
p3701
F0.0
sVaffordable
p3702
F0.0
sVallosteric
p3703
F0.0
sVlethargy
p3704
F0.0
sVcocktails
p3705
F0.00010084193320734212
sVpsychosis
p3706
F0.0
sVprocoralan
p3707
F0.0
sVstigma
p3708
F0.0
sVcalendar
p3709
F3.091547412956185e-05
sVwonder
p3710
F5.851647742232766e-05
sVsatisfying
p3711
F5.042096660367106e-05
sVglipizide
p3712
F0.0
sVlabel
p3713
F0.00011703295484465532
sVboundaries
p3714
F5.042096660367106e-05
sVpump
p3715
F5.042096660367106e-05
sVreading
p3716
F7.986987158816836e-05
sVchecks
p3717
F3.091547412956185e-05
sVnutrical
p3718
F0.0
sVpsychedelics
p3719
F0.0
sVaugust
p3720
F0.0
sVparent
p3721
F3.091547412956185e-05
sVbrokenly
p3722
F0.0
sVkilling
p3723
F0.00015126289981101318
sVtub
p3724
F0.0
sVtrolling
p3725
F0.0
sVfried
p3726
F0.00015126289981101318
sVaccording
p3727
F6.845988993271573e-05
sVvilazodone
p3728
F0.0
sVdisappointment
p3729
F3.091547412956185e-05
sVamong
p3730
F0.00021640831890693292
sVcancer
p3731
F0.00010084193320734212
sVmaintained
p3732
F5.042096660367106e-05
sVcancel
p3733
F0.00010084193320734212
sVguesstimate
p3734
F0.0
sVconsidering
p3735
F0.0001236618965182474
sVunusual
p3736
F3.091547412956185e-05
sVtuning
p3737
F0.0
sVcapable
p3738
F0.00015126289981101318
sVmark
p3739
F5.851647742232766e-05
sVmart
p3740
F0.0
sVmary
p3741
F0.0
sVeducated
p3742
F0.00015457737064780922
sVshopping
p3743
F3.091547412956185e-05
sVagranulocytosis
p3744
F0.0
sVoffered
p3745
F0.00015457737064780922
sVbmi
p3746
F0.0
sVwake
p3747
F0.000526648296800949
sVoverdose
p3748
F0.0005042096660367106
sVhardcore
p3749
F5.042096660367106e-05
sVsound
p3750
F0.00013691977986543145
sVkappa
p3751
F0.0
sV2894
p3752
F0.0
sVwarning
p3753
F9.75274623705461e-05
sVongoing
p3754
F0.0
sVpromising
p3755
F5.042096660367106e-05
sVcancelled
p3756
F3.091547412956185e-05
sVinvestigating
p3757
F0.0
sVsleeping
p3758
F0.0013293653875711595
sVjitsu
p3759
F0.0
sVstrain
p3760
F0.0
sVdangerously
p3761
F5.042096660367106e-05
sVprotein
p3762
F0.0
sVeveryday
p3763
F0.00020168386641468425
sVdifferent
p3764
F0.0007416488076044204
sVritalin
p3765
F0.0
sVharsh
p3766
F6.18309482591237e-05
sVpay
p3767
F1.5391846870268565e-05
sVpad
p3768
F3.091547412956185e-05
sVjohnshopkinshealthalerts
p3769
F0.0
sVstruggling
p3770
F0.00015126289981101318
sVoil
p3771
F0.00015457737064780922
sVrunning
p3772
F0.0
sVtotally
p3773
F0.0001483297615208841
sVcatastrophizing
p3774
F0.0
sVlargely
p3775
F0.0
sVamazes
p3776
F5.042096660367106e-05
sVsolve
p3777
F6.18309482591237e-05
sVbottle
p3778
F0.0017749998151439393
sVconsisted
p3779
F0.0
sVmoney
p3780
F0.00034007021542518034
sVadjustments
p3781
F0.0
sVaspect
p3782
F0.0001236618965182474
sVethyl
p3783
F0.0
sVketamine
p3784
F0.0
sVasthma
p3785
F0.00010084193320734212
sV4
p3786
F0.0002873144749116799
sVglyburide
p3787
F0.0
sVpill
p3788
F0.0013109451316954477
sVmom
p3789
F0.0002521048330183553
sVmoa
p3790
F0.0
sVlightning
p3791
F5.042096660367106e-05
sVnose
p3792
F1.1409981655452621e-05
sVneuronal
p3793
F0.0
sVserved
p3794
F1.1409981655452621e-05
sVpassionate
p3795
F1.9505492474109223e-05
sVroutines
p3796
F5.042096660367106e-05
sVsneaked
p3797
F0.0
sVspecified
p3798
F0.00010084193320734212
sVimages
p3799
F0.00010084193320734212
sVperpetuating
p3800
F5.042096660367106e-05
sVbenzodiazepine
p3801
F0.0
sV28k465
p3802
F0.0
sVoverly
p3803
F5.042096660367106e-05
sVcritical
p3804
F3.091547412956185e-05
sVmaoi
p3805
F0.0
sVmoderate
p3806
F0.0002521048330183553
sVknife
p3807
F3.9010984948218445e-05
sVapocalyptic
p3808
F0.0
sVcramps
p3809
F0.0
sVseconds
p3810
F6.18309482591237e-05
sVnotable
p3811
F0.00010084193320734212
sVnotably
p3812
F0.00015126289981101318
sVbroken
p3813
F2.2819963310905243e-05
sVfinicky
p3814
F0.0
sVianavet
p3815
F0.0
sVcrafting
p3816
F0.0
sVmuscanric
p3817
F0.0
sVinstantaneously
p3818
F0.0
sVvoxra
p3819
F0.0
sVviolence
p3820
F6.18309482591237e-05
sVgenerated
p3821
F5.042096660367106e-05
sVyouve
p3822
F0.0
sVmixed
p3823
F0.00034007021542518034
sVroad
p3824
F6.18309482591237e-05
sVcevs
p3825
F0.0
sVpurported
p3826
F0.0
sVskilled
p3827
F0.0
sVdreaming
p3828
F0.00020168386641468425
sVpharmaceutical
p3829
F0.0
sVshells
p3830
F5.042096660367106e-05
sVpresyncope
p3831
F0.0
sVzolpidem
p3832
F0.0
sVdowner
p3833
F0.0
sVchats
p3834
F0.0
sVmornings
p3835
F0.0005042096660367106
sVenough
p3836
F0.0
sVstressors
p3837
F0.0
sV95ish
p3838
F0.0
sVorthostatic
p3839
F0.0
sVdownstairs
p3840
F9.274642238868553e-05
sVextend
p3841
F3.091547412956185e-05
sVnadolol
p3842
F0.0
sVaffection
p3843
F0.0
sVhaloperidol
p3844
F0.0
sVrequired
p3845
F0.0001236618965182474
sVgeriatric
p3846
F0.0
sVresolving
p3847
F5.042096660367106e-05
sVdivalproex
p3848
F0.0
sVdeep
p3849
F0.00011409981655452622
sVgeneral
p3850
F0.0
sVfile
p3851
F0.00015126289981101318
sVgirlfriend
p3852
F0.00015126289981101318
sVmelatonin
p3853
F0.0
sVneurotransmitters
p3854
F0.0
sVfill
p3855
F3.9010984948218445e-05
sVhybrid
p3856
F0.0
sVfield
p3857
F5.042096660367106e-05
sVmertazapine
p3858
F0.0
sVburproprion
p3859
F0.0
sVeurope
p3860
F0.0
sVformed
p3861
F3.091547412956185e-05
sVobsessed
p3862
F5.042096660367106e-05
sVxanax
p3863
F0.0
sVstudents
p3864
F5.042096660367106e-05
sVimportant
p3865
F0.00034007021542518034
sVbrands
p3866
F5.042096660367106e-05
sVboosters
p3867
F0.0
sVhugely
p3868
F0.0
sVhaired
p3869
F0.00010084193320734212
sValright
p3870
F9.274642238868553e-05
sVresolution
p3871
F3.091547412956185e-05
sVcolleges
p3872
F5.042096660367106e-05
sVforget
p3873
F9.75274623705461e-05
sVaaaaalright
p3874
F0.0
sVforbidden
p3875
F0.0
sVallergy
p3876
F0.00010084193320734212
sVworms
p3877
F5.042096660367106e-05
sValerting
p3878
F0.0
sVshrooms
p3879
F0.00010084193320734212
sVoxycodone
p3880
F0.0
sVimpared
p3881
F0.0
sVextant
p3882
F0.0
sVreluctant
p3883
F0.0
sVniacin
p3884
F0.0
sVresponsiveness
p3885
F0.0
sVdiffuse
p3886
F5.042096660367106e-05
sVinvestigational
p3887
F0.0
sVenjoying
p3888
F3.091547412956185e-05
sV_pixiepudding_
p3889
F0.0
sVsitting
p3890
F6.18309482591237e-05
sViud
p3891
F0.0
sVfall
p3892
F0.00043281663781386583
sVdifference
p3893
F0.00046373211194342774
sVneurological
p3894
F0.0
sVdampen
p3895
F0.0
sVdrugged
p3896
F0.0
sVreminding
p3897
F5.042096660367106e-05
sVbiological
p3898
F0.0
sVphenibut
p3899
F0.0
sVzero
p3900
F9.274642238868553e-05
sVperspective
p3901
F0.0
sVwyeth
p3902
F0.0
sVappreciating
p3903
F0.0
sV200mic
p3904
F0.0
sVstood
p3905
F3.091547412956185e-05
sVbrackets
p3906
F5.042096660367106e-05
sVstool
p3907
F5.042096660367106e-05
sVcaffeine
p3908
F0.000756314499055066
sVmirtzapine
p3909
F0.0
sVpublic
p3910
F3.9010984948218445e-05
sVmovement
p3911
F1.9505492474109223e-05
sVranged
p3912
F0.0
sVvraylar
p3913
F0.0
sVthreads
p3914
F0.0
sVunbinds
p3915
F0.0
sVtable
p3916
F1.026123124684571e-05
sVfantasies
p3917
F0.0
sV900
p3918
F0.0
sVantagonizing
p3919
F0.0
sVreuptaken
p3920
F0.0
sVsignificantly
p3921
F0.0
sVtempting
p3922
F0.0
sVairport
p3923
F5.042096660367106e-05
sVtemazepam
p3924
F0.0
sVsimply
p3925
F0.00013653844731876453
sVpublished
p3926
F0.00020168386641468425
sVrestoril
p3927
F0.0
sVspecialize
p3928
F0.0
sVpepcid
p3929
F0.0
sVseroquel
p3930
F0.0
sVeye
p3931
F0.00018549284477737107
sVwiped
p3932
F5.042096660367106e-05
sVtwo
p3933
F0.0
sVcomparing
p3934
F5.042096660367106e-05
sVneverending
p3935
F0.0
sVformality
p3936
F0.0
sVconcomitantly
p3937
F0.0
sVcontrolling
p3938
F0.0
sVparticular
p3939
F9.127985324362097e-05
sVneurosci
p3940
F0.0
sVtown
p3941
F1.9505492474109223e-05
sVnone
p3942
F0.00011703295484465532
sVhour
p3943
F0.0002535714021634199
sVmiddle
p3944
F5.704990827726311e-05
sVrecall
p3945
F0.00035294676622569745
sVspecializes
p3946
F0.0
sVsucks
p3947
F0.00040190116368430404
sVdazed
p3948
F0.0
sVstrategies
p3949
F0.0
sVtianeptine
p3950
F0.0
sVdef
p3951
F3.091547412956185e-05
sVstubborn
p3952
F0.0
sVcompare
p3953
F3.091547412956185e-05
sVshare
p3954
F9.127985324362097e-05
sVsocal
p3955
F0.0
sVminimum
p3956
F6.18309482591237e-05
sVnumbers
p3957
F3.091547412956185e-05
sVpurchased
p3958
F0.00010084193320734212
sVsharp
p3959
F5.042096660367106e-05
sVmapb
p3960
F0.0
sVneeds
p3961
F0.0
sVstim
p3962
F0.0
sVawkward
p3963
F3.9010984948218445e-05
sVacts
p3964
F0.00015457737064780922
sVblacked
p3965
F0.00010084193320734212
sVlopressor
p3966
F0.0
sVadvice
p3967
F0.0008571564322624081
sVquestioning
p3968
F0.0
sVblood
p3969
F0.000702197729067932
sVcoming
p3970
F7.695923435134284e-05
sVresponse
p3971
F0.0005042096660367106
sVreappeared
p3972
F5.042096660367106e-05
sVsulfonylureas
p3973
F0.0
sVeats
p3974
F2.2819963310905243e-05
sVolanzipine
p3975
F0.0
sVresponsibility
p3976
F5.042096660367106e-05
sVpleasure
p3977
F1.9505492474109223e-05
sVplaying
p3978
F0.00013653844731876453
sVsuffer
p3979
F0.0002473237930364948
sVjames_eagan_holmes
p3980
F0.0
sV24
p3981
F0.0001950549247410922
sVmessed
p3982
F6.18309482591237e-05
sV26
p3983
F1.9505492474109223e-05
sV27
p3984
F3.9010984948218445e-05
sV20
p3985
F0.00014365723745583995
sV21
p3986
F5.851647742232766e-05
sV22
p3987
F5.851647742232766e-05
sVsodium
p3988
F0.0
sVpcp
p3989
F0.0
sVyohimbine
p3990
F0.0
sVlate
p3991
F4.5639926621810486e-05
sVmesses
p3992
F9.274642238868553e-05
sVmethylfolate
p3993
F0.0
sVupping
p3994
F0.0
sVgood
p3995
F0.0
sVseeking
p3996
F0.00020168386641468425
sVlibido
p3997
F0.0
sVsocially
p3998
F0.0002521048330183553
sVnoticing
p3999
F6.18309482591237e-05
sVencouraging
p4000
F0.0
sVwalls
p4001
F3.091547412956185e-05
sVcompound
p4002
F0.0
sVcomplain
p4003
F3.091547412956185e-05
sVmystery
p4004
F0.0
sVeasily
p4005
F0.00012550979820997885
sVdeteriorates
p4006
F0.0
sV2x
p4007
F0.0
sVevade
p4008
F5.042096660367106e-05
sVjitteriness
p4009
F0.0
sVhabits
p4010
F0.0001236618965182474
sV2c
p4011
F0.0
sVharm
p4012
F0.0
sVeveryone
p4013
F0.0004291208344304029
sVmental
p4014
F0.001613470931317474
sVhouse
p4015
F7.986987158816836e-05
sVfish
p4016
F5.704990827726311e-05
sVhard
p4017
F0.000513449174495368
sVidea
p4018
F0.0001282653905855714
sVextended
p4019
F0.00020168386641468425
sVinsurance
p4020
F0.0004033677328293685
sVchildish
p4021
F0.0
sVacting
p4022
F0.00015457737064780922
sVdysfunction
p4023
F0.0
sVpleasant
p4024
F0.00015126289981101318
sVdifficulty
p4025
F0.00015126289981101318
sVmembers
p4026
F3.091547412956185e-05
sVbeginning
p4027
F3.591430936395999e-05
sVbenefits
p4028
F0.0004537886994330396
sVneeding
p4029
F0.00010084193320734212
sVdont
p4030
F0.0002473237930364948
sVnach
p4031
F0.0
sVinstances
p4032
F5.042096660367106e-05
sVinhibits
p4033
F0.0
sVcopped
p4034
F5.042096660367106e-05
sV40mg
p4035
F0.0
sVcups
p4036
F3.091547412956185e-05
sVtwenty
p4037
F1.9505492474109223e-05
sVleast
p4038
F0.0
sVpaint
p4039
F1.9505492474109223e-05
sVregulation
p4040
F0.0
sVpains
p4041
F0.0
sVkor
p4042
F0.0
sVcatapult
p4043
F0.0
sVsensitization
p4044
F0.0
sVpark
p4045
F0.00020168386641468425
sVtracking
p4046
F3.091547412956185e-05
sVdoctors
p4047
F0.0010084193320734213
sVetsy
p4048
F0.0
sVb
p4049
F5.704990827726311e-05
sVcyclic
p4050
F0.0
sVgotten
p4051
F0.0002521048330183553
sVyouth
p4052
F3.091547412956185e-05
sVcontrary
p4053
F5.042096660367106e-05
sVsupposed
p4054
F0.00013653844731876453
sVsedate
p4055
F3.091547412956185e-05
sVtreated
p4056
F0.00013653844731876453
sVoutta
p4057
F5.042096660367106e-05
sVages
p4058
F5.042096660367106e-05
sVcategorized
p4059
F0.0
sVconfirms
p4060
F0.0
sVfading
p4061
F0.00010084193320734212
sVditched
p4062
F0.0
sVlisdexamfetamine
p4063
F0.0
sVbuilt
p4064
F1.1409981655452621e-05
sVdepending
p4065
F0.00030252579962202636
sVsuicidally
p4066
F0.0
sVcouch
p4067
F5.042096660367106e-05
sVmajority
p4068
F9.274642238868553e-05
sVunscheduled
p4069
F0.0
sV12mg
p4070
F0.0
sVchart
p4071
F9.274642238868553e-05
sVcharm
p4072
F5.042096660367106e-05
sVsignificant
p4073
F0.00030252579962202636
sVservices
p4074
F3.9010984948218445e-05
sVextremely
p4075
F0.0005564785343321133
sV45mg
p4076
F0.0
sVkg
p4077
F5.042096660367106e-05
sVko
p4078
F0.0
sVweigh
p4079
F6.18309482591237e-05
sVparticularly
p4080
F0.0002473237930364948
sVdisturbances
p4081
F0.0
sVheadlines
p4082
F0.00015126289981101318
sVmarinol
p4083
F0.0
sVfine
p4084
F0.0
sVfind
p4085
F0.0
sVcell
p4086
F3.9010984948218445e-05
sVnervous
p4087
F3.091547412956185e-05
sVruin
p4088
F5.042096660367106e-05
sVunhappy
p4089
F5.042096660367106e-05
sVdysfunctional
p4090
F0.0
sV8
p4091
F0.0002565307811711428
sVchronically
p4092
F0.0
sVcysts
p4093
F0.0
sVsill
p4094
F0.0
sVremove
p4095
F7.802196989643689e-05
sVcommon
p4096
F0.00048763731185273056
sVdoubles
p4097
F0.0
sVcalifornian
p4098
F0.0
sVspeedball
p4099
F5.042096660367106e-05
sVniggling
p4100
F0.0
sVovereat
p4101
F0.0
sVchangeable
p4102
F0.0
sVcurvilinear
p4103
F0.0
sVexpert
p4104
F0.00015126289981101318
sVplease
p4105
F0.00015904908432610852
sVsmallest
p4106
F5.042096660367106e-05
sVmyriad
p4107
F0.0
sVburned
p4108
F5.851647742232766e-05
sVweekly
p4109
F5.042096660367106e-05
sVresponses
p4110
F0.0
sVmajor_depressive_disorder
p4111
F0.0
sVcomplement
p4112
F0.0
sVpissed
p4113
F5.042096660367106e-05
sVreverse
p4114
F5.851647742232766e-05
sVtapered
p4115
F0.0
sVannual
p4116
F5.042096660367106e-05
sVsonata
p4117
F0.0
sValot
p4118
F0.00010084193320734212
sVdysphagia
p4119
F0.0
sVconsume
p4120
F6.18309482591237e-05
sVpoint
p4121
F0.00024626954992429704
sVsimple
p4122
F2.052246249369142e-05
sVpanicking
p4123
F0.0
sVdietary
p4124
F0.0
sVreupping
p4125
F0.0
sVshutdown
p4126
F5.042096660367106e-05
sVthroughout
p4127
F0.00015604393979287378
sVexpensive
p4128
F0.00011703295484465532
sVheadaches
p4129
F0.0
sV30mg
p4130
F0.0
sVperspectives
p4131
F0.0
sVcreate
p4132
F0.0002473237930364948
sVcreativity
p4133
F0.0
sVdropping
p4134
F3.091547412956185e-05
sVamnesia
p4135
F5.042096660367106e-05
sVireland
p4136
F0.0
sVintrusive
p4137
F0.00035294676622569745
sVmeeting
p4138
F1.9505492474109223e-05
sVaddison
p4139
F0.0
sVgas
p4140
F5.042096660367106e-05
sVgap
p4141
F0.00015126289981101318
sVamlodipine
p4142
F0.0
sVpricey
p4143
F5.042096660367106e-05
sVgal
p4144
F5.042096660367106e-05
sVunderstand
p4145
F5.130615623422855e-05
sVgag
p4146
F0.0
sVgad
p4147
F0.0
sVrupture
p4148
F0.0
sVtrojan
p4149
F0.0
sVsolid
p4150
F0.0001236618965182474
sVtolerate
p4151
F0.0
sVcrutch
p4152
F0.0
sVreplaced
p4153
F3.091547412956185e-05
sVfun
p4154
F0.0001939696881426946
sVconstipated
p4155
F5.042096660367106e-05
sVadjusts
p4156
F0.0
sVcents
p4157
F5.042096660367106e-05
sVencountered
p4158
F5.042096660367106e-05
sVlimit
p4159
F6.18309482591237e-05
sVunaffected
p4160
F0.0
sVmigraine
p4161
F0.0
sVbenign
p4162
F5.042096660367106e-05
sVruta
p4163
F0.0
sVdevelopment
p4164
F3.091547412956185e-05
sVstrips
p4165
F0.0006801404308503607
sVpraising
p4166
F0.0
sVyesterday
p4167
F0.00020168386641468425
sVquetiepine
p4168
F0.0
sVmoment
p4169
F6.669800310449712e-05
sVpurpose
p4170
F4.5639926621810486e-05
sVcraved
p4171
F0.0
sVampa
p4172
F0.0
sVcodeine
p4173
F0.0
sVspent
p4174
F0.00030915474129561844
sViffy
p4175
F0.0
sVrozerem
p4176
F0.0
sVolanzapine
p4177
F0.0
sVspend
p4178
F7.802196989643689e-05
sVprevention
p4179
F0.0
sVludicrous
p4180
F0.0
sVdistracting
p4181
F5.042096660367106e-05
sVshape
p4182
F0.0001236618965182474
sValternative
p4183
F9.274642238868553e-05
sVwage
p4184
F0.00010084193320734212
sVcut
p4185
F8.208984997476568e-05
sVhated
p4186
F0.00030252579962202636
sVfentanyl
p4187
F0.0
sVcuz
p4188
F0.00010084193320734212
sVsource
p4189
F0.00023406590968931063
sVsnap
p4190
F1.9505492474109223e-05
sVexcited
p4191
F6.18309482591237e-05
sVridiculously
p4192
F5.042096660367106e-05
sVbio
p4193
F5.042096660367106e-05
sVbig
p4194
F5.130615623422855e-05
sVrebound
p4195
F0.0
sVadrafinil
p4196
F0.0
sVmatters
p4197
F3.091547412956185e-05
sVhallucinations
p4198
F0.0
sVbit
p4199
F0.00020009400931349136
sVknock
p4200
F0.0002473237930364948
sVpharmawhore
p4201
F0.0
sVsemi
p4202
F1.9505492474109223e-05
sVptst
p4203
F0.0
sVzoloft
p4204
F0.0
sVptsd
p4205
F0.0
sVgoogle
p4206
F0.0002473237930364948
sVoften
p4207
F0.0006436812516456043
sVmetabolic
p4208
F0.0
sVabsolutely
p4209
F0.0001597397431763367
sVback
p4210
F0.0003694043248864456
sVstrongest
p4211
F5.042096660367106e-05
sVexamples
p4212
F0.000806735465658737
sVmirror
p4213
F0.00015457737064780922
sVserver
p4214
F5.042096660367106e-05
sVpronounced
p4215
F7.802196989643689e-05
sVculprit
p4216
F0.0
sVpet
p4217
F5.042096660367106e-05
sVaffects
p4218
F0.00021640831890693292
sVdecision
p4219
F0.00011703295484465532
sVper
p4220
F0.00030915474129561844
sVeliminate
p4221
F0.0
sVpee
p4222
F5.042096660367106e-05
sVaugmenting
p4223
F0.0
sVeither
p4224
F0.00016931031557295423
sVdepressions
p4225
F0.0
sV300
p4226
F6.18309482591237e-05
sVcontinuing
p4227
F5.042096660367106e-05
sVrestrictive
p4228
F0.0
sVtripping
p4229
F0.0
sVjeezus
p4230
F0.0
sVgerd
p4231
F0.0
sVoatmeal
p4232
F5.042096660367106e-05
sVpediatrician
p4233
F5.042096660367106e-05
sVabusive
p4234
F0.00020168386641468425
sVcrps
p4235
F0.0
sVsteven
p4236
F0.0
sVreabsorbed
p4237
F0.0
sVdelusional
p4238
F0.00010084193320734212
sVcalming
p4239
F0.0
sVpharmaceuticals
p4240
F0.0
sVforward
p4241
F0.0
sVerasmus
p4242
F0.0
sVbored
p4243
F5.042096660367106e-05
sVadjusting
p4244
F0.0
sVhoped
p4245
F3.091547412956185e-05
sVpilling
p4246
F0.0
sVdirected
p4247
F0.0
sVrejection
p4248
F0.0
sVdevastating
p4249
F0.0
sVconstant
p4250
F0.00046373211194342774
sVsingle
p4251
F3.078369374053713e-05
sVcure
p4252
F0.0005042096660367106
sVcurb
p4253
F0.00015126289981101318
sVappetizing
p4254
F5.042096660367106e-05
sVtransg
p4255
F0.0
sVfogged
p4256
F0.0
sVmatching
p4257
F5.042096660367106e-05
sVexcuses
p4258
F0.0
sVb12
p4259
F0.0
sVopiates
p4260
F0.0009579983654697502
sVfriggen
p4261
F0.0
sVexplaining
p4262
F5.042096660367106e-05
sVprepared
p4263
F3.091547412956185e-05
sVutterly
p4264
F5.042096660367106e-05
sVdesert
p4265
F3.091547412956185e-05
sVconfirm
p4266
F9.274642238868553e-05
sV2007
p4267
F0.0
sV2008
p4268
F0.0
sV2009
p4269
F0.0
sVdogged
p4270
F0.0
sVgroceries
p4271
F0.00010084193320734212
sVamplified
p4272
F0.0
sVcompose
p4273
F0.0002521048330183553
sVintensive
p4274
F5.042096660367106e-05
sVchristpsychotics
p4275
F0.0
sVhelps
p4276
F0.0013293653875711595
sVfatal
p4277
F3.091547412956185e-05
sVknowledgebase
p4278
F0.0
sVputting
p4279
F4.5639926621810486e-05
sVsurgeon
p4280
F0.0
sVseverely
p4281
F0.00015126289981101318
sVseoquel
p4282
F0.0
sVantihistaminergic
p4283
F0.0
sVshock
p4284
F3.091547412956185e-05
sVqueencoyote
p4285
F0.0
sVimgur
p4286
F0.0
sVveeeeeery
p4287
F0.0
sVuncomfortable
p4288
F0.00010084193320734212
sV3x
p4289
F0.0
sVconfided
p4290
F0.0
sVgiving
p4291
F7.986987158816836e-05
sVenjoyed
p4292
F6.18309482591237e-05
sVaccess
p4293
F0.00021640831890693292
sVexercise
p4294
F0.001512628998110132
sVbody
p4295
F0.0001847021624432228
sVnonexistent
p4296
F5.042096660367106e-05
sVobjects
p4297
F5.042096660367106e-05
sVothers
p4298
F0.0002966595230417682
sVsafer
p4299
F0.0
sVextreme
p4300
F0.00015604393979287378
sVnumbness
p4301
F0.0
sV32
p4302
F1.9505492474109223e-05
sV30
p4303
F0.0003993493579408418
sV37
p4304
F3.091547412956185e-05
sV35
p4305
F0.0007110559049799224
sV34
p4306
F1.9505492474109223e-05
sVprincipally
p4307
F0.0
sVclimb
p4308
F6.18309482591237e-05
sVdepressant
p4309
F0.0
sVnullifies
p4310
F0.0
sVnamed
p4311
F1.1409981655452621e-05
sVformulated
p4312
F0.0
sVprivate
p4313
F1.9505492474109223e-05
sVdecrease
p4314
F0.00020168386641468425
sVprivately
p4315
F0.0
sVsignposting
p4316
F0.0
sVgateway
p4317
F3.091547412956185e-05
sVimpotency
p4318
F0.0
sVviibryd
p4319
F0.0
sVnauseated
p4320
F0.0
sVnimodipine
p4321
F0.0
sVtrain
p4322
F5.042096660367106e-05
sV4am
p4323
F0.0
sVaccount
p4324
F3.091547412956185e-05
sVf
p4325
F6.18309482591237e-05
sVneedle
p4326
F3.091547412956185e-05
sVredhaired
p4327
F0.0
sVobvious
p4328
F7.802196989643689e-05
sVclosing
p4329
F3.091547412956185e-05
sVpersonality
p4330
F6.18309482591237e-05
sVdidnt
p4331
F0.00035294676622569745
sVsnacks
p4332
F0.0
sVpharmacologically
p4333
F0.0
sVeffectively
p4334
F0.0
sVdietician
p4335
F0.0
sVmjne
p4336
F0.0
sVlamb
p4337
F5.042096660367106e-05
sVlame
p4338
F0.00015126289981101318
sVtrazadone
p4339
F0.0
sVholds
p4340
F1.1409981655452621e-05
sVregions
p4341
F0.0
sVrun
p4342
F5.643677185765141e-05
sVattachment
p4343
F5.042096660367106e-05
sVmeditated
p4344
F0.0
sVstock
p4345
F1.9505492474109223e-05
sVprofile
p4346
F0.0014221118099598448
sVbyetta
p4347
F0.0
sVhighs
p4348
F0.0
sVphilosophy
p4349
F5.042096660367106e-05
sVcollection
p4350
F3.091547412956185e-05
sVnullify
p4351
F0.0
sVbind
p4352
F0.0
sVlines
p4353
F1.9505492474109223e-05
sVshutting
p4354
F5.042096660367106e-05
sV9am
p4355
F0.0
sVredditor
p4356
F0.0
sVaddiction
p4357
F0.0
sVlined
p4358
F3.091547412956185e-05
sVoral
p4359
F0.0004537886994330396
sVemsam
p4360
F0.0
sVfrying
p4361
F0.0
sVhorny
p4362
F5.042096660367106e-05
sVbunch
p4363
F0.00011703295484465532
sVantipsychotic
p4364
F0.0
sVla
p4365
F5.130615623422855e-06
sVll
p4366
F0.0004104492498738284
sVage
p4367
F7.986987158816836e-05
sVwilling
p4368
F0.0002473237930364948
sVerowid
p4369
F0.0
sVdad
p4370
F0.00011703295484465532
sVgreater
p4371
F6.18309482591237e-05
sVspell
p4372
F3.091547412956185e-05
sVmention
p4373
F0.0001950549247410922
sVcutting
p4374
F3.9010984948218445e-05
sVtickles
p4375
F0.0
sVday
p4376
F0.0
sVsynaptic
p4377
F0.0
sVwarned
p4378
F0.00010084193320734212
sVblazing
p4379
F0.0
sVlamictal
p4380
F0.0
sVtoke
p4381
F0.0
sVactivate
p4382
F9.274642238868553e-05
sVcelexa
p4383
F0.0
sVstrip
p4384
F0.0012984499134415977
sVmarley
p4385
F0.0
sVpopping
p4386
F6.18309482591237e-05
sVmate
p4387
F1.9505492474109223e-05
sVsituational
p4388
F0.0
sVrem
p4389
F0.0
sVlecture
p4390
F0.0
sVreg
p4391
F0.0
sVred
p4392
F2.052246249369142e-05
sVapproaches
p4393
F3.9010984948218445e-05
sVlikelihood
p4394
F0.0
sVafterward
p4395
F0.0
sVinteraction
p4396
F0.00020168386641468425
sVcured
p4397
F5.042096660367106e-05
sVdeprived
p4398
F0.0
sVlitterbox
p4399
F5.042096660367106e-05
sVretail
p4400
F0.0
sVsouth
p4401
F1.9505492474109223e-05
sVstrategic
p4402
F0.0
sVimprovements
p4403
F0.00020168386641468425
sVhurdle
p4404
F0.0
sVsockets
p4405
F0.0
sVsadly
p4406
F0.0
sVmonkey
p4407
F3.091547412956185e-05
sVpots
p4408
F0.00030252579962202636
sVintermediate
p4409
F0.0
sVmessing
p4410
F5.042096660367106e-05
sVgear
p4411
F0.0
sVdoexpin
p4412
F0.0
sVexplanation
p4413
F5.042096660367106e-05
sVnobody
p4414
F0.0001236618965182474
sVenvironmental
p4415
F0.0
sVsporadically
p4416
F5.042096660367106e-05
sVloved
p4417
F0.0001236618965182474
sVslack
p4418
F0.0
sVpinelake
p4419
F0.0
sVhalcyon
p4420
F0.0
sVflashes
p4421
F5.042096660367106e-05
sVdoctorate
p4422
F0.0
sVtyrosine
p4423
F0.0
sVhavr
p4424
F0.0
sVmflb
p4425
F0.0
sVdeterred
p4426
F0.0
sVtide
p4427
F5.042096660367106e-05
sVunlikely
p4428
F0.0
sVthroat
p4429
F3.422994496635786e-05
sVdementia
p4430
F0.0
sVapparently
p4431
F0.000175549432266983
sVmin
p4432
F5.042096660367106e-05
sVmid
p4433
F3.9010984948218445e-05
sVmix
p4434
F0.00015604393979287378
sVconcerns
p4435
F0.0
sVnorepenphrine
p4436
F0.0
sVunless
p4437
F0.00015604393979287378
sVprednisone
p4438
F0.0
sVsfx
p4439
F0.0
sVsfw
p4440
F0.0
sVprocure
p4441
F0.0
sVmimics
p4442
F0.0
sVeight
p4443
F1.9505492474109223e-05
sVpreliminary
p4444
F0.00015126289981101318
sVgather
p4445
F3.091547412956185e-05
sVrequest
p4446
F5.851647742232766e-05
sVdisease
p4447
F3.091547412956185e-05
sVoccasion
p4448
F3.091547412956185e-05
sVskinny
p4449
F0.0002521048330183553
sVmonotherapy
p4450
F0.0
sVnormally
p4451
F0.00027823926716605664
sVnortryptiline
p4452
F0.0
sVtext
p4453
F0.00018549284477737107
sVsupported
p4454
F0.00010084193320734212
sVsublingual
p4455
F0.0
sVvistaril
p4456
F0.0
sVkits
p4457
F0.0
sVsupporter
p4458
F0.0
sVstaff
p4459
F5.042096660367106e-05
sVknowledge
p4460
F6.18309482591237e-05
sVresubmit
p4461
F0.0
sVregularly
p4462
F0.00015126289981101318
sVabused
p4463
F0.0
sVpharmacology
p4464
F0.0
sVexceptional
p4465
F5.042096660367106e-05
sVbeat
p4466
F7.802196989643689e-05
sVtiming
p4467
F0.0
sVareas
p4468
F0.00015126289981101318
sVorgan
p4469
F0.00010084193320734212
sVht2a
p4470
F0.0
sVcycled
p4471
F0.0
sVblogspot
p4472
F0.0
sV2990008
p4473
F0.0
sVopiod
p4474
F0.0
sVgabapentin
p4475
F0.0
sVenhancer
p4476
F0.0
sVenhances
p4477
F0.0
sVexists
p4478
F3.091547412956185e-05
sVgroggy
p4479
F0.0
sVintensity
p4480
F0.00015126289981101318
sVenhanced
p4481
F0.00010084193320734212
sVphases
p4482
F0.0
sVattempting
p4483
F1.9505492474109223e-05
sVpattern
p4484
F0.0
sVdifficulties
p4485
F0.0
sVroutine
p4486
F0.00015457737064780922
sVprogress
p4487
F2.2819963310905243e-05
sVboundary
p4488
F5.042096660367106e-05
sVlegit
p4489
F0.00010084193320734212
sVintubate
p4490
F0.0
sVempathy
p4491
F0.0
sVinstant
p4492
F6.18309482591237e-05
sVjoke
p4493
F3.091547412956185e-05
sVtaking
p4494
F0.0007336780341494683
sVequal
p4495
F0.00020168386641468425
sVagree
p4496
F9.127985324362097e-05
sVmoderators
p4497
F0.0
sVswallow
p4498
F9.274642238868553e-05
sVplacebo
p4499
F0.0
sVotherwise
p4500
F0.0002925823871116383
sVanxienty
p4501
F0.0
sVinflammatory
p4502
F0.0
sVtimolol
p4503
F0.0
sVinvasive
p4504
F0.0
sVlaugh
p4505
F1.9505492474109223e-05
sVah
p4506
F0.0
sVoutliers
p4507
F0.0
sVarises
p4508
F5.042096660367106e-05
sVbulk
p4509
F0.0
sVfinished
p4510
F3.9010984948218445e-05
sVassessments
p4511
F0.0
sVfellow
p4512
F5.042096660367106e-05
sVmulti
p4513
F1.9505492474109223e-05
sVhypotension
p4514
F0.0
sVplain
p4515
F1.9505492474109223e-05
sVappearance
p4516
F3.9010984948218445e-05
sVheadspace
p4517
F0.0
sVvalue
p4518
F5.704990827726311e-05
sVpromotes
p4519
F0.0
sVvenlaxfine
p4520
F0.0
sVfrustrating
p4521
F0.0
sValmost
p4522
F0.0001949633936900685
sVhobbies
p4523
F0.0
sVrespected
p4524
F5.042096660367106e-05
sVclaimed
p4525
F6.18309482591237e-05
sVpartner
p4526
F0.00015457737064780922
sVcables
p4527
F0.0
sVadministration
p4528
F5.042096660367106e-05
sVinjured
p4529
F0.0
sVtighten
p4530
F0.0
sVfucker
p4531
F5.042096660367106e-05
sVblockers
p4532
F0.0006050515992440527
sVfucked
p4533
F0.0009075773988660792
sVshitting
p4534
F5.042096660367106e-05
sVretard
p4535
F0.00010084193320734212
sVwys
p4536
F0.0
sVneural
p4537
F0.0
sVdisoriented
p4538
F0.0
sVthought
p4539
F0.00044498928456265227
sVoops
p4540
F5.042096660367106e-05
sVsets
p4541
F1.1409981655452621e-05
sVposition
p4542
F1.1409981655452621e-05
sVmuscle
p4543
F0.00015126289981101318
sVusual
p4544
F0.0005546306326403818
sVclinic
p4545
F0.0
sVunderlying
p4546
F9.274642238868553e-05
sVloperamide
p4547
F0.0
sVcitalorpram
p4548
F0.0
sVads
p4549
F5.042096660367106e-05
sVrepetitious
p4550
F0.0
sVvyvanse
p4551
F0.0
sVrecommending
p4552
F0.0
sVadd
p4553
F0.00011703295484465532
sVreenact
p4554
F0.0
sVmatch
p4555
F1.9505492474109223e-05
sVtests
p4556
F0.00020168386641468425
sVfyi
p4557
F0.0
sVlike
p4558
F0.0
sVsuccess
p4559
F0.00030915474129561844
sVsofa
p4560
F0.0
sVadmitted
p4561
F0.00020168386641468425
sVworky
p4562
F0.0
sVrozerm
p4563
F0.0
sVheed
p4564
F5.042096660367106e-05
sVworks
p4565
F0.0007997251914384782
sVsoft
p4566
F1.1409981655452621e-05
sValive
p4567
F2.2819963310905243e-05
sVproper
p4568
F0.00011409981655452622
sVsupportive
p4569
F0.0
sVhappens
p4570
F0.0001597397431763367
sVtms
p4571
F0.0
sVpropofol
p4572
F0.0
sVesp
p4573
F0.0
sVcorpse
p4574
F3.091547412956185e-05
sVslight
p4575
F6.18309482591237e-05
sVhost
p4576
F1.9505492474109223e-05
sValthough
p4577
F0.00028524954138631556
sVworthy
p4578
F3.091547412956185e-05
sVsnapped
p4579
F5.042096660367106e-05
sVperiodically
p4580
F3.091547412956185e-05
sVnoisy
p4581
F5.042096660367106e-05
sVactual
p4582
F0.00015126289981101318
sV6am
p4583
F0.0
sVstatement
p4584
F3.091547412956185e-05
sVintroduced
p4585
F3.091547412956185e-05
sVobliterated
p4586
F0.0
sVfunctional
p4587
F0.00020168386641468425
sVchronic
p4588
F0.0005546306326403818
sVweekends
p4589
F6.18309482591237e-05
sVesteem
p4590
F5.042096660367106e-05
sVfemale
p4591
F3.9010984948218445e-05
sVwack
p4592
F5.042096660367106e-05
sVlegends
p4593
F0.0
sVrushed
p4594
F0.0
sVrcs
p4595
F0.0
sVbiggest
p4596
F0.00015457737064780922
sVbuy
p4597
F5.851647742232766e-05
sVdextroamphetamine
p4598
F0.0
sVbus
p4599
F5.042096660367106e-05
sVcoke
p4600
F0.00010084193320734212
sVbuh
p4601
F0.0
sVbud
p4602
F0.0
sVpartially
p4603
F3.091547412956185e-05
sVwise
p4604
F0.00015126289981101318
sVdangerous
p4605
F0.00021456041721520144
sVflip
p4606
F5.042096660367106e-05
sVminutes
p4607
F0.0001597397431763367
sVpig
p4608
F3.091547412956185e-05
sVperiods
p4609
F0.0002521048330183553
sVshooting
p4610
F5.042096660367106e-05
sVpit
p4611
F5.042096660367106e-05
sVautism
p4612
F0.0
sVhospitalization
p4613
F0.0
sV48
p4614
F3.091547412956185e-05
sV45
p4615
F0.00011703295484465532
sVdetail
p4616
F3.091547412956185e-05
sV40
p4617
F0.0002925823871116383
sVsurreal
p4618
F0.0
sVstimulant
p4619
F0.0
sVirritability
p4620
F0.0
sVtraumatic
p4621
F0.0
sVvalproate
p4622
F0.0
sVaugmentation
p4623
F0.0
sVgodsend
p4624
F0.0
sVstarting
p4625
F0.0004096153419562937
sV_apasserby_
p4626
F0.0
sVyell
p4627
F0.00015126289981101318
sVbaked
p4628
F3.091547412956185e-05
sVaugmented
p4629
F0.0
sVlimited
p4630
F0.00010084193320734212
sVderp
p4631
F0.0
sVsleep
p4632
F0.004252197359355811
sVappetite
p4633
F0.004033677328293685
sVhate
p4634
F0.0004537886994330396
sVcytokines
p4635
F0.0
sVpoorly
p4636
F0.00010084193320734212
sVfeeding
p4637
F9.274642238868553e-05
sVpantoprazole
p4638
F0.0
sVwhatsoever
p4639
F9.274642238868553e-05
sV50mg
p4640
F0.0
sVrisk
p4641
F0.0003706043570080752
sVcitalopram
p4642
F0.0
sVdispense
p4643
F0.0
sVevery
p4644
F0.0003642737092630227
sVjack
p4645
F5.042096660367106e-05
sVvastly
p4646
F0.0
sVtheanine
p4647
F0.0
sVbestfriend
p4648
F0.0
sVcause
p4649
F0.0003283593998990627
sVenjoy
p4650
F9.75274623705461e-05
sVinfancy
p4651
F0.0
sVconsistent
p4652
F5.042096660367106e-05
sVdirect
p4653
F0.00030252579962202636
sVstreet
p4654
F0.00015126289981101318
sVocassional
p4655
F0.0
sVkratom
p4656
F0.0
sVemptiness
p4657
F0.0
sVblue
p4658
F1.9505492474109223e-05
sVchrist
p4659
F0.0
sVworsen
p4660
F0.0
sVselected
p4661
F5.042096660367106e-05
sVpoison
p4662
F5.042096660367106e-05
sVconduct
p4663
F0.0
sVsupplier
p4664
F0.0
sVchloral
p4665
F0.0
sVseeks
p4666
F5.042096660367106e-05
sVkicked
p4667
F3.091547412956185e-05
sVsocialize
p4668
F0.0
sVkicker
p4669
F0.0
sVethanol
p4670
F0.0
sVpath
p4671
F3.422994496635786e-05
sVforum
p4672
F5.042096660367106e-05
sVanyeone
p4673
F0.0
sVchanged
p4674
F0.00015604393979287378
sVjogging
p4675
F5.042096660367106e-05
sVchanges
p4676
F0.00015604393979287378
sVfeelings
p4677
F0.0002473237930364948
sVpatience
p4678
F5.042096660367106e-05
sVmodafinilpots
p4679
F0.0
sVforums
p4680
F0.00010084193320734212
sVswings
p4681
F0.0002521048330183553
sVwould
p4682
F0.0
sVhospital
p4683
F0.000587394008461675
sVtail
p4684
F1.9505492474109223e-05
sVasses
p4685
F5.042096660367106e-05
sVdepakote
p4686
F0.0
sVassessment
p4687
F5.042096660367106e-05
sVbreathe
p4688
F0.00010084193320734212
sVnaive
p4689
F0.0
sVphone
p4690
F0.0002473237930364948
sVexcellent
p4691
F0.00020168386641468425
sVsupplemental
p4692
F0.0
sVmust
p4693
F0.0
sVshoot
p4694
F6.18309482591237e-05
sVmd
p4695
F0.0
sVmg
p4696
F0.0
sVjoin
p4697
F4.5639926621810486e-05
sVmm
p4698
F0.00018549284477737107
sVtremendously
p4699
F0.0
sVdeficiencies
p4700
F0.0
sVmr
p4701
F0.0
sVaddictive
p4702
F0.0
sVkpin
p4703
F0.0
sVscheduling
p4704
F0.0
sVclonazopam
p4705
F0.0
sVkeep
p4706
F0.0002770532436648342
sVlexapro
p4707
F0.0
sVguarantee
p4708
F0.00015126289981101318
sVend
p4709
F0.00012313477496214852
sVillicit
p4710
F0.0
sVbunk
p4711
F5.042096660367106e-05
sVent
p4712
F0.0
sVtoxin
p4713
F0.0
sVtoxic
p4714
F0.0
sVbadly
p4715
F4.5639926621810486e-05
sVdescription
p4716
F5.042096660367106e-05
sVmess
p4717
F0.00015457737064780922
sVarthritis
p4718
F0.0
sVimaginable
p4719
F0.0
sVmesh
p4720
F0.0
sVparallel
p4721
F0.0
sVcopay
p4722
F0.0
sVhypnotic
p4723
F0.0
sVhypotheses
p4724
F0.0
sVupside
p4725
F3.091547412956185e-05
sVultimate
p4726
F0.0
sVdecreasing
p4727
F0.0
sVvits
p4728
F0.0
sVncbi
p4729
F0.0
sVcanto
p4730
F0.0
sVexpectations
p4731
F5.042096660367106e-05
sVimo
p4732
F0.0
sVdestroyed
p4733
F5.042096660367106e-05
sVcomplex
p4734
F1.9505492474109223e-05
sVcompensatory
p4735
F0.0
sVfade
p4736
F9.274642238868553e-05
sV400
p4737
F3.091547412956185e-05
sVpropanalol
p4738
F0.0
sVdiseases
p4739
F0.00015126289981101318
sVbouts
p4740
F0.0
sVhotics
p4741
F0.0
sV40g
p4742
F0.0
sVlithium
p4743
F0.0
sVexplode
p4744
F0.0
sVedit2
p4745
F0.0
sVfitness
p4746
F0.00010084193320734212
sVlasting
p4747
F0.00020168386641468425
sVsigning
p4748
F5.042096660367106e-05
sV127lbs
p4749
F0.0
sVconstipation
p4750
F5.042096660367106e-05
sVcombining
p4751
F0.00015126289981101318
sVclozapine
p4752
F0.0
sVgod
p4753
F0.0004946475860729896
sVgot
p4754
F0.0003334900155224856
sVgov
p4755
F0.00035294676622569745
sVperception
p4756
F0.00020168386641468425
sVfree
p4757
F0.0001026898348990736
sVboosting
p4758
F0.0
sVwanted
p4759
F0.0008038023273686081
sVfret
p4760
F0.0
sVdays
p4761
F0.0010611282939570939
sVtolerant
p4762
F0.0
sVheck
p4763
F0.00010084193320734212
sVhopeless
p4764
F0.00015126289981101318
sVsoda
p4765
F5.042096660367106e-05
sVonto
p4766
F0.00011703295484465532
sVrecite
p4767
F0.0
sVrang
p4768
F0.0
sValready
p4769
F9.23510812216114e-05
sVprimary
p4770
F0.0001236618965182474
sVhearing
p4771
F0.0001236618965182474
sVrestrict
p4772
F0.0
sVfantasy
p4773
F5.042096660367106e-05
sVnhs
p4774
F0.0
sVsober
p4775
F0.00030252579962202636
sVcalorie
p4776
F0.00015126289981101318
sVcaloric
p4777
F0.0
sVresearched
p4778
F0.0
sVpristiq
p4779
F0.0
sVtop
p4780
F0.0003422994496635787
sVeuphoric
p4781
F0.0
sVeuphoria
p4782
F0.0
sVton
p4783
F0.00015126289981101318
sVanalgesic
p4784
F0.0
sVglucose
p4785
F0.0
sVconsented
p4786
F0.0
sVantihypertensive
p4787
F0.0
sVcentered
p4788
F5.042096660367106e-05
sVtool
p4789
F0.00015126289981101318
sVserve
p4790
F3.091547412956185e-05
sVtook
p4791
F0.0003334900155224856
sVinjected
p4792
F0.00015126289981101318
sV150mg
p4793
F0.0
sV5ht2c
p4794
F0.0
sVfrankly
p4795
F5.042096660367106e-05
sV5ht2a
p4796
F0.0
sVbloated
p4797
F0.0
sVfinal
p4798
F2.2819963310905243e-05
sVclasses
p4799
F0.0001483297615208841
sVmodulators
p4800
F0.0
sVbeard
p4801
F6.18309482591237e-05
sVlbs
p4802
F0.0
sVfashion
p4803
F5.042096660367106e-05
sVran
p4804
F7.802196989643689e-05
sVtalking
p4805
F0.0010588402986770925
sVrat
p4806
F3.091547412956185e-05
sVadhd
p4807
F0.0
sVregulate
p4808
F0.0
sVrelatively
p4809
F0.00015126289981101318
sVrelapse
p4810
F0.0
sVisolated
p4811
F0.0
sVthorough
p4812
F0.0
sVcleft
p4813
F0.0
sVeffectiveness
p4814
F0.0
sVplenty
p4815
F0.0001236618965182474
sVpromotions
p4816
F0.0
sVpeers
p4817
F0.0
sVlifesaver
p4818
F0.0
sVtreats
p4819
F5.042096660367106e-05
sVflop
p4820
F5.042096660367106e-05
sVflow
p4821
F0.00010084193320734212
sVreputation
p4822
F6.18309482591237e-05
sVnorepenephrine
p4823
F0.0
sVrandom
p4824
F9.274642238868553e-05
sVcolors
p4825
F3.091547412956185e-05
sVsolutions
p4826
F0.0
sVanalogue
p4827
F0.0
sVsituations
p4828
F0.00011703295484465532
sVocd
p4829
F0.0
sVmixture
p4830
F5.042096660367106e-05
sVcriticizes
p4831
F5.042096660367106e-05
sVkindling
p4832
F0.0
sVwatch
p4833
F0.0
sVfluid
p4834
F0.00010084193320734212
sVamazon
p4835
F0.0011092612652807636
sVlibidos
p4836
F0.0
sVdespite
p4837
F5.704990827726311e-05
sVreport
p4838
F0.0001236618965182474
sVknocks
p4839
F0.00010084193320734212
sVcountries
p4840
F5.042096660367106e-05
sVhospitalize
p4841
F0.0
sVidiotic
p4842
F0.0
sVtwice
p4843
F7.802196989643689e-05
sVmglur
p4844
F0.0
sVhabit
p4845
F0.0
sVvalsartan
p4846
F0.0
sVreligiouspsychotics
p4847
F0.0
sVdepressive
p4848
F0.0
sVtemptation
p4849
F3.091547412956185e-05
sViirc
p4850
F0.0
sVcontinually
p4851
F5.042096660367106e-05
sVfinger
p4852
F3.9010984948218445e-05
sV2013conference
p4853
F0.0
sVhopefully
p4854
F0.0
sVmum
p4855
F6.18309482591237e-05
sVapproach
p4856
F9.274642238868553e-05
sVwean
p4857
F0.0
sVweak
p4858
F0.0006554725658477239
sVhowever
p4859
F0.0015766891806076543
sVboss
p4860
F5.042096660367106e-05
sVnightmares
p4861
F0.0
sVwear
p4862
F0.0001236618965182474
sV20151009_101200
p4863
F0.0
sVnews
p4864
F0.00013653844731876453
sVoxidase
p4865
F0.0
sVdrowsy
p4866
F0.0
sVimprove
p4867
F0.0001236618965182474
sVfaced
p4868
F3.091547412956185e-05
sVreferral
p4869
F0.0
sVirregular
p4870
F5.042096660367106e-05
sVfault
p4871
F2.2819963310905243e-05
sVdisengage
p4872
F0.0
sVgames
p4873
F0.00015457737064780922
sVmildly
p4874
F0.0
sVvariance
p4875
F0.0
sVexhibit
p4876
F5.042096660367106e-05
sVbetting
p4877
F0.0
sVinactivate
p4878
F0.0
sVtrust
p4879
F0.00015457737064780922
sVbuzzing
p4880
F5.042096660367106e-05
sVbathroom
p4881
F5.042096660367106e-05
sVincomparable
p4882
F0.0
sVbinge
p4883
F0.0
sVquickly
p4884
F0.0001483297615208841
sVbeer
p4885
F0.00010084193320734212
sVexpected
p4886
F1.9505492474109223e-05
sVpmwiki
p4887
F0.0
sVfleeting
p4888
F5.042096660367106e-05
sVbladder
p4889
F0.00010084193320734212
sVuncommon
p4890
F6.18309482591237e-05
sVcraft
p4891
F0.0
sVneurontin
p4892
F0.0
sVcatch
p4893
F6.18309482591237e-05
sVdeductible
p4894
F0.0
sVpecker
p4895
F0.0
sVintending
p4896
F0.0
sVlessen
p4897
F0.0
sVbuproprion
p4898
F0.0
sVn
p4899
F5.130615623422855e-06
sVlesser
p4900
F5.042096660367106e-05
sVweren
p4901
F0.00011703295484465532
sVstopping
p4902
F0.00034007021542518034
sVprocedure
p4903
F0.00010084193320734212
sVclonazolam
p4904
F0.0
sVpharm
p4905
F0.0
sVexperts
p4906
F0.0
sVexperience
p4907
F0.0013293653875711595
sVsuggest
p4908
F0.0008571564322624081
sVdrawback
p4909
F0.0
sVseveral
p4910
F0.0005564785343321133
sVworkout
p4911
F0.0
sVscrew
p4912
F6.18309482591237e-05
sVsocial
p4913
F0.0001483297615208841
sVaction
p4914
F0.00043281663781386583
sVdozing
p4915
F0.0
sVcycle
p4916
F0.0001236618965182474
sVmentioning
p4917
F5.042096660367106e-05
sVtoxicity
p4918
F0.0
sVshortly
p4919
F5.042096660367106e-05
sVsavings
p4920
F0.0
sVmother
p4921
F2.5653078117114275e-05
sValarms
p4922
F0.00010084193320734212
sVproposed
p4923
F0.0
sVable
p4924
F0.0004335793029071996
sVlaptop
p4925
F3.091547412956185e-05
sVgrades
p4926
F0.0
sVdopamine
p4927
F0.0
sVresigning
p4928
F0.0
sVvices
p4929
F0.0
sVpharmacy
p4930
F0.0034286257290496325
sVteenager
p4931
F5.042096660367106e-05
sV5g
p4932
F0.0
sVhumanity
p4933
F5.042096660367106e-05
sVgave
p4934
F0.0008347178014981698
sVbreaks
p4935
F5.851647742232766e-05
sVeesh
p4936
F0.0
sVjudge
p4937
F6.18309482591237e-05
sVburnt
p4938
F6.18309482591237e-05
sVadvanced
p4939
F3.9010984948218445e-05
sVapart
p4940
F1.9505492474109223e-05
sVmelting
p4941
F0.0
sVappearing
p4942
F1.9505492474109223e-05
sV55
p4943
F5.042096660367106e-05
sVcontradict
p4944
F0.0
sV50
p4945
F0.0006161390093944416
sVspecific
p4946
F0.0001950549247410922
sVinformative
p4947
F5.042096660367106e-05
sVdissociative
p4948
F0.0
sVhung
p4949
F1.9505492474109223e-05
sVstereotype
p4950
F5.042096660367106e-05
sVzoom
p4951
F5.042096660367106e-05
sVselectivity
p4952
F0.0
sVescape
p4953
F3.422994496635786e-05
sVtotaly
p4954
F0.0
sVeverything
p4955
F0.0001847021624432228
sVatenolol
p4956
F0.0
sVchristmas
p4957
F0.0
sVicu
p4958
F0.0
sVcord
p4959
F0.0
sVcore
p4960
F7.802196989643689e-05
sVdisappeared
p4961
F1.9505492474109223e-05
sVdiscount
p4962
F0.00010084193320734212
sVsrni
p4963
F0.0
sVattacks
p4964
F0.000756314499055066
sVtrustworthy
p4965
F5.042096660367106e-05
sVsnris
p4966
F0.0
sVplus
p4967
F0.0001950549247410922
sVsteadily
p4968
F0.0
sVefforts
p4969
F3.091547412956185e-05
sVpresence
p4970
F1.1409981655452621e-05
sVuncontrolled
p4971
F0.0
sVfinely
p4972
F0.00020168386641468425
sVprazocin
p4973
F0.0
sVanorexic
p4974
F0.00010084193320734212
sVanorexia
p4975
F5.042096660367106e-05
sVrely
p4976
F3.091547412956185e-05
sVstuck
p4977
F6.18309482591237e-05
sVhumalog
p4978
F0.0
sVmetabolism
p4979
F0.0002521048330183553
sVpurposely
p4980
F0.0
sVintolerance
p4981
F0.0
sVhead
p4982
F5.643677185765141e-05
sVhangover
p4983
F0.00030252579962202636
sVattempted
p4984
F0.00010084193320734212
sVdifferences
p4985
F5.042096660367106e-05
sVhear
p4986
F0.0002167896514535998
sVheap
p4987
F0.0
sVremoved
p4988
F1.1409981655452621e-05
sVnodded
p4989
F0.0
sVcounsel
p4990
F0.0
sVportions
p4991
F0.0
sVbargain
p4992
F5.042096660367106e-05
sVruined
p4993
F9.274642238868553e-05
sVannoying
p4994
F0.00013653844731876453
sVtrip
p4995
F0.0006801404308503607
sVregime
p4996
F0.0
sVpipe
p4997
F1.9505492474109223e-05
sVradically
p4998
F0.0
sVnl
p4999
F0.00010084193320734212
sVfaithful
p5000
F5.042096660367106e-05
sVnb
p5001
F0.0
sVtip
p5002
F0.00011703295484465532
sVtil
p5003
F1.9505492474109223e-05
sVsetting
p5004
F5.704990827726311e-05
sVcomplicit
p5005
F0.0
sVpapers
p5006
F5.042096660367106e-05
sVnp
p5007
F0.0
sVpanax
p5008
F0.0
sVnode
p5009
F0.0
sVpicture
p5010
F3.9010984948218445e-05
sVfootball
p5011
F3.091547412956185e-05
sVmiscellaneous
p5012
F5.042096660367106e-05
sVquintessentially
p5013
F0.0
sV2btoggle
p5014
F0.0
sVyounger
p5015
F1.9505492474109223e-05
sVfaster
p5016
F5.851647742232766e-05
sVserious
p5017
F0.0003901098494821844
sVantipsychotics
p5018
F0.0
sVimpression
p5019
F0.00010084193320734212
sValternatives
p5020
F0.00020168386641468425
sVfocus
p5021
F0.0005546306326403818
sVleads
p5022
F3.9010984948218445e-05
sVmodafinil
p5023
F0.0
sVremarkably
p5024
F0.0
sVenvironment
p5025
F9.274642238868553e-05
sVcharge
p5026
F3.091547412956185e-05
sVadvantage
p5027
F3.091547412956185e-05
sVsloppy
p5028
F5.042096660367106e-05
sVcook
p5029
F3.091547412956185e-05
sVcool
p5030
F0.0002521048330183553
sVsleepier
p5031
F0.0
sVlevel
p5032
F4.61755406108057e-05
sVposts
p5033
F5.042096660367106e-05
sVbrother
p5034
F6.18309482591237e-05
sVannihilates
p5035
F0.0
sVquick
p5036
F2.5653078117114275e-05
sVwellbutrin
p5037
F0.0
sVsays
p5038
F4.61755406108057e-05
sVpms
p5039
F0.0
sVsidetracking
p5040
F0.0
sVslowed
p5041
F0.0
sVpmc
p5042
F0.0
sVprefrontal
p5043
F0.0
sVport
p5044
F1.9505492474109223e-05
sVsubstitute
p5045
F0.0
sVdrinks
p5046
F0.00030252579962202636
sVstands
p5047
F1.9505492474109223e-05
sV25mg
p5048
F0.0
sVgoes
p5049
F9.23510812216114e-05
sVreply
p5050
F6.18309482591237e-05
sVwithdrawls
p5051
F0.0
sVprescriptions
p5052
F0.0
sVwater
p5053
F7.802196989643689e-05
sVtopiramate
p5054
F0.0
sVgroups
p5055
F0.00010084193320734212
sVnoticeable
p5056
F5.042096660367106e-05
sVhealthy
p5057
F0.0005071428043268398
sVguilty
p5058
F5.042096660367106e-05
sVproud
p5059
F3.091547412956185e-05
sVexams
p5060
F0.0
sVweird
p5061
F0.000351098864533966
sVlowers
p5062
F5.042096660367106e-05
sVshootings
p5063
F0.0
sVhumous
p5064
F0.0
sVinducing
p5065
F0.0
sV1st
p5066
F3.091547412956185e-05
sVfastime
p5067
F0.0
sVvenalefexine
p5068
F0.0
sVvivid
p5069
F0.0
sVbrighter
p5070
F5.042096660367106e-05
sVsports
p5071
F6.18309482591237e-05
sVmemory
p5072
F0.0001950549247410922
sVpregabalin
p5073
F0.0
sVtoday
p5074
F0.00018255970648724194
sVantiemetic
p5075
F0.0
sVsessions
p5076
F0.00010084193320734212
sVcashier
p5077
F5.042096660367106e-05
sVcases
p5078
F0.00020168386641468425
sVinsights
p5079
F0.0
sVlocal
p5080
F6.18309482591237e-05
sVdepressants
p5081
F0.0
sVcalisthenic
p5082
F0.0
sVslightest
p5083
F0.0
sVnursing
p5084
F0.0
sVfigure
p5085
F0.0002473237930364948
sVnexus
p5086
F0.0
sVstroke
p5087
F0.00010084193320734212
sVpalpitations
p5088
F0.0
sVdropped
p5089
F0.00011703295484465532
sVcounting
p5090
F9.274642238868553e-05
sVconversely
p5091
F0.0
sVpainkillers
p5092
F5.042096660367106e-05
sVrequirements
p5093
F5.042096660367106e-05
sVbrand
p5094
F3.9010984948218445e-05
sVdinner
p5095
F5.851647742232766e-05
sV1
p5096
F0.0002667920124179885
sVvital
p5097
F5.042096660367106e-05
sVensure
p5098
F5.042096660367106e-05
sVopana
p5099
F0.0
sVefficacies
p5100
F0.0
sVirrational
p5101
F0.0
sVcocktail
p5102
F0.00030252579962202636
sVinformation
p5103
F0.00034007021542518034
sV4th
p5104
F5.042096660367106e-05
sVdexedrine
p5105
F0.0
sVliquid
p5106
F0.00035294676622569745
sVjoint
p5107
F0.0002521048330183553
sVcomfort
p5108
F0.0
sVfood
p5109
F0.0002738395597308629
sVblocker
p5110
F0.0006050515992440527
sVmainly
p5111
F0.00015457737064780922
sVymmv
p5112
F0.0
sVblocked
p5113
F0.00015126289981101318
sVvta
p5114
F0.0
sVparadoxically
p5115
F0.00010084193320734212
sVgtg
p5116
F0.0
sVideation
p5117
F0.0
sVhappened
p5118
F0.00011409981655452622
sVlonely
p5119
F0.00015457737064780922
sVremron
p5120
F0.0
sVconversations
p5121
F0.00010084193320734212
sVbenzodiazepine_withdrawal_syndrome
p5122
F0.0
sVqualified
p5123
F0.00010084193320734212
sVppl
p5124
F0.0
sVterm
p5125
F0.000526648296800949
sVinderall
p5126
F0.0
sVname
p5127
F2.052246249369142e-05
sVstabilize
p5128
F0.0
sVstahl
p5129
F0.0
sVdebating
p5130
F0.0
sVpossibilities
p5131
F0.0
sVnodding
p5132
F0.00010084193320734212
sVrealise
p5133
F0.0
sVantiepileptic
p5134
F0.0
sVunproductive
p5135
F0.0
sVhiccups
p5136
F0.00020168386641468425
sVnassa
p5137
F0.0
sVcatching
p5138
F3.091547412956185e-05
sVintended
p5139
F0.0
sVsustains
p5140
F0.0
sVfactors
p5141
F0.00020168386641468425
sV100g
p5142
F0.0
sVunrefreshing
p5143
F0.0
sVhacked
p5144
F3.091547412956185e-05
sV100x
p5145
F0.0
sVpyridinylpiperazine
p5146
F0.0
sV10pack
p5147
F0.0
sVim_just_curious_how_many_pills_do_you_take_on_a
p5148
F0.0
sVgram
p5149
F0.0
sVtheory
p5150
F0.00010084193320734212
sVvariant
p5151
F0.0
sVnucleuspf3izq7o6
p5152
F0.0
sVantihistamines
p5153
F0.0
sVclozaril
p5154
F0.0
sVescitralopram
p5155
F0.0
sV10ml
p5156
F0.0
sVyup
p5157
F0.0
sVcalories
p5158
F0.0005042096660367106
sV10mg
p5159
F0.0
sVmotion
p5160
F3.091547412956185e-05
sVturn
p5161
F9.127985324362097e-05
sVplace
p5162
F3.591430936395999e-05
sVdiscontinued
p5163
F0.0
sVlmaoooooooo
p5164
F0.0
sVawfully
p5165
F3.091547412956185e-05
sVarray
p5166
F0.0
sVtingling
p5167
F0.0
sVgiven
p5168
F5.643677185765141e-05
sVnecessarily
p5169
F9.274642238868553e-05
sVcarbonate
p5170
F0.0
sVstimulation
p5171
F0.00030252579962202636
sVreturns
p5172
F1.1409981655452621e-05
sVterrifying
p5173
F0.0
sVwhite
p5174
F3.422994496635786e-05
sVgives
p5175
F7.986987158816836e-05
sVfexofenadine
p5176
F0.0
sVhug
p5177
F5.042096660367106e-05
sV150lbs
p5178
F0.0
sVhypnotics
p5179
F0.0
sVscrewing
p5180
F0.0
sVreleased
p5181
F0.00010084193320734212
sVcopy
p5182
F1.9505492474109223e-05
sVpopulation
p5183
F6.18309482591237e-05
sVwide
p5184
F1.1409981655452621e-05
sVunfortunately
p5185
F0.00035294676622569745
sVrequire
p5186
F0.00015126289981101318
sVnonides
p5187
F0.0
sVcards
p5188
F3.091547412956185e-05
sVpre
p5189
F6.18309482591237e-05
sVpro
p5190
F0.0
sVcrippling
p5191
F0.0
sVans
p5192
F0.0
sVkush
p5193
F0.0
sVsciences
p5194
F0.0
sVideal
p5195
F9.274642238868553e-05
sVanimation
p5196
F5.042096660367106e-05
sVsorority
p5197
F5.042096660367106e-05
sVurge
p5198
F0.0
sVsure
p5199
F0.0007530587892598731
sVmultiple
p5200
F0.00030915474129561844
sVbotulinum
p5201
F0.0
sVprobed
p5202
F0.0
sVclearer
p5203
F0.0
sVfalls
p5204
F2.2819963310905243e-05
sVupregulating
p5205
F0.0
sVnet
p5206
F6.18309482591237e-05
sVcleared
p5207
F3.091547412956185e-05
sVlatex
p5208
F0.00015126289981101318
sVconsidered
p5209
F0.00030915474129561844
sVlater
p5210
F0.00046813181937862126
sVhungry
p5211
F0.0006183094825912369
sVcortex
p5212
F0.0
sVquantity
p5213
F0.0
sVslope
p5214
F3.091547412956185e-05
sVvetspecialistsofrochester
p5215
F0.0
sVdrastically
p5216
F0.0
sVginseng
p5217
F0.0
sVrecipe
p5218
F0.0
sVnlm
p5219
F0.0
sVlearntech
p5220
F0.0
sVfavor
p5221
F3.091547412956185e-05
sVampakines
p5222
F0.0
sVnootropics
p5223
F0.0
sVregarding
p5224
F3.091547412956185e-05
sVobliterate
p5225
F0.0
sVfainted
p5226
F0.0
sVjokes
p5227
F3.091547412956185e-05
sVpants
p5228
F5.042096660367106e-05
sVdiscussing
p5229
F5.042096660367106e-05
sVcollege
p5230
F0.00030252579962202636
sVapologies
p5231
F0.0
sVexam
p5232
F5.042096660367106e-05
sVfails
p5233
F0.00020168386641468425
sVinhibitory
p5234
F0.0
sVways
p5235
F0.0001026898348990736
sVsubsequent
p5236
F0.00010084193320734212
sVdefinite
p5237
F5.042096660367106e-05
sVinhibitors
p5238
F0.0
sVoutside
p5239
F4.104492498738284e-05
sVstims
p5240
F0.0
sVcortisol
p5241
F0.0
sV25
p5242
F0.00031208787958574756
sVballsdeep
p5243
F0.0
sVguitar
p5244
F6.18309482591237e-05
sVunusually
p5245
F0.0
sVvenlafaxine
p5246
F0.0
sVharshly
p5247
F0.0
sVcities
p5248
F5.042096660367106e-05
sVcome
p5249
F0.00015391846870268567
sVreaction
p5250
F0.0002473237930364948
sVemaciated
p5251
F0.0
sVtopamax
p5252
F0.0
sV23
p5253
F3.9010984948218445e-05
sVquiet
p5254
F3.422994496635786e-05
sVreboxetine
p5255
F0.0
sVutterance
p5256
F0.0
sVduty
p5257
F3.091547412956185e-05
sVafterwards
p5258
F7.802196989643689e-05
sVcolor
p5259
F3.9010984948218445e-05
sVnooooope
p5260
F0.0
sVpot
p5261
F0.00015457737064780922
sVperiod
p5262
F7.986987158816836e-05
sVpop
p5263
F3.091547412956185e-05
sVthiazolidinediones
p5264
F0.0
sVlosses
p5265
F0.0
sVturkey
p5266
F0.0006554725658477239
sVsubscribed
p5267
F0.0
sVhardly
p5268
F9.274642238868553e-05
sVdirection
p5269
F5.130615623422855e-06
sVpioglitazone
p5270
F0.0
sV6g
p5271
F0.0
sVandrew
p5272
F0.0
sVhernia
p5273
F0.0
sVattentive
p5274
F0.0
sVirrelevant
p5275
F5.042096660367106e-05
sVcase
p5276
F0.0003537094313190313
sVmegace
p5277
F0.0
sVsildenafil
p5278
F0.0
sVslippery
p5279
F0.0
sVside_effect
p5280
F0.0
sVsomeone
p5281
F0.0
sVdowners
p5282
F0.0
sVsedating
p5283
F0.0
sVreshape
p5284
F0.0
sVreminded
p5285
F0.00010084193320734212
sVrelaxant
p5286
F0.0
sVsupra
p5287
F0.0
sVcheck
p5288
F0.00027823926716605664
sVhtml
p5289
F0.00020168386641468425
sVsuboxone
p5290
F0.0
sVagitated
p5291
F0.0
sVreminder
p5292
F5.042096660367106e-05
sVevents
p5293
F9.274642238868553e-05
sVmoronic
p5294
F0.0
sVweek
p5295
F0.0010142856086536795
sVween
p5296
F0.0
sVdrives
p5297
F1.9505492474109223e-05
sVweed
p5298
F0.0013613660982991188
sVpersons
p5299
F6.18309482591237e-05
sVrocknroll
p5300
F0.0
sVchanging
p5301
F7.802196989643689e-05
sVfasting
p5302
F0.0
sVwithout
p5303
F0.0
sVrelief
p5304
F0.0
sVinability
p5305
F0.00010084193320734212
sVreward
p5306
F9.274642238868553e-05
sVmotorskills
p5307
F0.0
sVresearchers
p5308
F0.0
sVjustify
p5309
F0.0
sVcaptures
p5310
F0.0
sVactions
p5311
F0.00010084193320734212
sVdysautonomia
p5312
F0.0
sV5ht
p5313
F0.0
sVcease
p5314
F5.042096660367106e-05
sVconflating
p5315
F0.0
sVabstained
p5316
F0.0
sVbehavioural
p5317
F0.0
sVrefills
p5318
F0.0
sVsampled
p5319
F0.0
sVrose
p5320
F5.042096660367106e-05
sVseems
p5321
F0.0001744409311963771
sVreccomend
p5322
F0.0
sVlets
p5323
F3.422994496635786e-05
sVblob
p5324
F0.0
sVsamples
p5325
F0.00015126289981101318
sVdisrupt
p5326
F0.0
sVvicodin
p5327
F0.0
sVscheduled
p5328
F0.00010084193320734212
sVkills
p5329
F3.9010984948218445e-05
sV60mgs
p5330
F0.0
sVaccepted
p5331
F0.0001236618965182474
sVcorrecting
p5332
F0.0
sVacute
p5333
F0.0
sVfibromyalgia
p5334
F0.0
sVreduces
p5335
F0.0
sVbuddies
p5336
F5.042096660367106e-05
sVoddly
p5337
F3.091547412956185e-05
sVsanity
p5338
F0.0
sVsnort
p5339
F5.042096660367106e-05
sVtic
p5340
F0.0
sVreduced
p5341
F0.00030252579962202636
sVnodd
p5342
F0.0
sVmeara
p5343
F0.0
sVibuprofen
p5344
F0.0
sVintact
p5345
F3.091547412956185e-05
sVprovided
p5346
F0.0001236618965182474
sVmood
p5347
F0.0015148582323485304
sVgoogled
p5348
F0.0
sVlegal
p5349
F0.00015126289981101318
sVprovider
p5350
F0.0
sVcompulsion
p5351
F0.0
sVquitting
p5352
F0.0
sVcalmed
p5353
F0.0
sVerased
p5354
F3.091547412956185e-05
sVmethamphetamine
p5355
F0.0
sVnails
p5356
F0.00010084193320734212
sVweirdest
p5357
F5.042096660367106e-05
sVvoracious
p5358
F0.0
sVcalmer
p5359
F0.0
sVterrified
p5360
F0.0
sVok
p5361
F0.00015604393979287378
sVoi
p5362
F0.0
sVoh
p5363
F0.000587394008461675
sVod
p5364
F0.0
sVdiscussed
p5365
F0.0
sVstand
p5366
F5.704990827726311e-05
sVconcentrations
p5367
F0.0
sVop
p5368
F0.0005546306326403818
sVlantus
p5369
F0.0
sVcommunication
p5370
F0.0
sVspinal
p5371
F0.0
sVaccounts
p5372
F1.9505492474109223e-05
sVdetermine
p5373
F5.042096660367106e-05
sVlastly
p5374
F0.0
sVtheoretically
p5375
F0.0
sV300mg
p5376
F0.0
sVstrictly
p5377
F9.274642238868553e-05
sVstrict
p5378
F0.00015126289981101318
sVcultures
p5379
F5.042096660367106e-05
sVenergy
p5380
F0.0012101031984881054
sVcatholics
p5381
F0.0
sVregard
p5382
F0.0
sVaniracetam
p5383
F0.0
sVpromote
p5384
F5.042096660367106e-05
sVlonger
p5385
F0.00011800415933872568
sVapplying
p5386
F5.042096660367106e-05
sVmedrol
p5387
F0.0
sVnootropic
p5388
F0.0
sVgrasp
p5389
F0.0
sVgrass
p5390
F1.9505492474109223e-05
sVstrongly
p5391
F0.0
sVcbd
p5392
F0.0
sVtaste
p5393
F3.9010984948218445e-05
sVssri
p5394
F0.0
sVcbn
p5395
F0.0
sVminneapolis
p5396
F0.0
sVbritain
p5397
F0.0
sVcbt
p5398
F0.0
sVstumbled
p5399
F0.0
sVidiot
p5400
F5.042096660367106e-05
sVdiarrhea
p5401
F0.0004537886994330396
sVtemazapam
p5402
F0.0
sV5
p5403
F0.0002719226280414113
sVbriefly
p5404
F5.042096660367106e-05
sVotc
p5405
F0.0
sVfor_moderators_switches_commands_and_css
p5406
F0.0
sVsymbol
p5407
F3.091547412956185e-05
sVincludes
p5408
F0.0004291208344304029
sVnucleus
p5409
F0.0
sVincluded
p5410
F0.00018549284477737107
sVmissed
p5411
F9.274642238868553e-05
sVcarbs
p5412
F0.00020168386641468425
sVclinically
p5413
F0.0
sVcalls
p5414
F3.9010984948218445e-05
sVwife
p5415
F0.0001236618965182474
sVcurve
p5416
F6.18309482591237e-05
sVexhausting
p5417
F0.0
sVnumbing
p5418
F0.00010084193320734212
sVcatapres
p5419
F0.0
sVembolism
p5420
F0.0
sVlack
p5421
F0.00013691977986543145
sVsulfonylurea
p5422
F0.0
sVantagonize
p5423
F0.0
sVfollow
p5424
F5.704990827726311e-05
sVmeditation
p5425
F0.0
sVdecisions
p5426
F0.0
sVhmmm
p5427
F0.00010084193320734212
sVsynthetic
p5428
F0.00015126289981101318
sVlexipro
p5429
F0.0
sVsubsided
p5430
F0.0
sVextraneous
p5431
F5.042096660367106e-05
sVautowikibot
p5432
F0.0
sVactivities
p5433
F0.0
sVwoman
p5434
F1.1409981655452621e-05
sVworse
p5435
F0.00028524954138631556
sVsong
p5436
F1.1409981655452621e-05
sVfar
p5437
F0.00020009400931349136
sVtripdude
p5438
F0.0
sVfav
p5439
F0.0
sVfat
p5440
F0.0002473237930364948
sVunregulated
p5441
F0.0
sVsimpsons
p5442
F0.0
sVpsychologist
p5443
F0.0
sVworst
p5444
F0.00043281663781386583
sVsublingually
p5445
F0.0
sVvacationing
p5446
F0.0
sVenter
p5447
F1.1409981655452621e-05
sVuwe
p5448
F0.0
sVtreating
p5449
F0.0005546306326403818
sVlist
p5450
F0.0006826922365938228
sVprolonged
p5451
F0.0
sVgrandfather
p5452
F5.042096660367106e-05
sVsingularly
p5453
F0.0
sVteh
p5454
F5.042096660367106e-05
sVtel
p5455
F0.0
sVten
p5456
F5.704990827726311e-05
sVtea
p5457
F7.802196989643689e-05
sVsynergy
p5458
F0.0
sVrate
p5459
F0.00040190116368430404
sVnbc
p5460
F0.0
sVfunctioning
p5461
F0.00015126289981101318
sVsub
p5462
F3.9010984948218445e-05
sVdeeply
p5463
F9.274642238868553e-05
sVbrief
p5464
F5.042096660367106e-05
sVversion
p5465
F0.0001236618965182474
sVracing
p5466
F5.851647742232766e-05
sVguns
p5467
F3.091547412956185e-05
sVsupposedly
p5468
F5.042096660367106e-05
sVbehaviour
p5469
F3.091547412956185e-05
sVcombating
p5470
F0.0
sVshouldn
p5471
F0.0001950549247410922
sVrelaxation
p5472
F0.0
sVnewish
p5473
F0.0
sVallows
p5474
F0.00010084193320734212
sVsupplements
p5475
F0.0
sVoptions
p5476
F0.0006183094825912369
sVsticking
p5477
F5.042096660367106e-05
sVtightness
p5478
F0.0
sVthankfully
p5479
F0.0
sVsuddenly
p5480
F6.845988993271573e-05
sVscreens
p5481
F5.042096660367106e-05
sVmunchies
p5482
F0.0006050515992440527
sVdonuts
p5483
F5.042096660367106e-05
sVfaint
p5484
F5.042096660367106e-05
sVshite
p5485
F0.0
sVshits
p5486
F5.042096660367106e-05
sVminor
p5487
F5.851647742232766e-05
sVflat
p5488
F2.2819963310905243e-05
sVknows
p5489
F5.851647742232766e-05
sVoxymorphone
p5490
F0.0
sVbasically
p5491
F0.0009579983654697502
sVknown
p5492
F0.0003194794863526734
sVglad
p5493
F0.00011409981655452622
sVstereoisomers
p5494
F0.0
sVbesides
p5495
F0.00021640831890693292
sVv
p5496
F0.00015126289981101318
sVcomputers
p5497
F0.00010084193320734212
sVpsychonautwiki
p5498
F0.0
sVsectioned
p5499
F0.0
sVcaffeinated
p5500
F0.0
sV3yr
p5501
F0.0
sVchores
p5502
F5.042096660367106e-05
sVinfectedmethod
p5503
F0.0
sVcourt
p5504
F3.091547412956185e-05
sVtitrating
p5505
F0.0
sVdesperation
p5506
F0.0
sVrather
p5507
F0.0002624295780754103
sVbreaking
p5508
F3.422994496635786e-05
sVoccasionally
p5509
F5.851647742232766e-05
sVexplains
p5510
F0.00010084193320734212
sVubiquitous
p5511
F0.0
sVmaprotiline
p5512
F0.0
sVnumb
p5513
F0.0
sVmeathead
p5514
F5.042096660367106e-05
sVshort
p5515
F0.00012313477496214852
sVselegeline
p5516
F0.0
sVshady
p5517
F0.0
sVstash
p5518
F0.0
sVclimaxed
p5519
F0.0
sVmdmaish
p5520
F0.0
sVessence
p5521
F0.0
sVflowers
p5522
F3.091547412956185e-05
sVdisabled
p5523
F3.091547412956185e-05
sVinterpersonal
p5524
F0.0
sVresort
p5525
F0.0
sVparts
p5526
F7.802196989643689e-05
sVbout
p5527
F0.00010084193320734212
sVmight
p5528
F0.0003745349405098685
sValter
p5529
F0.0
sVwouldn
p5530
F0.0002510195964199577
sVreturn
p5531
F5.704990827726311e-05
sVarmodafinil
p5532
F0.0
sVbigger
p5533
F3.9010984948218445e-05
sVinstructions
p5534
F5.042096660367106e-05
sV0924
p5535
F0.0
sV400mg
p5536
F0.0
sVdone
p5537
F0.00012313477496214852
sVdifficult
p5538
F0.00031208787958574756
sVintolerable
p5539
F0.0
sVcharacterized
p5540
F0.0
sVnicotine
p5541
F0.0
sVweight
p5542
F0.0020880266429478297
sVneedless
p5543
F0.0
sVgeneration
p5544
F0.0
sV3faj7m
p5545
F0.0
sVexpect
p5546
F0.0001385266218324171
sVscratching
p5547
F0.00010084193320734212
sValcohol
p5548
F0.0007419713791094843
sV4pm
p5549
F0.0
sV14mg
p5550
F0.0
sVinduces
p5551
F0.0
sVfaqs
p5552
F0.0
sVhealth
p5553
F0.0011092612652807636
sVinduced
p5554
F0.0
sValleviating
p5555
F0.0
sVfriday
p5556
F0.0
sVexperimenting
p5557
F0.0
sVguy
p5558
F0.000175549432266983
sVthrown
p5559
F3.9010984948218445e-05
sVunconfident
p5560
F0.0
sVthread
p5561
F0.00035294676622569745
sVcircuit
p5562
F0.0
sVzyprexa
p5563
F0.0
sVfeed
p5564
F9.274642238868553e-05
sVunhealthy
p5565
F5.042096660367106e-05
sVdiscourraging
p5566
F0.0
sVfeel
p5567
F0.0007695923435134284
sVrelate
p5568
F0.0
sVfancy
p5569
F0.00010084193320734212
sVfeet
p5570
F1.1409981655452621e-05
sVsympathy
p5571
F5.042096660367106e-05
sVadderal
p5572
F0.0
sVpasses
p5573
F3.091547412956185e-05
sVstory
p5574
F0.00030915474129561844
sVscript
p5575
F0.0005042096660367106
sVleading
p5576
F3.9010984948218445e-05
sVinteract
p5577
F0.00020168386641468425
sVpassed
p5578
F1.1409981655452621e-05
sVracemic
p5579
F0.0
sVoverusing
p5580
F0.0
sVstore
p5581
F3.091547412956185e-05
sVheadache
p5582
F0.00035294676622569745
sVoption
p5583
F0.0004033677328293685
sVrelieved
p5584
F0.0
sVserotonin
p5585
F0.0
sVluckily
p5586
F0.0
sVconvinced
p5587
F9.274642238868553e-05
sVkind
p5588
F0.0
sVexcitability
p5589
F0.0
sVdank
p5590
F0.0
sVrisks
p5591
F0.0
sVcompazine
p5592
F0.0
sVrisky
p5593
F5.042096660367106e-05
sVmotivation
p5594
F0.0
sVexert
p5595
F0.0
sVhtp
p5596
F0.0
sVearflap
p5597
F0.0
sVetizolam
p5598
F0.0
sVnights
p5599
F0.0002473237930364948
sVdrunk
p5600
F7.802196989643689e-05
sVfinding
p5601
F0.0001597397431763367
sVeffexor
p5602
F0.0
sVirritated
p5603
F0.0
sVadded
p5604
F0.00027823926716605664
sVelectric
p5605
F6.18309482591237e-05
sVwarnings
p5606
F9.274642238868553e-05
sVmeasures
p5607
F0.0
sVreach
p5608
F7.802196989643689e-05
sVreact
p5609
F0.00015457737064780922
sV75
p5610
F0.0002521048330183553
sVimpacting
p5611
F0.0
sV72
p5612
F5.042096660367106e-05
sV70
p5613
F3.9010984948218445e-05
sVnothing
p5614
F0.0001744409311963771
sVeegs
p5615
F0.0
sVmineral
p5616
F5.042096660367106e-05
sVnefazodone
p5617
F0.0
sVtraditional
p5618
F6.18309482591237e-05
sVpart
p5619
F0.0002738395597308629
sVlying
p5620
F5.851647742232766e-05
sVstones
p5621
F0.0
sVstoner
p5622
F5.042096660367106e-05
sVpostsynaptic
p5623
F0.0
sVaggravate
p5624
F0.0
sVrocket
p5625
F0.0
sVrampant
p5626
F5.042096660367106e-05
sVviagra
p5627
F5.042096660367106e-05
sVintermezzo
p5628
F0.0
sVhit
p5629
F7.986987158816836e-05
sVgains
p5630
F0.00010084193320734212
sVhiv
p5631
F0.0
sVbluelight
p5632
F0.0
sVlongest
p5633
F0.00010084193320734212
sVtreshold
p5634
F0.0
sVmedicines
p5635
F0.0
sVinvestigate
p5636
F9.274642238868553e-05
sVprescribing
p5637
F0.0
sVactivity
p5638
F0.0009579983654697502
sVsustainable
p5639
F0.0
sVguinea
p5640
F0.0
sVdizziness
p5641
F0.00035294676622569745
sVwrote
p5642
F0.0001236618965182474
sVconsciously
p5643
F0.0
sVbars
p5644
F3.9010984948218445e-05
sVart
p5645
F5.851647742232766e-05
sVdump
p5646
F6.18309482591237e-05
sVdumb
p5647
F0.0001236618965182474
sVdeclined
p5648
F6.18309482591237e-05
sVdynakids
p5649
F0.0
sVnailed
p5650
F0.0
sVvarious
p5651
F0.000175549432266983
sVnumerous
p5652
F9.274642238868553e-05
sVblurb
p5653
F0.0
sVrecently
p5654
F0.00011409981655452622
sVinitially
p5655
F0.0001236618965182474
sVattention
p5656
F4.5639926621810486e-05
sVconfiscated
p5657
F0.0
sVbetrayed
p5658
F0.0
sVsolu
p5659
F0.0
sVc
p5660
F1.5391846870268565e-05
sVprescription
p5661
F0.0
sVhesitant
p5662
F0.0
sVriddled
p5663
F0.0
sVbecame
p5664
F0.00034007021542518034
sV8am
p5665
F0.0
sVcontext
p5666
F6.18309482591237e-05
sVbond
p5667
F3.091547412956185e-05
sVfinds
p5668
F1.9505492474109223e-05
sVregulates
p5669
F0.0
sVdistress
p5670
F5.042096660367106e-05
sVreasons
p5671
F0.00021640831890693292
sVsweet
p5672
F3.9010984948218445e-05
sVsweep
p5673
F0.0
sVdudes
p5674
F5.042096660367106e-05
sVregulated
p5675
F0.0
sVcrisps
p5676
F0.0
sVps
p5677
F0.00015126289981101318
sVpt
p5678
F0.00010084193320734212
sVoverlook
p5679
F0.0
sVdue
p5680
F0.0010202106462755408
sVpc
p5681
F5.042096660367106e-05
sVreduction
p5682
F0.00010084193320734212
sVpg
p5683
F0.0
sVpd
p5684
F0.0
sVwoke
p5685
F0.0004537886994330396
sVpm
p5686
F0.0
sVinstitutionalized
p5687
F0.0
sVflight
p5688
F3.9010984948218445e-05
sV2bdelete
p5689
F0.0
sVbeforehand
p5690
F0.0
sVtransferring
p5691
F5.042096660367106e-05
sVplants
p5692
F5.042096660367106e-05
sVthirty
p5693
F9.274642238868553e-05
sVbatch
p5694
F0.0
sVevaluated
p5695
F0.0
sVkick
p5696
F0.00013653844731876453
sVbehavior
p5697
F0.00015457737064780922
sVdemon
p5698
F5.042096660367106e-05
sVdisappointing
p5699
F3.091547412956185e-05
sVneurons
p5700
F5.042096660367106e-05
sVlodged
p5701
F0.0
sVrid
p5702
F9.274642238868553e-05
sVaged
p5703
F1.9505492474109223e-05
sVstimulates
p5704
F0.0
sVstimulated
p5705
F0.0
sVdeletion
p5706
F5.042096660367106e-05
sVpeoples
p5707
F0.00010084193320734212
sV9
p5708
F7.986987158816836e-05
sVitchy
p5709
F0.0
sVhigher
p5710
F0.0002966595230417682
sVliterature
p5711
F0.00010084193320734212
sVdepersonalization
p5712
F0.0
sVpainless
p5713
F0.0
sVgabaergics
p5714
F0.0
sVmoving
p5715
F4.5639926621810486e-05
sVseizurish
p5716
F0.0
sVnoticeably
p5717
F0.0
sVlower
p5718
F0.00022819963310905244
sVanalysis
p5719
F0.00015126289981101318
sVedgy
p5720
F0.00020168386641468425
sVcheer
p5721
F0.0
sVedge
p5722
F5.704990827726311e-05
sVthrowaway
p5723
F0.0
sVreliant
p5724
F0.0
sVintervals
p5725
F0.0
sVquestions
p5726
F0.00023406590968931063
sVtablet
p5727
F0.0002521048330183553
sVworkers
p5728
F6.18309482591237e-05
sVplateau
p5729
F0.0
sVproblematic
p5730
F0.00010084193320734212
sVbuild
p5731
F1.1409981655452621e-05
sVapnea
p5732
F0.0
sVzofran
p5733
F0.0
sVadvocate
p5734
F0.0
sVantidepressents
p5735
F0.0
sVmoods
p5736
F0.0
sVlost
p5737
F0.0
sVconfront
p5738
F5.042096660367106e-05
sVshapes
p5739
F5.042096660367106e-05
sVunstable
p5740
F5.042096660367106e-05
sVessential
p5741
F0.0
sVfucking
p5742
F0.001663891897921145
sVunderstood
p5743
F0.00010084193320734212
sVgradually
p5744
F0.0
sVantichollinergic
p5745
F0.0
sVpros
p5746
F5.042096660367106e-05
sVcrisis
p5747
F0.0
sVtends
p5748
F0.0
sVt_t
p5749
F0.0
sVtetracyclic_antidepressant
p5750
F0.0
sVrefused
p5751
F0.00020168386641468425
sVzombie
p5752
F0.0005546306326403818
sVrefuses
p5753
F5.042096660367106e-05
sVintense
p5754
F0.00034007021542518034
sVprojector
p5755
F5.042096660367106e-05
sVdormant
p5756
F5.042096660367106e-05
sVpipeline
p5757
F0.0
sVcautious
p5758
F0.00010084193320734212
sVfiring
p5759
F5.042096660367106e-05
sVlifeless
p5760
F0.0
sVrange
p5761
F2.2819963310905243e-05
sVpsychonaut
p5762
F0.0
sV5yrs
p5763
F0.0
sVwanna
p5764
F9.274642238868553e-05
sVplethora
p5765
F0.0
sVnortriptyline
p5766
F0.0
sVholster
p5767
F0.0
sVintroverted
p5768
F0.0
sVquestion
p5769
F7.986987158816836e-05
sVfast
p5770
F0.00013691977986543145
sVvendors
p5771
F0.0
sVanalyze
p5772
F0.0
sVkb
p5773
F0.0
sVcriteria
p5774
F0.0
sVrepeatedly
p5775
F3.091547412956185e-05
sV1x013o
p5776
F0.0
sVraising
p5777
F3.091547412956185e-05
sVz
p5778
F0.00030252579962202636
sVcalled
p5779
F0.0003080695046972208
sVassociated
p5780
F0.0012101031984881054
sVassociates
p5781
F5.042096660367106e-05
sVstraterra
p5782
F0.0
sVpeace
p5783
F5.042096660367106e-05
sVnick
p5784
F5.042096660367106e-05
sVincome
p5785
F0.0
sVnice
p5786
F0.0
sVusers
p5787
F0.00015126289981101318
sVproblems
p5788
F0.0004792192295290102
sV23921954
p5789
F0.0
sVhelping
p5790
F0.000351098864533966
sVbonding
p5791
F0.0
sVallowing
p5792
F1.9505492474109223e-05
sVamphetamine
p5793
F0.0
sVhappier
p5794
F0.00015126289981101318
sVvice
p5795
F5.042096660367106e-05
sVimpatient
p5796
F5.042096660367106e-05
sVweights
p5797
F0.0
sVnarrative
p5798
F0.0
sVresistance
p5799
F5.042096660367106e-05
sValien
p5800
F5.042096660367106e-05
sVedu
p5801
F5.042096660367106e-05
sVscreen
p5802
F3.091547412956185e-05
sVadjustment
p5803
F0.0
sVissues
p5804
F0.001205703491052912
sVside_effects
p5805
F0.0
sVstable
p5806
F0.0005042096660367106
sVinclude
p5807
F0.0004946475860729896
sVdramatically
p5808
F5.042096660367106e-05
sVfwiw
p5809
F0.0
sVbreathing
p5810
F6.18309482591237e-05
sVfluoxetine
p5811
F0.0
sVdrinking
p5812
F0.0002925823871116383
sVvapes
p5813
F0.0
sVnotes
p5814
F3.091547412956185e-05
sVdeals
p5815
F0.0
sVlamatrogine
p5816
F0.0
sVdealt
p5817
F0.0
sVnoted
p5818
F0.00015126289981101318
sVdisclaimer
p5819
F5.042096660367106e-05
sVsmaller
p5820
F1.9505492474109223e-05
sVsurefire
p5821
F0.0
sVsensation
p5822
F0.0
sVbevery
p5823
F0.0
sVacid
p5824
F0.00034007021542518034
sVcfs
p5825
F0.0
sVcq10
p5826
F0.0
sVuniversities
p5827
F0.0
sVcarthage
p5828
F0.0
sVwaiting
p5829
F7.986987158816836e-05
sVjournal
p5830
F0.0
sVrefilled
p5831
F0.0
sVchose
p5832
F0.00010084193320734212
sVdegree
p5833
F0.0001236618965182474
sVdarknet
p5834
F0.0
sVdesired
p5835
F0.0
sVdisinhibiting
p5836
F0.0
sVskyrocketed
p5837
F0.0
sVlarger
p5838
F3.9010984948218445e-05
sVopiate
p5839
F0.0
sVleaving
p5840
F2.2819963310905243e-05
sVsuggests
p5841
F6.18309482591237e-05
sVaps
p5842
F0.0
sVmotor
p5843
F5.042096660367106e-05
sVapb
p5844
F0.0
sVapply
p5845
F6.18309482591237e-05
sVuse
p5846
F0.0003745349405098685
sVfeb
p5847
F0.0
sVusa
p5848
F0.00010084193320734212
sVbottomless
p5849
F0.0
sVsort
p5850
F6.669800310449712e-05
sVinclined
p5851
F0.0
sVmusician
p5852
F0.0
sVinfection
p5853
F0.00010084193320734212
sVpsilocybin
p5854
F0.0
sVwomen
p5855
F3.422994496635786e-05
sVstabilized
p5856
F0.0
sVgeodon
p5857
F0.0
sVaugment
p5858
F0.0
sVheard
p5859
F0.0001483297615208841
sVanywhere
p5860
F5.704990827726311e-05
sVstabilizes
p5861
F0.0
sVstabilizer
p5862
F0.0
sVperformed
p5863
F9.274642238868553e-05
sVwiki_test_kit__suppliers
p5864
F0.0
sVtar
p5865
F6.18309482591237e-05
sVamoxapine
p5866
F0.0
sVhypersomnia
p5867
F0.0
sVtad
p5868
F0.0
sVcarrot
p5869
F5.042096660367106e-05
sVsomething
p5870
F0.0003129675530287942
sVtab
p5871
F9.274642238868553e-05
sVrape
p5872
F5.042096660367106e-05
sVunited
p5873
F0.0
sVsyndrome
p5874
F0.00046373211194342774
sVsit
p5875
F7.802196989643689e-05
sVsix
p5876
F0.00015457737064780922
sVstruggles
p5877
F5.042096660367106e-05
sVaurorix
p5878
F0.0
sVinstead
p5879
F0.0002925823871116383
sVstruggled
p5880
F0.0
sVpanic
p5881
F0.0
sVcupboard
p5882
F0.0
sVattend
p5883
F3.091547412956185e-05
sVimpulsive
p5884
F0.0
sVdiscomfort
p5885
F0.0
sVabuse
p5886
F0.00020168386641468425
sVnejm
p5887
F0.0
sVpsychedelic
p5888
F0.0
sVlight
p5889
F0.00013691977986543145
sVhonestly
p5890
F0.00043281663781386583
sVspreads
p5891
F0.0
sV800mg
p5892
F0.0
sVwhilst
p5893
F0.00015457737064780922
sV130
p5894
F3.091547412956185e-05
sVlooks
p5895
F2.5653078117114275e-05
sVboosts
p5896
F0.00010084193320734212
sVsuperior
p5897
F0.0
sVpermanent
p5898
F7.802196989643689e-05
sVchoose
p5899
F9.75274623705461e-05
sVcovered
p5900
F4.5639926621810486e-05
sVbye
p5901
F5.042096660367106e-05
sVcrash
p5902
F0.00011703295484465532
sVpractice
p5903
F0.0
sVflew
p5904
F5.042096660367106e-05
sVimpaired
p5905
F5.042096660367106e-05
sVarticles
p5906
F5.042096660367106e-05
sVedit
p5907
F0.0011092612652807636
sVfeast
p5908
F3.091547412956185e-05
sVunpredictable
p5909
F0.00010084193320734212
sVpropylhexedrine
p5910
F0.0
sVerratic
p5911
F3.091547412956185e-05
sVtraz
p5912
F0.0
sVrelated
p5913
F0.0002925823871116383
sVweening
p5914
F0.0
sV89
p5915
F5.042096660367106e-05
sVxyrem
p5916
F0.0
sV86
p5917
F0.0
sVcategory
p5918
F3.091547412956185e-05
sVrespects
p5919
F0.0
sVdisarray
p5920
F0.0
sV40gs
p5921
F0.0
sVbrilliantly
p5922
F0.0
sVintegrated
p5923
F5.042096660367106e-05
sV8g
p5924
F0.0
sVvacations
p5925
F0.00010084193320734212
sVanyhow
p5926
F0.0
sVorganic
p5927
F0.0
sVg
p5928
F0.00023406590968931063
sVfeasible
p5929
F5.042096660367106e-05
sVconversation
p5930
F3.422994496635786e-05
sVhypomania
p5931
F0.0
sVhypomanic
p5932
F0.0
sVcorticosteroid
p5933
F0.0
sVprobation
p5934
F0.0
sV10x
p5935
F0.0
sVunknown
p5936
F3.091547412956185e-05
sVaccent
p5937
F1.9505492474109223e-05
sVinmate
p5938
F0.0
sVlifting
p5939
F9.274642238868553e-05
sVdrool
p5940
F0.0
sVmisunderstood
p5941
F0.0
sVregards
p5942
F0.0
sVclearnet
p5943
F0.0
sVreverses
p5944
F0.0
sVwhatmeds
p5945
F0.0
sVmirtazon
p5946
F0.0
sVboring
p5947
F3.091547412956185e-05
sVlimiting
p5948
F0.0
sVpatients
p5949
F0.0
sVbluebrainboost
p5950
F0.0
sVanesthesiologists
p5951
F0.0
sVacademically
p5952
F0.0
sVlinked
p5953
F0.0004033677328293685
sVdiazepam
p5954
F0.0
sVafraid
p5955
F6.845988993271573e-05
sVangle
p5956
F5.042096660367106e-05
sVallergies
p5957
F0.00015126289981101318
sVtldr
p5958
F0.0
sVagency
p5959
F5.042096660367106e-05
sVlope
p5960
F0.0
sVahold
p5961
F5.042096660367106e-05
sVpharmacist
p5962
F0.0
sVcombat
p5963
F0.0
sVcentre
p5964
F5.042096660367106e-05
sVharmful
p5965
F0.0
sVnbome
p5966
F0.0
sVblaming
p5967
F0.0
sVclass
p5968
F0.0003194794863526734
sVspirits
p5969
F5.042096660367106e-05
sVdeny
p5970
F5.042096660367106e-05
sVatypical
p5971
F0.0006554725658477239
sVlooked
p5972
F0.0002473237930364948
sVballons
p5973
F0.0
sVdiagnostics
p5974
F0.0
sVgoals
p5975
F0.0
sVchances
p5976
F6.18309482591237e-05
sVagreed
p5977
F0.00010084193320734212
sVplanning
p5978
F0.0
sVfear
p5979
F0.00011703295484465532
sVdarkest
p5980
F0.0
sVlitigation
p5981
F0.0
sVhighest
p5982
F0.00010084193320734212
sVexacerbating
p5983
F0.0
sVclomiphene
p5984
F0.0
sVsurroundings
p5985
F0.0
sV60mg
p5986
F0.0
sVcombo
p5987
F0.000756314499055066
sVthousands
p5988
F5.042096660367106e-05
sVovereating
p5989
F0.0
sVwatching
p5990
F0.00015457737064780922
sVmidnight
p5991
F0.00015457737064780922
sVdope
p5992
F5.042096660367106e-05
sVcommunity
p5993
F0.0
sVones
p5994
F0.000351098864533966
sVwords
p5995
F6.845988993271573e-05
sVclondine
p5996
F0.0
sVchips
p5997
F5.042096660367106e-05
sVnearly
p5998
F4.61755406108057e-05
sVended
p5999
F0.00037098568955474214
sVoptimally
p6000
F0.0
sVavoidable
p6001
F0.0
sV11am
p6002
F0.0
sVview
p6003
F4.5639926621810486e-05
sVknowing
p6004
F0.00027307689463752907
sVexpel
p6005
F0.0
sVmethylprednisolone
p6006
F0.0
sVdysmorphia
p6007
F0.0
sVcloser
p6008
F6.18309482591237e-05
sVglucophage
p6009
F0.0
sVarguably
p6010
F0.0
sVcruel
p6011
F3.091547412956185e-05
sVgenius
p6012
F5.042096660367106e-05
sVdoxepin
p6013
F0.0
sVclosed
p6014
F5.704990827726311e-05
sVdmt
p6015
F0.0
sVbought
p6016
F4.5639926621810486e-05
sVaddin
p6017
F0.0
sVopening
p6018
F2.2819963310905243e-05
sVjoy
p6019
F3.091547412956185e-05
sVjob
p6020
F0.00048763731185273056
sVdissonance
p6021
F0.0
sVapril
p6022
F0.0
sVgrain
p6023
F0.0
sVsafely
p6024
F5.042096660367106e-05
sVgrounds
p6025
F0.0
sVunclear
p6026
F3.091547412956185e-05
sVwall
p6027
F0.0001236618965182474
sVwalk
p6028
F0.0001950549247410922
sVepigenetic
p6029
F0.0
sVrespect
p6030
F7.802196989643689e-05
sVpulmonary
p6031
F0.0
sVrosiglitazone
p6032
F0.0
sVwithdrawn
p6033
F0.0
sVwithdrawl
p6034
F0.0
sVdecent
p6035
F9.75274623705461e-05
sVbbc
p6036
F5.042096660367106e-05
sVcharts
p6037
F0.0
sVcommercials
p6038
F5.042096660367106e-05
sVoutflow
p6039
F0.0
sVremedies
p6040
F0.0
sVcrappy
p6041
F9.274642238868553e-05
sVhmm
p6042
F1.9505492474109223e-05
sVimproved
p6043
F0.00018549284477737107
sVpresent
p6044
F3.078369374053713e-05
sVunlike
p6045
F0.00013653844731876453
sVchoices
p6046
F5.042096660367106e-05
sVcannabinoids
p6047
F0.0
sVringing
p6048
F5.042096660367106e-05
sVvape
p6049
F0.0
sVthus
p6050
F0.0001236618965182474
sVencouragement
p6051
F0.0
sVavm
p6052
F0.0
sVdraining
p6053
F0.0
sVdual
p6054
F9.274642238868553e-05
sVlightweight
p6055
F5.042096660367106e-05
sVlet
p6056
F0.0001487878530792628
sVperhaps
p6057
F6.18309482591237e-05
sVcross
p6058
F1.5391846870268565e-05
sVmember
p6059
F5.042096660367106e-05
sVadverse
p6060
F0.0
sVgets
p6061
F0.00023406590968931063
sVhammering
p6062
F5.042096660367106e-05
sVhydroxyzine
p6063
F0.0
sVberberine
p6064
F0.0
sVneurology
p6065
F0.0
sVstudent
p6066
F0.0001236618965182474
sVpdf
p6067
F0.00030252579962202636
sVespeciallyl
p6068
F0.0
sVfighting
p6069
F3.091547412956185e-05
sVfirstly
p6070
F0.0
sVbreaker
p6071
F0.0
sVreligiouspsychotic
p6072
F0.0
sVexcessive
p6073
F1.9505492474109223e-05
sVcried
p6074
F5.042096660367106e-05
sVheavily
p6075
F3.091547412956185e-05
sVpercent
p6076
F0.0002473237930364948
sVobtain
p6077
F0.0
sVrecollection
p6078
F5.042096660367106e-05
sVtca
p6079
F0.0
sVrapid
p6080
F0.0004033677328293685
sVavidly
p6081
F0.0
sVsupply
p6082
F5.042096660367106e-05
sVcapabilities
p6083
F5.042096660367106e-05
sVgoogling
p6084
F0.0
sVattractive
p6085
F3.9010984948218445e-05
sVusage
p6086
F6.18309482591237e-05
sVidentical
p6087
F3.091547412956185e-05
sVmyth
p6088
F5.042096660367106e-05
sVndris
p6089
F0.0
sVcpap
p6090
F0.0
sVknow
p6091
F0.0007234168029026227
sVcoincidence
p6092
F5.042096660367106e-05
sVketipinor
p6093
F0.0
sVhelpful
p6094
F0.0009075773988660792
sVsafest
p6095
F0.0
sVloses
p6096
F3.091547412956185e-05
sVleaves
p6097
F3.422994496635786e-05
sVwonders
p6098
F0.0
sVnigga
p6099
F5.042096660367106e-05
sVscared
p6100
F0.00018549284477737107
sVchurch
p6101
F3.091547412956185e-05
sVsearching
p6102
F6.18309482591237e-05
sV115
p6103
F0.0
sVdisrupting
p6104
F0.0
sVlead
p6105
F0.0002396096147645051
sVwhereas
p6106
F0.00015126289981101318
sV136lbs
p6107
F0.0
sVraise
p6108
F5.851647742232766e-05
sV250mics
p6109
F0.0
sVrare
p6110
F0.00030252579962202636
sVgetting
p6111
F0.0002308777030540285
sVcolumn
p6112
F5.042096660367106e-05
sVdependence
p6113
F0.0
sVdependency
p6114
F0.0002521048330183553
sVperks
p6115
F0.0
sVswear
p6116
F0.00030252579962202636
sVsweat
p6117
F0.00010084193320734212
sVurges
p6118
F0.0
sV30ml
p6119
F0.0
sVowl
p6120
F0.0
sVwilderness
p6121
F5.042096660367106e-05
sVmras
p6122
F0.0
sVloner
p6123
F0.0
sVweather
p6124
F1.9505492474109223e-05
sVpromise
p6125
F3.091547412956185e-05
sVfired
p6126
F3.091547412956185e-05
sVbenzodiazepenes
p6127
F0.0
sVspiral
p6128
F5.042096660367106e-05
sVkidding
p6129
F5.042096660367106e-05
sVed
p6130
F9.274642238868553e-05
sVuncontrollable
p6131
F0.0
sVtriggered
p6132
F5.042096660367106e-05
sVvolume
p6133
F5.042096660367106e-05
sVcontradictory
p6134
F5.042096660367106e-05
sVphenelzineu
p6135
F0.0
sVmade
p6136
F0.0004720166373549027
sVwhether
p6137
F4.61755406108057e-05
sVrecord
p6138
F6.18309482591237e-05
sVintimidating
p6139
F5.042096660367106e-05
sVcounteract
p6140
F0.0
sVincredible
p6141
F0.00010084193320734212
sVboot
p6142
F5.042096660367106e-05
sVetizest
p6143
F0.0
sVillinois
p6144
F0.0
sVbook
p6145
F9.274642238868553e-05
sVsick
p6146
F0.0010084193320734213
sVincredibly
p6147
F0.0002473237930364948
sVconclusion
p6148
F3.091547412956185e-05
sVjunk
p6149
F6.18309482591237e-05
sVkinds
p6150
F0.00020168386641468425
sVjune
p6151
F0.0
sVultimately
p6152
F0.00015126289981101318
sVinherently
p6153
F0.0
sVmargaret
p6154
F0.0
sVkinda
p6155
F0.0002521048330183553
sVsubreddit
p6156
F0.0
sVriboflavin
p6157
F0.0
sVirony
p6158
F6.18309482591237e-05
s.