(dp0
Vdownvoting
p1
F0.0
sVsuicidal
p2
F0.0006058153466418903
sVtelmisartan
p3
F0.0
sVpowders
p4
F0.0
sVextends
p5
F7.429079582554164e-05
sVfour
p6
F6.164510305448829e-05
sVandre
p7
F0.0
sVdisinhibits
p8
F0.0
sVsleep
p9
F0.0005624672820340373
sVasian
p10
F0.0
sVappetite
p11
F0.00024232613865675614
sVflomax
p12
F0.0
sVhate
p13
F0.0003634892079851342
sVforget
p14
F4.687227350283644e-05
sVpasa
p15
F0.0
sVincrease
p16
F0.001857269895638541
sVfeeding
p17
F7.429079582554164e-05
sVseleg
p18
F0.0
sVtremors
p19
F0.0
sVpresents
p20
F7.429079582554164e-05
sVwhatsoever
p21
F7.429079582554164e-05
sVnaprelan
p22
F0.0
sVstationery
p23
F0.0
sVsorry
p24
F5.4837044645410385e-05
sVworth
p25
F0.0003281059145198551
sVsinking
p26
F0.00012116306932837807
sVmodstrid
p27
F0.0
sVhormone
p28
F0.0
sVrisk
p29
F0.000421850461525528
sVkristendom
p30
F0.0
sVbattles
p31
F0.00012116306932837807
sVhypertensive
p32
F0.0
sVactivation
p33
F0.00024232613865675614
sVinhibit
p34
F0.0
sVmanic
p35
F0.0007269784159702684
sVprobability
p36
F0.0
sVmania
p37
F0.0
sVtrileptal
p38
F0.0
sVupdates
p39
F0.00012116306932837807
sVaap
p40
F0.0
sVaffect
p41
F0.0004846522773135123
sVmultiple
p42
F0.00014858159165108328
sVbaicalin
p43
F0.0
sVtheanine
p44
F0.0
sVreceiving
p45
F0.00012116306932837807
sVscholar
p46
F7.429079582554164e-05
sVeliminates
p47
F0.00012116306932837807
sVskills
p48
F7.429079582554164e-05
sVobsessive
p49
F0.0
sVcompanies
p50
F0.0
sVrisky
p51
F0.00024232613865675614
sVconvenience
p52
F0.0
sVunrelated
p53
F0.00012116306932837807
sVswallowed
p54
F0.00024232613865675614
sVenhance
p55
F9.374454700567288e-05
sVmonologue
p56
F0.0
sV295
p57
F0.0
sVups
p58
F0.00014858159165108328
sVnmdar
p59
F0.0
sVforce
p60
F4.687227350283644e-05
sVawake
p61
F0.00012116306932837807
sV10g
p62
F0.0
sVpulse
p63
F0.0
sV10x
p64
F0.0
sVstreet
p65
F0.00024232613865675614
sVn
p66
F0.0001849353091634649
sVmeditation
p67
F0.0
sVeven
p68
F0.0002712384534397485
sVbromantane
p69
F0.0
sVerrors
p70
F0.00012116306932837807
sVrelieving
p71
F0.0
sVweren
p72
F4.687227350283644e-05
sVmalleable
p73
F0.0
sVkun
p74
F0.0
sVbipolar
p75
F0.0009693045546270246
sV8429371
p76
F0.0
sVnew
p77
F0.0
sVnet
p78
F7.429079582554164e-05
sVincreasing
p79
F0.0007269784159702684
sVever
p80
F0.00012329020610897659
sVconsisting
p81
F0.0
sVtold
p82
F9.374454700567288e-05
sVinjections
p83
F0.0
sVmed
p84
F0.0012629435290342078
sVsimultaneously
p85
F0.00012116306932837807
sVevaluating
p86
F0.0
sVpresynaptic
p87
F0.0
sVmeo
p88
F0.0
sVmen
p89
F0.00018748909401134577
sVflere
p90
F0.0
sVlammintausta
p91
F0.0
sVneurotoxicity
p92
F0.0
sVprotection
p93
F0.00024232613865675614
sVchina
p94
F0.0
sVpursuit
p95
F0.00012116306932837807
sVuddannelsesforvaltning
p96
F0.0
sVactive
p97
F4.687227350283644e-05
sVpath
p98
F2.7418522322705193e-05
sV100
p99
F0.00046872273502836443
sV_really_
p100
F0.0
sVbuddy
p101
F0.00012116306932837807
sVdry
p102
F0.00029716318330216655
sVcyclical
p103
F0.0
sVstrewn
p104
F0.00012116306932837807
sVforum
p105
F0.00012116306932837807
sVtaper
p106
F0.0
sVphenelzine
p107
F0.0
sVitems
p108
F7.429079582554164e-05
sVstudy
p109
F0.0007429079582554164
sVusps
p110
F0.0
sVcompletely
p111
F0.00021934817858164154
sVreports
p112
F0.0002228723874766249
sVnobelamers
p113
F0.0
sVcredit
p114
F5.4837044645410385e-05
sVcrap
p115
F7.429079582554164e-05
sVsmoke
p116
F0.00014858159165108328
sVtheres
p117
F0.0
sVcatalyzed
p118
F0.0
sVchanger
p119
F0.0
sVfell
p120
F4.687227350283644e-05
sVclonidine
p121
F0.0
sVfantastic
p122
F7.429079582554164e-05
sVplays
p123
F4.687227350283644e-05
sVstraw
p124
F0.00014858159165108328
sVquinidine
p125
F0.0
sVschooling
p126
F0.0
sVreplace
p127
F0.0002228723874766249
sVpsychological
p128
F0.00024232613865675614
sVpharmateutical
p129
F0.0
sVsynergized
p130
F0.0
sVhindsight
p131
F0.0
sVhablar
p132
F0.0
sVidiosyncratic
p133
F0.0
sVcocaine
p134
F0.00012116306932837807
sVobliteration
p135
F0.0
sVtrazodone
p136
F0.0
sVderivatives
p137
F0.0
sVdna
p138
F0.0
sVtte
p139
F0.0
sVwould
p140
F0.0
sVsnri
p141
F0.0
sVhospital
p142
F0.0003714539791277082
sVuddannelse
p143
F0.0
sVnegative
p144
F0.0004457447749532498
sVtela
p145
F0.0
sVmediate
p146
F0.0
sVnoting
p147
F0.00012116306932837807
sVcall
p148
F4.931608244359064e-05
sVrecommend
p149
F0.001575119901268915
sVinner
p150
F9.374454700567288e-05
sVfainting
p151
F0.0
sVcare
p152
F0.0002228723874766249
sVtype
p153
F0.00028123364101701864
sVtell
p154
F0.0004386963571632831
sVreevaluate
p155
F0.0
sVtolerated
p156
F0.0
sVpaperwork
p157
F0.0
sVnootropax
p158
F0.0
sVholy
p159
F4.687227350283644e-05
sVwary
p160
F0.0
sVsuccessful
p161
F9.374454700567288e-05
sVexpose
p162
F7.429079582554164e-05
sVdisk
p163
F0.00012116306932837807
sVhurt
p164
F0.00012116306932837807
sVphone
p165
F7.429079582554164e-05
sVreversible
p166
F0.0
sVloose
p167
F4.687227350283644e-05
sVseparates
p168
F0.0
sV91
p169
F7.429079582554164e-05
sV90
p170
F0.00014858159165108328
sVexhorbitant
p171
F0.0
sVcircumstances
p172
F7.429079582554164e-05
sV1991
p173
F0.00012116306932837807
sVsimpelthen
p174
F0.0
sVintake
p175
F0.0
sVword
p176
F4.931608244359064e-05
sVroom
p177
F5.4837044645410385e-05
sVpursue
p178
F0.0
sVml
p179
F0.0
sVnoots
p180
F0.0
sVwork
p181
F0.0
sVimproperly
p182
F0.00012116306932837807
sVmk
p183
F0.00012116306932837807
sVmj
p184
F0.0
sVoxide
p185
F0.0
sVtissue
p186
F0.00024232613865675614
sVfosterbarn
p187
F0.0
sVms
p188
F0.0007269784159702684
sValready
p189
F0.0001602772679416696
sVakin
p190
F0.0
sVroot
p191
F0.0002228723874766249
sVexample
p192
F0.00013709261161352597
sVaddictive
p193
F0.0
sVacetylcholine
p194
F0.0
sVlavede
p195
F0.0
sVgive
p196
F0.0001602772679416696
sVindia
p197
F0.0
sVbiografiajuan
p198
F0.0
sVdosing
p199
F0.0
sVfoods
p200
F0.00024232613865675614
sV50mg
p201
F0.0
sVcaution
p202
F0.0003634892079851342
sVwant
p203
F0.0
sVcounseling
p204
F0.0
sVhonest
p205
F4.687227350283644e-05
sVlooser
p206
F0.0
sVlooses
p207
F0.00012116306932837807
sVpreferably
p208
F0.00012116306932837807
sVaging
p209
F0.00012116306932837807
sVend
p210
F7.397412366538596e-05
sVknows
p211
F4.687227350283644e-05
sVelicited
p212
F0.0
sVsertaline
p213
F0.0
sVtravel
p214
F2.7418522322705193e-05
sVdamage
p215
F0.0002228723874766249
sVrevisit
p216
F0.00012116306932837807
sVcompassion
p217
F0.00012116306932837807
sVcholine
p218
F0.0
sVanswer
p219
F8.225556696811558e-05
sVstereochemistry
p220
F0.0
sVactuality
p221
F0.0
sVpreferable
p222
F0.0
sVcvwynk4
p223
F0.0
sVgamble
p224
F0.00012116306932837807
sVeyeballs
p225
F0.00012116306932837807
sVbadly
p226
F2.7418522322705193e-05
sVfaq
p227
F0.0
sVdescription
p228
F0.0004846522773135123
sVquin
p229
F0.0
sVtribenzor
p230
F0.0
sVearlier
p231
F5.4837044645410385e-05
sVdrones
p232
F0.00012116306932837807
sVwrong
p233
F2.7418522322705193e-05
sVcalidad
p234
F0.0
sVcreatine
p235
F0.0
sVlay
p236
F7.429079582554164e-05
sVcuriosity
p237
F7.429079582554164e-05
sVmeaningful
p238
F7.429079582554164e-05
sVhoras
p239
F0.0
sVtypes
p240
F9.374454700567288e-05
sVlas
p241
F0.0
sVpurchase
p242
F0.0002228723874766249
sVdanny
p243
F0.0
sVanymore
p244
F0.00028123364101701864
sVthird
p245
F1.232902061089766e-05
sVpulsate
p246
F0.0
sVlost
p247
F0.0
sVhypnotic
p248
F0.0
sVthink
p249
F0.0004068576801596228
sVcigarettes
p250
F0.00024232613865675614
sVmaintain
p251
F0.00014858159165108328
sVupside
p252
F0.00014858159165108328
sVultimate
p253
F0.0
sVkeeps
p254
F9.374454700567288e-05
sVsalesperson
p255
F0.0
sVcoumadin
p256
F0.0
sVvapor
p257
F0.0
sVorder
p258
F9.863216488718127e-05
sVpdoc
p259
F0.0
sVrestriction
p260
F0.0
sVmyclonus
p261
F0.0
sVoffice
p262
F4.687227350283644e-05
sVdevote
p263
F0.0
sVwelcomed
p264
F0.0
sVusing
p265
F0.0003290222678724623
sVtyramine
p266
F0.0
sVvary
p267
F0.0002228723874766249
sVneuron
p268
F0.0
sVjordb
p269
F0.0
sVdejes
p270
F0.0
sVthesis
p271
F0.00012116306932837807
sVresponsive
p272
F0.00012116306932837807
sVgastrointestinal
p273
F0.0
sVactivating
p274
F0.00012116306932837807
sVadolescence
p275
F0.0
sVsomnolence
p276
F0.0
sVnebivolol
p277
F0.0
sVime
p278
F0.00012116306932837807
sVpharma
p279
F0.0
sVncbi
p280
F0.0
sVauditory
p281
F0.0
sVpersonal
p282
F0.00019192965625893635
sVfix
p283
F7.429079582554164e-05
sVrecreational
p284
F0.0003634892079851342
sVavocado
p285
F0.00012116306932837807
sVimo
p286
F0.0
sVwriting
p287
F4.687227350283644e-05
sVbetter
p288
F0.0003575415977160321
sVbarato
p289
F0.0
sVenefokus
p290
F0.0
sVproduction
p291
F0.00024232613865675614
sVfig
p292
F0.00012116306932837807
sVfade
p293
F0.00014858159165108328
sVpersist
p294
F0.00012116306932837807
sVfik
p295
F0.0
sVhidden
p296
F7.429079582554164e-05
sVeasier
p297
F0.00014061682050850932
sVversus
p298
F7.429079582554164e-05
sVeventually
p299
F0.0004846522773135123
sVcoffee
p300
F0.0002228723874766249
sVaffected
p301
F0.00012116306932837807
sVdiseases
p302
F0.00024232613865675614
sVcombination
p303
F0.0007499563760453831
sVlevoamphetamine
p304
F0.0
sVpowerful
p305
F0.0003634892079851342
sVdowns
p306
F0.00012116306932837807
sVdrowsiness
p307
F0.0
sVdisturb
p308
F0.00012116306932837807
sVfinish
p309
F9.374454700567288e-05
sVscene
p310
F4.687227350283644e-05
sVbreak
p311
F0.0003714539791277082
sVtherapy
p312
F0.0008481414852986465
sVeffects
p313
F0.0026744686497194993
sVsulbutiamine
p314
F0.0
sVmxe
p315
F0.0
sVsmoking
p316
F7.429079582554164e-05
sVbrokket
p317
F0.0
sVshadows
p318
F7.429079582554164e-05
sVunregistered
p319
F0.0
sVelavil
p320
F0.0
sVphenylethylamine
p321
F0.0
sVreasonably
p322
F0.00012116306932837807
sVsleepless
p323
F0.0
sVl
p324
F0.0014061682050850934
sVexplode
p325
F0.0
sVnoticable
p326
F0.00012116306932837807
sVdlpa
p327
F0.0
sVreasonable
p328
F7.429079582554164e-05
sVgranted
p329
F0.00012116306932837807
sVwent
p330
F0.00011096118549807894
sVhigher
p331
F0.0003564407901951675
sVside
p332
F4.931608244359064e-05
sVluck
p333
F0.0005624672820340373
sVinserts
p334
F0.00012116306932837807
sVhtp
p335
F0.0
sVconstipation
p336
F0.0003634892079851342
sVevolve
p337
F7.429079582554164e-05
sVtitrating
p338
F0.0
sVlifeextension
p339
F0.0
sV24h
p340
F0.0
sVmdd
p341
F0.0
sVt3
p342
F0.0
sVsammenligner
p343
F0.0
sV2fma
p344
F0.0
sVarrives
p345
F0.00012116306932837807
sVforgot
p346
F0.00012116306932837807
sVlaboratory
p347
F0.00012116306932837807
sVrecognizable
p348
F0.0
sVextract
p349
F0.0003634892079851342
sVmessage
p350
F4.687227350283644e-05
sVrt
p351
F0.0
sVru
p352
F0.0
sVpraksis
p353
F0.0
sVvasotec
p354
F0.0
sVlifespan
p355
F0.0
sVumiddelbare
p356
F0.0
sVquality
p357
F0.00014061682050850932
sV00am
p358
F0.0
sVrx
p359
F0.0
sVcontent
p360
F0.0003634892079851342
sVnu
p361
F0.00012116306932837807
sVlaid
p362
F0.00014858159165108328
sVsafety
p363
F0.0005200355707787915
sVrare
p364
F0.00012116306932837807
sVgenerics
p365
F0.0
sVmedicine
p366
F0.0006058153466418903
sVgot
p367
F0.00020959335038526022
sVrn
p368
F0.0
sVgov
p369
F0.0010904676239554027
sVcerebral
p370
F0.0
sVasleep
p371
F7.429079582554164e-05
sVcomedown
p372
F0.0
sVinos
p373
F0.0
sVrythmol
p374
F0.0
sVfree
p375
F0.0006580445357449247
sVstandard
p376
F4.687227350283644e-05
sVdecent
p377
F9.374454700567288e-05
sVstruggle
p378
F0.0002228723874766249
sVnmda
p379
F0.0
sVnice
p380
F0.0
sVbromentane
p381
F0.0
sVchecked
p382
F0.00014858159165108328
sVinadequately
p383
F0.0
sVwanted
p384
F0.00029716318330216655
sVknit
p385
F0.0
sVnaproxen
p386
F0.0
sVfret
p387
F0.0
sVamturnide
p388
F0.0
sVate
p389
F7.429079582554164e-05
sVwithdrawl
p390
F0.0
sVdays
p391
F0.0004386963571632831
sVlocal
p392
F7.429079582554164e-05
sValcohol
p393
F0.0007429079582554164
sVatt
p394
F0.0
sVamiodarone
p395
F0.0
sVspeedy
p396
F0.00012116306932837807
sVisn
p397
F0.0001849353091634649
sVcataflam
p398
F0.0
sVmoving
p399
F2.7418522322705193e-05
sVmemantine
p400
F0.0
sVdunce
p401
F0.0
sVfeatures
p402
F0.00014858159165108328
sV200mcg
p403
F0.0
sVgrade
p404
F0.00012116306932837807
sVgiver
p405
F0.0
sVvitro
p406
F0.0
sVthereof
p407
F0.0
sVhans
p408
F0.0
sVspinning
p409
F0.0
sVcurlad
p410
F0.0
sVdownside
p411
F0.0
sVanother
p412
F0.00014794824733077193
sVwasn
p413
F9.863216488718127e-05
sVsober
p414
F0.00012116306932837807
sVcomic
p415
F0.00012116306932837807
sVclarity
p416
F7.429079582554164e-05
sVelectronic
p417
F0.0
sVblunts
p418
F0.0
sVdysfunction
p419
F0.0
sVseizures
p420
F0.0006058153466418903
sVteologi
p421
F0.0
sVaccupril
p422
F0.0
sVten
p423
F2.7418522322705193e-05
sVservice
p424
F4.687227350283644e-05
sVyngste
p425
F0.0
sVtop
p426
F0.00016451113393623116
sVbitcoin
p427
F0.0
sVapproximately
p428
F0.0
sVeuphoria
p429
F0.0
sVeldepryl
p430
F0.0
sVneeded
p431
F0.0003281059145198551
sVdrugnerds
p432
F0.0
sVton
p433
F0.0004846522773135123
sVlisted
p434
F0.00014858159165108328
sVwildly
p435
F0.00014858159165108328
sVairy
p436
F0.0
sVordered
p437
F7.429079582554164e-05
sVlegs
p438
F9.374454700567288e-05
sVbitter
p439
F0.00012116306932837807
sVdogs
p440
F4.687227350283644e-05
sV20antonio
p441
F0.0
sVpoemesamers
p442
F0.0
sVenhancing
p443
F0.00024232613865675614
sV14btc
p444
F0.0
sVanafranil
p445
F0.0
sVgym
p446
F7.429079582554164e-05
sVtook
p447
F0.0001849353091634649
sVadopter
p448
F0.0
sVpalsy
p449
F0.0
sVwasted
p450
F7.429079582554164e-05
sVpeculiar
p451
F0.0
sVsymptom
p452
F0.0
sVp53
p453
F0.0
sVbegins
p454
F7.429079582554164e-05
sVsynergy
p455
F0.0
sVanxiety
p456
F0.006542805743732416
sV5ht2c
p457
F0.0
sVshowed
p458
F0.00029716318330216655
sV3iscuo
p459
F0.0
sVlikely
p460
F0.0012116306932837806
sVmatter
p461
F5.4837044645410385e-05
sV5mg
p462
F0.0
sVclasses
p463
F2.7418522322705193e-05
sVguilt
p464
F0.00012116306932837807
sVendure
p465
F0.00012116306932837807
sVexforge
p466
F0.0
sVfeeling
p467
F0.0004112778348405779
sVdiuretic
p468
F0.0
sVmini
p469
F0.00012116306932837807
sVmodulating
p470
F0.0
sVfashion
p471
F0.00012116306932837807
sVbehavior
p472
F0.00014858159165108328
sVprinsesser
p473
F0.0
sVexploring
p474
F0.0
sVran
p475
F4.687227350283644e-05
sVmind
p476
F0.00046872273502836443
sVspectrum
p477
F0.0
sVginger
p478
F7.429079582554164e-05
sVraw
p479
F4.687227350283644e-05
sVrat
p480
F7.429079582554164e-05
sVmanner
p481
F4.687227350283644e-05
sVadhd
p482
F0.0
sVarousal
p483
F0.0
sVseen
p484
F0.00016451113393623116
sVseem
p485
F0.00024658041221795317
sVunaffected
p486
F0.0
sVcontents
p487
F7.429079582554164e-05
sVrelatively
p488
F0.0003634892079851342
sVephedrin
p489
F0.0
sVforgive
p490
F7.429079582554164e-05
sVfunctioning
p491
F0.00012116306932837807
sVapoptotic
p492
F0.0
sVthoroughly
p493
F0.0
sVlatter
p494
F0.00024232613865675614
sVresponsible
p495
F0.00014858159165108328
sVderes
p496
F0.0
sVisolated
p497
F0.0
sVchest
p498
F4.687227350283644e-05
sVcausing
p499
F0.00014858159165108328
sVabsorbed
p500
F0.0
sVtransmit
p501
F0.0
sVcleft
p502
F0.0
sVworsening
p503
F0.0
sVrides
p504
F0.00012116306932837807
sVcompleted
p505
F0.00012116306932837807
sVtidigt
p506
F0.0
sVblue
p507
F9.374454700567288e-05
sVexactly
p508
F0.00019192965625893635
sVestablished
p509
F4.687227350283644e-05
sVclonazepam
p510
F0.0
sVmethylphenidate
p511
F0.0
sVsotalol
p512
F0.0
sVexercised
p513
F0.0
sVramblings
p514
F0.0
sVnorepinephrine
p515
F0.0
sVregular
p516
F0.0008481414852986465
sVmouth
p517
F0.00023436136751418221
sVamps
p518
F0.0
sVphase
p519
F0.00024232613865675614
sVautopsy
p520
F0.00012116306932837807
sVpromotions
p521
F0.0
sVmitigate
p522
F0.0
sVsmoked
p523
F0.00012116306932837807
sVepisode
p524
F0.0023020983172391835
sVobservation
p525
F0.00012116306932837807
sValupent
p526
F0.0
sVdoc
p527
F0.0002228723874766249
sVmedical
p528
F0.00018748909401134577
sVmetal
p529
F7.429079582554164e-05
sVdog
p530
F4.687227350283644e-05
sVdoe
p531
F0.0
sVdigress
p532
F0.0
sVdrunks
p533
F0.0
sVcelebrex
p534
F0.0
sVdystonia
p535
F0.0
sVepa
p536
F0.0
sVsilencing
p537
F0.0
sVcame
p538
F0.00014061682050850932
sVreserve
p539
F0.00012116306932837807
sVbeh
p540
F0.0
sVsaying
p541
F2.7418522322705193e-05
sVbomb
p542
F0.00012116306932837807
sVchecks
p543
F0.00014858159165108328
sVhedberg
p544
F0.0
sVrandom
p545
F7.429079582554164e-05
sVpns
p546
F0.0
sVsubreddit
p547
F0.0
sVprescription
p548
F0.0
sVattempts
p549
F4.687227350283644e-05
sVpakinson
p550
F0.0
sVemotions
p551
F0.00012116306932837807
sVsubtle
p552
F0.00024232613865675614
sVtempted
p553
F0.00012116306932837807
sVcheaply
p554
F0.0
sVd2
p555
F0.0
sVd3
p556
F0.0
sV3obf2f
p557
F0.0
sVoch
p558
F0.0
sVmoriarty
p559
F0.0
sVweekends
p560
F7.429079582554164e-05
sVacne
p561
F0.0
sVocd
p562
F0.0
sVhrs
p563
F0.0
sVsugar
p564
F0.00014858159165108328
sVmagyarulamers
p565
F0.0
sVscreening
p566
F0.00012116306932837807
sVfolder
p567
F0.00012116306932837807
sVrice
p568
F0.00024232613865675614
sVbehond
p569
F0.0
sVmachadojuan
p570
F0.0
sVpersonality
p571
F0.00014858159165108328
sVwearing
p572
F7.429079582554164e-05
sVplate
p573
F0.00012116306932837807
sVdl
p574
F0.00012116306932837807
sVmixture
p575
F0.00012116306932837807
sVanabaseamers
p576
F0.0
sVcolorful
p577
F0.0
sV10
p578
F0.0001849353091634649
sVde
p579
F0.0007397412366538596
sVbenazepril
p580
F0.0
sVfulde
p581
F0.0
sVpreferred
p582
F0.00012116306932837807
sVyielded
p583
F0.0
sVbelviq
p584
F0.0
sVshutting
p585
F0.00012116306932837807
sVmeditate
p586
F0.00012116306932837807
sVdansk
p587
F0.0
sValtogether
p588
F7.429079582554164e-05
sVanxiolytic
p589
F0.0
sVnasty
p590
F0.00014858159165108328
sVdu
p591
F0.0003634892079851342
sVdr
p592
F0.00024232613865675614
sV17296473
p593
F0.0
sVslags
p594
F0.0
sV20de
p595
F0.0
sVgranny
p596
F0.0
sVspilling
p597
F0.00012116306932837807
sVcountries
p598
F0.00012116306932837807
sVquinapril
p599
F0.0
sVhospitalize
p600
F0.0
sVbpii
p601
F0.0
sVdisco
p602
F0.0
sVtwice
p603
F0.00028123364101701864
sVbad
p604
F0.00024658041221795317
sVtraversed
p605
F0.0
sVfuroxone
p606
F0.0
sVcarrier
p607
F0.0
sVrelease
p608
F0.0003281059145198551
sVhemsamarit
p609
F0.0
sVruins
p610
F0.0
sVrespond
p611
F0.0004457447749532498
sVdeprenyl
p612
F0.0
sVresveratrol
p613
F0.0
sVvictim
p614
F0.00012116306932837807
sVfair
p615
F1.232902061089766e-05
sVperipheral
p616
F0.0
sVlight
p617
F2.7418522322705193e-05
sVbled
p618
F0.0
sVdepends
p619
F7.429079582554164e-05
sVdecided
p620
F0.00023436136751418221
sVresult
p621
F0.00029716318330216655
sVhorrendous
p622
F0.00012116306932837807
sVfail
p623
F5.4837044645410385e-05
sVmiserable
p624
F7.429079582554164e-05
sVdepressive
p625
F0.0
sVfostermodern
p626
F0.0
sVkommunal
p627
F0.0
sVbest
p628
F0.0002219223709961579
sVmonoamine_oxidase_inhibitor
p629
F0.0
sV00
p630
F0.00012116306932837807
sVsaid
p631
F0.00014794824733077193
sV05
p632
F0.00014858159165108328
sVbecareful
p633
F0.0
sVaway
p634
F0.0
sViirc
p635
F0.0
sVwikipedia
p636
F0.0
sVimipramine
p637
F0.0
sVartificial
p638
F0.00012116306932837807
sVamidate
p639
F0.0
sVscore
p640
F4.687227350283644e-05
sVhopefully
p641
F0.0
sVprobiotics
p642
F0.0
sVtolerance
p643
F0.0004846522773135123
sVlethargic
p644
F0.0
sVpreserve
p645
F0.00012116306932837807
sVreddit
p646
F0.0
sVnever
p647
F0.0
sVomg
p648
F0.00012116306932837807
sVextend
p649
F7.429079582554164e-05
sVnature
p650
F2.465804122179532e-05
sVwean
p651
F0.0
sVweak
p652
F0.0003634892079851342
sVvitamin
p653
F0.0
sVstared
p654
F0.00012116306932837807
sVandrogen
p655
F0.0
sVdrew
p656
F0.0
sVextent
p657
F0.00012116306932837807
sVkom
p658
F0.0
sVcousin
p659
F0.00012116306932837807
sVoxidase
p660
F0.0
sVimprove
p661
F0.00029716318330216655
sVsuggested
p662
F0.0004846522773135123
sVessentially
p663
F0.0
sVproviding
p664
F0.0
sVagonist
p665
F0.0
sVbrat
p666
F0.00012116306932837807
sVresistant
p667
F0.0
sVfault
p668
F2.7418522322705193e-05
sVill
p669
F9.374454700567288e-05
sVsubverting
p670
F0.0
sVtracks
p671
F0.00012116306932837807
sVelse
p672
F0.0001602772679416696
sVpoetryjuan
p673
F0.0
sVmildly
p674
F0.0
sVbeyond
p675
F1.232902061089766e-05
sVaccentuated
p676
F0.0
sVproveen
p677
F0.0
sVdisappears
p678
F7.429079582554164e-05
sVasked
p679
F9.374454700567288e-05
sVcon
p680
F0.0
sVtough
p681
F4.687227350283644e-05
sVcalamus
p682
F0.0
sVnifedipine
p683
F0.0
sVdiscontinued
p684
F0.0
sVaddressing
p685
F0.0
sVanxiolytics
p686
F0.0
sVcondescending
p687
F0.00012116306932837807
sVofferings
p688
F0.00024232613865675614
sVrepresented
p689
F0.00012116306932837807
sV100mcg
p690
F0.0
sVunsubstantiated
p691
F0.0
sVpregnancy
p692
F0.0006058153466418903
sVloaded
p693
F7.429079582554164e-05
sVarsenic
p694
F0.0
sVtrust
p695
F0.00014858159165108328
sVpresumable
p696
F0.0
sVspeak
p697
F0.00014858159165108328
sVfra
p698
F0.0
sVreputake
p699
F0.0
sVnicer
p700
F7.429079582554164e-05
sVsource
p701
F0.0023904859486446584
sVregenerate
p702
F0.0
sVunitedpharmacies
p703
F0.0
sVobrasjuan
p704
F0.0
sVthree
p705
F8.630314427628362e-05
sVtiny
p706
F2.7418522322705193e-05
sVquickly
p707
F0.00016451113393623116
sVting
p708
F0.00012116306932837807
sVdifference
p709
F0.00014858159165108328
sVinterest
p710
F0.00029716318330216655
sVbasic
p711
F9.374454700567288e-05
sVexpected
p712
F9.374454700567288e-05
sVrelearn
p713
F0.0
sVnorvasc
p714
F0.0
sVwarmth
p715
F0.0
sVduties
p716
F0.00024232613865675614
sVlocation
p717
F7.429079582554164e-05
sVwebsite
p718
F7.429079582554164e-05
sVlife
p719
F0.0003452125771051345
sVprn
p720
F0.0
sVfleeting
p721
F0.00012116306932837807
sVhospitalization
p722
F0.0
sVhospitalized
p723
F0.0
sVconcerning
p724
F0.0
sVbioavailability
p725
F0.0
sVbladder
p726
F0.00012116306932837807
sVpointing
p727
F4.687227350283644e-05
sVselank
p728
F0.0
sVsubstance
p729
F0.0
sVpersonally
p730
F0.00013709261161352597
sVguzzle
p731
F0.0
sVworked
p732
F0.00019192965625893635
sVmct
p733
F0.0
sVspin
p734
F0.0
sV5g
p735
F0.0
sVhistamine
p736
F0.0
sVexception
p737
F7.429079582554164e-05
sVpirbuterol
p738
F0.0
sVhyperactive
p739
F0.00012116306932837807
sVhallucinogens
p740
F0.0
sVlessen
p741
F0.0
sVterbutaline
p742
F0.0
sVspontaneously
p743
F0.00012116306932837807
sVnear
p744
F4.931608244359064e-05
sVfinder
p745
F0.00012116306932837807
sVstopping
p746
F0.0002228723874766249
sVcracked
p747
F0.00012116306932837807
sVmurders
p748
F0.0
sVamisulpride
p749
F0.0
sVdefending
p750
F0.00012116306932837807
sVupgrade
p751
F0.00012116306932837807
sVchanged
p752
F0.00018748909401134577
sVplayed
p753
F7.429079582554164e-05
sVir
p754
F0.0
sVlotrel
p755
F0.0
sVtilfredsstillende
p756
F0.0
sVged
p757
F0.0
sVii
p758
F0.0
sVneed
p759
F0.0003082255152724415
sVeighteen
p760
F0.00012116306932837807
sVim
p761
F0.0003634892079851342
sVanhedonic
p762
F0.0
sVcook
p763
F7.429079582554164e-05
sVhighest
p764
F0.0003634892079851342
sVcurcumin
p765
F0.0
sVcaptopril
p766
F0.0
sVinsatiable
p767
F0.0
sVdisappear
p768
F0.00014858159165108328
sVsammen
p769
F0.0
sVcontaining
p770
F0.00012116306932837807
sVmas
p771
F0.0
sVbottles
p772
F4.687227350283644e-05
sVseverity
p773
F0.0
sVminiature
p774
F0.00012116306932837807
sVsuggest
p775
F0.0008481414852986465
sVmake
p776
F0.0002712384534397485
sVrecurrent
p777
F0.0
sVdha
p778
F0.0
sVnardil
p779
F0.0
sVpotentially
p780
F0.0007269784159702684
sVdihydroxyflavone
p781
F0.0
sVunfortunate
p782
F4.687227350283644e-05
sVincorrectly
p783
F0.00012116306932837807
sVavoids
p784
F0.0
sVsuccess
p785
F0.00029716318330216655
sVlithium
p786
F0.0
sVcouple
p787
F0.00024676670090434676
sVwheel
p788
F4.687227350283644e-05
sVfairly
p789
F0.0004457447749532498
sVnih
p790
F0.0
sVnil
p791
F0.0
sVscrew
p792
F7.429079582554164e-05
sVverapamil
p793
F0.0
sVhang
p794
F2.7418522322705193e-05
sVhand
p795
F0.0
sVireport
p796
F0.0
sVpharmacological
p797
F0.0
sVkristendomsfilologi
p798
F0.0
sVtimmersorterare
p799
F0.0
sVopportunity
p800
F0.00014858159165108328
sVthoughts
p801
F0.0005200355707787915
sVcycle
p802
F0.0004457447749532498
sVmentioning
p803
F0.00024232613865675614
sVprescribed
p804
F0.001696282970597293
sVkept
p805
F0.00028123364101701864
sVscenario
p806
F0.0
sV1977
p807
F0.0
sVchanges
p808
F0.0003281059145198551
sVsilenor
p809
F0.0
sVsuffering
p810
F0.00014061682050850932
sVacademic
p811
F0.00012116306932837807
sVmaterials
p812
F0.0
sVgrundlag
p813
F0.0
sVmother
p814
F2.465804122179532e-05
sVom
p815
F0.0
sV801
p816
F0.0
sVparadigm
p817
F0.0
sVhacen
p818
F0.0
sVleft
p819
F6.164510305448829e-05
sVunfortunately
p820
F0.0008481414852986465
sVprotocol
p821
F0.00012116306932837807
sVproposed
p822
F0.0
sVlaptop
p823
F0.00014858159165108328
sVsleepy
p824
F0.00012116306932837807
sVideas
p825
F0.0
sVassigned
p826
F0.00012116306932837807
sVsedatives
p827
F0.0
sVpsych
p828
F0.0
sVthanks
p829
F0.00028123364101701864
sVhuman
p830
F0.00014061682050850932
sVdopamine
p831
F0.0
sVyep
p832
F0.00012116306932837807
sVyes
p833
F8.630314427628362e-05
sVyet
p834
F0.00012329020610897659
sVprevious
p835
F1.232902061089766e-05
sVthyroid
p836
F0.0
sVadding
p837
F0.0007269784159702684
sVham
p838
F7.429079582554164e-05
sVhan
p839
F0.0
sV1_meetingabstracts
p840
F0.0
sVxr
p841
F0.0
sVpuama
p842
F0.0
sVaffinity
p843
F0.0
sVteenager
p844
F0.00012116306932837807
sVeasy
p845
F0.0
sVrequiring
p846
F0.00012116306932837807
sVhar
p847
F0.0
sVplasma
p848
F0.00012116306932837807
sVtolerable
p849
F0.0
sVgave
p850
F0.0005200355707787915
sVajcn
p851
F0.0
sVtoxin
p852
F0.0
sVbreaks
p853
F0.00014061682050850932
sVonline
p854
F0.001040071141557583
sVflatulence
p855
F0.0
sVpossibly
p856
F5.4837044645410385e-05
sVwhichever
p857
F0.0
sVwanting
p858
F0.00012116306932837807
sVjudge
p859
F7.429079582554164e-05
sVunique
p860
F7.429079582554164e-05
sVusually
p861
F0.0008905731965538924
sVcognitive
p862
F0.0
sVdesire
p863
F0.00024232613865675614
sV20machado
p864
F0.0
sVbpd
p865
F0.0
sV55
p866
F0.00012116306932837807
sVblunt
p867
F0.00012116306932837807
sVvegan
p868
F0.0003634892079851342
sV50
p869
F0.00016451113393623116
sV53
p870
F0.00029716318330216655
sVspecific
p871
F0.00023436136751418221
sVremind
p872
F7.429079582554164e-05
sVnight
p873
F1.232902061089766e-05
sVinterestingly
p874
F0.00012116306932837807
sVcaduet
p875
F0.0
sVwww
p876
F0.0014858159165108329
sVright
p877
F0.00019726432977436255
sVold
p878
F0.0
sVtrained
p879
F0.00012116306932837807
sVdeal
p880
F0.00013709261161352597
sVformulas
p881
F0.0
sVkunne
p882
F0.0
sVmostly
p883
F0.00046872273502836443
sVdead
p884
F0.00010967408929082077
sVoh
p885
F0.00029716318330216655
sVselectivity
p886
F0.0
sVgelatinized
p887
F0.0
sVitemsampler
p888
F0.0
sVmarplan
p889
F0.0
sVdug
p890
F0.0
sVpain
p891
F0.000421850461525528
sVtxt
p892
F0.0009693045546270246
sVindre
p893
F0.0
sVump
p894
F0.0
sVrenamed
p895
F0.00012116306932837807
sVparesthesia
p896
F0.0
sVopposite
p897
F7.429079582554164e-05
sVcomments
p898
F0.0004846522773135123
sVcreative
p899
F7.429079582554164e-05
sVeverything
p900
F8.630314427628362e-05
sVfog
p901
F0.0
sVatenolol
p902
F0.0
sVdenied
p903
F7.429079582554164e-05
sVexperimentation
p904
F0.0
sVchristmas
p905
F0.0
sVdrink
p906
F1.232902061089766e-05
sVshakes
p907
F4.687227350283644e-05
sVbold
p908
F4.687227350283644e-05
sVdiltiazem
p909
F0.0
sVstefan
p910
F0.0
sV20by
p911
F0.0
sVfven
p912
F0.0
sVtranshumanist
p913
F0.0
sVlosing
p914
F2.7418522322705193e-05
sVselvf
p915
F0.0
sVpost
p916
F0.0007429079582554164
sVmanufacturing
p917
F0.0
sVsuper
p918
F0.00014858159165108328
sVproperties
p919
F0.00014061682050850932
sVvalium
p920
F0.0
sVprinivil
p921
F0.0
sVrestlessness
p922
F0.0
sVlightheaded
p923
F0.0
sVattacks
p924
F0.0003634892079851342
sVinderal
p925
F0.0
sVmonths
p926
F0.0008905731965538924
sVadipose
p927
F0.0
sVo
p928
F1.232902061089766e-05
sVessential
p929
F0.0
sVmagazine
p930
F0.00012116306932837807
sVplus
p931
F0.00014061682050850932
sVafternoon
p932
F0.00012116306932837807
sVtannic
p933
F0.00012116306932837807
sV466886
p934
F0.0
sVbetapace
p935
F0.0
sVslightly
p936
F0.00019192965625893635
sVwiped
p937
F0.00012116306932837807
sVcroak
p938
F0.0
sVnerve
p939
F0.00024232613865675614
sVconsulting
p940
F0.0
sVthinner
p941
F7.429079582554164e-05
sVwhats
p942
F0.0
sVxyz
p943
F0.0
sVhoneymoon
p944
F0.00012116306932837807
sVsom
p945
F0.0
sVbeneficial
p946
F0.00012116306932837807
sVson
p947
F5.4837044645410385e-05
sVmontelukast
p948
F0.0
sVthankful
p949
F0.0
sVjatamansi
p950
F0.0
sVpaved
p951
F0.0
sVraises
p952
F7.429079582554164e-05
sVarmado
p953
F0.0
sVsoy
p954
F0.00012116306932837807
sVhallucinogenic
p955
F0.0
sVreducing
p956
F0.0
sVtrandermally
p957
F0.0
sVrely
p958
F7.429079582554164e-05
sVvaldoxan
p959
F0.0
sVpropynyl
p960
F0.0
sVchlorpromazine
p961
F0.0
sVadvair
p962
F0.0
sVsupport
p963
F7.429079582554164e-05
sVinitial
p964
F0.00014061682050850932
sVknowing
p965
F9.374454700567288e-05
sVmutated
p966
F0.0
sVwordpress
p967
F0.0
sVway
p968
F0.00024658041221795317
sVfreebase
p969
F0.0
sVresulted
p970
F0.00012116306932837807
sVmeloxicam
p971
F0.0
sVassaulted
p972
F0.00012116306932837807
sVgik
p973
F0.0
sVmetabolism
p974
F0.0006058153466418903
sVhappy
p975
F0.00016451113393623116
sVlowest
p976
F0.00012116306932837807
sVpamelor
p977
F0.0
sVhead
p978
F1.232902061089766e-05
sVamphs
p979
F0.0
sVoffering
p980
F7.429079582554164e-05
sVmanufacturers
p981
F0.00012116306932837807
sVsomething
p982
F0.0002219223709961579
sVlorazepam
p983
F0.0
sVknoll
p984
F0.0
sVfailure
p985
F0.00029716318330216655
sVdesipramine
p986
F0.0
sVhear
p987
F2.7418522322705193e-05
sVephedrine
p988
F0.0
sVsustained
p989
F0.0
sVboosts
p990
F0.00024232613865675614
sVremoved
p991
F5.4837044645410385e-05
sV24hr
p992
F0.0
sVrenal
p993
F0.0
sVpowder
p994
F0.0003714539791277082
sVbypassing
p995
F0.0
sVhypomania
p996
F0.0
sVspelade
p997
F0.0
sVversions
p998
F7.429079582554164e-05
sVprevents
p999
F0.00012116306932837807
sVinside
p1000
F2.465804122179532e-05
sVmaximum
p1001
F0.00024232613865675614
sVvivo
p1002
F0.0
sVcomplications
p1003
F0.00012116306932837807
sValguna
p1004
F0.0
sVexamples
p1005
F0.0013327937626121588
sV150
p1006
F0.0
sVlater
p1007
F0.00018748909401134577
sVflat
p1008
F2.7418522322705193e-05
sVrequest
p1009
F4.687227350283644e-05
sVabstract
p1010
F0.00024232613865675614
sVregards
p1011
F0.0
sVhistory
p1012
F0.00014061682050850932
sVproven
p1013
F0.00012116306932837807
sVevidence
p1014
F0.0003714539791277082
sVsometime
p1015
F4.687227350283644e-05
sVexist
p1016
F7.429079582554164e-05
sVaccounting
p1017
F0.00012116306932837807
sVfloating
p1018
F7.429079582554164e-05
sVannoying
p1019
F4.687227350283644e-05
sVcovera
p1020
F0.0
sVtrip
p1021
F0.00029716318330216655
sVshit
p1022
F0.0005200355707787915
sVcomorbid
p1023
F0.0
sVni
p1024
F0.00012116306932837807
sVslurring
p1025
F0.0
sV200mg
p1026
F0.0
sVdying
p1027
F9.374454700567288e-05
sVna
p1028
F0.0
sVaccomodating
p1029
F0.0
sVgenerally
p1030
F9.374454700567288e-05
sVne
p1031
F0.00029716318330216655
sVhanded
p1032
F7.429079582554164e-05
sVreality
p1033
F0.0003634892079851342
sVtil
p1034
F9.374454700567288e-05
sVtio
p1035
F0.0
sVrole
p1036
F0.00012116306932837807
sVpapers
p1037
F0.00012116306932837807
sVtest
p1038
F0.0005155950085312009
sVisomers
p1039
F0.0
sVteologiuddannelser
p1040
F0.0
sVdesvenlafaxine
p1041
F0.0
sVeternity
p1042
F0.00012116306932837807
sV51btc
p1043
F0.0
sVdelivered
p1044
F0.00012116306932837807
sVpoemasamers
p1045
F0.0
sVfelt
p1046
F0.0005155950085312009
sVmiscellaneous
p1047
F0.00012116306932837807
sVdiet
p1048
F0.001575119901268915
sVdependence
p1049
F0.0
sVconcurrent
p1050
F0.00012116306932837807
sValleviated
p1051
F0.0
sVhorribly
p1052
F0.0
sVvariable
p1053
F7.429079582554164e-05
sVtransporter
p1054
F0.0
sVdanske
p1055
F0.0
sVaware
p1056
F0.0
sVomega
p1057
F0.0
sVdied
p1058
F0.00014858159165108328
sVstops
p1059
F1.232902061089766e-05
sVyounger
p1060
F0.00014061682050850932
sVhappening
p1061
F4.687227350283644e-05
sVhippocampal
p1062
F0.0
sVassume
p1063
F0.0006058153466418903
sVpenge
p1064
F0.0
sVinterval
p1065
F0.0
sVpseudo
p1066
F0.00012116306932837807
sVdaily
p1067
F0.002059772178582427
sVwarm
p1068
F2.7418522322705193e-05
sVtime
p1069
F0.0
sVpush
p1070
F4.687227350283644e-05
sVserious
p1071
F0.00046872273502836443
sVadrenic
p1072
F0.0
sVparcels
p1073
F0.0
sVstick
p1074
F7.429079582554164e-05
sVurinary
p1075
F0.0
sVconcept
p1076
F0.00024232613865675614
sVantipsychotics
p1077
F0.0
sVskogsarbetare
p1078
F0.0
sVrob
p1079
F7.429079582554164e-05
sVrelieve
p1080
F0.0
sValternatives
p1081
F0.00024232613865675614
sVfocus
p1082
F0.0004846522773135123
sVleads
p1083
F0.00018748909401134577
sVmild
p1084
F0.0
sVmanages
p1085
F7.429079582554164e-05
sVmodafinil
p1086
F0.0
sVskin
p1087
F2.465804122179532e-05
sVchair
p1088
F7.429079582554164e-05
sVmilk
p1089
F0.0008481414852986465
sVretention
p1090
F0.00012116306932837807
sVheller
p1091
F0.0
sVsuicide
p1092
F0.0004846522773135123
sVdisorders
p1093
F0.0003634892079851342
sVtranylcypromine
p1094
F0.0
sVdrunkards
p1095
F0.0
sVfather
p1096
F4.687227350283644e-05
sVblocking
p1097
F0.00029716318330216655
sV0
p1098
F0.0016343975081619163
sVfinally
p1099
F0.00014858159165108328
sVunpleasant
p1100
F0.00012116306932837807
sVdeterminations
p1101
F0.0
sVtext
p1102
F7.429079582554164e-05
sVsuffered
p1103
F9.374454700567288e-05
sVmust
p1104
F0.0
sVdopa
p1105
F0.0
sVride
p1106
F9.374454700567288e-05
sVanalyseamers
p1107
F0.0
sVnerv
p1108
F0.0
sVstring
p1109
F2.7418522322705193e-05
sVadvantage
p1110
F7.429079582554164e-05
sVbenzodiazepines
p1111
F0.0
sVpropranolol
p1112
F0.0
sVtends
p1113
F0.0
sVmg
p1114
F0.0
sVunfamiliar
p1115
F0.00024232613865675614
sVchoice
p1116
F0.00014061682050850932
sVliability
p1117
F0.0
sVmyrbetriq
p1118
F0.0
sVrationality
p1119
F0.0
sVsigh
p1120
F7.429079582554164e-05
sVtrouble
p1121
F6.164510305448829e-05
sVminipress
p1122
F0.0
sVexact
p1123
F9.374454700567288e-05
sVminute
p1124
F4.687227350283644e-05
sVcool
p1125
F0.00012116306932837807
sVpotentiates
p1126
F0.0
sVlevel
p1127
F0.00012329020610897659
sVdie
p1128
F5.4837044645410385e-05
sVdig
p1129
F0.00012116306932837807
sVdecennial
p1130
F0.0
sVaccidentally
p1131
F4.687227350283644e-05
sVisocarboxazid
p1132
F0.0
sVtravels
p1133
F0.00012116306932837807
sVp
p1134
F0.00046872273502836443
sVsoooo
p1135
F0.00012116306932837807
sVgut
p1136
F0.0004846522773135123
sVquick
p1137
F3.698706183269298e-05
sVguy
p1138
F4.687227350283644e-05
sVperceptual
p1139
F0.0
sVaccumulation
p1140
F0.0
sVwellbutrin
p1141
F0.0
sVanesthetic
p1142
F0.0
sVprevent
p1143
F0.00029716318330216655
sVtremendously
p1144
F0.0
sVsays
p1145
F1.232902061089766e-05
sVhindered
p1146
F0.0
sVmeasurable
p1147
F0.0
sVsign
p1148
F1.232902061089766e-05
sVtetracyclics
p1149
F0.0
sVneurotoxic
p1150
F0.0
sVcost
p1151
F9.374454700567288e-05
sVworn
p1152
F0.00012116306932837807
sVupped
p1153
F0.0
sVrun
p1154
F3.698706183269298e-05
sVmigraines
p1155
F0.0
sVsubstitute
p1156
F0.0
sVparachuting
p1157
F0.0
sVstands
p1158
F9.374454700567288e-05
sVanecdotes
p1159
F0.0
sVaddy
p1160
F0.00012116306932837807
sV25mg
p1161
F0.0
sVcurrent
p1162
F9.374454700567288e-05
sVisoptin
p1163
F0.0
sVnormodyne
p1164
F0.0
sVclomipramine
p1165
F0.0
sVgoes
p1166
F4.931608244359064e-05
sVreply
p1167
F7.429079582554164e-05
sVfalling
p1168
F7.429079582554164e-05
sVboost
p1169
F0.0
sVfilled
p1170
F5.4837044645410385e-05
sVparadoxical
p1171
F0.0
sVfocalin
p1172
F0.0
sVstatistically
p1173
F0.0
sVjantoven
p1174
F0.0
sVprescriptions
p1175
F0.0
sVgenes
p1176
F0.0003634892079851342
sVinterested
p1177
F0.00010967408929082077
sVunderstanding
p1178
F0.00014061682050850932
sVwater
p1179
F0.00014061682050850932
sVmoren
p1180
F0.0
sVnemesis
p1181
F0.0
sVwitch
p1182
F0.0002228723874766249
sVgroups
p1183
F0.00024232613865675614
sVaddress
p1184
F7.429079582554164e-05
sValone
p1185
F0.00018748909401134577
sValong
p1186
F3.698706183269298e-05
sVaunque
p1187
F0.0
sVchange
p1188
F0.00037497818802269153
sVkommun
p1189
F0.0
sVbox
p1190
F2.7418522322705193e-05
sVzombie
p1191
F0.00012116306932837807
sVendte
p1192
F0.0
sVnoticeable
p1193
F0.0003634892079851342
sVhealthy
p1194
F0.00014061682050850932
sVshift
p1195
F0.00012116306932837807
sVbot
p1196
F0.0
sVcommonly
p1197
F0.0
sVhusband
p1198
F7.429079582554164e-05
sVtrial
p1199
F0.0005200355707787915
sVesben
p1200
F0.0
sVsuggestion
p1201
F0.0003714539791277082
sVsalmeterol
p1202
F0.0
sVbp
p1203
F0.0
sVnoticeably
p1204
F0.0
sVsucks
p1205
F7.429079582554164e-05
sVstudies
p1206
F0.0003634892079851342
sV20mg
p1207
F0.0
sVgenesightrx
p1208
F0.0
sVlowers
p1209
F0.00024232613865675614
sVvirker
p1210
F0.0
sVtasks
p1211
F0.0
sVlove
p1212
F0.00010967408929082077
sVextra
p1213
F0.00023436136751418221
sVinducing
p1214
F0.0
sVprefer
p1215
F0.00014061682050850932
sVmarked
p1216
F9.374454700567288e-05
sVdutoprol
p1217
F0.0
sVresidual
p1218
F0.00012116306932837807
sVmobic
p1219
F0.0
sVrash
p1220
F4.687227350283644e-05
sVayone
p1221
F0.0
sVpoemsampa
p1222
F0.0
sVrarely
p1223
F0.0
sVinositol
p1224
F0.0
sVsweating
p1225
F0.00024232613865675614
sVcrammed
p1226
F0.0
sVhandled
p1227
F7.429079582554164e-05
sVworking
p1228
F0.0
sVpositive
p1229
F0.00028123364101701864
sVangry
p1230
F0.00014858159165108328
sVvisit
p1231
F4.687227350283644e-05
sVfrance
p1232
F0.0
sVlive
p1233
F2.465804122179532e-05
sVapproach
p1234
F7.429079582554164e-05
sVpmpd
p1235
F0.0
sVwondering
p1236
F0.0003634892079851342
sVmemory
p1237
F0.0005624672820340373
sVvores
p1238
F0.0
sVscope
p1239
F0.00012116306932837807
sVsharpen
p1240
F0.0
sVthru
p1241
F0.00024232613865675614
sVtheoretical
p1242
F0.0
sVtoday
p1243
F0.00010967408929082077
sVaspirin
p1244
F0.0
sVbioperine
p1245
F0.0
sVmarbles
p1246
F0.0
sVafford
p1247
F0.00024232613865675614
sVsuggestions
p1248
F9.374454700567288e-05
sVnalt
p1249
F0.0
sVenvelope
p1250
F0.0
sVtagamet
p1251
F0.0
sVatarax
p1252
F0.0
sVfuel
p1253
F0.0
sVvisual
p1254
F0.00024232613865675614
sVtandem
p1255
F0.0
sVcases
p1256
F0.0004846522773135123
sVgiven
p1257
F3.698706183269298e-05
sVeffort
p1258
F0.00012116306932837807
sVeasiest
p1259
F0.0
sVtobacco
p1260
F7.429079582554164e-05
sVavoiding
p1261
F0.00012116306932837807
sVelectroconvulsive
p1262
F0.0
sVbeliever
p1263
F0.0
sVatypical
p1264
F0.0014539568319405368
sVreviews
p1265
F0.00012116306932837807
sVwallet
p1266
F7.429079582554164e-05
sVvalues
p1267
F7.429079582554164e-05
sVhope
p1268
F9.863216488718127e-05
sVfollowing
p1269
F0.00010967408929082077
sVmaking
p1270
F4.931608244359064e-05
sVdosage
p1271
F0.0018174460399256712
sVstimulating
p1272
F0.0
sVclaim
p1273
F4.687227350283644e-05
sVashitaba
p1274
F0.0
sVnursing
p1275
F0.0
sVfigure
p1276
F7.429079582554164e-05
sVattribute
p1277
F7.429079582554164e-05
sVawesome
p1278
F0.0003634892079851342
sVcimetidine
p1279
F0.0
sVfuck
p1280
F0.00012116306932837807
sVagent
p1281
F0.00014061682050850932
sVsample
p1282
F5.4837044645410385e-05
sVdrawer
p1283
F0.0
sVdxm
p1284
F0.0
sVpalpitations
p1285
F0.0
sVperformed
p1286
F7.429079582554164e-05
sVallowed
p1287
F8.225556696811558e-05
sVcapsules
p1288
F0.0
sVserum
p1289
F0.0
sV232
p1290
F0.0
sVpink
p1291
F0.00014858159165108328
sVrays
p1292
F0.0
sVshallower
p1293
F0.0
sVsudddenly
p1294
F0.0
sV500mcg
p1295
F0.0
sVfortunately
p1296
F0.0
sVwrite
p1297
F2.7418522322705193e-05
sVwatching
p1298
F0.00014858159165108328
sVwarfarin
p1299
F0.0
sVdinner
p1300
F4.687227350283644e-05
sVchemical
p1301
F0.00024232613865675614
sVtill
p1302
F7.429079582554164e-05
sVvital
p1303
F0.00024232613865675614
sVlexapro
p1304
F0.0
sVchrispy_chken_org_295235
p1305
F0.0
sVoptimal
p1306
F0.0
sVfirmly
p1307
F0.00012116306932837807
sVtachycardiac
p1308
F0.0
sVnonstop
p1309
F0.00012116306932837807
sVchores
p1310
F0.00012116306932837807
sVstaying
p1311
F7.429079582554164e-05
sVwhacked
p1312
F0.00012116306932837807
sVcocktail
p1313
F0.0003634892079851342
sVhuge
p1314
F3.698706183269298e-05
sVmay
p1315
F0.0007274122160429618
sVmax
p1316
F0.00012116306932837807
sVcontraindicates
p1317
F0.0
sVspot
p1318
F4.687227350283644e-05
sVtrandate
p1319
F0.0
sVmismo
p1320
F0.0
sVmembership
p1321
F0.0
sVproduce
p1322
F0.0002228723874766249
sVlevo
p1323
F0.0
sVdexedrine
p1324
F0.0
sVcardiac
p1325
F0.0
sVlidt
p1326
F0.0
sVrasagiline
p1327
F0.0
sVguys
p1328
F0.00024232613865675614
sVcontraindicated
p1329
F0.0
sVmao
p1330
F0.0
sVman
p1331
F0.00011096118549807894
sVtritrated
p1332
F0.0
sVstress
p1333
F0.00014858159165108328
sVnatural
p1334
F0.00014858159165108328
sVremember
p1335
F7.397412366538596e-05
sV80
p1336
F0.0
sVwhenever
p1337
F0.0002228723874766249
sVmaybe
p1338
F0.0
sVsv
p1339
F0.0
sVsu
p1340
F0.0
sVst
p1341
F0.0
sVsk
p1342
F0.0
sVprovide
p1343
F0.00012116306932837807
sVswitch
p1344
F0.0005200355707787915
sVglancing
p1345
F0.0
sVsm
p1346
F0.0
sVvanatrip
p1347
F0.0
sVpulled
p1348
F4.687227350283644e-05
sVtalk
p1349
F0.00018748909401134577
sV2mg
p1350
F0.0
sVimagining
p1351
F0.00012116306932837807
sVlsd
p1352
F0.0
sVserving
p1353
F9.374454700567288e-05
sVseeing
p1354
F0.00014061682050850932
sVwebpage
p1355
F0.00012116306932837807
sVindeed
p1356
F0.00018748909401134577
sVpointed
p1357
F7.429079582554164e-05
sVmianserin
p1358
F0.0
sVmainly
p1359
F0.00014858159165108328
sVyears
p1360
F0.0005483704464541039
sVstability
p1361
F0.0
sVcourse
p1362
F0.00019192965625893635
sVepisodes
p1363
F0.0
sVtablets
p1364
F0.0
sVnbsp
p1365
F0.0004846522773135123
sVstatistical
p1366
F0.0
sVpitch
p1367
F0.00012116306932837807
sVweird
p1368
F9.374454700567288e-05
sVcold
p1369
F9.374454700567288e-05
sVfosterfadern
p1370
F0.0
sVtendency
p1371
F0.00012116306932837807
sVtore
p1372
F0.0
sVsupplemented
p1373
F0.0
sVved
p1374
F0.0
sVgroup
p1375
F2.7418522322705193e-05
sVmonitor
p1376
F0.00012116306932837807
sVinteresting
p1377
F0.00016451113393623116
sVideation
p1378
F0.0
sVforms
p1379
F0.00012116306932837807
sV17646220
p1380
F0.0
sVcontinue
p1381
F5.4837044645410385e-05
sVamelioration
p1382
F0.0
sVbajisimos
p1383
F0.0
sVthanx
p1384
F0.0
sVlisting
p1385
F7.429079582554164e-05
sVmail
p1386
F0.00014858159165108328
sVtachycardia
p1387
F0.0
sVmain
p1388
F1.232902061089766e-05
sVdecades
p1389
F0.00024232613865675614
sVpuzzle
p1390
F0.0003634892079851342
sVentrada
p1391
F0.0
sVndris
p1392
F0.0
sVmodestly
p1393
F0.0
sVnon
p1394
F0.00020959335038526022
sVahi
p1395
F0.0
sVmarginally
p1396
F0.0
sVstabilizers
p1397
F0.0
sV3
p1398
F0.000575788968776809
sVtninger
p1399
F0.0
sVkiller
p1400
F9.374454700567288e-05
sVinsomnia
p1401
F0.0
sVregarding
p1402
F7.429079582554164e-05
sVsooner
p1403
F0.00012116306932837807
sVnonsense
p1404
F0.0
sVtoxic
p1405
F0.0
sVadrenaline
p1406
F0.0
sVbase
p1407
F2.7418522322705193e-05
sVwoiuldn
p1408
F0.0
sVaspirations
p1409
F0.0
sVqhi
p1410
F0.0
sVnos
p1411
F0.0
sVwont
p1412
F0.00012116306932837807
sVsusceptibility
p1413
F0.0
sVterm
p1414
F0.00018748909401134577
sVname
p1415
F8.630314427628362e-05
sVstabilize
p1416
F0.0
sVlies
p1417
F4.687227350283644e-05
sVcognition
p1418
F0.00012116306932837807
sVdidn
p1419
F0.0003452125771051345
sVvaged
p1420
F0.0
sVconcerta
p1421
F0.0
sVrealistic
p1422
F0.0
sVdesde
p1423
F0.0
sVstockholm
p1424
F0.0
sVrock
p1425
F4.687227350283644e-05
sVpharmacies
p1426
F0.0
sVentirely
p1427
F0.00013709261161352597
sVem
p1428
F2.7418522322705193e-05
sVmppe
p1429
F0.0
sVen
p1430
F0.0014115251206852913
sVamphetimine
p1431
F0.0
sVcordarone
p1432
F0.0
sVed
p1433
F7.429079582554164e-05
sVyeah
p1434
F0.00014858159165108328
sVbalanced
p1435
F4.687227350283644e-05
sVmptp
p1436
F0.0
sVpersian
p1437
F0.0
sVex
p1438
F0.00014858159165108328
sVyear
p1439
F0.00014794824733077193
sVet
p1440
F0.0003634892079851342
sVhappen
p1441
F8.225556696811558e-05
sVworried
p1442
F0.00014061682050850932
sVpills
p1443
F0.0008481414852986465
sVes
p1444
F0.00012116306932837807
sVer
p1445
F0.00028123364101701864
sVliving
p1446
F4.931608244359064e-05
sVultimately
p1447
F0.0007269784159702684
sVsystemsammenst
p1448
F0.0
sVopened
p1449
F2.7418522322705193e-05
sVspace
p1450
F0.00014858159165108328
sVunderst
p1451
F0.0
sVfurthermore
p1452
F0.00012116306932837807
sVrational
p1453
F0.0
sVlooking
p1454
F0.0
sVseriously
p1455
F9.374454700567288e-05
sVbeige
p1456
F0.0
sVcae
p1457
F0.0
sVemerged
p1458
F0.00012116306932837807
sVanorexia
p1459
F0.00012116306932837807
sVhemorrhagic
p1460
F0.0
sVcorrect
p1461
F0.00014858159165108328
sVhcl
p1462
F0.0
sVneurotrophic
p1463
F0.0
sVtheory
p1464
F0.00024232613865675614
sVcontain
p1465
F0.00012116306932837807
sVmechanisms
p1466
F0.0
sVquite
p1467
F8.630314427628362e-05
sVantihistamines
p1468
F0.0
sVcalifornia
p1469
F0.0
sVbesides
p1470
F7.429079582554164e-05
sVldre
p1471
F0.0
sVbumpy
p1472
F0.0
sVorg
p1473
F0.0013327937626121588
sV___
p1474
F0.0
sVcard
p1475
F7.429079582554164e-05
sVgotu
p1476
F0.0
sVadvance
p1477
F4.687227350283644e-05
sVtraining
p1478
F7.429079582554164e-05
sVgusta
p1479
F0.0
sVlifeext
p1480
F0.0
sVcouldn
p1481
F0.00010967408929082077
sVdisguised
p1482
F0.0
sVfa
p1483
F0.0
sVdiscussing
p1484
F0.00012116306932837807
sVunorthodox
p1485
F0.0
sVmodest
p1486
F0.00012116306932837807
sV10mg
p1487
F0.0
sVthing
p1488
F0.00014794824733077193
sVsteroidal
p1489
F0.0
sVjumping
p1490
F7.429079582554164e-05
sVplace
p1491
F4.931608244359064e-05
sVmassive
p1492
F0.0
sVroutes
p1493
F0.0
sVpromotion
p1494
F0.00012116306932837807
sVchildhood
p1495
F0.0
sVfrequent
p1496
F0.00024232613865675614
sVfirst
p1497
F0.0004315157213814181
sVblind
p1498
F7.429079582554164e-05
sVcheese
p1499
F7.429079582554164e-05
sVfw900
p1500
F0.0
sVsaving
p1501
F4.687227350283644e-05
sVparkinson
p1502
F0.0
sVmucho
p1503
F0.0
sVamino
p1504
F0.0
sVspecifically
p1505
F0.0
sVdirectly
p1506
F9.374454700567288e-05
sVspecificity
p1507
F0.0
sVcarry
p1508
F1.232902061089766e-05
sVtransdermal
p1509
F0.0
sVsounds
p1510
F0.0003714539791277082
sVdrove
p1511
F0.00012116306932837807
sVtomorrow
p1512
F0.00024232613865675614
sVxt
p1513
F0.0
sViam
p1514
F0.0
sV1p
p1515
F0.0
sVlittle
p1516
F0.0
sVnecessarily
p1517
F7.429079582554164e-05
sVsheet
p1518
F4.687227350283644e-05
sVsilent
p1519
F7.429079582554164e-05
sVstuck
p1520
F0.00014858159165108328
sV1x
p1521
F0.0
sVcaught
p1522
F9.374454700567288e-05
sVslept
p1523
F0.00012116306932837807
sVeighths
p1524
F0.0
sVnewstar
p1525
F0.0
sVplastic
p1526
F0.00012116306932837807
sVikke
p1527
F0.0
sVpsychotic
p1528
F0.0003634892079851342
sV2
p1529
F0.0002835674740506462
sVprovigil
p1530
F0.0
sVterrifying
p1531
F0.0
sV1g
p1532
F0.0
sVquotesamers
p1533
F0.0
sVmilage
p1534
F0.0
sVamphetamines
p1535
F0.0
sVfriend
p1536
F2.465804122179532e-05
sVgives
p1537
F8.225556696811558e-05
sVnutrition
p1538
F0.0
sVeyes
p1539
F2.7418522322705193e-05
sVamines
p1540
F0.0
sVreleases
p1541
F7.429079582554164e-05
sVfoolhardy
p1542
F0.0
sVbenbest
p1543
F0.0
sVaccurately
p1544
F7.429079582554164e-05
sVreleased
p1545
F0.00012116306932837807
sVreadjuan
p1546
F0.0
sVshort
p1547
F3.698706183269298e-05
sVderived_neurotrophic_factor
p1548
F0.0
sVhyperthermia
p1549
F0.0
sVeliminated
p1550
F0.0
sV11
p1551
F3.698706183269298e-05
sVwide
p1552
F2.7418522322705193e-05
sVtelevision
p1553
F0.00012116306932837807
sV12
p1554
F7.397412366538596e-05
sV15
p1555
F3.698706183269298e-05
sV14
p1556
F0.00028123364101701864
sV16
p1557
F4.687227350283644e-05
sV19
p1558
F9.374454700567288e-05
sV18
p1559
F4.687227350283644e-05
sVrequire
p1560
F0.0003634892079851342
sVagmatine
p1561
F0.0
sVcrossroads
p1562
F0.0
sVmutilation
p1563
F0.0
sVfuture
p1564
F0.00024676670090434676
sVmagnesium
p1565
F0.0
sVpoisoning
p1566
F0.00012116306932837807
sVsynthesis
p1567
F0.00012116306932837807
sVragey
p1568
F0.0
sVpre
p1569
F0.00014858159165108328
sVcantaresjuan
p1570
F0.0
sVcoconut
p1571
F5.4837044645410385e-05
sVillness
p1572
F0.0
sVrene
p1573
F0.0
sVpaywalls
p1574
F0.0
sVsam
p1575
F0.0
sVremained
p1576
F0.0
sVprl
p1577
F0.0
sVpro
p1578
F0.0
sVcymbalta
p1579
F0.0
sVlevomethamphetamine
p1580
F0.0
sVvoices
p1581
F0.0
sVssris
p1582
F0.0
sVsay
p1583
F0.0002712384534397485
sVpubmed
p1584
F0.0
sVpregnenolone
p1585
F0.0
sVtetracyclic
p1586
F0.0
sV20g
p1587
F0.0
sVmoclobomide
p1588
F0.0
sVanger
p1589
F0.00014858159165108328
sVinhibiting
p1590
F0.0
sVturner
p1591
F0.0
sVrecover
p1592
F4.687227350283644e-05
sVsaw
p1593
F0.00018748909401134577
sVworst
p1594
F0.00014858159165108328
sVform
p1595
F0.00016451113393623116
sVbipolarity
p1596
F0.0
sVadvil
p1597
F0.0
sVfucking
p1598
F0.00012116306932837807
sVoffer
p1599
F0.00014061682050850932
sVaside
p1600
F9.374454700567288e-05
sVpmc514561
p1601
F0.0
sVnote
p1602
F0.00019192965625893635
sVideal
p1603
F0.00029716318330216655
sVpotential
p1604
F0.0014539568319405368
sVsnris
p1605
F0.0
sVobjective
p1606
F0.0
sVperformance
p1607
F0.00018748909401134577
sVconcern
p1608
F0.0003634892079851342
sVimpairment
p1609
F0.0
sVswitching
p1610
F0.00014858159165108328
sV200
p1611
F0.0006058153466418903
sVbegin
p1612
F0.00028123364101701864
sVdifferences
p1613
F0.00012116306932837807
sValtered
p1614
F0.00024232613865675614
sVnsaids
p1615
F0.0
sVtrace
p1616
F0.0
sVnormal
p1617
F0.00046872273502836443
sVtrack
p1618
F0.00014858159165108328
sVprice
p1619
F4.687227350283644e-05
sVdecreasing
p1620
F0.0
sVclearer
p1621
F0.0
sVpaid
p1622
F7.429079582554164e-05
sVpdfobra
p1623
F0.0
sVbeta
p1624
F0.0009693045546270246
sVpaiy
p1625
F0.0
sVsymtoms
p1626
F0.0
sVpair
p1627
F7.429079582554164e-05
sVsurmised
p1628
F0.0
sVgrateful
p1629
F0.0
sVcleared
p1630
F7.429079582554164e-05
sVespecially
p1631
F0.0003290222678724623
sVbreakthroughs
p1632
F0.0
sVconsidered
p1633
F7.429079582554164e-05
sVaverage
p1634
F0.0002228723874766249
sV8mg
p1635
F0.0
sVdrive
p1636
F0.0002228723874766249
sVsodas
p1637
F0.0
sVways
p1638
F0.00010967408929082077
sVpeptides
p1639
F0.0
sVproperly
p1640
F2.7418522322705193e-05
sVwind
p1641
F4.687227350283644e-05
sVarguably
p1642
F0.0
sVjittery
p1643
F0.0
sVdrenge
p1644
F0.0
sVtypically
p1645
F0.0007269784159702684
sVlaws
p1646
F0.00012116306932837807
sVevent
p1647
F4.687227350283644e-05
sVwalking
p1648
F2.7418522322705193e-05
sVdrastically
p1649
F0.0
sVshot
p1650
F2.7418522322705193e-05
sVregulated
p1651
F0.0
sVshow
p1652
F6.164510305448829e-05
sVcheap
p1653
F0.0003714539791277082
sVgedtestingservice
p1654
F0.0
sVelevate
p1655
F0.0
sVtherapist
p1656
F0.00024232613865675614
sVdrawings
p1657
F0.0
sVtiredness
p1658
F0.0
sVnootropaxjkmrlta
p1659
F0.0
sVhace
p1660
F0.0
sVaggressive
p1661
F0.0
sVlabel
p1662
F0.00014061682050850932
sVnlm
p1663
F0.0
sVadhere
p1664
F0.0
sVaspartic
p1665
F0.0
sVslow
p1666
F0.00010967408929082077
sVratio
p1667
F0.00012116306932837807
sVbrain_dopamine_and_kinematics_of_graphomotor
p1668
F0.0
sVtitle
p1669
F7.429079582554164e-05
sVamers
p1670
F0.0
sV500mg
p1671
F0.0
sVmetabolites
p1672
F0.0
sVlunde
p1673
F0.0
sVtears
p1674
F7.429079582554164e-05
sVgoing
p1675
F0.0
sVhockey
p1676
F0.0
sVstationeries
p1677
F0.0
sVsertraline
p1678
F0.0
sVdoxepin
p1679
F0.0
sVprecios
p1680
F0.0
sVawareness
p1681
F0.0
sVfda
p1682
F0.0
sVmetaprel
p1683
F0.0
sVnootropics
p1684
F0.0
sVcorrectly
p1685
F4.687227350283644e-05
sVwheezy
p1686
F0.0
sVpray
p1687
F4.687227350283644e-05
sVnogle
p1688
F0.0
sVbegging
p1689
F0.00012116306932837807
sVtruly
p1690
F0.00029716318330216655
sVrefina
p1691
F0.0
sVloath
p1692
F0.0
sVnardosinone
p1693
F0.0
sVcannot
p1694
F0.00010967408929082077
sVnearly
p1695
F2.465804122179532e-05
sVdistinctly
p1696
F0.0
sVbromocriptine
p1697
F0.0
sVconjunction
p1698
F0.0
sVfirstborn
p1699
F0.0
sVsecondary
p1700
F4.687227350283644e-05
sVinpatient
p1701
F0.0
sVcatecholamine
p1702
F0.0
sVhordenine
p1703
F0.0
sVdecarboxylase
p1704
F0.0
sVatomoxetine
p1705
F0.0
sVenalapril
p1706
F0.0
sVsaliva
p1707
F0.00012116306932837807
sVyield
p1708
F0.0
sVmorning
p1709
F0.0002228723874766249
sVlgelig
p1710
F0.0
sVstupid
p1711
F0.00014061682050850932
sVmedications
p1712
F0.0
sVverticales
p1713
F0.0
sVmarred
p1714
F0.00012116306932837807
sVsurgeries
p1715
F0.0
sVcardizem
p1716
F0.0
sVvision
p1717
F0.0
sVwiki
p1718
F0.0
sVpsychedelics
p1719
F0.0
sVmedicated
p1720
F0.00012116306932837807
sVidebenone
p1721
F0.0
sVbuuuuut
p1722
F0.0
sVphysically
p1723
F0.0003634892079851342
sVattenuates
p1724
F0.0
sVnamely
p1725
F0.0
sVactively
p1726
F0.0
sVcollege
p1727
F0.00012116306932837807
sVanyways
p1728
F7.429079582554164e-05
sVeliminating
p1729
F0.0
sVstigma
p1730
F0.0
sVsurgery
p1731
F0.0003634892079851342
sVestamos
p1732
F0.0
sVcalan
p1733
F0.0
sVwonder
p1734
F0.00018748909401134577
sVfails
p1735
F0.00024232613865675614
sVsatisfying
p1736
F0.00012116306932837807
sVinhibitory
p1737
F0.0
sVcompounds
p1738
F0.0
sVestan
p1739
F0.0
sVtalkative
p1740
F0.0
sVside_effects
p1741
F0.0
sVdefinite
p1742
F0.00024232613865675614
sVphosphatidylserine
p1743
F0.0
sVenough
p1744
F0.0
sVestar
p1745
F0.0
sVjohn
p1746
F0.0
sVrefreshed
p1747
F0.00012116306932837807
sVherbal
p1748
F0.0003634892079851342
sVimport
p1749
F0.00012116306932837807
sVreading
p1750
F0.00019192965625893635
sVsnorted
p1751
F0.0
sVacross
p1752
F9.374454700567288e-05
sVtherapies
p1753
F0.0
sVaffordable
p1754
F0.0
sVnotice
p1755
F0.00030160374554975714
sVprolintane
p1756
F0.0
sVvertical
p1757
F4.687227350283644e-05
sVscreen
p1758
F0.00014858159165108328
sVdome
p1759
F0.0
sVkilling
p1760
F0.00024232613865675614
sVblame
p1761
F4.687227350283644e-05
sVsympathomimetic
p1762
F0.0
sVconcentrate
p1763
F0.00024232613865675614
sVcomo
p1764
F0.0
sVhurts
p1765
F0.00024232613865675614
sVvenlafaxine
p1766
F0.0
sVrapidly
p1767
F4.687227350283644e-05
sVgauntlet
p1768
F0.0
sVcome
p1769
F0.00012329020610897659
sVligand
p1770
F0.0
sVreaction
p1771
F0.0003714539791277082
sVsuperstar
p1772
F0.0
sValla
p1773
F0.0
sVuseless
p1774
F0.00024232613865675614
sVbioactive
p1775
F0.0
sVregion
p1776
F7.429079582554164e-05
sVballpark
p1777
F0.0
sVaccording
p1778
F2.7418522322705193e-05
sVmoreso
p1779
F0.0
sVbelig
p1780
F0.0
sVvilazodone
p1781
F0.0
sVjo
p1782
F0.0
sVlatuda
p1783
F0.0
sVexpression
p1784
F0.00014061682050850932
sVsheaf
p1785
F0.0
sVcomes
p1786
F0.00018748909401134577
sVtekamlo
p1787
F0.0
sVzodiacs
p1788
F0.0
sVamong
p1789
F0.0002228723874766249
sVvar
p1790
F0.0
sVafterwards
p1791
F9.374454700567288e-05
sVcancer
p1792
F0.0007269784159702684
sVtaiwan
p1793
F0.0
sVeffective
p1794
F0.003392565941194586
sVpor
p1795
F0.00012116306932837807
sVperiod
p1796
F8.225556696811558e-05
sVpop
p1797
F0.00014858159165108328
sVmonton
p1798
F0.0
sVtwin
p1799
F7.429079582554164e-05
sVlisinopril
p1800
F0.0
sVamine
p1801
F0.0
sVlearning
p1802
F0.00029716318330216655
sVarticle
p1803
F4.687227350283644e-05
sVconstant
p1804
F7.429079582554164e-05
sVboat
p1805
F0.00012116306932837807
sVnarcissistic
p1806
F0.0
sVcramps
p1807
F0.0
sVpropyne
p1808
F0.0
sVunusual
p1809
F7.429079582554164e-05
sVcycling
p1810
F0.0014539568319405368
sVstretch
p1811
F0.00014858159165108328
sVrebuild
p1812
F0.0
sVmark
p1813
F4.687227350283644e-05
sVbreath
p1814
F2.7418522322705193e-05
sVcoinrx
p1815
F0.0
sValtace
p1816
F0.0
sVcombined
p1817
F0.0003714539791277082
sVmotives
p1818
F0.0
sVdangers
p1819
F0.0003634892079851342
sVnit
p1820
F0.0
sVlder
p1821
F0.0
sV15mg
p1822
F0.0
sVdifferently
p1823
F7.429079582554164e-05
sVdesmethylselegiline
p1824
F0.0
sVcolors
p1825
F7.429079582554164e-05
sVcertainly
p1826
F0.00024676670090434676
sVshopping
p1827
F0.00014858159165108328
sVgist
p1828
F0.00012116306932837807
sVinfluence
p1829
F4.687227350283644e-05
sVoffered
p1830
F7.429079582554164e-05
sV400
p1831
F0.00014858159165108328
sVperindopril
p1832
F0.0
sVreaching
p1833
F0.00012116306932837807
sVtightened
p1834
F0.0
sVdoesn
p1835
F0.0001602772679416696
sVcarvedilol
p1836
F0.0
sVoverdose
p1837
F0.0006058153466418903
sVcareful
p1838
F0.0004457447749532498
sV1mg
p1839
F0.0
sVskriver
p1840
F0.0
sVsound
p1841
F2.7418522322705193e-05
sV1294791551579fdnyemsambulancefit
p1842
F0.0
sVdisconnected
p1843
F7.429079582554164e-05
sVprofiles
p1844
F0.00012116306932837807
sVtrick
p1845
F9.374454700567288e-05
sVvoltaren
p1846
F0.0
sVwarning
p1847
F9.374454700567288e-05
sVongoing
p1848
F0.0
sVmany
p1849
F0.0
sVsituation
p1850
F0.0002228723874766249
sVcigs
p1851
F0.0
sValcoholic
p1852
F0.00012116306932837807
sVgeodon
p1853
F0.0
sVside_effect
p1854
F0.0
sVbror
p1855
F0.0
sVsudden
p1856
F9.374454700567288e-05
sVconverts
p1857
F0.00012116306932837807
sVbaths
p1858
F0.0
sVironic
p1859
F0.00012116306932837807
sVprotein
p1860
F0.0
sVcardura
p1861
F0.0
sVawhile
p1862
F0.00012116306932837807
sVworry
p1863
F2.7418522322705193e-05
sVsedating
p1864
F0.0
sVpar
p1865
F0.00012116306932837807
sVritalin
p1866
F0.0
sVharsh
p1867
F7.429079582554164e-05
sVinquire
p1868
F0.00024232613865675614
sVpay
p1869
F2.465804122179532e-05
sVlave
p1870
F0.0
sVspiraling
p1871
F0.0
sVmagyar
p1872
F0.0
sVcheck
p1873
F0.0005943263666043331
sVfiguring
p1874
F0.00012116306932837807
sVreleaser
p1875
F0.0
sVhtml
p1876
F0.0003634892079851342
sVmanila
p1877
F0.0
sVagitated
p1878
F0.0
sVlite
p1879
F0.0
sVphysical
p1880
F0.0
sVevents
p1881
F0.0002228723874766249
sVhvis
p1882
F0.0
sVtried
p1883
F0.0015467850255936027
sVbreakdown
p1884
F0.00012116306932837807
sVoil
p1885
F0.0005943263666043331
sVyo
p1886
F0.00014858159165108328
sVrunning
p1887
F0.0
sVuddannelser
p1888
F0.0
sVtotally
p1889
F8.225556696811558e-05
sVfosterfamiljen
p1890
F0.0
sVmentally
p1891
F0.00012116306932837807
sVcosta
p1892
F0.0
sVcyp1a2
p1893
F0.0
sVngf
p1894
F0.0
sVtreximet
p1895
F0.0
sVlargely
p1896
F0.0
sVminimize
p1897
F0.00024232613865675614
sVantihistamine
p1898
F0.0
sVpiracetam
p1899
F0.0
sVroughly
p1900
F0.0
sVc60
p1901
F0.0
sVcosto
p1902
F0.0
sVsevere
p1903
F0.0012629435290342078
sVwithout
p1904
F0.0
sVzestril
p1905
F0.0
sVnoopept
p1906
F0.0
sVcomponents
p1907
F0.00012116306932837807
sVhubby
p1908
F0.0
sVcelecoxib
p1909
F0.0
sVcheesing
p1910
F0.0
sV215
p1911
F0.0
sVbenzo
p1912
F0.0
sVya
p1913
F0.0002228723874766249
sVmoney
p1914
F0.0002228723874766249
sVadjustments
p1915
F0.0
sVresolution
p1916
F7.429079582554164e-05
sVrest
p1917
F1.232902061089766e-05
sVdrivel
p1918
F0.0
sVdehydration
p1919
F0.0
sVinflammatory
p1920
F0.0
sVkill
p1921
F2.7418522322705193e-05
sVanerkendte
p1922
F0.0
sVaspect
p1923
F7.429079582554164e-05
sVtouch
p1924
F8.225556696811558e-05
sVbehavioural
p1925
F0.0
sVng
p1926
F0.0
sVsatin
p1927
F0.0
sVketamine
p1928
F0.0
sVpreventing
p1929
F0.00012116306932837807
sVbystolic
p1930
F0.0
sVgrounded
p1931
F0.0
sVender
p1932
F0.0
sVstimulation
p1933
F0.0004846522773135123
sVseems
p1934
F0.00033288355649423683
sVexcept
p1935
F0.00013709261161352597
sVimprovement
p1936
F7.429079582554164e-05
sVlets
p1937
F2.7418522322705193e-05
sVfisetin
p1938
F0.0
sVpile
p1939
F7.429079582554164e-05
sV4
p1940
F0.00017260628855256724
sVversa
p1941
F0.00012116306932837807
sVelectrical
p1942
F0.00024232613865675614
sVunviable
p1943
F0.0
sVcomentariojuan
p1944
F0.0
sVcolegio
p1945
F0.0
sVreal
p1946
F0.0
sVkalde
p1947
F0.0
sVaspects
p1948
F0.00024232613865675614
sVaround
p1949
F0.0001602772679416696
sVdesperately
p1950
F7.429079582554164e-05
sVread
p1951
F0.0008773927143265662
sVmor
p1952
F0.00024232613865675614
sVpsa
p1953
F0.0
sVinjection
p1954
F0.0
sVvirginia
p1955
F0.0
sVindocin
p1956
F0.0
sVbuspirone
p1957
F0.0
sVtid
p1958
F0.0
sVinhibition
p1959
F0.0
sVgloire
p1960
F0.0
sVcyp2a6
p1961
F0.0
sValldaychemist
p1962
F0.0
sVworld
p1963
F5.4837044645410385e-05
sVdecomposes
p1964
F0.0
sVamt
p1965
F0.0
sVmod
p1966
F0.00012116306932837807
sVbroscience
p1967
F0.0
sVstranger
p1968
F0.00012116306932837807
sVpounds
p1969
F0.0002228723874766249
sVcorgard
p1970
F0.0
sVracetams
p1971
F0.0
sVstrictly
p1972
F7.429079582554164e-05
sVpole
p1973
F7.429079582554164e-05
sVserves
p1974
F0.0
sVoddly
p1975
F7.429079582554164e-05
sVsanity
p1976
F0.0
sVbenefit
p1977
F0.0009693045546270246
sVeither
p1978
F0.00023425139160705556
sVfully
p1979
F5.4837044645410385e-05
sVmairena
p1980
F0.0
sVpassionate
p1981
F4.687227350283644e-05
sVreduced
p1982
F0.0004846522773135123
sVclassified
p1983
F0.0
sVburdens
p1984
F0.0
sValprazolam
p1985
F0.0
sVpapernotes
p1986
F0.0
sVpickled
p1987
F0.0
sVparnate
p1988
F0.0
sVoxazepam
p1989
F0.0
sVbiloba
p1990
F0.0
sVuden
p1991
F0.0
sVkola
p1992
F0.0
sVduration
p1993
F0.0
sVdiving
p1994
F0.0
sVtreatments
p1995
F0.0
sVmatching
p1996
F0.00012116306932837807
sVoctane
p1997
F0.0
sVusers
p1998
F0.00024232613865675614
sVviral
p1999
F0.0
sVfabricas
p2000
F0.0
sVgenetics
p2001
F0.0
sVmood
p2002
F0.0023773054664173324
sVbenzodiazepine
p2003
F0.0
sVmemories
p2004
F0.0
sVtube
p2005
F0.00012116306932837807
sVmph
p2006
F0.0
sVlegal
p2007
F0.00024232613865675614
sVnoot
p2008
F0.0
sVmaob
p2009
F0.0
sVdeficit
p2010
F0.0
sVprovides
p2011
F0.00012116306932837807
sVxten
p2012
F0.0
sVmaoi
p2013
F0.0
sVmoderate
p2014
F0.0013327937626121588
sVintravenous
p2015
F0.0
sV3meo
p2016
F0.0
sVconsidering
p2017
F0.0004457447749532498
sVmethamphetamine
p2018
F0.0
sVdesoxyn
p2019
F0.0
sVscientific
p2020
F0.00012116306932837807
sVpower
p2021
F5.4837044645410385e-05
sVepsom
p2022
F0.0
sVproblems
p2023
F0.0003564407901951675
sVresiliency
p2024
F0.0
sVhyperventilated
p2025
F0.0
sVhjemme
p2026
F0.0
sVbroken
p2027
F2.7418522322705193e-05
sVsixty
p2028
F0.0
sVfinicky
p2029
F0.0
sVthrow
p2030
F7.429079582554164e-05
sVmicrodose
p2031
F0.0
sVoo
p2032
F0.00012116306932837807
sVjournaling
p2033
F0.0
sVaca
p2034
F0.0
sVpaises
p2035
F0.0
sVcentral
p2036
F0.0
sVace
p2037
F0.00012116306932837807
sVtease
p2038
F0.00012116306932837807
sVothe
p2039
F0.0
sVintolerable
p2040
F0.0
sVod
p2041
F0.0
sVaco
p2042
F0.0
sVgenerated
p2043
F0.00012116306932837807
sVthousands
p2044
F0.00012116306932837807
sVtrandolapril
p2045
F0.0
sVbenzos
p2046
F0.0
sV75mg
p2047
F0.0
sVgreatly
p2048
F0.00024232613865675614
sVact
p2049
F2.7418522322705193e-05
sVmixed
p2050
F0.0014115251206852913
sVbond
p2051
F7.429079582554164e-05
sVos
p2052
F0.00024232613865675614
sVreasons
p2053
F7.429079582554164e-05
sVop
p2054
F0.00024232613865675614
sVenhancement
p2055
F0.00024232613865675614
sVheavy
p2056
F5.4837044645410385e-05
sVpurported
p2057
F0.0
sVreferenced
p2058
F0.00012116306932837807
sVdecreased
p2059
F0.0
sVdextro
p2060
F0.0
sVweighs
p2061
F7.429079582554164e-05
sVpotentiate
p2062
F0.0
sVimage
p2063
F7.429079582554164e-05
sVproblemsame
p2064
F0.0
sVvnte
p2065
F0.0
sVorganics
p2066
F0.0
sVtrustable
p2067
F0.0
sVreferences
p2068
F0.00024232613865675614
sVbedtime
p2069
F0.0
sVguadeloupeamers
p2070
F0.0
sVeinstein
p2071
F0.0
sVvaluable
p2072
F7.429079582554164e-05
sVsker
p2073
F0.0
sVtechnically
p2074
F7.429079582554164e-05
sVpharmaceutical
p2075
F0.0
sVmethyl
p2076
F0.0
sVsmitter
p2077
F0.0
sVprazosin
p2078
F0.0
sVlog
p2079
F0.00012116306932837807
sVreserpine
p2080
F0.0
sVbarco
p2081
F0.0
sV40mcg
p2082
F0.0
sVdistracted
p2083
F0.00024232613865675614
sVmelander
p2084
F0.0
sVhey
p2085
F7.429079582554164e-05
sVlol
p2086
F0.00012116306932837807
sVsides
p2087
F7.429079582554164e-05
sVstart
p2088
F0.0004935334018086935
sVbromide
p2089
F0.0
sVlow
p2090
F0.0008773927143265662
sVlot
p2091
F0.0
sVslowly
p2092
F9.374454700567288e-05
sVmarlboros
p2093
F0.0
sVtyrosine
p2094
F0.0
sVsemsame
p2095
F0.0
sVbettering
p2096
F0.0
sVcomplete
p2097
F0.00013709261161352597
sVeksempel
p2098
F0.0
sVregard
p2099
F0.0
sVpakistan
p2100
F0.0
sVwithin
p2101
F5.4837044645410385e-05
sVstrikes
p2102
F0.00012116306932837807
sVcaprylic
p2103
F0.0
sVnerve_growth_factor
p2104
F0.0
sVbrain
p2105
F0.0013124236580794204
sVintoxication
p2106
F0.0
sVelimination
p2107
F0.0
sVmice
p2108
F0.0
sVorthostatic
p2109
F0.0
sVirreversible
p2110
F0.0
sVegen
p2111
F0.0
sVfaster
p2112
F4.687227350283644e-05
sVvolume
p2113
F0.00012116306932837807
sVclockwork
p2114
F0.0
sVregimen
p2115
F0.0
sVoutliers
p2116
F0.0
sVcirculation
p2117
F0.0
sVrage
p2118
F0.00012116306932837807
sVnadolol
p2119
F0.0
sVvice
p2120
F0.00012116306932837807
sVprimarly
p2121
F0.0
sVuniversitetsavisen
p2122
F0.0
sVashwagandha
p2123
F0.0
sVhydrolase
p2124
F0.0
sVnootropic
p2125
F0.0
sVnetop
p2126
F0.0
sVtrips
p2127
F0.00014858159165108328
sVhaldol
p2128
F0.0
sVstrongly
p2129
F0.0
sVgone
p2130
F2.465804122179532e-05
sVhaloperidol
p2131
F0.0
sVleaked
p2132
F0.0
sVad
p2133
F0.0005200355707787915
sVvideos
p2134
F7.429079582554164e-05
sVaf
p2135
F0.0
sVexhausted
p2136
F0.00012116306932837807
sVcertain
p2137
F0.00013561922671987426
sVcombining
p2138
F0.0006058153466418903
sVsales
p2139
F0.00012116306932837807
sVdeep
p2140
F5.4837044645410385e-05
sVgeneral
p2141
F0.0
sVap
p2142
F0.0
sVexamine
p2143
F7.429079582554164e-05
sVhypertension
p2144
F0.0
sVcarved
p2145
F4.687227350283644e-05
sVcbt
p2146
F0.0
sVformulation
p2147
F0.0
sV20perse
p2148
F0.0
sVmelatonin
p2149
F0.0
sVwithdrawal
p2150
F0.0
sVneurotransmitters
p2151
F0.0
sVpoemas
p2152
F0.0
sVabyss
p2153
F0.00012116306932837807
sVassessing
p2154
F0.0
sVcooked
p2155
F7.429079582554164e-05
sVbiochemistry
p2156
F0.0
sVperseamers
p2157
F0.0
sVdiarrhea
p2158
F0.0003634892079851342
sVaromatic
p2159
F0.00012116306932837807
sVgraduate
p2160
F0.00012116306932837807
sVsupplementing
p2161
F0.0
sV5
p2162
F0.00020959335038526022
sVm9re
p2163
F0.0
sVforcing
p2164
F0.00012116306932837807
sVcoughing
p2165
F0.00012116306932837807
sVtoprol
p2166
F0.0
sVpoor
p2167
F1.232902061089766e-05
sVrequested
p2168
F7.429079582554164e-05
sVreleasing
p2169
F0.0003634892079851342
sVenzymated
p2170
F0.0
sVxanax
p2171
F0.0
sVpharmaceutically
p2172
F0.0
sVdrift
p2173
F0.0
sVincludes
p2174
F0.00023436136751418221
sVimportant
p2175
F0.0006686171624298748
sVfresh
p2176
F4.687227350283644e-05
sVincluded
p2177
F0.0002228723874766249
sVwikipediaamers
p2178
F0.0
sVhavde
p2179
F0.0
sVdeadline
p2180
F0.00012116306932837807
sVconclusive
p2181
F0.0
sVtricky
p2182
F0.00012116306932837807
sVclinically
p2183
F0.0
sVcalls
p2184
F4.687227350283644e-05
sVoxiracetam
p2185
F0.0
sVtransporte
p2186
F0.0
sVacids
p2187
F0.0
sVpramiracetam
p2188
F0.0
sVcoreg
p2189
F0.0
sVadderrall
p2190
F0.0
sVstacks
p2191
F0.0
sVcarbolines
p2192
F0.0
sVdramatic
p2193
F7.429079582554164e-05
sVhugely
p2194
F0.0
sVbehavioral
p2195
F0.0
sVcoq10
p2196
F0.0
sVnumbing
p2197
F0.00012116306932837807
sVoverseas
p2198
F0.0
sVstarting
p2199
F0.00014061682050850932
sVnunca
p2200
F0.0
sVdepropargylated
p2201
F0.0
sVcatapres
p2202
F0.0
sVconsider
p2203
F0.00010967408929082077
sVchinese
p2204
F0.0
sVv
p2205
F0.00012116306932837807
sVcaused
p2206
F0.0004457447749532498
sVallergy
p2207
F0.00012116306932837807
sVmonth
p2208
F0.0003290222678724623
sVthoughtful
p2209
F0.00012116306932837807
sVgt
p2210
F0.0
sVantagonize
p2211
F0.0
sVzinc
p2212
F0.0
sVinvariably
p2213
F0.0
sVfollow
p2214
F2.7418522322705193e-05
sValt
p2215
F7.429079582554164e-05
sVwakefulness
p2216
F0.0
sVstrategy
p2217
F0.00012116306932837807
sVchildren
p2218
F0.00014061682050850932
sVcauses
p2219
F0.00029716318330216655
sVreluctant
p2220
F0.0
sVrd
p2221
F0.0
sVreferring
p2222
F7.429079582554164e-05
sVtv
p2223
F0.00012116306932837807
sVwatch
p2224
F0.0
sVwhite
p2225
F5.4837044645410385e-05
sVtr
p2226
F0.00012116306932837807
sVparticipants
p2227
F0.0
sVextraneous
p2228
F0.00012116306932837807
sVtl
p2229
F0.0
sVprogram
p2230
F7.429079582554164e-05
sVsmile
p2231
F0.00014858159165108328
sVenjoying
p2232
F7.429079582554164e-05
sVcgi
p2233
F0.00012116306932837807
sVcase
p2234
F0.0005483704464541039
sV697901
p2235
F0.0
sVok
p2236
F4.687227350283644e-05
sVsunifiram
p2237
F0.0
sVfar
p2238
F0.00029589649466154385
sVhorror
p2239
F0.00024232613865675614
sVcapoten
p2240
F0.0
sVfat
p2241
F0.00014858159165108328
sVoccasionally
p2242
F9.374454700567288e-05
sVpuzzles
p2243
F0.0
sVpsychologist
p2244
F0.0
sVmirapex
p2245
F0.0
sVcorsets
p2246
F0.0
sVsublingually
p2247
F0.0
sVdecide
p2248
F0.0002228723874766249
sVfall
p2249
F7.429079582554164e-05
sVsourly
p2250
F0.0
sVtraer
p2251
F0.0
sVcondition
p2252
F0.00014061682050850932
sVfald
p2253
F0.0
sVtreating
p2254
F0.0009693045546270246
sVmotor
p2255
F0.00012116306932837807
sVinduced
p2256
F0.0
sVpotentiation
p2257
F0.0
sVkava
p2258
F0.0
sVlist
p2259
F0.00023436136751418221
sVapplicable
p2260
F0.0
sVnoradrenergics
p2261
F0.0
sVlarge
p2262
F0.0
sVsupplement
p2263
F0.0
sVsedation
p2264
F0.0
sVsmall
p2265
F4.931608244359064e-05
sVbiological
p2266
F0.0
sVlevalbuterol
p2267
F0.0
sVrats
p2268
F0.0003634892079851342
sVremeron
p2269
F0.0
sVmethodical
p2270
F0.0
sVphenibut
p2271
F0.0
sVlack
p2272
F8.225556696811558e-05
sVpowdered
p2273
F0.0
sVpast
p2274
F0.00019192965625893635
sVgo
p2275
F0.0
sVzero
p2276
F0.0002228723874766249
sVfiber
p2277
F0.0
sVdesign
p2278
F7.429079582554164e-05
sVkunnet
p2279
F0.0
sVlawyer
p2280
F0.00012116306932837807
sVpass
p2281
F5.4837044645410385e-05
sVwyeth
p2282
F0.0
sVturning
p2283
F7.429079582554164e-05
sVrnene
p2284
F0.0
sVlla
p2285
F0.0
sVribbon
p2286
F0.0
sVintersection
p2287
F0.0
sVrefractory
p2288
F0.0
sVsun
p2289
F8.225556696811558e-05
sVsection
p2290
F0.00014858159165108328
sVdirt
p2291
F0.00014858159165108328
sVstool
p2292
F0.00012116306932837807
sVcaffeine
p2293
F0.0014539568319405368
sVoverload
p2294
F0.0
sVdanmark
p2295
F0.0
sVversion
p2296
F7.429079582554164e-05
sVdisorienting
p2297
F0.0
sVjudicious
p2298
F0.0
sVlearned
p2299
F0.00012116306932837807
sVdiscern
p2300
F0.0
sVracing
p2301
F9.374454700567288e-05
sVmethod
p2302
F0.00024232613865675614
sVextention
p2303
F0.00012116306932837807
sVmovement
p2304
F4.687227350283644e-05
sVhasn
p2305
F5.4837044645410385e-05
sVfull
p2306
F0.0
sVtags
p2307
F0.00029716318330216655
sVwrangling
p2308
F0.0
sVenantiomers
p2309
F0.0
sVhungover
p2310
F0.0
sVfuld
p2311
F0.0
sVcomponent
p2312
F0.00014858159165108328
sVsupposedly
p2313
F0.0003634892079851342
sVoveractive
p2314
F0.0
sVvomiting
p2315
F0.00012116306932837807
sVhours
p2316
F0.0003290222678724623
sVtage
p2317
F0.0
sVshouldn
p2318
F9.374454700567288e-05
sVvarenicline
p2319
F0.0
sVthreads
p2320
F0.0
sVexcess
p2321
F0.0002228723874766249
sVunbinds
p2322
F0.0
sVepitome
p2323
F0.0
sVstrong
p2324
F0.00018748909401134577
sVrespect
p2325
F9.374454700567288e-05
sVevery
p2326
F0.00014794824733077193
sV900
p2327
F0.0
sVantagonizing
p2328
F0.0
sVcreeps
p2329
F0.0
sVahead
p2330
F0.00014061682050850932
sVmdma
p2331
F0.0
sVske
p2332
F0.0
sVallows
p2333
F0.00012116306932837807
sVexperimenting
p2334
F0.0
sVexperience
p2335
F0.0008914895499064997
sVrefinar
p2336
F0.0
sVprior
p2337
F0.0008481414852986465
sVamount
p2338
F0.00028123364101701864
sVsupplements
p2339
F0.0
sV9mg
p2340
F0.0
sVsocial
p2341
F0.00016451113393623116
sVaction
p2342
F0.0002228723874766249
sVschtick
p2343
F0.0
sVtoxicity
p2344
F0.0
sVperse
p2345
F0.0
sVoptions
p2346
F0.0003714539791277082
sV1521307
p2347
F0.0
sVheadache
p2348
F0.0013327937626121588
sVvia
p2349
F0.00024232613865675614
sVfollowed
p2350
F4.687227350283644e-05
sVverbose
p2351
F0.0
sVfamily
p2352
F0.00028123364101701864
sVagomelatine
p2353
F0.0
sVpsychosis
p2354
F0.0
sVglycinate
p2355
F0.0
sVvil
p2356
F0.0
sVemptied
p2357
F0.0
sVput
p2358
F0.00014794824733077193
sVseroquel
p2359
F0.0
sVvit
p2360
F0.0
sVcamposjuan
p2361
F0.0
sVsuits
p2362
F0.00012116306932837807
sVarmed
p2363
F0.00012116306932837807
sVreadily
p2364
F0.0
sVswastikas
p2365
F0.0
sVeye
p2366
F0.0004457447749532498
sVtakes
p2367
F0.00019192965625893635
sVtriggering
p2368
F0.0
sVprobabilities
p2369
F0.0
sVobjectives
p2370
F0.0
sVcontains
p2371
F0.00029716318330216655
sVtwo
p2372
F0.0
sVarchives
p2373
F0.0
sVensablado
p2374
F0.0
sV6
p2375
F8.630314427628362e-05
sVtaken
p2376
F0.00014794824733077193
sVminor
p2377
F0.00014061682050850932
sV12333
p2378
F0.0
sVtryna
p2379
F0.00012116306932837807
sVnomas
p2380
F0.0
sVdosages
p2381
F0.0
sVsubstances
p2382
F0.0006058153466418903
sVcompany
p2383
F1.232902061089766e-05
sVforuds
p2384
F0.0
sVsite
p2385
F4.687227350283644e-05
sVtested
p2386
F0.00012116306932837807
sVstudere
p2387
F0.0
sVbasically
p2388
F0.0008481414852986465
sVbroke
p2389
F4.687227350283644e-05
sVparticular
p2390
F0.00024676670090434676
sVknown
p2391
F0.00019192965625893635
sVemsamblarlos
p2392
F0.0
sVsleeping
p2393
F0.00029716318330216655
sVnineteen
p2394
F7.429079582554164e-05
sVkaraoke
p2395
F0.00012116306932837807
sVglad
p2396
F2.7418522322705193e-05
sVdex
p2397
F0.0
sVweighed
p2398
F0.0
sVnone
p2399
F0.00014061682050850932
sVinclude
p2400
F0.0008171987540809581
sVhour
p2401
F9.374454700567288e-05
sVdep
p2402
F0.0
sVrecall
p2403
F0.0004846522773135123
sVder
p2404
F0.0
sVdes
p2405
F0.0
sVdet
p2406
F0.0
sVremain
p2407
F7.429079582554164e-05
sVparagraph
p2408
F0.0
sVnine
p2409
F2.7418522322705193e-05
sVsent
p2410
F1.232902061089766e-05
sVden
p2411
F0.0003714539791277082
sVlearn
p2412
F0.00012116306932837807
sVindtil
p2413
F0.0
sVstrategies
p2414
F0.0
sVtianeptine
p2415
F0.0
sVmirtazapine
p2416
F0.0
sVcompare
p2417
F0.00014858159165108328
sVantagonists
p2418
F0.0
sVchallenging
p2419
F0.00012116306932837807
sVshare
p2420
F2.7418522322705193e-05
sVashwaghanda
p2421
F0.0
sVterrible
p2422
F9.374454700567288e-05
sVcollision
p2423
F0.0
sVminimum
p2424
F7.429079582554164e-05
sVnumbers
p2425
F0.00014858159165108328
sVsense
p2426
F2.465804122179532e-05
sVexclude
p2427
F0.00012116306932837807
sVlacks
p2428
F7.429079582554164e-05
sVbpap
p2429
F0.0
sVsalts
p2430
F0.0
sVaxis
p2431
F0.0
sVbronchodilators
p2432
F0.0
sVinformation
p2433
F0.0003714539791277082
sVneeds
p2434
F0.0
sVstim
p2435
F0.0
sVcomponentes
p2436
F0.0
sVrather
p2437
F0.00027418522322705195
sVacts
p2438
F0.0002228723874766249
sVshipped
p2439
F0.00012116306932837807
sVnarcolepsy
p2440
F0.00012116306932837807
sVundervisningen
p2441
F0.0
sVchorea
p2442
F0.0
sVparkinsons
p2443
F0.0
sVlift
p2444
F0.00029716318330216655
sVspotted
p2445
F0.00012116306932837807
sVreject
p2446
F0.00012116306932837807
sVingesting
p2447
F0.0
sVfr
p2448
F0.00024232613865675614
sVsemax
p2449
F0.0
sVokay
p2450
F0.00014858159165108328
sVintended
p2451
F0.0
sVfx
p2452
F0.0
sVadvice
p2453
F0.0004846522773135123
sVmissions
p2454
F0.0
sVderived
p2455
F0.0
sVdifferent
p2456
F0.0003564407901951675
sVbrintellix
p2457
F0.0
sVtries
p2458
F4.687227350283644e-05
sVmaprotiline
p2459
F0.0
sVlighting
p2460
F0.00012116306932837807
sVblood
p2461
F0.0006562118290397102
sVnumb
p2462
F0.0
sVcoming
p2463
F2.465804122179532e-05
sVdevelop
p2464
F0.00029716318330216655
sVvidenskabeligt
p2465
F0.0
sV10btc
p2466
F0.0
sVresponse
p2467
F0.0012116306932837806
sVcrushed
p2468
F0.00012116306932837807
sVrefuse
p2469
F4.687227350283644e-05
sVgithub
p2470
F0.0
sVmorphine
p2471
F0.00012116306932837807
sVselegeline
p2472
F0.0
sVenzymes
p2473
F0.0
sVplateau
p2474
F0.0
sVsupervision
p2475
F0.0
sVperhaps
p2476
F0.0007429079582554164
sVego
p2477
F0.0
sVfundamental
p2478
F0.0
sVsaphris
p2479
F0.0
sVpleasure
p2480
F0.00018748909401134577
sVlasting
p2481
F0.00012116306932837807
sVplaying
p2482
F9.374454700567288e-05
sVhelp
p2483
F0.00033288355649423683
sVessence
p2484
F0.0
sVslouch
p2485
F0.0
sVsoon
p2486
F2.465804122179532e-05
sVreverberate
p2487
F0.0
sVpaper
p2488
F9.374454700567288e-05
sVrestore
p2489
F0.00012116306932837807
sVunderwhelmed
p2490
F0.0
sVsigns
p2491
F9.374454700567288e-05
sVhell
p2492
F0.00028123364101701864
sVsuffer
p2493
F0.00014858159165108328
sVconfounded
p2494
F0.0
sVcardiovascular
p2495
F0.0
sV24
p2496
F0.00014061682050850932
sV25
p2497
F0.00037497818802269153
sVpotentiating
p2498
F0.0
sV27
p2499
F4.687227350283644e-05
sV20
p2500
F0.00011096118549807894
sV21
p2501
F4.687227350283644e-05
sV22
p2502
F4.687227350283644e-05
sVadverse
p2503
F0.0
sVsusceptible
p2504
F0.0
sVtreat
p2505
F0.0007968286495482194
sVpcp
p2506
F0.0
sVsolving
p2507
F0.0
sVselenium
p2508
F0.0
sV29
p2509
F7.429079582554164e-05
sVpct
p2510
F0.0
sVactually
p2511
F0.0001602772679416696
sVsymptoms
p2512
F0.0
sVresort
p2513
F0.0
sVdetected
p2514
F0.00012116306932837807
sVpharmacotherapy
p2515
F0.0
sVargentino
p2516
F0.0
sVbypass
p2517
F0.00024232613865675614
sVneuroprotective
p2518
F0.0
sVamitriptyline
p2519
F0.0
sVhvor
p2520
F0.0
sVbout
p2521
F0.00012116306932837807
sVmight
p2522
F0.0003082255152724415
sValter
p2523
F0.0
sVally
p2524
F0.0
sVwouldn
p2525
F8.225556696811558e-05
sVhurting
p2526
F0.0
sVgood
p2527
F0.0
sVabandons
p2528
F0.00012116306932837807
sVseeking
p2529
F0.00012116306932837807
sVfood
p2530
F0.00016451113393623116
sVlibido
p2531
F0.0
sVimpossible
p2532
F7.429079582554164e-05
sVveggie
p2533
F0.0
sVmonolaurin
p2534
F0.0
sVreceptor
p2535
F0.0
sVcompound
p2536
F0.0
sVfoot
p2537
F4.687227350283644e-05
sVcopious
p2538
F0.0
sVcrusoeamers
p2539
F0.0
sVcomplain
p2540
F7.429079582554164e-05
sVinstructions
p2541
F0.00012116306932837807
sVmystery
p2542
F0.0
sVeasily
p2543
F0.00016451113393623116
sVht
p2544
F0.0
sVpregnant
p2545
F0.00024232613865675614
sValways
p2546
F0.0
sV2x
p2547
F0.0
sVaspudden
p2548
F0.0
sVroisamers
p2549
F0.0
sVsomeone
p2550
F0.0
sV2g
p2551
F0.0
sVstopped
p2552
F0.0005624672820340373
sVturns
p2553
F5.4837044645410385e-05
sVfound
p2554
F0.00025890943282885087
sV22btc
p2555
F0.0
sVincoordination
p2556
F0.0
sVdosed
p2557
F0.0
sVweek
p2558
F0.0007499563760453831
sVharm
p2559
F0.0
sVeveryone
p2560
F9.374454700567288e-05
sVmental
p2561
F0.0006058153466418903
sV300mg
p2562
F0.0
sVneedless
p2563
F0.0
sVgeneration
p2564
F0.0
sVposts
p2565
F0.00024232613865675614
sVenergy
p2566
F0.001575119901268915
sVhard
p2567
F0.00021934817858164154
sVreduce
p2568
F0.0003714539791277082
sVidea
p2569
F6.164510305448829e-05
sVused
p2570
F0.0010693223705855023
sVorally
p2571
F0.0
sVengaging
p2572
F0.00012116306932837807
sVextended
p2573
F0.00012116306932837807
sVexpect
p2574
F2.465804122179532e-05
sVdoses
p2575
F0.0
sVbalance
p2576
F0.0003634892079851342
sVtodo
p2577
F0.0
sVinsurance
p2578
F0.0008481414852986465
sVperfectionism
p2579
F0.0
sVovermodent
p2580
F0.0
sVpsychology
p2581
F0.00012116306932837807
sVwondered
p2582
F4.687227350283644e-05
sVcommentaireamers
p2583
F0.0
sVsince
p2584
F0.0002712384534397485
sVinduces
p2585
F0.0
sVunknown
p2586
F7.429079582554164e-05
sVresearch
p2587
F0.0012116306932837806
sVsi
p2588
F0.0
sVacting
p2589
F0.0002228723874766249
sVhealth
p2590
F0.0006058153466418903
sVresearched
p2591
F0.0
sV7
p2592
F0.00016451113393623116
sVcompounding
p2593
F0.0
sVpristiq
p2594
F0.0
sVissue
p2595
F0.00023436136751418221
sVmercury
p2596
F0.0
sVbald
p2597
F0.00012116306932837807
sVbelief
p2598
F0.0
sVcircumstance
p2599
F0.00012116306932837807
sVhydroxyzine
p2600
F0.0
sVmoclobemide
p2601
F0.0
sVribose
p2602
F0.0
sVguess
p2603
F0.00028123364101701864
sVissue_with_generic_bioequivalence
p2604
F0.0
sVeffect
p2605
F0.0002835674740506462
sVgeared
p2606
F0.0
sVdifficulty
p2607
F0.00024232613865675614
sVreason
p2608
F0.00030160374554975714
sVheroin
p2609
F0.00012116306932837807
sValzheimer
p2610
F0.0
sVacute
p2611
F0.0
sVask
p2612
F4.931608244359064e-05
sVtudet
p2613
F0.0
sVash
p2614
F0.0
sVbeginning
p2615
F3.698706183269298e-05
sVgenerate
p2616
F0.00024232613865675614
sVbenefits
p2617
F0.0009693045546270246
sVnortriptyline
p2618
F0.0
sVneeding
p2619
F0.00012116306932837807
sVacetyl
p2620
F0.0
sVexpecting
p2621
F4.687227350283644e-05
sVw
p2622
F0.00023436136751418221
sVleading
p2623
F9.374454700567288e-05
sVbupropion
p2624
F0.0
sVmajor
p2625
F0.00021934817858164154
sVhelping
p2626
F0.00014061682050850932
sVterrifyingly
p2627
F0.0
sVfeel
p2628
F0.00020959335038526022
sVkristne
p2629
F0.0
sVnumber
p2630
F0.00018748909401134577
sVwikipediajuan
p2631
F0.0
sVeuphoric
p2632
F0.0
sVinstances
p2633
F0.00012116306932837807
sVtalked
p2634
F0.00024232613865675614
sVdone
p2635
F4.931608244359064e-05
sVdefects
p2636
F0.0
sV40mg
p2637
F0.0
sVfiction
p2638
F0.00012116306932837807
sVmiss
p2639
F4.931608244359064e-05
sVseveral
p2640
F0.0004457447749532498
sVpasses
p2641
F7.429079582554164e-05
sVunexplained
p2642
F0.00012116306932837807
sVheads
p2643
F4.687227350283644e-05
sVprovagil
p2644
F0.0
sVscript
p2645
F0.00012116306932837807
sVintroduction
p2646
F0.00012116306932837807
sVtwenty
p2647
F9.374454700567288e-05
sVinteract
p2648
F0.0007269784159702684
sVleast
p2649
F0.0
sVtradition
p2650
F0.00012116306932837807
sVintense
p2651
F0.00029716318330216655
sVcontra
p2652
F0.0
sVinhibitions
p2653
F0.0
sVsaint
p2654
F0.0
sV185
p2655
F0.0
sV189
p2656
F0.0
sVstore
p2657
F7.429079582554164e-05
sVobservations
p2658
F0.0
sVimperfect
p2659
F0.0
sVpassed
p2660
F2.7418522322705193e-05
sVrelationship
p2661
F4.687227350283644e-05
sVbehind
p2662
F1.232902061089766e-05
sVpramipexole
p2663
F0.0
sVhotel
p2664
F7.429079582554164e-05
sVpark
p2665
F0.00012116306932837807
sVdiscover
p2666
F7.429079582554164e-05
sVserotonin
p2667
F0.0
sVpart
p2668
F0.00010967408929082077
sVdrunkenness
p2669
F0.0
sVdoctors
p2670
F0.0003634892079851342
sVbelieve
p2671
F0.00016451113393623116
sValbeit
p2672
F0.0
sVkind
p2673
F0.0
sVb
p2674
F0.000987066803617387
sVyum
p2675
F0.0
sVdoxazosin
p2676
F0.0
sVnovel
p2677
F0.0
sVglutamate
p2678
F0.0
sVgotten
p2679
F0.00024232613865675614
sVinstruction
p2680
F0.00012116306932837807
sVgrey
p2681
F7.429079582554164e-05
sVbreakups
p2682
F0.0
sVmedicate
p2683
F0.0
sVcysteine
p2684
F0.0
sVsupposed
p2685
F0.00014061682050850932
sVsedate
p2686
F7.429079582554164e-05
sVteacrine
p2687
F0.0
sVfasoracetam
p2688
F0.0
sVtreated
p2689
F0.00037497818802269153
sVfasebj
p2690
F0.0
sVladasten
p2691
F0.0
sVtofranil
p2692
F0.0
sVmotivation
p2693
F0.0
sVb6fven
p2694
F0.0
sVpicked
p2695
F0.00012116306932837807
sVexert
p2696
F0.0
sVpmc
p2697
F0.0
sVstefan_l
p2698
F0.0
sVmistometer
p2699
F0.0
sVdownload
p2700
F0.0011886527332086662
sVseleginline
p2701
F0.0
sVcategorized
p2702
F0.0
sVgten
p2703
F0.0
sVpharmacokinetics
p2704
F0.0
sVconcentration
p2705
F0.00014858159165108328
sVderfor
p2706
F0.0
sVorders
p2707
F7.429079582554164e-05
sVkarl
p2708
F0.0
sVoption
p2709
F0.0003634892079851342
sVmountain
p2710
F0.0
sVbreathing
p2711
F0.00014858159165108328
sVnights
p2712
F7.429079582554164e-05
sVmonophosphate
p2713
F0.0
sVpara
p2714
F0.0
sVpotentiated
p2715
F0.0
sVdepending
p2716
F0.0019386091092540492
sV21635908
p2717
F0.0
sVself
p2718
F8.630314427628362e-05
sVaccumulative
p2719
F0.0
sVlit
p2720
F7.429079582554164e-05
sVthreonate
p2721
F0.0
sVmachado
p2722
F0.0
sVbuild
p2723
F2.7418522322705193e-05
sVfinding
p2724
F5.4837044645410385e-05
sVselv
p2725
F0.0
sVdrinks
p2726
F0.0004846522773135123
sVcarbidopa
p2727
F0.0
sVrelief
p2728
F0.0
sVplay
p2729
F4.687227350283644e-05
sVadded
p2730
F0.0005200355707787915
sValleviate
p2731
F0.00024232613865675614
sV12mg
p2732
F0.0
sVreach
p2733
F9.374454700567288e-05
sVpoemasjuan
p2734
F0.0
sVbreaking
p2735
F2.7418522322705193e-05
sVreact
p2736
F7.429079582554164e-05
sVcigarette
p2737
F0.0003714539791277082
sV75
p2738
F0.00024232613865675614
sVexperiences
p2739
F0.00014858159165108328
sVplan
p2740
F0.00028123364101701864
sVsignificant
p2741
F0.0007269784159702684
sV70
p2742
F4.687227350283644e-05
sVpossible
p2743
F0.00021934817858164154
sValpha
p2744
F0.00024232613865675614
sVflector
p2745
F0.0
sVextremely
p2746
F0.0005200355707787915
sVsamtidigt
p2747
F0.0
sVselegilene
p2748
F0.0
sVbasal
p2749
F0.0
sVreward
p2750
F7.429079582554164e-05
sVkg
p2751
F0.005936990397090526
sVmobile
p2752
F0.00024232613865675614
sVclear
p2753
F2.465804122179532e-05
sVsometimes
p2754
F0.00016451113393623116
sVcover
p2755
F8.225556696811558e-05
sVkn
p2756
F0.0
sVtraditional
p2757
F0.00014858159165108328
sVoverdrive
p2758
F0.0
sVweigh
p2759
F7.429079582554164e-05
sVjustify
p2760
F0.0
sVindomethacin
p2761
F0.0
sVgaba
p2762
F0.0
sVscience
p2763
F7.429079582554164e-05
sVparticularly
p2764
F0.00029716318330216655
sVsomewhat
p2765
F0.0006058153466418903
sVstunned
p2766
F0.00012116306932837807
sVdisturbances
p2767
F0.0
sVtenes
p2768
F0.0
sVmuira
p2769
F0.0
sVcdn
p2770
F0.0
sVdegrades
p2771
F0.0
sVracemic
p2772
F0.0
sVcdp
p2773
F0.0
sVcarefully
p2774
F0.0003634892079851342
sVexcessive
p2775
F9.374454700567288e-05
sVfluoxetine
p2776
F0.0
sV10bpm
p2777
F0.0
sVfine
p2778
F0.0
sVfind
p2779
F0.0
sVimpact
p2780
F0.0
sVcardioprotective
p2781
F0.0
sVrocket
p2782
F0.0
sVtranscontinental
p2783
F0.0
sVjustice
p2784
F0.00012116306932837807
sVbrethine
p2785
F0.0
sVless
p2786
F0.00013561922671987426
sVdestabilize
p2787
F0.0
sVfailed
p2788
F7.429079582554164e-05
sVidiots
p2789
F0.00012116306932837807
sVexperiment
p2790
F0.00014858159165108328
sVpretty
p2791
F0.0007499563760453831
sVfactor
p2792
F0.0004846522773135123
sV8
p2793
F0.00013561922671987426
sVrasageline
p2794
F0.0
sVaccurate
p2795
F0.00012116306932837807
sVsure
p2796
F0.0006580445357449247
sVchronically
p2797
F0.0
sVhit
p2798
F8.225556696811558e-05
sVgains
p2799
F0.00012116306932837807
sVdependent
p2800
F0.0004846522773135123
sVbluelight
p2801
F0.0
sVgrocery
p2802
F0.00012116306932837807
sVcheaper
p2803
F0.00014858159165108328
sVmethods
p2804
F0.0003634892079851342
sVfeels
p2805
F0.0002228723874766249
sVcourage
p2806
F0.00012116306932837807
sVbreast
p2807
F0.00024232613865675614
sVcombinations
p2808
F0.00012116306932837807
sVxopenex
p2809
F0.0
sVtipos
p2810
F0.0
sVblocker
p2811
F0.00012116306932837807
sVkeyword
p2812
F0.005815827327762147
sV528
p2813
F0.0
sVmedicines
p2814
F0.0
sVadhering
p2815
F0.0
sVworthless
p2816
F0.00012116306932837807
sVhypo
p2817
F0.0
sVprescribing
p2818
F0.0
sVonlinejuan
p2819
F0.0
sVcommon
p2820
F0.00028123364101701864
sVflushes
p2821
F0.0
sVdouble
p2822
F7.429079582554164e-05
sVsustainable
p2823
F0.0
sVx
p2824
F0.0006058153466418903
sVfundamentalister
p2825
F0.0
sVpoisoned
p2826
F0.00012116306932837807
sVrelentless
p2827
F0.0
sVderhjemme
p2828
F0.0
sVmetoprolol
p2829
F0.0
sVinsane
p2830
F0.00012116306932837807
sVcramp
p2831
F0.0
sVset
p2832
F6.164510305448829e-05
sVconstantly
p2833
F4.687227350283644e-05
sVdump
p2834
F0.00014858159165108328
sVfinansieret
p2835
F0.0
sVbias
p2836
F0.0
sVintelligence
p2837
F0.0
sVisuprel
p2838
F0.0
sVpotent
p2839
F0.0
sVsex
p2840
F0.00014858159165108328
sVskulle
p2841
F0.0
sVsee
p2842
F0.00020959335038526022
sVindividual
p2843
F9.374454700567288e-05
sVbare
p2844
F7.429079582554164e-05
sVthistle
p2845
F0.0
sVcleverly
p2846
F0.0
sVsen
p2847
F0.0
sVbricanyl
p2848
F0.0
sVanalog
p2849
F0.0
sVbarn
p2850
F0.0003634892079851342
sVvitamins
p2851
F0.0004846522773135123
sVseconded
p2852
F0.0
sVspeed
p2853
F1.232902061089766e-05
sVwow
p2854
F0.0003634892079851342
sVcurrently
p2855
F0.000421850461525528
sVplease
p2856
F8.630314427628362e-05
sVvas
p2857
F0.0
sVcrossword
p2858
F0.0
sVwon
p2859
F0.00011096118549807894
sVvarious
p2860
F9.374454700567288e-05
sVpoemsamers
p2861
F0.0
sVmodulators
p2862
F0.0
sVburned
p2863
F4.687227350283644e-05
sVrytary
p2864
F0.0
sVnumerous
p2865
F7.429079582554164e-05
sVacutely
p2866
F0.0
sVrisks
p2867
F0.0
sVavailable
p2868
F0.00046872273502836443
sVmilder
p2869
F0.0
sVrhodiola
p2870
F0.0
sVrecently
p2871
F0.00016451113393623116
sVresponses
p2872
F0.0
sVinvestigated
p2873
F0.0
sVfidgety
p2874
F0.0
sVprocesses
p2875
F0.00012116306932837807
sVsold
p2876
F0.00012116306932837807
sVattention
p2877
F8.225556696811558e-05
sVdermatillomania
p2878
F0.0
sVpams
p2879
F0.0
sVdeath
p2880
F0.00028123364101701864
sValertness
p2881
F0.0
sVsneakier
p2882
F0.0
sValters
p2883
F0.0
sV750mg
p2884
F0.0
sVtotal
p2885
F4.687227350283644e-05
sVc
p2886
F4.931608244359064e-05
sVtoward
p2887
F0.0002228723874766249
sVimproved
p2888
F0.00029716318330216655
sVreverse
p2889
F4.687227350283644e-05
sVmega
p2890
F0.0
sVtapered
p2891
F0.0
sVbarely
p2892
F0.00014858159165108328
sVthinking
p2893
F9.374454700567288e-05
sVconnection
p2894
F7.429079582554164e-05
sVbecame
p2895
F0.00029716318330216655
sVupdate
p2896
F0.0003634892079851342
sVbuzz
p2897
F7.429079582554164e-05
sVpdf
p2898
F0.0013327937626121588
sVmean
p2899
F5.4837044645410385e-05
sVwhole
p2900
F9.374454700567288e-05
sVdopaminergic
p2901
F0.0
sVexperimental
p2902
F0.0
sVddes
p2903
F0.0
sVliked
p2904
F0.00029716318330216655
sVregulates
p2905
F0.0
sVsamme
p2906
F0.0
sVpoint
p2907
F8.630314427628362e-05
sVsimple
p2908
F3.698706183269298e-05
sVothers
p2909
F0.00046611487948598827
sVevaluate
p2910
F0.0
sVlbs
p2911
F0.0
sVcommunity
p2912
F0.0
sVnewborn
p2913
F0.0
sVoxidative
p2914
F0.00024232613865675614
sVmstn
p2915
F0.0
sVdietary
p2916
F0.0
sVsimply
p2917
F4.687227350283644e-05
sVlikes
p2918
F4.687227350283644e-05
sVunsuccessful
p2919
F0.00012116306932837807
sVthroughout
p2920
F4.687227350283644e-05
sVmission
p2921
F0.0
sVexpensive
p2922
F0.00028123364101701864
sVheadaches
p2923
F0.0
sV30mg
p2924
F0.0
sVconsuming
p2925
F0.00012116306932837807
sVdescribed
p2926
F0.00014858159165108328
sVraise
p2927
F0.00014061682050850932
sVdealt
p2928
F0.0
sVjackoffknifefighter
p2929
F0.0
sVnader
p2930
F0.0
sVcreate
p2931
F0.00014858159165108328
sVacceptance
p2932
F0.0
sVdue
p2933
F0.0011143619373831246
sVnachr
p2934
F0.0
sVdropping
p2935
F0.0002228723874766249
sVnother
p2936
F0.0
sVmaintenance
p2937
F0.0
sVdonde
p2938
F0.0
sVhtr2a
p2939
F0.0
sV20saint
p2940
F0.0
sVwait
p2941
F0.00019192965625893635
sVempty
p2942
F2.465804122179532e-05
sVtreatment
p2943
F0.003392565941194586
sVfirm
p2944
F4.687227350283644e-05
sVgenerating
p2945
F0.00014858159165108328
sValongside
p2946
F7.429079582554164e-05
sVpartly
p2947
F7.429079582554164e-05
sVj04kim
p2948
F0.0
sVvinegar
p2949
F7.429079582554164e-05
sVfire
p2950
F5.4837044645410385e-05
sVyeesh
p2951
F0.0
sVgap
p2952
F0.0003634892079851342
sVamlodipine
p2953
F0.0
sVwhatever
p2954
F5.4837044645410385e-05
sVunderstand
p2955
F2.465804122179532e-05
sVliver
p2956
F0.0005943263666043331
sVdemand
p2957
F4.687227350283644e-05
sVprices
p2958
F0.0
sVdespite
p2959
F0.00010967408929082077
sVlamotrigine
p2960
F0.0
sVstruck
p2961
F0.00012116306932837807
sVk2
p2962
F0.0
sVintriguing
p2963
F0.00012116306932837807
sVadvocating
p2964
F0.0
sVlook
p2965
F0.0001602772679416696
sVtalking
p2966
F0.0006058153466418903
sVsolid
p2967
F0.0002228723874766249
sVstraight
p2968
F1.232902061089766e-05
sVtolerate
p2969
F0.0
sVeuthymia
p2970
F0.0
sVpill
p2971
F0.0012116306932837806
sVsesame
p2972
F0.00012116306932837807
sVprecursor
p2973
F0.0
sVcyp2c19
p2974
F0.0
sVhomework
p2975
F0.00012116306932837807
sVrigour
p2976
F0.0
sVerror
p2977
F0.00012116306932837807
sVfun
p2978
F2.7418522322705193e-05
sVvirgina
p2979
F0.0
sVpack
p2980
F5.4837044645410385e-05
sVscheduled
p2981
F0.00024232613865675614
sV30
p2982
F0.00027418522322705195
sVhoping
p2983
F0.0004846522773135123
sVagitation
p2984
F0.0
sVcents
p2985
F0.00012116306932837807
sVguilty
p2986
F0.00012116306932837807
sVoverlooked
p2987
F0.0
sVbinding
p2988
F0.0002228723874766249
sVjpg
p2989
F0.00014858159165108328
sVdestabilization
p2990
F0.0
sVneurons
p2991
F0.00012116306932837807
sVstubbornly
p2992
F0.0
sVeczema
p2993
F0.0
sVdmt
p2994
F0.0
sVrid
p2995
F7.429079582554164e-05
sVadulted
p2996
F0.0
sVbdnf
p2997
F0.0
sVbaseline
p2998
F0.0004846522773135123
sVldrene
p2999
F0.0
sVsuggests
p3000
F0.00014858159165108328
sVmigraine
p3001
F0.0
sVwhiny
p3002
F0.0
sVelevated
p3003
F0.0
sVfading
p3004
F0.00012116306932837807
sVbenign
p3005
F0.00012116306932837807
sVstimulated
p3006
F0.0
sVautopsies
p3007
F0.0
sV9
p3008
F0.00019192965625893635
sVadvise
p3009
F0.0
sVattack
p3010
F0.00013709261161352597
sVyucca
p3011
F0.0
sVinsulin
p3012
F0.0
sVdevelopment
p3013
F7.429079582554164e-05
sVmavik
p3014
F0.0
sVliterature
p3015
F0.00012116306932837807
sVslyr
p3016
F0.0
sVfatty
p3017
F0.00012116306932837807
sVlie
p3018
F4.687227350283644e-05
sVcomprehensive
p3019
F0.0
sVdepersonalization
p3020
F0.0
sVassessment
p3021
F0.00024232613865675614
sVyesterday
p3022
F0.0003634892079851342
sValert
p3023
F7.429079582554164e-05
sVprincipally
p3024
F0.0
sVmoment
p3025
F4.931608244359064e-05
sVlevels
p3026
F0.001575119901268915
sVuses
p3027
F0.00018748909401134577
sVcleaning
p3028
F7.429079582554164e-05
sVbromo
p3029
F0.0
sVrobust
p3030
F7.429079582554164e-05
sVstack
p3031
F0.0009693045546270246
sVrecent
p3032
F0.00014858159165108328
sVhows
p3033
F0.0
sVsafe
p3034
F0.00037497818802269153
sVgene
p3035
F0.00024232613865675614
sVolder
p3036
F5.4837044645410385e-05
sVrules
p3037
F7.429079582554164e-05
sVurgency
p3038
F0.0
sVanalysis
p3039
F0.00012116306932837807
sVmaker
p3040
F0.0
sVperson
p3041
F0.00013709261161352597
sVedge
p3042
F2.7418522322705193e-05
sVy
p3043
F0.00016451113393623116
sVentry
p3044
F0.0002228723874766249
sVclearance
p3045
F0.0
sVgrossly
p3046
F0.0
sVknow
p3047
F0.000505489845046804
sVchord
p3048
F0.00012116306932837807
sVslc6a4
p3049
F0.0
sVsnow
p3050
F0.00012116306932837807
sVinactive
p3051
F0.00012116306932837807
sVquestions
p3052
F9.374454700567288e-05
sVirritable
p3053
F0.00012116306932837807
sVregardless
p3054
F0.00024232613865675614
sValternative
p3055
F0.0004457447749532498
sVbliver
p3056
F0.0
sVcut
p3057
F3.698706183269298e-05
sVpoetryamers
p3058
F0.0
sVtablet
p3059
F0.0004846522773135123
sVreaders
p3060
F0.0
sVhated
p3061
F0.00012116306932837807
sVworkers
p3062
F7.429079582554164e-05
sVlongecity
p3063
F0.0
sVguaranteed
p3064
F0.0
sVindoktrineret
p3065
F0.0
sVfosinopril
p3066
F0.0
sVsignals
p3067
F0.00012116306932837807
sVeager
p3068
F0.0
sVbenzedrine
p3069
F0.0
sVsubjects
p3070
F0.0
sVparents
p3071
F0.00012116306932837807
sVquestioned
p3072
F0.0
sVcrying
p3073
F7.429079582554164e-05
sVproblematic
p3074
F0.00012116306932837807
sVintruding
p3075
F0.0
sVganglia
p3076
F0.0
sVe_for_ecstasy
p3077
F0.0
sVsurprised
p3078
F4.687227350283644e-05
sVquotesjuan
p3079
F0.0
sVvictims
p3080
F0.0
sVemergency
p3081
F0.0003634892079851342
sVformat
p3082
F0.0004846522773135123
sVbig
p3083
F2.465804122179532e-05
sVbid
p3084
F7.429079582554164e-05
sVadvocate
p3085
F0.0
sVadrafinil
p3086
F0.0
sVjudgement
p3087
F0.00012116306932837807
sVshitty
p3088
F0.00012116306932837807
sVexpecially
p3089
F0.0
sVhallucinations
p3090
F0.0
sVnecessary
p3091
F5.4837044645410385e-05
sVbit
p3092
F0.0001602772679416696
sVstable
p3093
F0.00012116306932837807
sVeffexor
p3094
F0.0
sVhelpful
p3095
F0.0007269784159702684
sVstimulators
p3096
F0.0
sVhytrin
p3097
F0.0
sVmodifications
p3098
F0.00012116306932837807
sVpromising
p3099
F0.00024232613865675614
sVd
p3100
F0.0
sVenvisioned
p3101
F0.0
sVsignal
p3102
F7.429079582554164e-05
sVextraitsamers
p3103
F0.0
sVseemingly
p3104
F0.00012116306932837807
sVmanifest
p3105
F0.00012116306932837807
sVcollect
p3106
F0.0
sVzoloft
p3107
F0.0
sVindividuals
p3108
F0.0
sVunstable
p3109
F0.00024232613865675614
sVpopular
p3110
F0.00024232613865675614
sVprrvious
p3111
F0.0
sVdisorder
p3112
F0.0009693045546270246
sVptsd
p3113
F0.0
sVmcts
p3114
F0.0
sVmathematical
p3115
F0.0
sVgoogle
p3116
F0.0002228723874766249
sVoften
p3117
F0.00018748909401134577
sVabsolutely
p3118
F0.00010967408929082077
sVspring
p3119
F4.687227350283644e-05
sVnmethyl_npropynyl2phenylethylamine_mppe_a
p3120
F0.0
sVback
p3121
F0.0001849353091634649
sVautophagy
p3122
F0.0
sVunderstood
p3123
F0.00024232613865675614
sVstrongest
p3124
F0.00012116306932837807
sVtowards
p3125
F4.931608244359064e-05
sVdiclofenac
p3126
F0.0
sVpricing
p3127
F0.0
sVcurious
p3128
F8.225556696811558e-05
sVdisinclines
p3129
F0.0
sVvenderlo
p3130
F0.0
sVsufficient
p3131
F0.0
sVeasygoing
p3132
F0.00012116306932837807
sVpronounced
p3133
F4.687227350283644e-05
sVgradually
p3134
F0.0
sVscale
p3135
F0.00014858159165108328
sVpet
p3136
F0.00012116306932837807
sVaffects
p3137
F7.429079582554164e-05
sVdecision
p3138
F4.687227350283644e-05
sVintegration
p3139
F0.00012116306932837807
sVper
p3140
F0.0007429079582554164
sVcrisis
p3141
F0.0
sVenergic
p3142
F0.0
sVsolidified
p3143
F0.0
sVbehave
p3144
F7.429079582554164e-05
sVsoledadesjuan
p3145
F0.0
sVticking
p3146
F0.0
sVquote
p3147
F7.429079582554164e-05
sV20mairena
p3148
F0.0
sVprod
p3149
F0.0
sVpea
p3150
F0.0013327937626121588
sVminimal
p3151
F0.0
sVbuspar
p3152
F0.0
sVinhibitors
p3153
F0.0
sVvarying
p3154
F0.00012116306932837807
sVreplaced
p3155
F7.429079582554164e-05
sVpatient
p3156
F0.00012116306932837807
sVprofessionals
p3157
F0.0
sVtaxing
p3158
F0.0
sVmaxair
p3159
F0.0
sVlose
p3160
F3.698706183269298e-05
sVneuroprotection
p3161
F0.0
sVkan
p3162
F0.0
sVsubconscious
p3163
F0.0
sVstep
p3164
F2.7418522322705193e-05
sVtcas
p3165
F0.0
sVordning
p3166
F0.0
sVnowhere
p3167
F0.00012116306932837807
sVlasts
p3168
F7.429079582554164e-05
sVbecome
p3169
F4.931608244359064e-05
sVbuccal
p3170
F0.0
sVrelearned
p3171
F0.0
sVhypomanias
p3172
F0.0
sVoptimize
p3173
F0.0
sV3t39ar
p3174
F0.0
sVprimrose
p3175
F0.0
sVpipeline
p3176
F0.0
sVanything
p3177
F0.0001849353091634649
sVglaucoma
p3178
F0.0
sVrange
p3179
F8.225556696811558e-05
sVlinezolid
p3180
F0.0
sVnicotine
p3181
F0.0
sVinhibits
p3182
F0.0
sVillegal
p3183
F0.00012116306932837807
sVwonders
p3184
F0.0
sVmodaf
p3185
F0.0
sVndet
p3186
F0.0
sVsilence
p3187
F4.687227350283644e-05
sVrecommended
p3188
F0.00024232613865675614
sVinte
p3189
F0.0
sVnsi
p3190
F0.0
sVmaca
p3191
F0.0
sVdude
p3192
F0.00012116306932837807
sVmommy
p3193
F0.00012116306932837807
sVscripts
p3194
F0.00012116306932837807
sVeffectiveness
p3195
F0.0
sVnothing
p3196
F0.00014794824733077193
sVappropriate
p3197
F0.00024232613865675614
sVmitochondrial
p3198
F0.0
sVgeneralized
p3199
F0.00012116306932837807
sVprimarily
p3200
F0.0
sVveggiefitness
p3201
F0.0
sVmethylene
p3202
F0.0
sVreabsorbed
p3203
F0.0
sVspan
p3204
F0.00012116306932837807
sVklynke
p3205
F0.0
sVtasting
p3206
F7.429079582554164e-05
sVspending
p3207
F0.00012116306932837807
sVmotrin
p3208
F0.0
sVquestion
p3209
F0.00013709261161352597
sVfast
p3210
F0.00010967408929082077
sVapproved
p3211
F0.0
sVdealing
p3212
F0.0003634892079851342
sVvendors
p3213
F0.0
sVtransdermally
p3214
F0.0
sVforward
p3215
F0.0
sVgrew
p3216
F0.00012116306932837807
sVpodes
p3217
F0.0
sVlanoxin
p3218
F0.0
sVswapped
p3219
F0.00012116306932837807
sVfiles
p3220
F0.00024232613865675614
sVzelapar
p3221
F0.0
sVadjusting
p3222
F0.0
sVpsychoactive
p3223
F0.0
sVginkgo
p3224
F0.0
sVsubjectively
p3225
F0.0
sVlink
p3226
F0.0002228723874766249
sVrepeatedly
p3227
F7.429079582554164e-05
sVnewer
p3228
F0.0003634892079851342
sVsick
p3229
F0.00024232613865675614
sVline
p3230
F5.4837044645410385e-05
sV985
p3231
F0.0
sVconsiderable
p3232
F7.429079582554164e-05
sVraising
p3233
F7.429079582554164e-05
sVinfo
p3234
F0.0009693045546270246
sVinverse
p3235
F0.00012116306932837807
sVdicearx
p3236
F0.0
sVrejection
p3237
F0.0
sVnoradrenaline
p3238
F0.0
sVpdfamers
p3239
F0.0
sVus
p3240
F9.863216488718127e-05
sVprep
p3241
F0.0
sVpaired
p3242
F0.0
sVun
p3243
F8.225556696811558e-05
sVaccustomed
p3244
F0.0
sVuh
p3245
F9.374454700567288e-05
sVuk
p3246
F0.00024232613865675614
sVischemic
p3247
F0.0
sVsimilar
p3248
F0.00021934817858164154
sVcalled
p3249
F0.00013709261161352597
sVparoxetine
p3250
F0.0
sVludiomil
p3251
F0.0
sVassociated
p3252
F0.0014539568319405368
sVhinanden
p3253
F0.0
sVanhedonia
p3254
F0.0
sVibuprofen
p3255
F0.0
sVunsafe
p3256
F0.00012116306932837807
sVtogether
p3257
F0.0
sVmetals
p3258
F0.0
sVsingle
p3259
F4.931608244359064e-05
sVcure
p3260
F0.00024232613865675614
sVevening
p3261
F0.0002228723874766249
sVreuptake
p3262
F0.0
sVpsychopath
p3263
F0.0
sVkidney
p3264
F0.00012116306932837807
sVstruggled
p3265
F0.0
sVtyskland
p3266
F0.0
sVtic
p3267
F0.0
sVamounts
p3268
F0.0003714539791277082
sVeller
p3269
F0.0
sVnah
p3270
F0.00012116306932837807
sVmellem
p3271
F0.0
sVoccasional
p3272
F0.0
sVmydriasis
p3273
F0.0
sVawoke
p3274
F0.0
sVdefinitely
p3275
F0.0003281059145198551
sVb12
p3276
F0.0
sVellen
p3277
F0.0
sVdepartment
p3278
F0.00024232613865675614
sVlimbitrol
p3279
F0.0
sVprecipitate
p3280
F0.0
sVmaois
p3281
F0.0
sVativan
p3282
F0.0
sVvisits
p3283
F0.0
sVpharmacologist
p3284
F0.0
sVregulations
p3285
F0.00012116306932837807
sVritalins
p3286
F0.0
sVeks
p3287
F0.0
sVterazosin
p3288
F0.0
sVclue
p3289
F7.429079582554164e-05
sVamphetamine
p3290
F0.0
sVmeals
p3291
F0.00012116306932837807
sVfeasible
p3292
F0.00012116306932837807
sVago
p3293
F0.0007429079582554164
sVe
p3294
F8.630314427628362e-05
sVffat
p3295
F0.0
sVmetabolize
p3296
F0.0
sVrequired
p3297
F0.00014858159165108328
sVresolving
p3298
F0.00012116306932837807
sVcambia
p3299
F0.0
sVimpatient
p3300
F0.00012116306932837807
sV2003
p3301
F7.429079582554164e-05
sV2007
p3302
F0.0
sVlotensin
p3303
F0.0
sVbroad
p3304
F7.429079582554164e-05
sVfailures
p3305
F0.00012116306932837807
sVjoining
p3306
F7.429079582554164e-05
sValeve
p3307
F0.0
sVinitiating
p3308
F0.0
sVlabetalol
p3309
F0.0
sVcode
p3310
F7.429079582554164e-05
sVpartial
p3311
F0.0003634892079851342
sVresults
p3312
F0.0005943263666043331
sVexisting
p3313
F0.00012116306932837807
sVhelped
p3314
F0.0009657803457320414
sVhepatitis
p3315
F0.00012116306932837807
sVcoluracetam
p3316
F0.0
sVedu
p3317
F0.00024232613865675614
sVpdocs
p3318
F0.0
sVpsycho
p3319
F0.00012116306932837807
sVconversation
p3320
F2.7418522322705193e-05
sVcenters
p3321
F0.00012116306932837807
sVissues
p3322
F0.0005943263666043331
sVseemed
p3323
F0.00019192965625893635
sVcompose
p3324
F0.00012116306932837807
sVprodrug
p3325
F0.0
sVconcerned
p3326
F0.00014858159165108328
sVanergic
p3327
F0.0
sVyoung
p3328
F1.232902061089766e-05
sVsend
p3329
F8.225556696811558e-05
sVmisanthropic
p3330
F0.0
sVlower
p3331
F0.00024676670090434676
sVtopic
p3332
F7.429079582554164e-05
sVsqueezing
p3333
F0.00012116306932837807
sVhelps
p3334
F0.0005200355707787915
sVlate
p3335
F2.7418522322705193e-05
sVmonoamine
p3336
F0.0
sVfatal
p3337
F0.0002228723874766249
sVunsettling
p3338
F0.0
sVresources
p3339
F0.00014858159165108328
sVinflammation
p3340
F0.0
sVconfirmation
p3341
F0.00012116306932837807
sVmainstream
p3342
F0.00012116306932837807
sVtorture
p3343
F0.00012116306932837807
sVoutside
p3344
F3.698706183269298e-05
sVcostos
p3345
F0.0
sVreadamers
p3346
F0.0
sVconditions
p3347
F0.00024232613865675614
sVwe00523152
p3348
F0.0
sVheard
p3349
F0.00021934817858164154
sVstabilized
p3350
F0.0
sVputting
p3351
F2.7418522322705193e-05
sValcar
p3352
F0.0
sVmixing
p3353
F0.00024232613865675614
sVartery
p3354
F0.0
sVdrinking
p3355
F9.374454700567288e-05
sVenfp
p3356
F0.0
sVcontinued
p3357
F0.0
sVsignificantly
p3358
F0.0
sVcategories
p3359
F0.0
sVnausea
p3360
F0.0
sVentire
p3361
F0.00014061682050850932
sVfastfood
p3362
F0.0
sVantihistaminergic
p3363
F0.0
sVexperiencing
p3364
F0.0
sVforpligtelser
p3365
F0.0
sVtrd
p3366
F0.0
sVfewer
p3367
F0.00024232613865675614
sVdescargarjuan
p3368
F0.0
sVtry
p3369
F0.0004438447419923158
sVthreat
p3370
F0.0
sVswallow
p3371
F0.00014858159165108328
sVcar
p3372
F4.687227350283644e-05
sVinhibtion
p3373
F0.0
sVefficacious
p3374
F0.0
sVlimitations
p3375
F0.0
sVsmaller
p3376
F4.687227350283644e-05
sVplows
p3377
F0.0
sVeducators
p3378
F0.0
sVbleeding
p3379
F0.0003634892079851342
sVtemporary
p3380
F0.0003634892079851342
sVods
p3381
F0.0
sVramipril
p3382
F0.0
sVmalice
p3383
F0.0
sVwaking
p3384
F0.00014858159165108328
sVequation
p3385
F0.0
sVhindu
p3386
F0.0
sVlogistica
p3387
F0.0
sVuncomfortable
p3388
F0.0003634892079851342
sVclotting
p3389
F0.0
sVruled
p3390
F0.00024232613865675614
sVacid
p3391
F0.0007429079582554164
sVodd
p3392
F0.00010967408929082077
sVsina
p3393
F0.0
sVturn
p3394
F5.4837044645410385e-05
sVanabasisamers
p3395
F0.0
sVdeveloped
p3396
F0.0
sVbusiness
p3397
F1.232902061089766e-05
sVrate
p3398
F0.00029716318330216655
sVgiving
p3399
F2.7418522322705193e-05
sVmarketed
p3400
F0.0
sVprocardia
p3401
F0.0
sVexacerbate
p3402
F0.0
sVoverwhelmed
p3403
F0.00012116306932837807
sVunhelpful
p3404
F7.429079582554164e-05
sVconsistently
p3405
F0.00012116306932837807
sVwaiting
p3406
F2.7418522322705193e-05
sVindian
p3407
F0.0
sVpiribedil
p3408
F0.0
sVhuperzine
p3409
F0.0
sVpristine
p3410
F0.0
sVsastre
p3411
F0.0
sVgamle
p3412
F0.0
sVoriginalpostsearcher
p3413
F0.0
sVbody
p3414
F0.0001602772679416696
sVrdagen
p3415
F0.0
sVchose
p3416
F0.00012116306932837807
sVdegree
p3417
F0.00014858159165108328
sVescitralopram
p3418
F0.0
sVpushing
p3419
F2.7418522322705193e-05
sVprescribe
p3420
F0.00024232613865675614
sVnonexistent
p3421
F0.00012116306932837807
sVforney
p3422
F0.0
sVhighly
p3423
F0.0005943263666043331
sVradicals
p3424
F0.0
sVexplore
p3425
F0.00012116306932837807
sVaggravate
p3426
F0.0
sVlet
p3427
F3.698706183269298e-05
sVsink
p3428
F9.374454700567288e-05
sVunremitting
p3429
F0.0
sVdouchey
p3430
F0.0
sVsing
p3431
F7.429079582554164e-05
sVsafer
p3432
F0.0
sVfifteen
p3433
F0.00012116306932837807
sVimplicit
p3434
F0.0
sVextreme
p3435
F0.00014061682050850932
sVrdt
p3436
F0.0
sVgreat
p3437
F0.0
sVoleptro
p3438
F0.0
sVbitterness
p3439
F0.00012116306932837807
sVproducto
p3440
F0.0
sVinvolved
p3441
F0.00014858159165108328
sV31
p3442
F7.429079582554164e-05
sVlarger
p3443
F0.00023436136751418221
sVpacerone
p3444
F0.0
sVparanoid
p3445
F0.00012116306932837807
sVproducts
p3446
F0.00014858159165108328
sVdextrotatory
p3447
F0.0
sVpoezijaamers
p3448
F0.0
sVvalgt
p3449
F0.0
sVexistent
p3450
F0.00024232613865675614
sVopinion
p3451
F0.0003634892079851342
sVdepressant
p3452
F0.0
sVmakes
p3453
F9.863216488718127e-05
sVhonor
p3454
F7.429079582554164e-05
sVapple
p3455
F2.7418522322705193e-05
sVheart
p3456
F0.0006562118290397102
sVaps
p3457
F0.0
sVmanage
p3458
F0.00014061682050850932
sVimpulsivity
p3459
F0.0
sVprivate
p3460
F4.687227350283644e-05
sVmicrodosing
p3461
F0.0
sVaddressed
p3462
F0.0
sVdecrease
p3463
F0.00024232613865675614
sVmening
p3464
F0.0
sVapply
p3465
F0.00014858159165108328
sValbuterol
p3466
F0.0
sVuse
p3467
F0.000505489845046804
sVmethamp
p3468
F0.0
sVviibryd
p3469
F0.0
sVnauseated
p3470
F0.0
sVconsumption
p3471
F0.00024232613865675614
sVrecalling
p3472
F0.0
sVchi
p3473
F0.0
sVenzyme
p3474
F0.0
sVnext
p3475
F7.397412366538596e-05
sVhypersomnia
p3476
F0.0
sVdoubt
p3477
F8.225556696811558e-05
sVhjemsamtalen
p3478
F0.0
sVkunde
p3479
F0.0
sVtypical
p3480
F0.00014858159165108328
sVfadern
p3481
F0.0
sVunivasc
p3482
F0.0
sVsort
p3483
F4.931608244359064e-05
sVpfc
p3484
F0.0
sVclever
p3485
F4.687227350283644e-05
sVheinonen
p3486
F0.0
sVcomparison
p3487
F7.429079582554164e-05
sVstarted
p3488
F0.0003564407901951675
sVbecomes
p3489
F0.00014061682050850932
sVgi
p3490
F0.0
sVremission
p3491
F0.0
sVoccurred
p3492
F0.00012116306932837807
sVinfection
p3493
F0.00012116306932837807
sVbodily
p3494
F0.00024232613865675614
sVmeant
p3495
F9.374454700567288e-05
sVtransient
p3496
F0.0
sVprinser
p3497
F0.0
sVvuelta
p3498
F0.0
sVbaby
p3499
F0.00014858159165108328
sV4am
p3500
F0.0
sVadequate
p3501
F0.0
sVfan
p3502
F4.687227350283644e-05
sVmeeting_abstract
p3503
F0.0
sVcrosses
p3504
F7.429079582554164e-05
sVanimals
p3505
F0.00014858159165108328
sVlopressor
p3506
F0.0
sVf
p3507
F0.00014858159165108328
sVdullness
p3508
F0.0
sVchallenge
p3509
F0.00024232613865675614
sVpackage
p3510
F4.687227350283644e-05
sVinsists
p3511
F0.00012116306932837807
sVstroke
p3512
F0.00012116306932837807
sVcentrophenoxine
p3513
F0.0
sVog
p3514
F0.0
sVbutterknife
p3515
F0.0
sVanywhere
p3516
F2.7418522322705193e-05
sVobvious
p3517
F0.0005624672820340373
sVstabilizer
p3518
F0.0
sVfetzima
p3519
F0.0
sVpulling
p3520
F4.687227350283644e-05
sVinhibitor
p3521
F0.0
sVdissolve
p3522
F0.0
sVavoided
p3523
F0.00012116306932837807
sVcontrol
p3524
F0.0005200355707787915
sVporque
p3525
F0.0
sVaceon
p3526
F0.0
sVkenny
p3527
F0.0
sVbent
p3528
F7.429079582554164e-05
sVstimulatory
p3529
F0.0
sVprocess
p3530
F0.0003714539791277082
sVfavorite
p3531
F4.687227350283644e-05
sVpurposes
p3532
F0.0
sV100mg
p3533
F0.0
sVpieces
p3534
F4.687227350283644e-05
sVhigh
p3535
F0.0
sVeffectively
p3536
F0.0
sVproceso
p3537
F0.0
sVglade
p3538
F0.0
sVslip
p3539
F0.00012116306932837807
sVsought
p3540
F0.00012116306932837807
sVserial
p3541
F0.0
sVmade
p3542
F0.0001849353091634649
sVtai
p3543
F0.0
sVarthrotec
p3544
F0.0
sVgtens
p3545
F0.0
sVsyndrome
p3546
F0.0005943263666043331
sVschedule
p3547
F0.00024232613865675614
sVsit
p3548
F4.687227350283644e-05
sVyielding
p3549
F0.0
sVsix
p3550
F0.00029716318330216655
sVstruggles
p3551
F0.00012116306932837807
sVoccur
p3552
F0.0003634892079851342
sVregions
p3553
F0.0
sVneurodegenerative
p3554
F0.0
sVsig
p3555
F0.0
sVanimal
p3556
F5.4837044645410385e-05
sVbiographyjuan
p3557
F0.0
sVinstead
p3558
F0.0005155950085312009
sVinstinctively
p3559
F0.0
sVtoddler
p3560
F0.00012116306932837807
sVpanic
p3561
F0.0
sVsin
p3562
F0.00024232613865675614
sVstock
p3563
F9.374454700567288e-05
sVprofile
p3564
F0.00029716318330216655
sVtension
p3565
F0.0
sVklar
p3566
F0.0
sVoutlier
p3567
F0.0
sVstop
p3568
F0.0002219223709961579
sVclostridium
p3569
F0.0
sVbestemt
p3570
F0.0
sVcollection
p3571
F7.429079582554164e-05
sVimpulsive
p3572
F0.0
sVconcentrations
p3573
F0.0
sVabuse
p3574
F0.00012116306932837807
sVfatigue
p3575
F0.0
sVtraumer
p3576
F0.0
sVfits
p3577
F0.00012116306932837807
sVgammal
p3578
F0.0
sVpsychedelic
p3579
F0.0
sVrealized
p3580
F0.00024232613865675614
sVintroduced
p3581
F7.429079582554164e-05
sVpurely
p3582
F7.429079582554164e-05
sVbind
p3583
F0.0
sVcounter
p3584
F0.00014858159165108328
sVpraktiseres
p3585
F0.0
sVkillswitch
p3586
F0.0
sVlauric
p3587
F0.0
sVhonestly
p3588
F0.00029716318330216655
sVoxybutinin
p3589
F0.0
sVallow
p3590
F0.00012116306932837807
sVcrawling
p3591
F0.00012116306932837807
sVaddiction
p3592
F0.0
sVduloxetine
p3593
F0.0
sVserotonergic
p3594
F0.0
sVunsolved
p3595
F0.0
sVunselective
p3596
F0.0
sVproduces
p3597
F0.00024232613865675614
sVwedding
p3598
F4.687227350283644e-05
sVbyproducts
p3599
F0.0
sV800mg
p3600
F0.0
sVuniversiteter
p3601
F0.0
sVreport
p3602
F7.429079582554164e-05
sVincluding
p3603
F9.374454700567288e-05
sVlooks
p3604
F3.698706183269298e-05
sVuniversitetet
p3605
F0.0
sVinnopran
p3606
F0.0
sVmentioned
p3607
F0.0006058153466418903
sVnuke
p3608
F0.0
sVhorny
p3609
F0.00012116306932837807
sVbadges
p3610
F0.0
sVperfect
p3611
F0.00014858159165108328
sVpakker
p3612
F0.0
sVld
p3613
F0.0
sVh2o2
p3614
F0.0
sVla
p3615
F9.863216488718127e-05
sVchosen
p3616
F4.687227350283644e-05
sVlo
p3617
F0.0
sVll
p3618
F0.00025890943282885087
sVoctopamine
p3619
F0.0
sVli
p3620
F0.0005943263666043331
sVage
p3621
F5.4837044645410385e-05
sVlt
p3622
F0.0
sVaurorix
p3623
F0.0
sVasking
p3624
F9.374454700567288e-05
sV2015
p3625
F0.0
sV2014
p3626
F0.0
sV2011
p3627
F0.0
sVdad
p3628
F9.374454700567288e-05
sVdag
p3629
F0.0
sVmitigates
p3630
F0.0
sVunclear
p3631
F7.429079582554164e-05
sVfrontal
p3632
F0.00014858159165108328
sVnada
p3633
F0.00012116306932837807
sVpractice
p3634
F0.0
sVmras
p3635
F0.0
sVdat
p3636
F9.374454700567288e-05
sVmention
p3637
F0.00018748909401134577
sVmitigated
p3638
F0.0
sVhands
p3639
F0.00014858159165108328
sVfront
p3640
F2.7418522322705193e-05
sVimpaired
p3641
F0.00012116306932837807
sVday
p3642
F0.0
sVsynaptic
p3643
F0.0
sVmonopril
p3644
F0.0
sVecstacy
p3645
F0.0
sVburritos
p3646
F0.00012116306932837807
sVedit
p3647
F0.0012116306932837806
sV603w
p3648
F0.0
sVhotelamers
p3649
F0.0
sVcider
p3650
F0.0
sVunfrequent
p3651
F0.0
sV13btc
p3652
F0.0
sVsufficiently
p3653
F0.0
sVrdh
p3654
F0.0
sVlamictal
p3655
F0.0
sVinvolvement
p3656
F0.0
sVmethamphatmine
p3657
F0.0
sVtraces
p3658
F0.00012116306932837807
sVconvulsant
p3659
F0.0
sVglasses
p3660
F7.429079582554164e-05
sVtrichotillomania
p3661
F0.0
sVexacerbated
p3662
F0.0
sVbeginner
p3663
F0.0
sVdensity
p3664
F0.00014858159165108328
sVproduct
p3665
F0.0002228723874766249
sVrelated
p3666
F0.00014061682050850932
sVdeficiency
p3667
F0.0
sVfrequency
p3668
F0.00012116306932837807
sVstatic
p3669
F0.00012116306932837807
sVloses
p3670
F0.00014858159165108328
sVmeasure
p3671
F4.687227350283644e-05
sVmeth
p3672
F0.0
sVpatch
p3673
F0.0017086883039874577
sVsexual
p3674
F0.0008481414852986465
sV87
p3675
F0.0
sVspecial
p3676
F2.465804122179532e-05
sVcategory
p3677
F7.429079582554164e-05
sVlastly
p3678
F0.0
sVcrashes
p3679
F7.429079582554164e-05
sVelectronica
p3680
F0.0
sV100323
p3681
F0.0
sVinvestigate
p3682
F7.429079582554164e-05
sVjanimine
p3683
F0.0
sVmechanism
p3684
F0.0
sVvcu
p3685
F0.0
sV6mg
p3686
F0.0
sVtenormin
p3687
F0.0
sVintervention
p3688
F0.00012116306932837807
sVcause
p3689
F0.00033288355649423683
sVred
p3690
F1.232902061089766e-05
sVdmaa
p3691
F0.0
sVuppv
p3692
F0.0
sVinteractions
p3693
F0.0
sVactivity
p3694
F0.0007269784159702684
sVanyone
p3695
F0.00019192965625893635
sVcaregivers
p3696
F0.0
sVdigitalis
p3697
F0.0
sVapproaches
p3698
F9.374454700567288e-05
sVect
p3699
F0.0
sVque
p3700
F0.0
sVearly
p3701
F2.7418522322705193e-05
sVanyhow
p3702
F0.0
sVdizziness
p3703
F0.0008481414852986465
sVpoemeamers
p3704
F0.0
sVscary
p3705
F0.0003634892079851342
sVinteraction
p3706
F0.0003634892079851342
sVhostile
p3707
F0.00012116306932837807
sVg
p3708
F0.0003281059145198551
sVcould
p3709
F0.0
sVcompulsive
p3710
F0.00012116306932837807
sVdrugabuse
p3711
F0.0
sVtimes
p3712
F0.0
sVcounterpart
p3713
F0.0
sVaren
p3714
F0.00011096118549807894
sVlength
p3715
F2.465804122179532e-05
sVwrote
p3716
F0.0002228723874766249
sVallowing
p3717
F4.687227350283644e-05
sVtysk
p3718
F0.0
sVscare
p3719
F0.00024232613865675614
sVsouth
p3720
F4.687227350283644e-05
sVblown
p3721
F0.00012116306932837807
sVpostsynaptic
p3722
F0.0
sVredefine
p3723
F0.0
sVethylphenidate
p3724
F0.0
sVhypomanic
p3725
F0.0
sVrandomized
p3726
F0.0
sVdobutamine
p3727
F0.0
sVimprovements
p3728
F0.0003634892079851342
sVreached
p3729
F9.374454700567288e-05
sVblows
p3730
F7.429079582554164e-05
sVkidding
p3731
F0.00012116306932837807
sVtricyclic
p3732
F0.0
sVreliable
p3733
F7.429079582554164e-05
sVlong
p3734
F0.0
sVrolls
p3735
F7.429079582554164e-05
sVlos
p3736
F0.0
sVdata
p3737
F0.00012116306932837807
sVtinkering
p3738
F0.0
sVsystem
p3739
F5.4837044645410385e-05
sVpriority
p3740
F0.0
sVutallige
p3741
F0.0
sVsyster
p3742
F0.0
sVdelusions
p3743
F0.00024232613865675614
sVlifting
p3744
F0.0002228723874766249
sVlifetimes
p3745
F0.0
sVdopac
p3746
F0.0
sVneurotransmitter
p3747
F0.0
sVperfectly
p3748
F4.687227350283644e-05
sVsensitivity
p3749
F0.0
sVpainful
p3750
F0.0
sVprone
p3751
F0.0
sVlipoic
p3752
F0.0
sVsixteenth
p3753
F0.0
sVstomach
p3754
F7.429079582554164e-05
sVexplanation
p3755
F0.00012116306932837807
sVnobody
p3756
F7.429079582554164e-05
sVogs
p3757
F0.0
sVenvironmental
p3758
F0.0
sVchemicals
p3759
F0.0
sVsporadically
p3760
F0.00012116306932837807
sVadjusts
p3761
F0.0
sVclearnet
p3762
F0.0
sVfuzzy
p3763
F0.0
sVbotox
p3764
F0.0
sVhaven
p3765
F0.00019192965625893635
sVcolleagues
p3766
F0.0
sVcounteract
p3767
F0.0
sVamide
p3768
F0.0
sVarbetade
p3769
F0.0
sVmeasured
p3770
F0.0
sVschizophrenia
p3771
F0.00012116306932837807
sVbed
p3772
F0.0002228723874766249
sVpatients
p3773
F0.0
sVnervous
p3774
F7.429079582554164e-05
sVvat
p3775
F0.0
sVloves
p3776
F7.429079582554164e-05
sVdaydreams
p3777
F0.0
sVoverindulge
p3778
F0.0
sVallergic
p3779
F0.00012116306932837807
sVtorrent
p3780
F0.0
sVbet
p3781
F8.225556696811558e-05
sVimho
p3782
F0.0
sVdrunk
p3783
F9.374454700567288e-05
sVirreversibly
p3784
F0.0
sVfalse
p3785
F9.374454700567288e-05
sVbiologiska
p3786
F0.0
sVtabs
p3787
F0.0005943263666043331
sVpoisons
p3788
F0.0
sVfirstworldanimeproblemsamirite
p3789
F0.0
sVtonight
p3790
F7.429079582554164e-05
sVgentle
p3791
F4.687227350283644e-05
sVblir
p3792
F0.0
sVunlikely
p3793
F0.0
sVdictate
p3794
F0.0
sVclose
p3795
F0.00023436136751418221
sVinduce
p3796
F0.0
sVdementia
p3797
F0.0
sVapparently
p3798
F0.00014061682050850932
sVclearly
p3799
F9.374454700567288e-05
sVcaminante
p3800
F0.0
sVafraid
p3801
F8.225556696811558e-05
sVtriggered
p3802
F0.00024232613865675614
sVmin
p3803
F0.00024232613865675614
sVnamenda
p3804
F0.0
sVtldr
p3805
F0.0
sVselective
p3806
F0.0
sVable
p3807
F5.4837044645410385e-05
sVrerne
p3808
F0.0
sVmig
p3809
F0.0
sVcontact
p3810
F0.00014061682050850932
sVadjunct
p3811
F0.0
sVmix
p3812
F0.00018748909401134577
sVconcerns
p3813
F0.0
sVpicamilon
p3814
F0.0
sV1521307_lg
p3815
F0.0
sVpharmacist
p3816
F0.0
sVcoke
p3817
F0.00012116306932837807
sVmileage
p3818
F0.0
sVunless
p3819
F0.0003281059145198551
sVkhan
p3820
F0.0
sVhealthcare
p3821
F0.0
sVstefans
p3822
F0.0
sVtitration
p3823
F0.0
sVmimics
p3824
F0.0
sVuseful
p3825
F0.0007269784159702684
sV01
p3826
F0.00024232613865675614
sValts
p3827
F0.0
sVpreliminary
p3828
F0.00012116306932837807
sVsedan
p3829
F0.0
sValtos
p3830
F0.0
sVaniracetam
p3831
F0.0
sVclass
p3832
F0.00027418522322705195
sVpolice
p3833
F7.429079582554164e-05
sVsubjective
p3834
F0.0
sVpropafenone
p3835
F0.0
sVreduces
p3836
F0.0
sVfurazolidone
p3837
F0.0
sV96btc
p3838
F0.0
sVstronger
p3839
F0.00024232613865675614
sVdisease
p3840
F0.0005200355707787915
sVface
p3841
F5.4837044645410385e-05
sVlooked
p3842
F7.429079582554164e-05
sVlots
p3843
F4.687227350283644e-05
sVsnapshot
p3844
F0.0
sVse
p3845
F0.0003714539791277082
sVnailed
p3846
F0.0
sVmonotherapy
p3847
F0.0
sVnormally
p3848
F0.00029716318330216655
sVfact
p3849
F0.00023436136751418221
sVgoals
p3850
F0.0
sVachieve
p3851
F0.00012116306932837807
sVchances
p3852
F7.429079582554164e-05
sVcontaminant
p3853
F0.0
sVcognitively
p3854
F0.0
sVsupported
p3855
F0.00012116306932837807
sVanyway
p3856
F0.00046872273502836443
sVsublingual
p3857
F0.0
sVvistaril
p3858
F0.0
sVbring
p3859
F1.232902061089766e-05
sVnaprosyn
p3860
F0.0
sVseaweed
p3861
F0.00012116306932837807
sVtelling
p3862
F8.225556696811558e-05
sVunconnected
p3863
F0.0
sVfear
p3864
F4.687227350283644e-05
sVlonger
p3865
F8.630314427628362e-05
sVtrivial
p3866
F0.0
sVprincipal
p3867
F0.0
sVexercise
p3868
F0.00012116306932837807
sVtrying
p3869
F0.0004112778348405779
sVbased
p3870
F0.00028123364101701864
sVknowledge
p3871
F0.0002228723874766249
sVexacerbating
p3872
F0.0
sVmute
p3873
F0.00012116306932837807
sVreceptors
p3874
F0.0009693045546270246
sVldte
p3875
F0.0
sVdarknet_deals_for_the_week_of_october_11_2015
p3876
F0.0
sVbrighter
p3877
F0.00012116306932837807
sV60mg
p3878
F0.0
sVunable
p3879
F7.429079582554164e-05
sVcombo
p3880
F0.0014539568319405368
sVemployee
p3881
F0.00012116306932837807
sVriding
p3882
F2.7418522322705193e-05
sVforeg
p3883
F0.0
sVhangover
p3884
F0.00012116306932837807
sVinferior
p3885
F0.00024232613865675614
sVregularly
p3886
F0.00024232613865675614
sVphenylpiracetam
p3887
F0.0
sVrighteousness
p3888
F0.0
sVmove
p3889
F9.374454700567288e-05
sVhandle
p3890
F5.4837044645410385e-05
sVklassiske
p3891
F0.0
sVpharmacology
p3892
F0.0
sVmeans
p3893
F0.0003714539791277082
sVlobe
p3894
F0.0
sVmidnight
p3895
F7.429079582554164e-05
sVglutamine
p3896
F0.0
sVoverall
p3897
F0.0004846522773135123
sVarrhythmia
p3898
F0.0
sVbear
p3899
F0.00014858159165108328
sVoffentlige
p3900
F0.0
sV120
p3901
F0.0
sVones
p3902
F0.00018748909401134577
sVbodybuilders
p3903
F0.0
sVprobably
p3904
F0.000575788968776809
sVganske
p3905
F0.0
sVprocedures
p3906
F0.0
sVtecas
p3907
F0.0
sVantagonist
p3908
F0.0
sVworkin
p3909
F0.00012116306932837807
sVproduced
p3910
F7.429079582554164e-05
sVarmodafinil
p3911
F0.0
sVmetabolite
p3912
F0.0
sVmolybdenum
p3913
F0.0
sVended
p3914
F0.0002228723874766249
sVh
p3915
F0.00028123364101701864
sVfixes
p3916
F0.00012116306932837807
sVganan
p3917
F0.0
sVcalling
p3918
F2.7418522322705193e-05
sVstuff
p3919
F0.00046872273502836443
sVgram
p3920
F0.0
sVwish
p3921
F4.687227350283644e-05
sVrelapse
p3922
F0.0
sVcycler
p3923
F0.0
sVcycles
p3924
F0.00024232613865675614
sVgabapentin
p3925
F0.0
sVenhancer
p3926
F0.0
sVeurope
p3927
F0.0
sVexists
p3928
F7.429079582554164e-05
sVthankfully
p3929
F0.0
sVacquired
p3930
F0.0
sVsmooth
p3931
F4.687227350283644e-05
sVimmigrant
p3932
F0.00012116306932837807
sVintensity
p3933
F0.0003634892079851342
sVrelatable
p3934
F0.0
sVscroll
p3935
F0.00012116306932837807
sVenhanced
p3936
F0.00012116306932837807
sVterms
p3937
F0.00018748909401134577
sVgyp2d6
p3938
F0.0
sVtextiles
p3939
F0.0
sVcreating
p3940
F4.687227350283644e-05
sVegentlig
p3941
F0.0
sVtripping
p3942
F0.0
sVstill
p3943
F0.0
sVcomputer
p3944
F7.429079582554164e-05
sVnemlig
p3945
F0.0
sVpattern
p3946
F0.0
sVcried
p3947
F0.00012116306932837807
sVpoetjuan
p3948
F0.0
sVprofessorerne
p3949
F0.0
sVtend
p3950
F0.0008481414852986465
sVgenius
p3951
F0.00012116306932837807
sVstate
p3952
F0.00037497818802269153
sVmethionine
p3953
F0.0
sVrouting
p3954
F0.0
sVclosed
p3955
F2.7418522322705193e-05
sVhorrible
p3956
F7.429079582554164e-05
sVebola
p3957
F0.0
sVlimit
p3958
F0.00014858159165108328
sVneither
p3959
F0.00014858159165108328
sV150mg
p3960
F0.0
sVemail
p3961
F0.00029716318330216655
sVbought
p3962
F2.7418522322705193e-05
sVcomparable
p3963
F0.0
sVepilepsy
p3964
F0.0
sVweighing
p3965
F0.0
sVability
p3966
F0.0002228723874766249
sVopening
p3967
F2.7418522322705193e-05
sVjoy
p3968
F7.429079582554164e-05
sVamersamers
p3969
F0.0
sVbeverages
p3970
F0.0
sVdeliver
p3971
F7.429079582554164e-05
sVdigoxin
p3972
F0.0
sVhowever
p3973
F0.0014858159165108329
sVnegligible
p3974
F0.0
sVjob
p3975
F0.00018748909401134577
sVhypothesis
p3976
F0.00024232613865675614
sVparadoxically
p3977
F0.00012116306932837807
sVprecious
p3978
F7.429079582554164e-05
sVboss
p3979
F0.00024232613865675614
sVlegit
p3980
F0.00012116306932837807
sVantipsychotic
p3981
F0.0
sVrestrictions
p3982
F0.0013327937626121588
sVinterpretations
p3983
F0.0
sVketo
p3984
F0.0
sVfluorenol
p3985
F0.0
sVcareer
p3986
F0.00014858159165108328
sVgoal
p3987
F0.00012116306932837807
sVtaking
p3988
F0.0006657671129884737
sVagree
p3989
F2.7418522322705193e-05
sVsunnersta
p3990
F0.0
sVetc
p3991
F9.863216488718127e-05
sVinsidious
p3992
F0.0
sVatleast
p3993
F0.0
sVpaxil
p3994
F0.0
sVvinpocetine
p3995
F0.0
sVuncaught
p3996
F0.00012116306932837807
sVpassing
p3997
F1.232902061089766e-05
sVplacebo
p3998
F0.0
sVsafely
p3999
F0.00024232613865675614
sV1926
p4000
F0.0
sVotherwise
p4001
F0.00014061682050850932
sVcomment
p4002
F0.0002228723874766249
sVrelevant
p4003
F0.0
sVco
p4004
F0.00029716318330216655
sVspliff
p4005
F0.0
sVcartia
p4006
F0.0
sVmachadopoema
p4007
F0.0
sVcarboline
p4008
F0.0
sVadderral
p4009
F0.0
sVlivsstilssygdomme
p4010
F0.0
sVmetaproterenol
p4011
F0.0
sVrecognized
p4012
F7.429079582554164e-05
sV00pm
p4013
F0.0
sVcr
p4014
F0.0004846522773135123
sVelectrocardiogram
p4015
F0.0
sV600
p4016
F7.429079582554164e-05
sVklare
p4017
F0.0
sVquit
p4018
F0.00014858159165108328
sVtread
p4019
F0.0
sVsecond
p4020
F6.164510305448829e-05
sVsolareze
p4021
F0.0
sVaddition
p4022
F0.0014539568319405368
sVdisintegrate
p4023
F0.0
sVwindow
p4024
F5.4837044645410385e-05
sVinertia
p4025
F0.0
sVrestless
p4026
F0.0
sVgenetic
p4027
F0.0
sVpermanent
p4028
F9.374454700567288e-05
sVhellish
p4029
F0.0
sVserpasil
p4030
F0.0
sVverelan
p4031
F0.0
sVssri
p4032
F0.0
sVbewildering
p4033
F0.0
sVpropargyl
p4034
F0.0
sVmandarlos
p4035
F0.0
sVhelvede
p4036
F0.0
sVchoose
p4037
F9.374454700567288e-05
sV1272
p4038
F0.0
sVshoulders
p4039
F0.0
sVproblemet
p4040
F0.0
sVcontrolled
p4041
F0.00024232613865675614
sVwanna
p4042
F7.429079582554164e-05
sVoxidants
p4043
F0.0
sVroute
p4044
F4.687227350283644e-05
sVinterrupts
p4045
F0.00012116306932837807
sVreplenishment
p4046
F0.0
sVarginine
p4047
F0.0
sVanorgasmia
p4048
F0.0
sV250mg
p4049
F0.0
sVhmm
p4050
F4.687227350283644e-05
sVcontroller
p4051
F0.0
sVc8
p4052
F0.0
sVcovered
p4053
F8.225556696811558e-05
sVc3
p4054
F0.0
sVlast
p4055
F0.00024658041221795317
sVdreng
p4056
F0.0
sVpresent
p4057
F2.465804122179532e-05
sVhypotension
p4058
F0.0
sVlaser
p4059
F0.00012116306932837807
sVunlike
p4060
F0.00028123364101701864
sVtricyclics
p4061
F0.0
sVuptake
p4062
F0.0
sVharder
p4063
F7.429079582554164e-05
sVpohudet
p4064
F0.0
sVvalue
p4065
F8.225556696811558e-05
sVchoices
p4066
F0.0003634892079851342
sVexterno
p4067
F0.0
sVaccesible
p4068
F0.00012116306932837807
sVhappened
p4069
F8.225556696811558e-05
sVfrustrating
p4070
F0.0
sVndret
p4071
F0.0
sVinulin
p4072
F0.0
sVsupply
p4073
F0.00012116306932837807
sVva
p4074
F7.429079582554164e-05
sVvb
p4075
F0.0
sVgame
p4076
F8.225556696811558e-05
sVdobutrex
p4077
F0.0
sValmost
p4078
F0.0001849353091634649
sVvi
p4079
F0.0003634892079851342
sVregistered
p4080
F0.0005943263666043331
sVtilsvarende
p4081
F0.0
sVthus
p4082
F0.00029716318330216655
sVsurprisingly
p4083
F0.00012116306932837807
sVroll
p4084
F9.374454700567288e-05
sVvp
p4085
F0.0
sVdespues
p4086
F0.0
sVvs
p4087
F0.00012116306932837807
sVtransferase
p4088
F0.0
sVtransmucosal
p4089
F0.0
sVmaladaptive
p4090
F0.0
sVcrash
p4091
F0.00028123364101701864
sVgpc
p4092
F0.0
sVskr
p4093
F0.0
sVcylcyclohexylamine
p4094
F0.0
sVazilect
p4095
F0.0
sVwatchful
p4096
F0.00012116306932837807
sVanochelibro
p4097
F0.0
sVtailandia
p4098
F0.0
sVinsight
p4099
F0.00012116306932837807
sVdiets
p4100
F0.0
sVjuan
p4101
F0.0
sVnok
p4102
F0.0
sVadministration
p4103
F0.0004846522773135123
sVcross
p4104
F2.465804122179532e-05
sVcharacterized
p4105
F0.0
sVcoronary
p4106
F0.0
sVcontraindications
p4107
F0.0
sVbuddhism
p4108
F0.0
sVnorpramin
p4109
F0.0
sVparty
p4110
F0.0003714539791277082
sVdownregulation
p4111
F0.0
sVgets
p4112
F0.00028123364101701864
sVinfer
p4113
F0.0
sVgrandeur
p4114
F0.0
sVdifficult
p4115
F0.00018748909401134577
sVexperimented
p4116
F0.0
sVemotionally
p4117
F0.00012116306932837807
sVcompetir
p4118
F0.0
sVabsorb
p4119
F0.00012116306932837807
sVreporting
p4120
F0.00012116306932837807
sVupon
p4121
F2.7418522322705193e-05
sVprimary
p4122
F0.0002228723874766249
sV11btc
p4123
F0.0
sViop
p4124
F0.0
sVchock
p4125
F0.0
sVblockers
p4126
F0.00012116306932837807
sVrosea
p4127
F0.0
sVintroduce
p4128
F0.00012116306932837807
sVfancy
p4129
F0.00012116306932837807
sVfrequently
p4130
F0.0003634892079851342
sVspree
p4131
F0.0
sVphp
p4132
F0.00024232613865675614
sVkeep
p4133
F0.00014794824733077193
sVlethargy
p4134
F0.0
sVesteponajuan
p4135
F0.0
sVcenter
p4136
F4.687227350283644e-05
sVture
p4137
F0.0
sVwell
p4138
F0.0
sVvidenskabelig
p4139
F0.0
sVantonio
p4140
F0.0
sVthought
p4141
F0.0003290222678724623
sVpatterns
p4142
F0.0
sVsheer
p4143
F0.00012116306932837807
sV1
p4144
F0.0002712384534397485
sVmoexipril
p4145
F0.0
sVanxiogenic
p4146
F0.0
sVsupplementation
p4147
F0.0
sVloss
p4148
F0.0002228723874766249
sVusual
p4149
F0.00024232613865675614
sVload
p4150
F9.374454700567288e-05
sVroutinely
p4151
F0.0
sVglycine
p4152
F0.0
sVflesh
p4153
F7.429079582554164e-05
sVmoments
p4154
F0.00012116306932837807
sVproximity
p4155
F0.0
sVhalf
p4156
F0.00014794824733077193
sVdomestic
p4157
F0.00012116306932837807
sVobtain
p4158
F0.0
sVmistaken
p4159
F0.0
sVdose
p4160
F0.006421642674404038
sVsources
p4161
F0.00012116306932837807
sVstored
p4162
F7.429079582554164e-05
sVdistant
p4163
F0.00014858159165108328
sVringtone
p4164
F0.00012116306932837807
sVoverstimulation
p4165
F0.0
sVexcellent
p4166
F0.00024232613865675614
sVuntested
p4167
F0.0
sVhappiness
p4168
F0.0004846522773135123
sVemoxypine
p4169
F0.0
sVweb
p4170
F4.687227350283644e-05
sVrapid
p4171
F0.0008481414852986465
sVads
p4172
F0.0008481414852986465
sV30am
p4173
F0.0
sVabsorption
p4174
F0.0
sVheaded
p4175
F4.687227350283644e-05
sVjare
p4176
F0.0
sVvyvanse
p4177
F0.0
sVadf
p4178
F0.0
sVarrest
p4179
F7.429079582554164e-05
sVadd
p4180
F0.00037497818802269153
sVcombine
p4181
F7.429079582554164e-05
sVadc
p4182
F0.0
sVshowers
p4183
F0.00012116306932837807
sVwet
p4184
F7.429079582554164e-05
sVusage
p4185
F0.00014858159165108328
sVc12
p4186
F0.0
sVhurry
p4187
F2.7418522322705193e-05
sVwarrant
p4188
F0.00012116306932837807
sVsmart
p4189
F7.429079582554164e-05
sVkirke
p4190
F0.0
sVpoisonings
p4191
F0.0
sVtests
p4192
F0.00024232613865675614
sVincreased
p4193
F0.0008481414852986465
sVarticles
p4194
F0.00012116306932837807
sVoverdoses
p4195
F0.0
sVutan
p4196
F0.0
sVfyi
p4197
F0.0
sVferritin
p4198
F0.0
sVincreases
p4199
F0.0010904676239554027
sVseizure
p4200
F0.0
sVfacial
p4201
F0.00012116306932837807
sVimmediately
p4202
F9.374454700567288e-05
sVabilify
p4203
F0.0
sVmuscle
p4204
F0.00024232613865675614
sVinsert
p4205
F0.00024232613865675614
sVcontroling
p4206
F0.0
sVshowing
p4207
F2.7418522322705193e-05
sVlike
p4208
F0.0
sVonion
p4209
F0.0007269784159702684
sVfingerprints
p4210
F0.0
sVserevent
p4211
F0.0
sVcandy
p4212
F0.00012116306932837807
sV230pm
p4213
F0.0
sVchemist
p4214
F0.0
sVjames
p4215
F0.00012116306932837807
sVagents
p4216
F0.0007269784159702684
sVworks
p4217
F0.00037497818802269153
sVpage
p4218
F0.00014858159165108328
sVtherapeutic
p4219
F0.0
sVklonopin
p4220
F0.0
sVlateral
p4221
F0.0
sVselgin
p4222
F0.0
sVschool
p4223
F0.0003634892079851342
sValive
p4224
F5.4837044645410385e-05
sVphenylalanine
p4225
F0.0
sVmotive
p4226
F0.0
sVgrowth
p4227
F0.0003634892079851342
sVocks
p4228
F0.0
sVstory
p4229
F7.429079582554164e-05
sVnuvigil
p4230
F0.0
sVproper
p4231
F5.4837044645410385e-05
sVhome
p4232
F5.4837044645410385e-05
sV250
p4233
F0.00024232613865675614
sVhappens
p4234
F2.7418522322705193e-05
sVdage
p4235
F0.0
sVsureplastik
p4236
F0.0
sVtms
p4237
F0.0
sVpicturesamers
p4238
F0.0
sVlead
p4239
F0.00013709261161352597
sVunpredictable
p4240
F0.00012116306932837807
sVjump
p4241
F4.687227350283644e-05
sVliterally
p4242
F0.00014858159165108328
sVavoid
p4243
F0.00024676670090434676
sVseparate
p4244
F7.429079582554164e-05
sVreligionsvidenskabelig
p4245
F0.0
sVfedex
p4246
F0.0
sVdextroamphetmine
p4247
F0.0
sVrewarding
p4248
F0.0
sVmutation
p4249
F0.0
sVfanns
p4250
F0.0
sVeso
p4251
F0.0
sVda
p4252
F0.0005943263666043331
sVblurry
p4253
F0.0
sVfabriksarbetare
p4254
F0.0
sVlocate
p4255
F0.00012116306932837807
sVbiology
p4256
F0.0
sVnoise
p4257
F2.7418522322705193e-05
sVcoated
p4258
F0.0
sVmayoria
p4259
F0.0
sVslight
p4260
F0.00029716318330216655
sVpueda
p4261
F0.0
sVfordi
p4262
F0.0
sVdarknetmarkets
p4263
F0.0
sVlightly
p4264
F0.00012116306932837807
sVstellar
p4265
F0.0
sVpressure
p4266
F0.0010904676239554027
sValthough
p4267
F0.00027418522322705195
sVgeneric
p4268
F0.0013327937626121588
sVmetabolized
p4269
F0.0
sVpanel
p4270
F7.429079582554164e-05
sVgained
p4271
F7.429079582554164e-05
sViris
p4272
F0.0
sVsister
p4273
F7.429079582554164e-05
sVactual
p4274
F0.00012116306932837807
sVtestosterone
p4275
F0.0
sVextension
p4276
F0.0004846522773135123
sVgetting
p4277
F0.00011096118549807894
sVidra
p4278
F0.0
sVgazing
p4279
F0.0
sVbasis
p4280
F8.225556696811558e-05
sVavsnittet
p4281
F0.0
sVshipping
p4282
F0.0004846522773135123
sVdependency
p4283
F0.00024232613865675614
sVseeds
p4284
F0.00012116306932837807
sVpakkede
p4285
F0.0
sVbloodstream
p4286
F0.00012116306932837807
sVnifedical
p4287
F0.0
sVsoftware
p4288
F7.429079582554164e-05
sVequally
p4289
F0.0
sVel
p4290
F0.00024232613865675614
sVfunctional
p4291
F0.00012116306932837807
sVcorea
p4292
F0.0
sV80mg
p4293
F0.0
sVchronic
p4294
F0.00012116306932837807
sVdoesnt
p4295
F7.429079582554164e-05
sVlung
p4296
F0.00024232613865675614
sVmichaellustgarten
p4297
F0.0
sVfemale
p4298
F9.374454700567288e-05
sVroads
p4299
F0.00012116306932837807
sVadditions
p4300
F0.00012116306932837807
sVmanaging
p4301
F0.00012116306932837807
sVpointless
p4302
F0.00024232613865675614
sVmere
p4303
F0.00024232613865675614
sVndri
p4304
F0.0
sVkontraintuitivt
p4305
F0.0
sVknuckles
p4306
F0.00012116306932837807
sVprozac
p4307
F0.0
sVadditional
p4308
F0.00014858159165108328
sVtrackmystack
p4309
F0.0
sV16413604
p4310
F0.0
sVpcl
p4311
F0.0
sVbeer
p4312
F0.00012116306932837807
sVspots
p4313
F0.00012116306932837807
sVnoticed
p4314
F0.00019192965625893635
sVricin
p4315
F0.0
sVmisguided
p4316
F0.0
sVskole
p4317
F0.0
sVuridine
p4318
F0.0
sVbiggest
p4319
F0.00014858159165108328
sVtroubling
p4320
F0.0
sVtouted
p4321
F0.0
sVa2
p4322
F0.0
sVfunction
p4323
F0.0004846522773135123
sVbuilding
p4324
F4.687227350283644e-05
sVspells
p4325
F7.429079582554164e-05
sVbuy
p4326
F4.687227350283644e-05
sVfrisk
p4327
F0.0
sVdextroamphetamine
p4328
F0.0
sVhr
p4329
F0.00012116306932837807
sVbus
p4330
F0.00012116306932837807
sVbrand
p4331
F0.00037497818802269153
sVweight
p4332
F0.00027418522322705195
sVdelivery
p4333
F0.00012116306932837807
sVreminds
p4334
F7.429079582554164e-05
sVhi
p4335
F0.00012116306932837807
sVgain
p4336
F0.0005943263666043331
sVmethmeds
p4337
F0.0
sVphenelzineu
p4338
F0.0
sVoverflow
p4339
F0.00012116306932837807
sVha
p4340
F4.687227350283644e-05
sVcapitalize
p4341
F0.0
sVeat
p4342
F5.4837044645410385e-05
sVcount
p4343
F0.00014858159165108328
sVterritory
p4344
F0.00012116306932837807
sV4x
p4345
F0.0
sVevident
p4346
F0.00012116306932837807
sVsociety
p4347
F7.429079582554164e-05
sVwhether
p4348
F8.630314427628362e-05
sVdangerous
p4349
F0.0005624672820340373
sVtenoretic
p4350
F0.0
sVwife
p4351
F0.00014858159165108328
sVvariations
p4352
F0.0
sVambien
p4353
F0.0
sVrecord
p4354
F7.429079582554164e-05
sVcomt
p4355
F0.0
sVsupplant
p4356
F0.0
sVstories
p4357
F7.429079582554164e-05
sVhuden
p4358
F0.0
sVcake
p4359
F7.429079582554164e-05
sVadderall
p4360
F0.0
sVproblem
p4361
F0.00027418522322705195
sVpm
p4362
F0.0
sVminutes
p4363
F8.225556696811558e-05
sVmindste
p4364
F0.0
sVblock
p4365
F0.0004457447749532498
sVmarketplace
p4366
F0.0
sVmitochondria
p4367
F0.0
sVhorrific
p4368
F0.0
sVcontribute
p4369
F0.00012116306932837807
sVdopaminergics
p4370
F0.0
sVsarcosine
p4371
F0.0
sVlasted
p4372
F0.0003634892079851342
sVlived
p4373
F0.0003714539791277082
sVind
p4374
F0.0
sVsollefte
p4375
F0.0
sVclinical_significance
p4376
F0.0
sVanesthesia
p4377
F0.0
sVworse
p4378
F0.00024676670090434676
sVtick
p4379
F7.429079582554164e-05
sVcompared
p4380
F0.00010967408929082077
sVimproving
p4381
F0.00029716318330216655
sVpennsaid
p4382
F0.0
sVvariety
p4383
F0.00014858159165108328
sVstimulants
p4384
F0.0
sV45
p4385
F4.687227350283644e-05
sVpercent
p4386
F7.429079582554164e-05
sV40
p4387
F0.0005155950085312009
sVsinequan
p4388
F0.0
sVbook
p4389
F0.0029716318330216657
sVdetails
p4390
F0.00012116306932837807
sVunaccounted
p4391
F0.0
sVincredibly
p4392
F0.00014858159165108328
sVexpel
p4393
F0.0
sVstimulant
p4394
F0.0
sVirritability
p4395
F0.0
sVjunk
p4396
F7.429079582554164e-05
sVrepeat
p4397
F0.00024232613865675614
sVdexmethylphenidate
p4398
F0.0
sVecstatic
p4399
F0.0
sVtraumatic
p4400
F0.0
sVfeelings
p4401
F0.00014858159165108328
sVshown
p4402
F0.00023436136751418221
sVstay
p4403
F2.7418522322705193e-05
sVspouts
p4404
F0.0
sVchance
p4405
F2.7418522322705193e-05
sVtwynsta
p4406
F0.0
sVaugmentation
p4407
F0.0
sVpathways
p4408
F0.0
sVtiden
p4409
F0.0
sVmetabolizes
p4410
F0.0
sVlongevityman
p4411
F0.0
sVfriends
p4412
F5.4837044645410385e-05
sVsignalling
p4413
F0.0
sVtamox
p4414
F0.0
sVexposure
p4415
F0.0
sVisoproterenol
p4416
F0.0
sVfocused
p4417
F7.429079582554164e-05
sVamp
p4418
F0.004383156953706956
sVeod
p4419
F0.0
sVoral
p4420
F0.0003634892079851342
sVpode
p4421
F0.0
sVfactors
p4422
F0.0003634892079851342
sVhvert
p4423
F0.0
sVcoherent
p4424
F0.0
sVrule
p4425
F7.429079582554164e-05
sVrer
p4426
F0.0
sV_apasserby_
p4427
F0.0
sVinhibtits
p4428
F0.0
sVdiagnosis
p4429
F0.0
sV4f
p4430
F0.0
sVlives
p4431
F0.00014061682050850932
sVindirectly
p4432
F0.0
s.