(dp0
Vforget
p1
F0.0005894108678230827
sVmonth
p2
F0.0013791330207760693
sVfour
p3
F0.00015503533740982532
sVugh
p4
F0.0
sVantagonize
p5
F0.0
sVgo
p6
F0.0
sVfollow
p7
F0.0003447832551940173
sVhate
p8
F0.0030472099816803654
sVdepend
p9
F0.0015236049908401827
sVtv
p10
F0.0015236049908401827
sVfreelance
p11
F0.0
sVtechnique
p12
F0.0030472099816803654
sVamaze
p13
F0.0
sVstable
p14
F0.012188839926721462
sVinclude
p15
F0.0009341941230171001
sVworth
p16
F0.0011788217356461653
sVcase
p17
F0.0006895665103880346
sVappointment
p18
F0.0015236049908401827
sVrisk
p19
F0.0011788217356461653
sVfar
p20
F0.00031007067481965064
sVrise
p21
F0.0009341941230171001
sVnone
p22
F0.0005894108678230827
sVmanic
p23
F0.004570814972520548
sVmania
p24
F0.0
sVworst
p25
F0.0009341941230171001
sVaccuse
p26
F0.0
sVfall
p27
F0.0009341941230171001
sVword
p28
F0.00015503533740982532
sVnausea
p29
F0.0
sVyikes
p30
F0.0
sVschool
p31
F0.0015236049908401827
sVgrueling
p32
F0.0
sVissue
p33
F0.0011788217356461653
sVaccidentally
p34
F0.0005894108678230827
sVtry
p35
F0.0007751766870491267
sVsettle
p36
F0.0011788217356461653
sVsmall
p37
F0.00015503533740982532
sVsleep
p38
F0.0041258760747615785
sVguy
p39
F0.0005894108678230827
sVenjoy
p40
F0.0005894108678230827
sVchew
p41
F0.0015236049908401827
sVcap
p42
F0.0015236049908401827
sVforce
p43
F0.0005894108678230827
sVphenibut
p44
F0.0
sVtea
p45
F0.0005894108678230827
sVd
p46
F0.0
sV10x
p47
F0.0
sVcost
p48
F0.0005894108678230827
sVgummies
p49
F0.0
sVplead
p50
F0.0
sVkratom
p51
F0.0
sVhopefully
p52
F0.0
sVeven
p53
F0.001395318036688428
sVsun
p54
F0.0003447832551940173
sVsum
p55
F0.0015236049908401827
sVbipolar
p56
F0.006094419963360731
sVsuspect
p57
F0.0018683882460342003
sVnew
p58
F0.0
sVever
p59
F0.00031007067481965064
sV3d
p60
F0.0
sVbody
p61
F0.00031007067481965064
sVfull
p62
F0.0
sVnever
p63
F0.0
sVprescribe
p64
F0.0015236049908401827
sVmeh
p65
F0.0
sVwater
p66
F0.0011788217356461653
sVshouldn
p67
F0.0005894108678230827
sVlet
p68
F0.00046510601222947597
sVdownvote
p69
F0.0
sV100
p70
F0.0005894108678230827
sVchange
p71
F0.0005894108678230827
sVwait
p72
F0.0003447832551940173
sVgreat
p73
F0.0
sVsubstance
p74
F0.0
sVthirty
p75
F0.0009341941230171001
sVtaper
p76
F0.0
sV32
p77
F0.0005894108678230827
sVstudy
p78
F0.0018683882460342003
sV30
p79
F0.0003447832551940173
sVopiate
p80
F0.0
sVreason
p81
F0.0013791330207760693
sVexperience
p82
F0.0028025823690513004
sVsmoke
p83
F0.0028025823690513004
sVusually
p84
F0.0023576434712923307
sVweird
p85
F0.0011788217356461653
sVtoxicity
p86
F0.0
sVfantastic
p87
F0.0009341941230171001
sVlove
p88
F0.0006895665103880346
sVstray
p89
F0.0
sVwin
p90
F0.0011788217356461653
sVimportant
p91
F0.0009341941230171001
sVreplace
p92
F0.0009341941230171001
sVask
p93
F0.00031007067481965064
sVseroquel
p94
F0.0
sVuse
p95
F0.0009302120244589519
sVproceed
p96
F0.0005894108678230827
sVwould
p97
F0.0
sVsuper
p98
F0.0009341941230171001
sVhospital
p99
F0.0009341941230171001
sValkaloid
p100
F0.0
sVvisit
p101
F0.0011788217356461653
sVnegative
p102
F0.0009341941230171001
sVintense
p103
F0.0009341941230171001
sVlive
p104
F0.00046510601222947597
sVcall
p105
F0.00046510601222947597
sVcalm
p106
F0.0030472099816803654
sVdepakote
p107
F0.0
sVindiana
p108
F0.0
sVtell
p109
F0.0013791330207760693
sVsort
p110
F0.00015503533740982532
sVflat
p111
F0.0003447832551940173
sVhaha
p112
F0.0030472099816803654
sVchocolate
p113
F0.0009341941230171001
sV99
p114
F0.0009341941230171001
sVglass
p115
F0.00015503533740982532
sVteaser
p116
F0.0
sVeverywhere
p117
F0.0005894108678230827
sVstick
p118
F0.0009341941230171001
sVparticular
p119
F0.0003447832551940173
sVtolerate
p120
F0.0
sVhold
p121
F0.0003447832551940173
sVeasiest
p122
F0.0
sVmg
p123
F0.0
sVma
p124
F0.0015236049908401827
sVhour
p125
F0.0011788217356461653
sVstrain
p126
F0.0
sVwork
p127
F0.0
sVstabilizer
p128
F0.0
sVmeet
p129
F0.0009341941230171001
sVroot
p130
F0.0009341941230171001
sVcontrol
p131
F0.0009341941230171001
sVclaim
p132
F0.0005894108678230827
sVweaker
p133
F0.0015236049908401827
sVgive
p134
F0.00046510601222947597
sVawesome
p135
F0.0015236049908401827
sVfuck
p136
F0.009141629945041096
sVaccept
p137
F0.0005894108678230827
sVhigh
p138
F0.0
sVsomething
p139
F0.00046510601222947597
sVwant
p140
F0.0
sVsense
p141
F0.00015503533740982532
sV10mg
p142
F0.0
sVrescue
p143
F0.0009341941230171001
sVend
p144
F0.0006201413496393013
sVmemorize
p145
F0.0015236049908401827
sVthing
p146
F0.00046510601222947597
sVwrite
p147
F0.0003447832551940173
sVtill
p148
F0.0018683882460342003
sVoccasionally
p149
F0.0005894108678230827
sVpure
p150
F0.0003447832551940173
sVtoxic
p151
F0.0
sVinstead
p152
F0.0005894108678230827
sVtoddler
p153
F0.0015236049908401827
sVpanic
p154
F0.0
sVpizza
p155
F0.0015236049908401827
sVprofile
p156
F0.0009341941230171001
sVbadly
p157
F0.0003447832551940173
sVproduct
p158
F0.0018683882460342003
sVcocktail
p159
F0.0015236049908401827
sVmay
p160
F0.00015503533740982532
sVwatch
p161
F0.0
sVadvice
p162
F0.0030472099816803654
sVearlier
p163
F0.0003447832551940173
sVlong
p164
F0.0
sVnormalcy
p165
F0.0
sVabuse
p166
F0.0015236049908401827
sVdrastic
p167
F0.0
sVsuck
p168
F0.0009341941230171001
sVgrow
p169
F0.0009341941230171001
sVawkward
p170
F0.0005894108678230827
sVresemble
p171
F0.0015236049908401827
sVwhenever
p172
F0.0009341941230171001
sVlight
p173
F0.0003447832551940173
sVcounter
p174
F0.0018683882460342003
sVinform
p175
F0.0015236049908401827
sVcomplexity
p176
F0.0015236049908401827
sVprogressively
p177
F0.0
sVpay
p178
F0.00015503533740982532
sVevery
p179
F0.0006201413496393013
sVdream
p180
F0.0028025823690513004
sVtypical
p181
F0.0009341941230171001
sVlsd
p182
F0.0
sVinsight
p183
F0.0015236049908401827
sVsoon
p184
F0.00031007067481965064
sVcourse
p185
F0.0003447832551940173
sVatypicals
p186
F0.0
sVshake
p187
F0.0009341941230171001
sVhell
p188
F0.0005894108678230827
sVstill
p189
F0.0
sVbunch
p190
F0.0005894108678230827
sV1
p191
F0.00015503533740982532
sV20
p192
F0.00046510601222947597
sVthank
p193
F0.0005894108678230827
sVfit
p194
F0.0003447832551940173
sVpersonal
p195
F0.0003447832551940173
sVll
p196
F0.00046510601222947597
sVrecreational
p197
F0.0015236049908401827
sVactually
p198
F0.0006201413496393013
sVbetter
p199
F0.00046510601222947597
sVpolicy
p200
F0.0015236049908401827
sVmight
p201
F0.00015503533740982532
sVerowid
p202
F0.0
sVeventually
p203
F0.0015236049908401827
sVgood
p204
F0.0
sVfood
p205
F0.0003447832551940173
sVmaterial
p206
F0.0009341941230171001
sVinsomnia
p207
F0.0
sVbreak
p208
F0.0009341941230171001
sVmention
p209
F0.0005894108678230827
sVhalf
p210
F0.00031007067481965064
sVson
p211
F0.0003447832551940173
sVday
p212
F0.0
sVterm
p213
F0.0005894108678230827
sVstabilize
p214
F0.0
sVedit
p215
F0.0015236049908401827
sValways
p216
F0.0
sVdidn
p217
F0.00031007067481965064
sVconcerta
p218
F0.0
sVlamictal
p219
F0.0
sVinstability
p220
F0.0
sVsquare
p221
F0.0006895665103880346
sVbueno
p222
F0.0
sVmental
p223
F0.0015236049908401827
sVweight
p224
F0.0003447832551940173
sVfish
p225
F0.0006895665103880346
sVyeah
p226
F0.004670970615085502
sV40mg
p227
F0.0
sVball
p228
F0.0005894108678230827
sVyear
p229
F0.0017053887115080788
sVripple
p230
F0.0
sVhappen
p231
F0.001034349765582052
sVadequately
p232
F0.0
sVer
p233
F0.0023576434712923307
sVanxious
p234
F0.0015236049908401827
sVcanvas
p235
F0.0009341941230171001
sVgod
p236
F0.0009341941230171001
sVsince
p237
F0.00046510601222947597
sVresearch
p238
F0.0015236049908401827
sVsane
p239
F0.0015236049908401827
sVhealth
p240
F0.0015236049908401827
sV7
p241
F0.0003447832551940173
sVmedicine
p242
F0.0015236049908401827
sVcause
p243
F0.00046510601222947597
sVguess
p244
F0.0005894108678230827
sVunipolar
p245
F0.0
sVbase
p246
F0.0003447832551940173
sVput
p247
F0.00031007067481965064
sVorg
p248
F0.004570814972520548
sVcard
p249
F0.0009341941230171001
sVcare
p250
F0.0018683882460342003
sVinteraction
p251
F0.0015236049908401827
sVcouldn
p252
F0.0003447832551940173
sVcould
p253
F0.0
sVomit
p254
F0.0
sVterrible
p255
F0.0011788217356461653
sVkeep
p256
F0.0006201413496393013
sVturn
p257
F0.0006895665103880346
sVplace
p258
F0.00015503533740982532
sVisn
p259
F0.00015503533740982532
sVthink
p260
F0.0010852473618687773
sVfirst
p261
F0.00015503533740982532
sVemotion
p262
F0.0015236049908401827
sVworse
p263
F0.0003447832551940173
sVfeel
p264
F0.0012402826992786026
sVsequester
p265
F0.0
sVspecifically
p266
F0.0
sVwasn
p267
F0.00015503533740982532
sVadderal
p268
F0.0
sVprecisely
p269
F0.0
sVmiss
p270
F0.00015503533740982532
sVkoi
p271
F0.0
sVpriority
p272
F0.0
sVlittle
p273
F0.0
sVnecessarily
p274
F0.0009341941230171001
sVsadly
p275
F0.0
sVmonkey
p276
F0.0009341941230171001
sVoccupy
p277
F0.0
sVtop
p278
F0.0006895665103880346
sVleast
p279
F0.0
sVanyone
p280
F0.001034349765582052
sVpaint
p281
F0.003536465206938496
sVattack
p282
F0.0006895665103880346
sV2
p283
F0.0007751766870491267
sVbite
p284
F0.0006895665103880346
sVfriend
p285
F0.00015503533740982532
sVheadache
p286
F0.0030472099816803654
sVlot
p287
F0.0
sVrelationship
p288
F0.0005894108678230827
sVexactly
p289
F0.0003447832551940173
sVadrenergic
p290
F0.0
sVpart
p291
F0.0006895665103880346
sVhaven
p292
F0.0003447832551940173
sVsymptom
p293
F0.0
sVboyfriend
p294
F0.0015236049908401827
sV13
p295
F0.0005894108678230827
sVb
p296
F0.0003447832551940173
sV14
p297
F0.0005894108678230827
sVsee
p298
F0.0009302120244589519
sVbed
p299
F0.0018683882460342003
sVproject
p300
F0.0005894108678230827
sVstressor
p301
F0.0
sVmaybe
p302
F0.0
sVlisten
p303
F0.0011788217356461653
sVresult
p304
F0.0009341941230171001
sVbenztropine
p305
F0.0
sVprn
p306
F0.0
sVmind
p307
F0.0005894108678230827
sVmarijuana
p308
F0.0015236049908401827
sVsad
p309
F0.0011788217356461653
sVsay
p310
F0.0007751766870491267
sVbuy
p311
F0.0005894108678230827
sVadhd
p312
F0.0
sVneed
p313
F0.00046510601222947597
sVconcentration
p314
F0.0009341941230171001
sVregulate
p315
F0.0
sVseek
p316
F0.0003447832551940173
sVrelatively
p317
F0.0015236049908401827
sVscrew
p318
F0.0028025823690513004
sVmin
p319
F0.0015236049908401827
sVself
p320
F0.00015503533740982532
sVnote
p321
F0.0003447832551940173
sVmix
p322
F0.0005894108678230827
sVpotential
p323
F0.0015236049908401827
sVfrontline
p324
F0.0
sVdestroy
p325
F0.0015236049908401827
sVbegin
p326
F0.0011788217356461653
sVsure
p327
F0.0003447832551940173
sVnormal
p328
F0.0005894108678230827
sVclonazepam
p329
F0.0
sVinsanity
p330
F0.0
sVregular
p331
F0.0015236049908401827
sVphase
p332
F0.0015236049908401827
sVclass
p333
F0.0003447832551940173
sVepisode
p334
F0.0015236049908401827
sVespecially
p335
F0.0006895665103880346
sVbackordered
p336
F0.0
sVmedical
p337
F0.0005894108678230827
sVsometimes
p338
F0.0006895665103880346
sVdrive
p339
F0.0009341941230171001
sVface
p340
F0.0003447832551940173
sVdefinitely
p341
F0.0011788217356461653
sVexp
p342
F0.0
sVdystonic
p343
F0.0
sVconsumer
p344
F0.0
sVfact
p345
F0.0005894108678230827
sV95501
p346
F0.0
sVwikipedia
p347
F0.0
sVimpasto
p348
F0.0
sVcheap
p349
F0.0009341941230171001
sVvistaril
p350
F0.0
sVbring
p351
F0.00046510601222947597
sVfind
p352
F0.0
sVdecade
p353
F0.0009341941230171001
sVtire
p354
F0.0009341941230171001
sVhadn
p355
F0.0005894108678230827
sV3
p356
F0.001034349765582052
sVdestabilize
p357
F0.0
sVregularly
p358
F0.0015236049908401827
sVlegitimate
p359
F0.0
sVhorrible
p360
F0.0009341941230171001
sVstop
p361
F0.0007751766870491267
sVkind
p362
F0.0
sVcheaper
p363
F0.0009341941230171001
sVcapsule
p364
F0.0015236049908401827
sVnearly
p365
F0.00015503533740982532
sVreport
p366
F0.0009341941230171001
sVuntreated
p367
F0.0
sVantagonist
p368
F0.0
sVunfortunately
p369
F0.0015236049908401827
sVresolve
p370
F0.0005894108678230827
sVbar
p371
F0.0005894108678230827
sVparasitic
p372
F0.0
sVmorning
p373
F0.0028025823690513004
sVbad
p374
F0.0006201413496393013
sVstuff
p375
F0.001768232603469248
sVgram
p376
F0.0
sVrelease
p377
F0.0005894108678230827
sVwiki
p378
F0.0
sVnibble
p379
F0.0009341941230171001
sVpotent
p380
F0.0
sVunmedicated
p381
F0.0
sVasleep
p382
F0.0018683882460342003
sVanyways
p383
F0.0009341941230171001
sVpebble
p384
F0.0
sVbest
p385
F0.0006201413496393013
sVsuffer
p386
F0.0009341941230171001
sVmovie
p387
F0.0018683882460342003
sVscrap
p388
F0.0
sVcurrently
p389
F0.0005894108678230827
sVplease
p390
F0.00031007067481965064
sVlabel
p391
F0.0005894108678230827
sVenough
p392
F0.0
sVterribly
p393
F0.0009341941230171001
sVroutine
p394
F0.0009341941230171001
sVuncaria
p395
F0.0
sVprobably
p396
F0.0017239162759700869
sVtolerance
p397
F0.0015236049908401827
sVextend
p398
F0.0009341941230171001
sVattention
p399
F0.0003447832551940173
sVhowever
p400
F0.0009341941230171001
sVcome
p401
F0.00031007067481965064
sVdrowsy
p402
F0.0
sVantipsychotic
p403
F0.0
sVreaction
p404
F0.0028025823690513004
sVschizoaffective
p405
F0.0
sVoutcome
p406
F0.0
sVlast
p407
F0.0006201413496393013
sVakathisia
p408
F0.0
sVtopamax
p409
F0.0
sVmany
p410
F0.0
sVcessastion
p411
F0.0
sVsensitive
p412
F0.0003447832551940173
sVotherwise
p413
F0.0005894108678230827
sVpoint
p414
F0.00031007067481965064
sVrhynchophylline
p415
F0.0
sVwhatever
p416
F0.0003447832551940173
sVheight
p417
F0.0011788217356461653
sVmitraphylline
p418
F0.0
sVraise
p419
F0.0005894108678230827
sVnaltrexone
p420
F0.0
sVcreativity
p421
F0.0
sVdue
p422
F0.0009341941230171001
sVbeer
p423
F0.0015236049908401827
sVcry
p424
F0.0009341941230171001
sVslowly
p425
F0.0011788217356461653
sVtreat
p426
F0.001768232603469248
sVinterest
p427
F0.0009341941230171001
sVwaste
p428
F0.0005894108678230827
sVglucose
p429
F0.0
sVtreatment
p430
F0.0015236049908401827
sVlife
p431
F0.0017053887115080788
sVmushroom
p432
F0.0015236049908401827
sVsufficient
p433
F0.0
sVfund
p434
F0.0009341941230171001
sVlift
p435
F0.0009341941230171001
sVwake
p436
F0.0005894108678230827
sVcareful
p437
F0.0009341941230171001
sVbetag
p438
F0.0
sVlook
p439
F0.0009302120244589519
sVharder
p440
F0.0009341941230171001
sVnear
p441
F0.00031007067481965064
sVfun
p442
F0.0013791330207760693
sVbalance
p443
F0.0015236049908401827
sVstupidest
p444
F0.0015236049908401827
sVridiculously
p445
F0.0015236049908401827
sVlayer
p446
F0.0037367764920684006
sVpound
p447
F0.0009341941230171001
sVwouldn
p448
F0.0003447832551940173
sValmost
p449
F0.00031007067481965064
sVinsanely
p450
F0.0
sVside_effect
p451
F0.0
sVsurface
p452
F0.0009341941230171001
sVcluster
p453
F0.0
sVsomeone
p454
F0.0
sVid
p455
F0.0015236049908401827
sVdifferent
p456
F0.001034349765582052
sVpas
p457
F0.0009341941230171001
sVritalin
p458
F0.0
sVbaseline
p459
F0.0015236049908401827
sVanymore
p460
F0.0005894108678230827
sVgrant
p461
F0.0
sVsuggest
p462
F0.0015236049908401827
sVcomplex
p463
F0.0005894108678230827
sVsuboxone
p464
F0.0
sVlithium
p465
F0.0
sVambien
p466
F0.0
sVhigher
p467
F0.0013791330207760693
sVexhaust
p468
F0.0
sVfinish
p469
F0.0011788217356461653
sVdrink
p470
F0.00031007067481965064
sVeffect
p471
F0.00015503533740982532
sVhand
p472
F0.0
sVcranky
p473
F0.0
sVaction
p474
F0.0009341941230171001
sVphp
p475
F0.0015236049908401827
sVtotally
p476
F0.0006895665103880346
sVlower
p477
F0.0003447832551940173
sVolder
p478
F0.0003447832551940173
sVwell
p479
F0.0
sVperson
p480
F0.0003447832551940173
sVprincechanchi
p481
F0.0
sVwithout
p482
F0.0
sVbottle
p483
F0.0005894108678230827
sVthc
p484
F0.0
sVsummer
p485
F0.001768232603469248
sVmoney
p486
F0.0009341941230171001
sVrest
p487
F0.00015503533740982532
sVclinic
p488
F0.0
sVkill
p489
F0.0003447832551940173
sVyes
p490
F0.00031007067481965064
sVgraduate
p491
F0.0015236049908401827
sVyet
p492
F0.0007751766870491267
sVblow
p493
F0.0003447832551940173
sVfamily
p494
F0.0005894108678230827
sVfiancee
p495
F0.0
sVsupply
p496
F0.0030472099816803654
sVvyvanse
p497
F0.0
sVseem
p498
F0.00015503533740982532
sVimprovement
p499
F0.0009341941230171001
sVsource
p500
F0.0005894108678230827
sVadd
p501
F0.0005894108678230827
sV4
p502
F0.00015503533740982532
sVpill
p503
F0.004570814972520548
sVkick
p504
F0.0005894108678230827
sVreal
p505
F0.0
sVnoticeable
p506
F0.0015236049908401827
sVaround
p507
F0.00015503533740982532
sVemergency
p508
F0.004570814972520548
sVread
p509
F0.0003447832551940173
sVcouple
p510
F0.0006895665103880346
sVpossible
p511
F0.0003447832551940173
sVshitty
p512
F0.0030472099816803654
sVknow
p513
F0.0018604240489179039
sVworld
p514
F0.0003447832551940173
sVapart
p515
F0.0005894108678230827
sVlike
p516
F0.0
sVcollective
p517
F0.0015236049908401827
sVspecific
p518
F0.0005894108678230827
sVzoloft
p519
F0.0
sVcontinue
p520
F0.0003447832551940173
sVeither
p521
F0.00015503533740982532
sVnight
p522
F0.0006201413496393013
sVcompletely
p523
F0.0003447832551940173
sVbecome
p524
F0.00015503533740982532
sVopioid
p525
F0.0
sVklonopin
p526
F0.0
sVnauseous
p527
F0.0
sVdeal
p528
F0.0003447832551940173
sVspring
p529
F0.0005894108678230827
sVback
p530
F0.00046510601222947597
sVdead
p531
F0.0006895665103880346
sVhungry
p532
F0.0009341941230171001
sVibuprofen
p533
F0.0
sVhome
p534
F0.0003447832551940173
sVsuuuper
p535
F0.0
sVcreep
p536
F0.0015236049908401827
sVmood
p537
F0.0018683882460342003
sVlead
p538
F0.0003447832551940173
sVsymbiotic
p539
F0.0
sVeverything
p540
F0.00015503533740982532
sVthree
p541
F0.00015503533740982532
sVdispensary
p542
F0.0
sVconventional
p543
F0.0015236049908401827
sVcurl
p544
F0.0
sVstem
p545
F0.0
sVzombie
p546
F0.0015236049908401827
sVpaste
p547
F0.0015236049908401827
sVthrow
p548
F0.0009341941230171001
sVok
p549
F0.0005894108678230827
sVasperger
p550
F0.0
sVanything
p551
F0.00046510601222947597
sVoh
p552
F0.0009341941230171001
sVkratomonline
p553
F0.0
sVfavorite
p554
F0.0005894108678230827
sVdinner
p555
F0.0005894108678230827
sVbenzos
p556
F0.0
sV75mg
p557
F0.0
sVstand
p558
F0.0003447832551940173
sVact
p559
F0.0006895665103880346
sVcreate
p560
F0.0009341941230171001
sVcorynantheidine
p561
F0.0
sVwithin
p562
F0.0003447832551940173
sVwashington
p563
F0.0
sVpaw
p564
F0.0
sVtwo
p565
F0.0
sVnothing
p566
F0.00015503533740982532
sVen
p567
F0.0009341941230171001
sVreceptor
p568
F0.0
sVconsecutively
p569
F0.0
sVcanal
p570
F0.0
sVfast
p571
F0.0003447832551940173
sVarea
p572
F0.00015503533740982532
sVinitial
p573
F0.0005894108678230827
sVquestion
p574
F0.0006895665103880346
sVlol
p575
F0.0030472099816803654
sVfight
p576
F0.0005894108678230827
sVstart
p577
F0.0027582660415521386
sVinner
p578
F0.0005894108678230827
sVway
p579
F0.0009302120244589519
sVbiggest
p580
F0.0018683882460342003
sVdamn
p581
F0.0030472099816803654
sVheh
p582
F0.0005894108678230827
sVhappy
p583
F0.0006895665103880346
sVmedium
p584
F0.0023576434712923307
sVcomplete
p585
F0.0003447832551940173
sVform
p586
F0.0006895665103880346
sVrecommend
p587
F0.0015236049908401827
sVhear
p588
F0.0003447832551940173
sVgain
p589
F0.0009341941230171001
sVhelpful
p590
F0.0030472099816803654
sV225
p591
F0.0
sVeat
p592
F0.001034349765582052
sVinfo
p593
F0.0015236049908401827
sVwhether
p594
F0.00015503533740982532
sVpsychosis
p595
F0.0
sVlimit
p596
F0.0009341941230171001
sVproblem
p597
F0.001034349765582052
sVpiece
p598
F0.0011788217356461653
sVhaldol
p599
F0.0
sVdiagnose
p600
F0.004570814972520548
sVcbd
p601
F0.0
sVpencil
p602
F0.0009341941230171001
sVrecommendation
p603
F0.0015236049908401827
sVdoesn
p604
F0.00046510601222947597
sVdisease
p605
F0.0009341941230171001
sVsingle
p606
F0.00015503533740982532
sVright
p607
F0.00046510601222947597
sVtogether
p608
F0.0
sVawhile
p609
F0.0015236049908401827
sVshit
p610
F0.004670970615085502
sVmutual
p611
F0.0009341941230171001
sVpeace
p612
F0.0015236049908401827
sVgenerally
p613
F0.0011788217356461653
sVdetail
p614
F0.0009341941230171001
sV40
p615
F0.0005894108678230827
sVlately
p616
F0.0009341941230171001
sV5
p617
F0.00015503533740982532
sVtest
p618
F0.0011788217356461653
sVintention
p619
F0.0
sVfelt
p620
F0.001768232603469248
sVstay
p621
F0.0003447832551940173
sVchance
p622
F0.0003447832551940173
sVfell
p623
F0.0005894108678230827
sVvein
p624
F0.006094419963360731
sVlonger
p625
F0.00031007067481965064
sVwife
p626
F0.0009341941230171001
sVage
p627
F0.0003447832551940173
sVdaily
p628
F0.0030472099816803654
sVsafe
p629
F0.0005894108678230827
sVtime
p630
F0.0
sVfactually
p631
F0.0
sVavoid
p632
F0.0003447832551940173
s.