(dp0
Vnitrazepam
p1
F0.0
sVneurontin
p2
F0.0
sVnarcotic
p3
F0.0
sVbzcha01
p4
F0.0
sVsleep
p5
F0.0012769060741049038
sVcontroversial
p6
F0.0005501257197507078
sVhanging
p7
F0.00021281767901748397
sVappetite
p8
F0.0005501257197507078
sVaggression
p9
F0.0
sVbiaxin
p10
F0.0
sVboxload
p11
F0.0
sVwhose
p12
F0.00012449036171573977
sVprocainamide
p13
F0.0
sVplavix
p14
F0.0
sVendings
p15
F0.0005501257197507078
sVnaprelan
p16
F0.0
sVsorry
p17
F0.00012449036171573977
sVworth
p18
F0.00042563535803496794
sVrisk
p19
F0.0006384530370524519
sVnordazepam
p20
F0.0
sVrise
p21
F0.0003373080407332238
sVevery
p22
F0.00016793511525387282
sVaffect
p23
F0.0005501257197507078
sVscreaming
p24
F0.0003373080407332238
sVfour
p25
F5.597837175129094e-05
sVtheanine
p26
F0.0
sVdaydream
p27
F0.0
sVcommenter
p28
F0.0
sVcloxazolam
p29
F0.0
sVcommons
p30
F0.0
sVsternbach
p31
F0.0
sVcholesterol
p32
F0.001650377159252123
sVenhance
p33
F0.00021281767901748397
sVenjoy
p34
F0.00042563535803496794
sVforce
p35
F0.00021281767901748397
sVfadiman
p36
F0.0
sVpentobarbital
p37
F0.0
sVestimates
p38
F0.0
sVgabaa_receptor
p39
F0.0
sVlikely
p40
F0.001650377159252123
sVcytoxan
p41
F0.0
sVeven
p42
F0.0005597837175129093
sVrelieving
p43
F0.0
sVnew
p44
F0.0
sVincreasing
p45
F0.0005501257197507078
sVever
p46
F0.00011195674350258189
sVnever
p47
F0.0
sVreported
p48
F0.0011002514395014155
sVethanol
p49
F0.0
sVdihydroergotamine
p50
F0.0
sVtaper
p51
F0.0
sVphenelzine
p52
F0.0
sVleaves
p53
F0.00012449036171573977
sVchanged
p54
F0.00042563535803496794
sVcontroversy
p55
F0.0005501257197507078
sVojdsvsh457noey5ub346
p56
F0.0
sVtranquilizers
p57
F0.0
sVclonidine
p58
F0.0
sVwikimedia
p59
F0.0
sVquinidine
p60
F0.0
sVfeelings
p61
F0.0003373080407332238
sVpsychological
p62
F0.0005501257197507078
sVmoral
p63
F0.0003373080407332238
sVzocor
p64
F0.0
sVhoping
p65
F0.0005501257197507078
sVwould
p66
F0.0
sVadverse_drug_reaction
p67
F0.0
sVcall
p68
F5.597837175129094e-05
sVrecommend
p69
F0.0005501257197507078
sVcare
p70
F0.0003373080407332238
sVtype
p71
F0.00021281767901748397
sVtell
p72
F0.0022408265108833157
sVhoffmann
p73
F0.0
sVchlorpromazine
p74
F0.0
sVbrings
p75
F0.0003373080407332238
sVhurt
p76
F0.0005501257197507078
sVphone
p77
F0.0003373080407332238
sVward
p78
F0.0011002514395014155
sVhold
p79
F0.00024898072343147953
sV95
p80
F0.00024898072343147953
sVblocking
p81
F0.0003373080407332238
sVmg
p82
F0.0
sVlocked
p83
F0.00042563535803496794
sVroom
p84
F0.00024898072343147953
sV1997
p85
F0.0005501257197507078
sVwork
p86
F0.0
sVery
p87
F0.0
sVmovies
p88
F0.00021281767901748397
sVms
p89
F0.0005501257197507078
sVsterapred
p90
F0.0
sVaddictive
p91
F0.0
sVindicated
p92
F0.0005501257197507078
sVgive
p93
F0.00022391348700516377
sVlaughs
p94
F0.0003373080407332238
sVwant
p95
F0.0
sVtimes
p96
F0.0
sVend
p97
F5.597837175129094e-05
sVrecovery
p98
F0.0006746160814664476
sVturn
p99
F0.00012449036171573977
sVprovide
p100
F0.0011002514395014155
sVtoxic
p101
F0.0
sVminority
p102
F0.0005501257197507078
sVtribenzor
p103
F0.0
sVstingier
p104
F0.0
sVwrong
p105
F0.00024898072343147953
sVtypes
p106
F0.00021281767901748397
sVmellaril
p107
F0.0
sVchoking
p108
F0.0011002514395014155
sVeffective
p109
F0.0027506285987535383
sVhypnotic
p110
F0.0
sVgreen
p111
F5.597837175129094e-05
sVambulance
p112
F0.0
sVcoumadin
p113
F0.0
sVoffice
p114
F0.00021281767901748397
sVnsfw
p115
F0.0
sVnebivolol
p116
F0.0
sVpersonal
p117
F0.00012449036171573977
sVtrying
p118
F0.00037347108514721925
sVrecreational
p119
F0.0005501257197507078
sVimo
p120
F0.0
sVbetter
p121
F0.00016793511525387282
sVdifferently
p122
F0.0003373080407332238
sVeasier
p123
F0.00042563535803496794
sVtheo
p124
F0.0
sVeventually
p125
F0.0005501257197507078
sVcombination
p126
F0.00021281767901748397
sVsafe
p127
F0.00021281767901748397
sVexample
p128
F0.00024898072343147953
sVeffects
p129
F0.0020238482443993423
sVbystolic
p130
F0.0
sVelavil
p131
F0.0
sVgrammar
p132
F0.0006746160814664476
sVmeat
p133
F0.0003373080407332238
sVpotatoes
p134
F0.0
sVclassified
p135
F0.0
sVl
p136
F0.00021281767901748397
sVlosartan
p137
F0.0
sVaddicted
p138
F0.0005501257197507078
sVwent
p139
F5.597837175129094e-05
sVside
p140
F0.001847286267792601
sVlasting
p141
F0.0005501257197507078
sVcompanies
p142
F0.0
sVmilan
p143
F0.0
sVtrading
p144
F0.0003373080407332238
sVaids
p145
F0.0
sVmessage
p146
F0.0008512707160699359
sVlarge
p147
F0.0
sVvasotec
p148
F0.0
sVviracept
p149
F0.0
sVmedicine
p150
F0.006051382917257785
sVrythmol
p151
F0.0
sVlazanda
p152
F0.0
sVstandard
p153
F0.00021281767901748397
sVnmda
p154
F0.0
sVwanted
p155
F0.0006746160814664476
sVzaps
p156
F0.0
sVate
p157
F0.0003373080407332238
sVexposing
p158
F0.0005501257197507078
sVstarts
p159
F0.00024898072343147953
sVdays
p160
F0.0007469421702944385
sVisn
p161
F5.597837175129094e-05
sVcataflam
p162
F0.0
sVmetabolises
p163
F0.0
sVreassure
p164
F0.0
sVfeatured
p165
F0.0
sVanother
p166
F0.00011195674350258189
sVwasn
p167
F5.597837175129094e-05
sVsober
p168
F0.0005501257197507078
sVseizures
p169
F0.001650377159252123
sVroche
p170
F0.0
sVvinorelbine
p171
F0.0
sVneeded
p172
F0.00021281767901748397
sVlisted
p173
F0.0003373080407332238
sVlisten
p174
F0.00021281767901748397
sVorinase
p175
F0.0
sVwigraine
p176
F0.0
sVanafranil
p177
F0.0
sVrisperidone
p178
F0.0
sVtook
p179
F0.00027989185875645467
sVbromazepam
p180
F0.0
sVsomewhat
p181
F0.0005501257197507078
sVanxiety
p182
F0.004951131477756369
sVscribbled
p183
F0.0005501257197507078
sVproject
p184
F0.00021281767901748397
sV5mg
p185
F0.0
sVexforge
p186
F0.0
sVfeeling
p187
F0.00012449036171573977
sVsolely
p188
F0.0005501257197507078
sVdiuretic
p189
F0.0
sVmodern
p190
F0.00012449036171573977
sVmind
p191
F0.00042563535803496794
sVtalking
p192
F0.0011002514395014155
sVadvising
p193
F0.0
sVrap
p194
F0.0005501257197507078
sVadhd
p195
F0.0
sVvfend
p196
F0.0
sVrelapse
p197
F0.0
sVparamedics
p198
F0.0
sVresponsible
p199
F0.0003373080407332238
sV1960
p200
F0.0
sV1963
p201
F0.0
sVrecommended
p202
F0.0011002514395014155
sVcleft
p203
F0.0
sVeffectiveness
p204
F0.0
sVclonazepam
p205
F0.0
sVmethylphenidate
p206
F0.0
sVsotalol
p207
F0.0
sVaddict
p208
F0.0005501257197507078
sV1ux484
p209
F0.0
sVepisode
p210
F0.0005501257197507078
sVtreats
p211
F0.0005501257197507078
sVcops
p212
F0.0011002514395014155
sValupent
p213
F0.0
sVmedical
p214
F0.0008512707160699359
sVresponder
p215
F0.0
sVcelebrex
p216
F0.0
sVcambia
p217
F0.0
sVvincasar
p218
F0.0
sVsaying
p219
F0.00024898072343147953
sVreactor
p220
F0.0
sVsituations
p221
F0.00021281767901748397
sVexplain
p222
F0.00021281767901748397
sVrick
p223
F0.0
sVrosuvastatin
p224
F0.0
sVeitzolam
p225
F0.0
sVbenazepril
p226
F0.0
sVpsychiatric
p227
F0.0
sVda
p228
F0.0006746160814664476
sVanxiolytic
p229
F0.0
sVdr
p230
F0.0005501257197507078
sVlmao
p231
F0.0
sVfields
p232
F0.0003373080407332238
sVvincristine
p233
F0.0
sVmedazepam
p234
F0.0
sVbad
p235
F0.00011195674350258189
sVfuroxone
p236
F0.0
sVpharmacological_properties_of_common_benzodiazepines
p237
F0.0
sVdecides
p238
F0.0005501257197507078
sVreference
p239
F0.0003373080407332238
sVinpatent
p240
F0.0
sVdepends
p241
F0.0006746160814664476
sVercaf
p242
F0.0
sVtorrents
p243
F0.0
sVmiserable
p244
F0.0003373080407332238
sVtorrentz
p245
F0.0
sVbest
p246
F0.00011195674350258189
sVsubject
p247
F0.0011002514395014155
sVavelox
p248
F0.0
sVlots
p249
F0.00042563535803496794
sVaway
p250
F0.0
sViirc
p251
F0.0
sVwikipedia
p252
F0.0
sVimipramine
p253
F0.0
sVunable
p254
F0.0003373080407332238
sVhopefully
p255
F0.0
sVtolerance
p256
F0.0005501257197507078
sVreddit
p257
F0.0
sVdeltasone
p258
F0.0
sValcamprosate
p259
F0.0
sVhowever
p260
F0.0010119241221996712
sVquazepam
p261
F0.0
sVsansert
p262
F0.0
sVimprove
p263
F0.0003373080407332238
sVcop
p264
F0.0023611562851325665
sVessentially
p265
F0.0
sVuncertainty
p266
F0.0
sVpitt
p267
F0.0
sVgames
p268
F0.0003373080407332238
sVchlorpropamide
p269
F0.0
sVseizure
p270
F0.0
sVcamazepam
p271
F0.0
sVpregnancy
p272
F0.0005501257197507078
sVrefill
p273
F0.0005501257197507078
sVspeak
p274
F0.0003373080407332238
sVbasis
p275
F0.00024898072343147953
sVzohydro
p276
F0.0
sVthree
p277
F0.00011195674350258189
sVtiny
p278
F0.00012449036171573977
sVquickly
p279
F0.00012449036171573977
sVparents
p280
F0.001650377159252123
sVnorvasc
p281
F0.0
sVphenytoin
p282
F0.0
sVlife
p283
F0.00044782697401032754
sVpimozide
p284
F0.0
sVconcerning
p285
F0.0
sVcarbamazepine
p286
F0.0
sVpersonally
p287
F0.00012449036171573977
sVdiverted
p288
F0.0
sVspasms
p289
F0.0
sVterbutaline
p290
F0.0
sVn
p291
F5.597837175129094e-05
sVsurprised
p292
F0.00021281767901748397
sVstopping
p293
F0.0003373080407332238
sVremembering
p294
F0.0005501257197507078
sVcarbatrol
p295
F0.0
sVlotrel
p296
F0.0
sVcaptopril
p297
F0.0
sVconfirmed
p298
F0.0003373080407332238
sVmake
p299
F0.00027989185875645467
sVnardil
p300
F0.0
sVtemazepam
p301
F0.0
sVpotentially
p302
F0.0005501257197507078
sVbabies
p303
F0.0005501257197507078
sVseveral
p304
F0.0006746160814664476
sVdolasetron
p305
F0.0
sVverapamil
p306
F0.0
sVsublethal
p307
F0.0
sVamturnide
p308
F0.0
sVzaleplon
p309
F0.0
sVkid
p310
F0.0011002514395014155
sVprescribed
p311
F0.003300754318504246
sV720p
p312
F0.0
sVsuffering
p313
F0.00021281767901748397
sVprescribes
p314
F0.0
sVisradipine
p315
F0.0
sVversed
p316
F0.0
sVunfair
p317
F0.0011002514395014155
sVthanks
p318
F0.00042563535803496794
sVyes
p319
F5.597837175129094e-05
sVimpending
p320
F0.0
sVloflazepate
p321
F0.0
sVfelodipine
p322
F0.0
sVsave
p323
F0.00021281767901748397
sVgave
p324
F0.0003373080407332238
sVaddicts
p325
F0.0
sVpossibly
p326
F0.00012449036171573977
sVfusion
p327
F0.0
sVjudge
p328
F0.0003373080407332238
sVhighly
p329
F0.0003373080407332238
sVburnt
p330
F0.0003373080407332238
sVcognitive
p331
F0.0
sVtapering
p332
F0.0
sVmanual
p333
F0.0003373080407332238
sV50
p334
F0.00012449036171573977
sVspecific
p335
F0.00042563535803496794
sVnight
p336
F0.00011195674350258189
sVcaduet
p337
F0.0
sVwww
p338
F0.0020238482443993423
sVright
p339
F0.00016793511525387282
sVdeal
p340
F0.00012449036171573977
sVerythrocin
p341
F0.0
sVdepakene
p342
F0.0
sVdead
p343
F0.00012449036171573977
sVmarplan
p344
F0.0
sVescape
p345
F0.00012449036171573977
sVphysical_dependence
p346
F0.0
sVcomments
p347
F0.0011002514395014155
sVtoprol
p348
F0.0
sVcore
p349
F0.00021281767901748397
sVincidence
p350
F0.0
sVdiltiazem
p351
F0.0
sVdental
p352
F0.0005501257197507078
sVjantoven
p353
F0.0
sVmefloquine
p354
F0.0
sVsuper
p355
F0.0003373080407332238
sVproperties
p356
F0.00042563535803496794
sVvalium
p357
F0.0
sVtakes
p358
F0.00024898072343147953
sVinderal
p359
F0.0
sVmonths
p360
F0.00021281767901748397
sVfenofibrate
p361
F0.0
sVhospital
p362
F0.0016865402036661187
sVautomatically
p363
F0.0003373080407332238
sVnorpace
p364
F0.0
sVnerve
p365
F0.001650377159252123
sVdronedarone
p366
F0.0
sVthinner
p367
F0.0006746160814664476
sVprofession
p368
F0.0
sVstop
p369
F0.00016793511525387282
sVfinely
p370
F0.0005501257197507078
sVcordarone
p371
F0.0
sVreducing
p372
F0.0
sVadvair
p373
F0.0
sVsunlight
p374
F0.0
sVclinical
p375
F0.0
sVway
p376
F0.00022391348700516377
sVmeloxicam
p377
F0.0
sVwar
p378
F0.0003373080407332238
sValcohol_withdrawal
p379
F0.0
sVhappy
p380
F0.00024898072343147953
sVpamelor
p381
F0.0
sVhead
p382
F0.00011195674350258189
sVlorazepam
p383
F0.0
sVdesipramine
p384
F0.0
sVelderly
p385
F0.0005501257197507078
sVtrue
p386
F0.00012449036171573977
sVenalapril
p387
F0.0
sVprevents
p388
F0.0005501257197507078
sVinside
p389
F5.597837175129094e-05
sVdelete
p390
F0.0006746160814664476
sVrequest
p391
F0.00021281767901748397
sVpentam
p392
F0.0
sVcovera
p393
F0.0
sVcheck
p394
F0.0003373080407332238
sVshit
p395
F0.0010119241221996712
sVphysical
p396
F0.0
sVdying
p397
F0.00021281767901748397
sVtip
p398
F0.00021281767901748397
sVnz
p399
F0.0
sVnp
p400
F0.0
sVdies
p401
F0.0003373080407332238
sVfelt
p402
F0.00021281767901748397
sVdisulfiram
p403
F0.0
sVdetox
p404
F0.0
sVdied
p405
F0.0013492321629328952
sV2btoggle
p406
F0.0
sVfaster
p407
F0.00021281767901748397
sVdaily
p408
F0.0005501257197507078
sVclotiazepam
p409
F0.0
sVswiched
p410
F0.0
sVtime
p411
F0.0
sValfenta
p412
F0.0
sVterazosin
p413
F0.0
sVskin
p414
F0.00011195674350258189
sVcertainly
p415
F0.0004979614468629591
sVdisorders
p416
F0.0005501257197507078
sVtranylcypromine
p417
F0.0
sVfather
p418
F0.00021281767901748397
sV0
p419
F0.0003373080407332238
sVfinally
p420
F0.0003373080407332238
sVrhythm
p421
F0.0005501257197507078
sVtekamlo
p422
F0.0
sVdownloading
p423
F0.0003373080407332238
sVatenolol
p424
F0.0
sVbroadly
p425
F0.0
sVbenzodiazepines
p426
F0.0
sVcould
p427
F0.0
sVchoice
p428
F0.00021281767901748397
sVliability
p429
F0.0
sVtrouble
p430
F5.597837175129094e-05
sVlittle
p431
F0.0
sVdie
p432
F0.00024898072343147953
sVaccidentally
p433
F0.00021281767901748397
sVvanatrip
p434
F0.0
sVp
p435
F0.00021281767901748397
sVteam
p436
F0.0011002514395014155
sVguy
p437
F0.00042563535803496794
sVprevent
p438
F0.0006746160814664476
sVsandimmune
p439
F0.0
sVhtm
p440
F0.0011002514395014155
sVbuk46f3
p441
F0.0
sVrifater
p442
F0.0
sV25mg
p443
F0.0
sVcurrent
p444
F0.00021281767901748397
sVisoptin
p445
F0.0
sVnormodyne
p446
F0.0
sVillustrations
p447
F0.0005501257197507078
sVparadoxical
p448
F0.0
sVteratogens
p449
F0.0
sVprescriptions
p450
F0.0
sVsimcor
p451
F0.0
sVrifamate
p452
F0.0
sVwater
p453
F0.00021281767901748397
sVgroups
p454
F0.0005501257197507078
sVgrabbed
p455
F0.0006746160814664476
sValong
p456
F5.597837175129094e-05
sVboy
p457
F0.00021281767901748397
sVuniphyl
p458
F0.0
sVimpacted
p459
F0.0
sVcommonly
p460
F0.0
sVelixophyllin
p461
F0.0
sVaccomplished
p462
F0.0003373080407332238
sVsalmeterol
p463
F0.0
sVstudies
p464
F0.0005501257197507078
sVthorazine
p465
F0.0
sV20mg
p466
F0.0
sVuseful
p467
F0.0005501257197507078
sVinducing
p468
F0.0
sVprefer
p469
F0.00021281767901748397
sVmobic
p470
F0.0
sVrarely
p471
F0.0
sVcrisis
p472
F0.0
sVstingy
p473
F0.0005501257197507078
sVsweating
p474
F0.0005501257197507078
sVaspirin
p475
F0.0
sVergostat
p476
F0.0
sVtagamet
p477
F0.0
sVbeers
p478
F0.0003373080407332238
sVmescaline
p479
F0.0
sV__bzd__
p480
F0.0
sVflubromazepam
p481
F0.0
sVcar
p482
F0.00021281767901748397
sVdepressants
p483
F0.0
sVfollowing
p484
F0.00024898072343147953
sVmetoprolol
p485
F0.0
sVdollars
p486
F0.0005501257197507078
sVheart
p487
F0.0008512707160699359
sVlormetazepam
p488
F0.0
sVtopic
p489
F0.0006746160814664476
sVheard
p490
F0.00024898072343147953
sVdropped
p491
F0.00021281767901748397
sVallowed
p492
F0.00012449036171573977
sVatorvastatin
p493
F0.0
sVoccur
p494
F0.0011002514395014155
sVdiclazepam
p495
F0.0
sVdilantin
p496
F0.0
sVwarfarin
p497
F0.0
sVchemical
p498
F0.0005501257197507078
sVtill
p499
F0.0006746160814664476
sVlabetalol
p500
F0.0
sVstaying
p501
F0.0003373080407332238
sVmay
p502
F0.00027989185875645467
sVbarbiturates
p503
F0.0
sVtheochron
p504
F0.0
sVmembership
p505
F0.0
sVproduce
p506
F0.0003373080407332238
sVrasagiline
p507
F0.0
sVdata
p508
F0.001650377159252123
sVmao
p509
F0.0
sVman
p510
F0.00022391348700516377
sVnatural
p511
F0.0003373080407332238
sVmaybe
p512
F0.0
sVswitch
p513
F0.0013492321629328952
sVjail
p514
F0.0003373080407332238
sVhalazepam
p515
F0.0
sVtypical
p516
F0.0003373080407332238
sVlsd
p517
F0.0
sVgradual
p518
F0.0
sVyears
p519
F0.00012449036171573977
sVcourse
p520
F0.00012449036171573977
sVpediazole
p521
F0.0
sVstatistical
p522
F0.0
sVcold
p523
F0.00042563535803496794
sVstill
p524
F0.0
sVantara
p525
F0.0
sVthumb
p526
F0.0005501257197507078
sVwillow
p527
F0.0
sVinteresting
p528
F0.00037347108514721925
sVmidazolam
p529
F0.0
sVdecreases
p530
F0.0
sVketazolam
p531
F0.0
sVflutoprazepam
p532
F0.0
sVsretenovi
p533
F0.0
sVdobutrex
p534
F0.0
sVnon
p535
F0.00027989185875645467
sVeryped
p536
F0.0
sVazilect
p537
F0.0
sVmoms
p538
F0.0005501257197507078
sVbenzodiazepine_withdrawal_syndrome
p539
F0.0
sVinsomnia
p540
F0.0
sVpsychomotor_agitation
p541
F0.0
sVcafergot
p542
F0.0
sV1955
p543
F0.0
sVhalf
p544
F0.00039184860225903657
sVkilled
p545
F0.00021281767901748397
sVterm
p546
F0.0012769060741049038
sVname
p547
F0.00011195674350258189
sVstabilize
p548
F0.0
sVdidn
p549
F0.00016793511525387282
sV__benzodiazepines__
p550
F0.0
sVen
p551
F0.015853477914461518
sVsignificantly
p552
F0.0
sVnebupent
p553
F0.0
sVeg
p554
F0.0005501257197507078
sVyeah
p555
F0.0006746160814664476
sVacitretin
p556
F0.0
sVex
p557
F0.0003373080407332238
sVyear
p558
F0.00027989185875645467
sVdoxazosin
p559
F0.0
sVsummary
p560
F0.0
sVpills
p561
F0.002200502879002831
sVmedications
p562
F0.0
sVjackson
p563
F0.0
sVmevacor
p564
F0.0
sVpravastatin
p565
F0.0
sVincrease
p566
F0.0006746160814664476
sVinternet
p567
F0.0006746160814664476
sVcorrect
p568
F0.0003373080407332238
sVquite
p569
F0.00011195674350258189
sVmuscle_relaxant
p570
F0.0
sVclozaril
p571
F0.0
sVorg
p572
F0.027506285987535385
sVe2
p573
F0.0
sVcouldn
p574
F0.00012449036171573977
sVaralen
p575
F0.0
sV10mg
p576
F0.0
sVthing
p577
F0.00016793511525387282
sVsteroidal
p578
F0.0
sVnimetazepam
p579
F0.0
sVrifadin
p580
F0.0
sVmisused
p581
F0.0
sVpromotion
p582
F0.0005501257197507078
sVthink
p583
F5.597837175129094e-05
sVfirst
p584
F0.00027989185875645467
sVwiki
p585
F0.0
sV__benzos__
p586
F0.0
sVfast
p587
F0.00012449036171573977
sVimpossible
p588
F0.0003373080407332238
sVring
p589
F0.0006746160814664476
sVopen
p590
F0.0
sVtingling
p591
F0.0
sVgiven
p592
F0.00016793511525387282
sVchecked
p593
F0.0003373080407332238
sVreturns
p594
F0.00012449036171573977
sV2
p595
F0.00011195674350258189
sVwhite
p596
F0.00012449036171573977
sVgives
p597
F0.00012449036171573977
sVdiabinese
p598
F0.0
sVreleases
p599
F0.0003373080407332238
sVhypnotics
p600
F0.0
sVritonavir
p601
F0.0
sVtorrentday
p602
F0.0
sVreleased
p603
F0.0005501257197507078
sVnifedical
p604
F0.0
sVbutt
p605
F0.0011002514395014155
sVpng
p606
F0.0005501257197507078
sV10
p607
F0.00016793511525387282
sVthird
p608
F5.597837175129094e-05
sV18
p609
F0.00021281767901748397
sVprocan
p610
F0.0
sVmagnesium
p611
F0.0
sVnifedipine
p612
F0.0
sVillness
p613
F0.0
sVprn
p614
F0.0
sVturned
p615
F5.597837175129094e-05
sVargument
p616
F0.0003373080407332238
sVphenobarbital
p617
F0.0
sVdiabeta
p618
F0.0
sVsay
p619
F0.00016793511525387282
sVaminobutyric
p620
F0.0
sVsumatriptan
p621
F0.0
sVadvil
p622
F0.0
sVlevofloxacin
p623
F0.0
sVpotential
p624
F0.002200502879002831
sVonline
p625
F0.0003373080407332238
sVimpairment
p626
F0.0
sVregistered
p627
F0.0006746160814664476
sVmesylate
p628
F0.0
sVsure
p629
F0.00024898072343147953
sVpain
p630
F0.00021281767901748397
sVshade
p631
F0.00021281767901748397
sVnormal
p632
F0.00021281767901748397
sVtrack
p633
F0.0006746160814664476
sVdecreasing
p634
F0.0
sVbeta
p635
F0.0005501257197507078
sVprinted
p636
F0.0005501257197507078
sVespecially
p637
F0.0008714325320101783
sVaverage
p638
F0.0003373080407332238
sVlater
p639
F0.0006384530370524519
sVaxe
p640
F0.0011002514395014155
sVprofessional
p641
F0.0006746160814664476
sV1x013o
p642
F0.0
sVshow
p643
F0.00016793511525387282
sVcheap
p644
F0.0003373080407332238
sVcelecoxib
p645
F0.0
sVdiscovered
p646
F0.00021281767901748397
sVvytorin
p647
F0.0
sVratio
p648
F0.0005501257197507078
sVglucotrol
p649
F0.0
sVactiq
p650
F0.0
sVoutside
p651
F5.597837175129094e-05
sVlist_of_benzodiazepines
p652
F0.0
sVgoing
p653
F0.0
sVblack
p654
F0.00024898072343147953
sVmetaprel
p655
F0.0
sVinfallible
p656
F0.0
sVmorning
p657
F0.0003373080407332238
sVerythromycin
p658
F0.0
sVcardizem
p659
F0.0
sVtenoretic
p660
F0.0
sVnamely
p661
F0.0
sVactively
p662
F0.0
sVcalan
p663
F0.0
sVvertical
p664
F0.00021281767901748397
sVglipizide
p665
F0.0
sVsites
p666
F0.0005501257197507078
sV3
p667
F0.00037347108514721925
sVherbal
p668
F0.002200502879002831
sVacross
p669
F0.00021281767901748397
sV24
p670
F0.00042563535803496794
sVnotice
p671
F0.00024898072343147953
sVparent
p672
F0.0003373080407332238
sVmycobutin
p673
F0.0
sVconcentrate
p674
F0.0005501257197507078
sVcoma
p675
F0.0005501257197507078
sVarticle
p676
F0.00021281767901748397
sVcome
p677
F0.00011195674350258189
sVmany
p678
F0.0
sVquiet
p679
F0.00012449036171573977
sVrapamune
p680
F0.0
sVcomes
p681
F0.0010640883950874197
sVamong
p682
F0.0006746160814664476
sVcancer
p683
F0.001650377159252123
sVcolor
p684
F0.00021281767901748397
sVperiod
p685
F0.00024898072343147953
sVspank
p686
F0.0006746160814664476
sVpsychoactive_drug
p687
F0.0
sVcinolazepam
p688
F0.0
sVcdvdm9d
p689
F0.0
sVviolence
p690
F0.0006746160814664476
sVunconsciousness
p691
F0.0
sValtace
p692
F0.0
sVcombined
p693
F0.0003373080407332238
sVeducated
p694
F0.0003373080407332238
sVperindopril
p695
F0.0
sVibutilide
p696
F0.0
sVcarvedilol
p697
F0.0
sVoverdose
p698
F0.001650377159252123
sVhardcore
p699
F0.0005501257197507078
sVcareful
p700
F0.0006746160814664476
sValfentanil
p701
F0.0
sVsound
p702
F0.00012449036171573977
sVvoltaren
p703
F0.0
sVsituation
p704
F0.0003373080407332238
sValcoholic
p705
F0.002200502879002831
sVengaged
p706
F0.0005501257197507078
sVsleeping
p707
F0.0010119241221996712
sVgood
p708
F0.0
sVimitrex
p709
F0.0
sVwfwnfmp
p710
F0.0
sVpremedication
p711
F0.0
sVimho
p712
F0.0
sVdifferent
p713
F0.0006224518085786988
sVritalin
p714
F0.0
sVtolazamide
p715
F0.0
sVrelaxant
p716
F0.0
sVweek
p717
F0.0006384530370524519
sVextended
p718
F0.0005501257197507078
sVclosest
p719
F0.0003373080407332238
sVdownloads
p720
F0.0005501257197507078
sVtreximet
p721
F0.0
sVsevere
p722
F0.0003373080407332238
sVwithout
p723
F0.0
sVsolve
p724
F0.0003373080407332238
sVcharged
p725
F0.00021281767901748397
sVwatchthe
p726
F0.0
sVdosage
p727
F0.001650377159252123
sVbenzo
p728
F0.0
sVgenerally
p729
F0.0006384530370524519
sVergot
p730
F0.0
sVimprint
p731
F0.0
sVkill
p732
F0.0004979614468629591
sVethyl
p733
F0.0
sVdeath
p734
F0.0006384530370524519
sVthinking
p735
F0.00021281767901748397
sVseems
p736
F0.00011195674350258189
sVexcept
p737
F0.00012449036171573977
sVtreatment
p738
F0.003300754318504246
sVsamples
p739
F0.0005501257197507078
sVglyburide
p740
F0.0
sVpill
p741
F0.001650377159252123
sVaround
p742
F0.00011195674350258189
sVread
p743
F0.00024898072343147953
sVindocin
p744
F0.0
sVdark
p745
F0.0
sVmom
p746
F0.0011002514395014155
sVamp
p747
F0.0037103884480654613
sVvague
p748
F0.0
sVtegretol
p749
F0.0
sVacute
p750
F0.0
sVcorgard
p751
F0.0
sVeither
p752
F0.00011195674350258189
sVbzequiv
p753
F0.0
sVparnate
p754
F0.0
sVoxazepam
p755
F0.0
sVsleep_induction
p756
F0.0
sVibuprofen
p757
F0.0
sVduration
p758
F0.0
sVspasm
p759
F0.0
sVbenzodiazepine
p760
F0.0
sVneosar
p761
F0.0
sVprovider
p762
F0.0
sValtoprev
p763
F0.0
sV911
p764
F0.0
sVturkey
p765
F0.0011002514395014155
sVmethamphetamine
p766
F0.0
sVbusiness
p767
F5.597837175129094e-05
sVequivalent
p768
F0.0006746160814664476
sVbiases
p769
F0.0
sVratios
p770
F0.0011002514395014155
sVcomparison
p771
F0.0006746160814664476
sVcentral
p772
F0.0
sVace
p773
F0.0005501257197507078
sVindustry
p774
F0.0005501257197507078
sVaceon
p775
F0.0
sVchop
p776
F0.0011002514395014155
sVtrandolapril
p777
F0.0
sVbenzos
p778
F0.0
sVsupervised
p779
F0.0
sVmean
p780
F0.00024898072343147953
sVimage
p781
F0.0006746160814664476
sVcyclophosphamide
p782
F0.0
sVofficially
p783
F0.0
sVreferences
p784
F0.0005501257197507078
sVtechnically
p785
F0.0003373080407332238
sVprazosin
p786
F0.0
sVcorvert
p787
F0.0
sVreserpine
p788
F0.0
sVlol
p789
F0.0005501257197507078
sVstart
p790
F0.0007469421702944385
sVlot
p791
F0.0
sVzolpidem
p792
F0.0
sVslowly
p793
F0.00021281767901748397
sVbentazepam
p794
F0.0
sVbillion
p795
F0.0005501257197507078
sVcomplete
p796
F0.0004979614468629591
sVdrug_abuse
p797
F0.0
sVtikosyn
p798
F0.0
sVbuying
p799
F0.0005501257197507078
sVlonger
p800
F0.00039184860225903657
sVattenuate
p801
F0.0
sVanyway
p802
F0.00042563535803496794
sVhaldol
p803
F0.0
sVgone
p804
F0.00011195674350258189
sVcartia
p805
F0.0
sVpalate
p806
F0.0005501257197507078
sVtheophylline
p807
F0.0
sVcinema
p808
F0.0
sVdescribe
p809
F0.0003373080407332238
sVsales
p810
F0.0005501257197507078
sVdeep
p811
F0.00012449036171573977
sVgeneral
p812
F0.0
sVtogether
p813
F0.0
sVfile
p814
F0.0005501257197507078
sVcontrolled
p815
F0.0005501257197507078
sVdeterrent
p816
F0.0
sVheath
p817
F0.0
sVfilm
p818
F0.0003373080407332238
sVworkday
p819
F0.0
sVbrotizolam
p820
F0.0
sV5
p821
F0.00016793511525387282
sVatropine
p822
F0.0
sVjaded
p823
F0.0
sVfor_moderators_switches_commands_and_css
p824
F0.0
sVxanax
p825
F0.0
sVtrioxide
p826
F0.0
sVincludes
p827
F0.0008512707160699359
sVabstral
p828
F0.0
sVpsychology
p829
F0.0005501257197507078
sVorap
p830
F0.0
sVcalls
p831
F0.0008512707160699359
sVcoreg
p832
F0.0
sVbehavioral
p833
F0.0
sVoncovin
p834
F0.0
sVoral
p835
F0.0005501257197507078
sVcatapres
p836
F0.0
sVconsider
p837
F0.00012449036171573977
sVmonth
p838
F0.00024898072343147953
sVleo_sternbach
p839
F0.0
sVtalks
p840
F0.0011002514395014155
sVfaqs
p841
F0.0
sVpts
p842
F0.0
sVacting
p843
F0.0026984643258657903
sVautowikibot
p844
F0.0
sVequivalency
p845
F0.0
sVprograf
p846
F0.0
sVhealth
p847
F0.0011002514395014155
sV1080p
p848
F0.0
sVcase
p849
F0.00012449036171573977
sVworse
p850
F0.00024898072343147953
sVsong
p851
F0.00012449036171573977
sVfar
p852
F0.00016793511525387282
sVcapoten
p853
F0.0
sVimporant
p854
F0.0
sVtenormin
p855
F0.0
sVrifampin
p856
F0.0
sVworst
p857
F0.0013492321629328952
sVdecide
p858
F0.0003373080407332238
sVawful
p859
F0.00042563535803496794
sVdifference
p860
F0.0003373080407332238
sVtreating
p861
F0.0011002514395014155
sVleads
p862
F0.00021281767901748397
sVdutoprol
p863
F0.0
sVlist
p864
F0.0019153591111573558
sVclozapine
p865
F0.0
sVsedation
p866
F0.0
sVsmall
p867
F0.00022391348700516377
sVlevalbuterol
p868
F0.0
sVabbreviated
p869
F0.0
sVantibiotic
p870
F0.0
sVhyzaar
p871
F0.0
sVgrabs
p872
F0.00042563535803496794
sVpast
p873
F0.00012449036171573977
sVzero
p874
F0.0003373080407332238
sVpass
p875
F0.00012449036171573977
sVhealer
p876
F0.0
sVhairspray
p877
F0.0
sVsun
p878
F0.0042326722983351515
sVgengraf
p879
F0.0
sVbarbiturate
p880
F0.0
sVlearned
p881
F0.0005501257197507078
sVquinapril
p882
F0.0
sVfull
p883
F0.0
sVmalaria
p884
F0.0005501257197507078
sVvomiting
p885
F0.0005501257197507078
sVgabaa
p886
F0.0
sVstrong
p887
F0.00021281767901748397
sVpinazepam
p888
F0.0
sVisocarboxazid
p889
F0.0
sVclorazepate
p890
F0.0
sVexperience
p891
F0.0013492321629328952
sVpentamidine
p892
F0.0
sVamount
p893
F0.0006384530370524519
sVhealthier
p894
F0.0
sVtoxicity
p895
F0.0
sVoptions
p896
F0.0003373080407332238
sVeldepryl
p897
F0.0
sVprinivil
p898
F0.0
sVretrovir
p899
F0.0
sVtwo
p900
F0.0
sV6
p901
F0.00016793511525387282
sVtaken
p902
F0.00016793511525387282
sVlowering
p903
F0.0
sVdoor
p904
F0.0004979614468629591
sVpravachol
p905
F0.0
sVhoffman
p906
F0.0
sVoutpatient
p907
F0.0
sVparticular
p908
F0.00012449036171573977
sVknown
p909
F0.00037347108514721925
sVdoom
p910
F0.0
sVproducing
p911
F0.0005501257197507078
sVnone
p912
F0.00021281767901748397
sVestazolam
p913
F0.0
sVmethadone
p914
F0.0
sVions
p915
F0.0
sVcompare
p916
F0.0003373080407332238
sVrandomizing
p917
F0.0
sVantagonists
p918
F0.0
sVnumbers
p919
F0.0003373080407332238
sVcimetidine
p920
F0.0
sVcondemn
p921
F0.0005501257197507078
sVbronchodilators
p922
F0.0
sVinformation
p923
F0.0003373080407332238
sVneeds
p924
F0.0
sVdesperation
p925
F0.0
sVrather
p926
F0.00012449036171573977
sVdiazepine
p927
F0.0
sVledger
p928
F0.0
sVoccasionally
p929
F0.00021281767901748397
sVshouldnt
p930
F0.0
sVfluvastatin
p931
F0.0
sVtried
p932
F0.00021281767901748397
sVprazepam
p933
F0.0
sVblood
p934
F0.001489723753122388
sVcoming
p935
F0.00011195674350258189
sVshort
p936
F0.00027989185875645467
sVsupervision
p937
F0.0
sVnsaids
p938
F0.0
sVplaying
p939
F0.00021281767901748397
sVhelp
p940
F0.00022391348700516377
sVsoon
p941
F5.597837175129094e-05
sVattitude
p942
F0.0005501257197507078
sVpaper
p943
F0.00021281767901748397
sVhell
p944
F0.00021281767901748397
sVsuffer
p945
F0.0003373080407332238
sVcolloquially
p946
F0.0
sVpremazepam
p947
F0.0
sVlisinopril
p948
F0.0
sVdiskets
p949
F0.0
sV20
p950
F5.597837175129094e-05
sVreluctance
p951
F0.0
sVactually
p952
F0.00016793511525387282
sVsymptoms
p953
F0.0
sVamitriptyline
p954
F0.0
sVmight
p955
F5.597837175129094e-05
sVwouldn
p956
F0.00012449036171573977
sVparadoxical_effect
p957
F0.0
sVsomeone
p958
F0.0
sVseeking
p959
F0.0005501257197507078
sVfood
p960
F0.00012449036171573977
sVprenatal
p961
F0.0
sVinstructions
p962
F0.0005501257197507078
sValways
p963
F0.0
sVfound
p964
F0.00011195674350258189
sVmultaq
p965
F0.0
sVmethysergide
p966
F0.0
sVheavy
p967
F0.0004979614468629591
sVreactions
p968
F0.0
sVeveryone
p969
F0.00021281767901748397
sVmental
p970
F0.0011002514395014155
sVmichael
p971
F0.0
sVhard
p972
F0.00037347108514721925
sVreduce
p973
F0.0006746160814664476
sVengaging
p974
F0.0005501257197507078
sVdoses
p975
F0.0
sValcohol
p976
F0.003035772366599014
sVadvicor
p977
F0.0
sVsparingly
p978
F0.0
sVunnatural
p979
F0.0
sVsince
p980
F0.00027989185875645467
sVresearch
p981
F0.0011002514395014155
sVparticipants
p982
F0.0
sVsafety
p983
F0.0003373080407332238
sV7
p984
F0.00012449036171573977
sVoffline
p985
F0.0005501257197507078
sVissue
p986
F0.00021281767901748397
sVeszopiclone
p987
F0.0
sVlibrium
p988
F0.0
sVheroin
p989
F0.0005501257197507078
sVput
p990
F0.00022391348700516377
sVgenerate
p991
F0.0005501257197507078
sVthread
p992
F0.0005501257197507078
sVamerican
p993
F0.0
sVsensations
p994
F0.0
sVw
p995
F0.00021281767901748397
sVdaisy
p996
F0.0
sVmajor
p997
F0.00024898072343147953
sVdont
p998
F0.0003373080407332238
sVfeel
p999
F0.00022391348700516377
sVnumber
p1000
F0.00021281767901748397
sVdone
p1001
F5.597837175129094e-05
sVpropranolol
p1002
F0.0
sVstory
p1003
F0.0003373080407332238
sVhalcion
p1004
F0.0
sVscript
p1005
F0.0011002514395014155
sVinteract
p1006
F0.0027506285987535383
sVleast
p1007
F0.0
sVpassed
p1008
F0.00024898072343147953
sVpyazolam
p1009
F0.0
sVstore
p1010
F0.0003373080407332238
sVheadache
p1011
F0.0005501257197507078
sVfree
p1012
F0.0006224518085786988
sVneedle
p1013
F0.0003373080407332238
sVnavelbine
p1014
F0.0
sVdoctors
p1015
F0.003300754318504246
sVbelieve
p1016
F0.00024898072343147953
sVrelieves
p1017
F0.0
sVkind
p1018
F0.0
sVb
p1019
F0.00012449036171573977
sVrecovered
p1020
F0.0005501257197507078
sVazithromycin
p1021
F0.0
sVtofranil
p1022
F0.0
sVvinblastine
p1023
F0.0
sVmistometer
p1024
F0.0
sVrole_of_chance_in_scientific_discoveries
p1025
F0.0
sVlie
p1026
F0.00021281767901748397
sVcleft_palate
p1027
F0.0
sVnaproxen
p1028
F0.0
sVfinding
p1029
F0.00012449036171573977
sVzestril
p1030
F0.0
sVplay
p1031
F0.00021281767901748397
sVexperienced
p1032
F0.0005501257197507078
sVtolbutamide
p1033
F0.0
sVnasal
p1034
F0.0
sVsignificant
p1035
F0.0005501257197507078
sVnothing
p1036
F5.597837175129094e-05
sVflector
p1037
F0.0
sVantabuse
p1038
F0.0
sVextremely
p1039
F0.0003373080407332238
sVsometimes
p1040
F0.00024898072343147953
sVtacrolimus
p1041
F0.0
sVclean
p1042
F5.597837175129094e-05
sVindomethacin
p1043
F0.0
sVgaba
p1044
F0.0
sVtranquilizer
p1045
F0.0
sVbooze
p1046
F0.0011002514395014155
sVfine
p1047
F0.0
sVfind
p1048
F0.0
sVcell
p1049
F0.00021281767901748397
sVparanoid
p1050
F0.0005501257197507078
sVnervous
p1051
F0.0003373080407332238
sVrohypnol
p1052
F0.0
sVpenalty
p1053
F0.0003373080407332238
sVpretty
p1054
F0.00021281767901748397
sVjb9nswt
p1055
F0.0
sVhiv
p1056
F0.0
sVpolarized
p1057
F0.0
sVneurobehavioural
p1058
F0.0
sVxopenex
p1059
F0.0
sVmedicines
p1060
F0.0
sVcommon
p1061
F0.00042563535803496794
sVwithdrawal
p1062
F0.0
sVx
p1063
F0.003300754318504246
sVbars
p1064
F0.00042563535803496794
sVisuprel
p1065
F0.0
sVpotent
p1066
F0.0
sVsee
p1067
F0.00033587023050774564
sVbricanyl
p1068
F0.0
sVmovie
p1069
F0.004047696488798685
sVvarious
p1070
F0.00021281767901748397
sVprobably
p1071
F0.00024898072343147953
sVanterograde
p1072
F0.0
sVsupposed
p1073
F0.00021281767901748397
sVavailable
p1074
F0.00042563535803496794
sVrecently
p1075
F0.00012449036171573977
sVstatistically
p1076
F0.0
sVmissing
p1077
F0.00024898072343147953
sVsold
p1078
F0.0005501257197507078
sVduragesic
p1079
F0.0
sVspray
p1080
F0.0005501257197507078
sVclarithromycin
p1081
F0.0
sVplendil
p1082
F0.0
sVprescription
p1083
F0.0
sVmethadose
p1084
F0.0
sVbarely
p1085
F0.0003373080407332238
sVphenezepamn
p1086
F0.0
sVondansetron
p1087
F0.0
sV3swim3
p1088
F0.0
sVpoint
p1089
F0.00011195674350258189
sVsimple
p1090
F5.597837175129094e-05
sVionsys
p1091
F0.0
sVnewborn
p1092
F0.0
sVserevent
p1093
F0.0
sVvillage
p1094
F0.0005501257197507078
sVrifabutin
p1095
F0.0
sVcreativity
p1096
F0.0
sVdue
p1097
F0.0006746160814664476
sVreduction
p1098
F0.0005501257197507078
sVamnesia
p1099
F0.0011002514395014155
sVdur
p1100
F0.0
sVpi
p1101
F0.0
sV4
p1102
F0.00027989185875645467
sVmoxifloxacin
p1103
F0.0
sV2bdelete
p1104
F0.0
sVfire
p1105
F0.00012449036171573977
sVdroperidol
p1106
F0.0
sVamlodipine
p1107
F0.0
sVlives
p1108
F0.00042563535803496794
sVlook
p1109
F0.00016793511525387282
sVstraight
p1110
F5.597837175129094e-05
sVmedically
p1111
F0.0
sVkick
p1112
F0.00021281767901748397
sVlarger
p1113
F0.00021281767901748397
sVtecfidera
p1114
F0.0
sVcategorized
p1115
F0.0
sVagitation
p1116
F0.0
sVanymore
p1117
F0.00042563535803496794
sVmigraine
p1118
F0.0
sVelevated
p1119
F0.0
sVshorter
p1120
F0.0013492321629328952
sVdeletion
p1121
F0.0005501257197507078
sV9
p1122
F0.00012449036171573977
sVproducts
p1123
F0.0013492321629328952
sVdevelopment
p1124
F0.0003373080407332238
sVmavik
p1125
F0.0
sVused
p1126
F0.00024898072343147953
sVtemporary
p1127
F0.0005501257197507078
sVdime
p1128
F0.0005501257197507078
sVanzemet
p1129
F0.0
sVamiodarone
p1130
F0.0
sVuses
p1131
F0.00042563535803496794
sV009
p1132
F0.0
sVpredecessors
p1133
F0.0
sVglobus
p1134
F0.0
sVmemantine
p1135
F0.0
sVbenzodiazepine_overdose
p1136
F0.0
sVobviously
p1137
F0.00021281767901748397
sVrozerem
p1138
F0.0
sVcarfluzepate
p1139
F0.0
sVweakest
p1140
F0.001650377159252123
sVabilities
p1141
F0.0
sVcozaar
p1142
F0.0
sVrisks
p1143
F0.0
sVshape
p1144
F0.0006746160814664476
sVworld
p1145
F0.00012449036171573977
sVsummaries
p1146
F0.0
sVdissociation
p1147
F0.0
sVtablet
p1148
F0.0005501257197507078
sVfentanyl
p1149
F0.0
sVexclusively
p1150
F0.0003373080407332238
sVfosinopril
p1151
F0.0
sVprocardia
p1152
F0.0
sVonsolis
p1153
F0.0
sVfinder
p1154
F0.0005501257197507078
sVbuild
p1155
F0.00012449036171573977
sVemergency
p1156
F0.0011002514395014155
sVbig
p1157
F5.597837175129094e-05
sVzofran
p1158
F0.0
sVmatters
p1159
F0.0003373080407332238
sVgame
p1160
F0.00024898072343147953
sVbit
p1161
F0.00022391348700516377
sVhelpful
p1162
F0.001650377159252123
sVd
p1163
F0.0
sVlipitor
p1164
F0.0
sVhytrin
p1165
F0.0
sVpopular
p1166
F0.0011002514395014155
sVdynacirc
p1167
F0.0
sVdisorder
p1168
F0.0005501257197507078
sVbetapace
p1169
F0.0
sVmetaproterenol
p1170
F0.0
sVoften
p1171
F0.0006384530370524519
sVlofendazam
p1172
F0.0
sVabsolutely
p1173
F0.00012449036171573977
sVback
p1174
F0.00027989185875645467
sVpaxil
p1175
F0.0
sVstrongest
p1176
F0.003300754318504246
sVdiclofenac
p1177
F0.0
sVsight
p1178
F0.00021281767901748397
sVinapsine
p1179
F0.0
sVgradually
p1180
F0.0
sVaffects
p1181
F0.0003373080407332238
sVnorvir
p1182
F0.0
sVper
p1183
F0.0006746160814664476
sVmarket
p1184
F0.0003373080407332238
sVlevaquin
p1185
F0.0
sVconvulsions
p1186
F0.0
sVaccupril
p1187
F0.0
sVcns22jx
p1188
F0.0
sVmaxair
p1189
F0.0
sVconfidence
p1190
F0.0011002514395014155
sVwithdrawals
p1191
F0.0
sVstep
p1192
F0.00024898072343147953
sVtolinase
p1193
F0.0
sVrelating
p1194
F0.0
sVintense
p1195
F0.0006746160814664476
sVcautious
p1196
F0.0005501257197507078
sVusa
p1197
F0.0005501257197507078
sVanything
p1198
F0.00011195674350258189
sVmicronase
p1199
F0.0
sVgamma
p1200
F0.0
sVseeing
p1201
F0.00021281767901748397
sVnortriptyline
p1202
F0.0
sVwithin
p1203
F0.00012449036171573977
sVmotrin
p1204
F0.0
sVlong
p1205
F0.0
sVneoral
p1206
F0.0
sVlanoxin
p1207
F0.0
sVzelapar
p1208
F0.0
sVadjusting
p1209
F0.0
sVpsychoactive
p1210
F0.0
sVsubjectively
p1211
F0.0
sVlink
p1212
F0.0010119241221996712
sVnewer
p1213
F0.0005501257197507078
sVfda
p1214
F0.0
sVchloride
p1215
F0.0
sVuk
p1216
F0.0011002514395014155
sVz
p1217
F0.0005501257197507078
sVsimilar
p1218
F0.00037347108514721925
sVcalled
p1219
F0.0004979614468629591
sVassociated
p1220
F0.0005501257197507078
sVmaxrows
p1221
F0.0
sVdoesn
p1222
F0.00016793511525387282
sVwarning
p1223
F0.0006384530370524519
sVrimactane
p1224
F0.0
sVdofetilide
p1225
F0.0
sVnac
p1226
F0.0
sVpreventing
p1227
F0.0005501257197507078
sVusers
p1228
F0.001650377159252123
sVaccidental
p1229
F0.0005501257197507078
sVproblems
p1230
F0.00037347108514721925
sVativan
p1231
F0.0
sVstructure
p1232
F0.0005501257197507078
sVworsened
p1233
F0.0
sVsuffers
p1234
F0.0
sVe
p1235
F0.00033587023050774564
sVsvg
p1236
F0.0
sVsedative
p1237
F0.0
sVdragged
p1238
F0.00042563535803496794
sVzidovudine
p1239
F0.0
sVlotensin
p1240
F0.0
sVgt
p1241
F0.0
sVpartial
p1242
F0.0005501257197507078
sVresults
p1243
F0.0003373080407332238
sVtoggle
p1244
F0.0011002514395014155
sVgo
p1245
F0.0
sVcompose
p1246
F0.0011002514395014155
sVside_effects
p1247
F0.0
sVyoung
p1248
F5.597837175129094e-05
sVsend
p1249
F0.00012449036171573977
sVselegiline
p1250
F0.0
sVstable
p1251
F0.0011002514395014155
sVfatal
p1252
F0.0003373080407332238
sVconfirmation
p1253
F0.0005501257197507078
sVfluoxetine
p1254
F0.0
sVtelling
p1255
F0.0004979614468629591
sVdrinking
p1256
F0.0006384530370524519
sVnausea
p1257
F0.0
sVmagic
p1258
F0.0003373080407332238
sVopioids
p1259
F0.0
sVcyclosporine
p1260
F0.0
sVfewer
p1261
F0.0005501257197507078
sVvoriconazole
p1262
F0.0
sVtry
p1263
F5.597837175129094e-05
sVimgur
p1264
F0.0
sVsmaller
p1265
F0.00021281767901748397
sVramipril
p1266
F0.0
sVdownload
p1267
F0.0016865402036661187
sVacid
p1268
F0.0006746160814664476
sVclick
p1269
F0.00042563535803496794
sVindex
p1270
F0.0005501257197507078
sVpower
p1271
F0.00012449036171573977
sVgiving
p1272
F0.00012449036171573977
sVmarketed
p1273
F0.0
sVaccess
p1274
F0.0003373080407332238
sValprazolam
p1275
F0.0
sVbody
p1276
F5.597837175129094e-05
sVstance
p1277
F0.0
sVprescribe
p1278
F0.0005501257197507078
sVleo
p1279
F0.0
sVothers
p1280
F0.001493884340588877
sVextreme
p1281
F0.0006384530370524519
sVgreat
p1282
F0.0
sVreceive
p1283
F0.0005501257197507078
sV30
p1284
F0.00012449036171573977
sVopiate
p1285
F0.0
sVpacerone
p1286
F0.0
sVmigranal
p1287
F0.0
sVresulting
p1288
F0.0003373080407332238
sVbrethine
p1289
F0.0
sVmakes
p1290
F5.597837175129094e-05
sVdeschoroetizolam
p1291
F0.0
sVvalproic
p1292
F0.0
sVredd
p1293
F0.0
sValbuterol
p1294
F0.0
sVuse
p1295
F0.0007836972045180731
sVconsumption
p1296
F0.0005501257197507078
sVremains
p1297
F0.00021281767901748397
sVnext
p1298
F0.00016793511525387282
sVbutler
p1299
F0.0
sVunivasc
p1300
F0.0
sVpsoriasis
p1301
F0.0
sVchloroquine
p1302
F0.0
sVstarted
p1303
F0.00012449036171573977
sVopiates
p1304
F0.001650377159252123
sVlovastatin
p1305
F0.0
sVtrain
p1306
F0.0005501257197507078
sVsample
p1307
F0.00012449036171573977
sVgeodon
p1308
F0.0
sVlopressor
p1309
F0.0
sVmeet
p1310
F0.0003373080407332238
sVinhibitor
p1311
F0.0
sVcontrol
p1312
F0.0003373080407332238
sVweaker
p1313
F0.0005501257197507078
sVpurposes
p1314
F0.0
sVpieces
p1315
F0.00021281767901748397
sVhigh
p1316
F0.0
sVsomething
p1317
F0.00022391348700516377
sVtab
p1318
F0.0003373080407332238
sVsis
p1319
F0.0005501257197507078
sVarthrotec
p1320
F0.0
sVbretazenil
p1321
F0.0
sVaminobutyric_acid
p1322
F0.0
sVdigoxin
p1323
F0.0
sVinstead
p1324
F0.00021281767901748397
sVpanic
p1325
F0.0
sVaequo
p1326
F0.0
sVprofile
p1327
F0.0003373080407332238
sVwatch
p1328
F0.0
sVhazard
p1329
F0.002200502879002831
sVabuse
p1330
F0.0005501257197507078
sVpreferred
p1331
F0.0005501257197507078
sVmedihaler
p1332
F0.0
sVlight
p1333
F0.00012449036171573977
sVcounter
p1334
F0.0013492321629328952
sVlines
p1335
F0.00042563535803496794
sVhonestly
p1336
F0.0003373080407332238
sVhealthcare
p1337
F0.0
sVaddiction
p1338
F0.0
sVproduces
p1339
F0.0005501257197507078
sVemsam
p1340
F0.0
sVlooks
p1341
F5.597837175129094e-05
sVinnopran
p1342
F0.0
sVmentioned
p1343
F0.0011002514395014155
sV1
p1344
F0.00039184860225903657
sVla
p1345
F5.597837175129094e-05
sVchosen
p1346
F0.00021281767901748397
sVll
p1347
F0.00027989185875645467
sVmeantime
p1348
F0.0005501257197507078
sVdad
p1349
F0.00042563535803496794
sVnorpramin
p1350
F0.0
sVpractice
p1351
F0.0
sVsonata
p1352
F0.0
sVhands
p1353
F0.0003373080407332238
sVday
p1354
F0.0
sVmonopril
p1355
F0.0
sVmods
p1356
F0.0
sVedit
p1357
F0.0011002514395014155
sVunpredictable
p1358
F0.0005501257197507078
sVanterograde_amnesia
p1359
F0.0
sVsubset
p1360
F0.0
sVrelated
p1361
F0.00021281767901748397
sVexceeded
p1362
F0.0005501257197507078
sVdisinhibition
p1363
F0.0
sV80
p1364
F0.0
sVpatch
p1365
F0.0006746160814664476
sVstimulants
p1366
F0.0
sVpirbuterol
p1367
F0.0
sVtriazolam
p1368
F0.0
sVjanimine
p1369
F0.0
sVdelorazepam
p1370
F0.0
sVintervention
p1371
F0.0011002514395014155
sVcause
p1372
F0.00022391348700516377
sVfentora
p1373
F0.0
sVtrandate
p1374
F0.0
sVactivity
p1375
F0.0005501257197507078
sVamitriptylline
p1376
F0.0
sVnelfinavir
p1377
F0.0
sVdigitalis
p1378
F0.0
sVcompletely
p1379
F0.00012449036171573977
sVphilip
p1380
F0.0
sVscary
p1381
F0.0011002514395014155
sVg
p1382
F0.00042563535803496794
sVroute
p1383
F0.00021281767901748397
sVkeep
p1384
F0.00022391348700516377
sVcures
p1385
F0.0005501257197507078
sVcrestor
p1386
F0.0
sVdobutamine
p1387
F0.0
sVquality
p1388
F0.00021281767901748397
sVunknown
p1389
F0.0003373080407332238
sVsystem
p1390
F0.00012449036171573977
sVclomipramine
p1391
F0.0
sVintermediate
p1392
F0.0
sVneurotransmitter
p1393
F0.0
sVseymour
p1394
F0.0
sVpatients
p1395
F0.0
sVcentral_nervous_system_depressants
p1396
F0.0
sVcravings
p1397
F0.0005501257197507078
sVmalpractice
p1398
F0.0
sVnegatively
p1399
F0.0011002514395014155
sVtorrent
p1400
F0.0
sVresult
p1401
F0.0006746160814664476
sVavoided
p1402
F0.0005501257197507078
sVcomfortable
p1403
F0.0003373080407332238
sVneed
p1404
F0.00022391348700516377
sVclearly
p1405
F0.00021281767901748397
sVviewed
p1406
F0.0003373080407332238
sVdiazepam
p1407
F0.0
sVable
p1408
F0.00012449036171573977
sVmix
p1409
F0.00021281767901748397
sVconcerns
p1410
F0.0
sVasshole
p1411
F0.0005501257197507078
sVlectures
p1412
F0.0
sVunless
p1413
F0.00021281767901748397
sVprednisone
p1414
F0.0
sVvelban
p1415
F0.0
sVsfw
p1416
F0.0
sVlunesta
p1417
F0.0
sVclass
p1418
F0.00012449036171573977
sVpropafenone
p1419
F0.0
sVstronger
p1420
F0.0005501257197507078
sVdisease
p1421
F0.0003373080407332238
sVvdvowpk
p1422
F0.0
sVtalk
p1423
F0.00042563535803496794
sVoccasion
p1424
F0.0003373080407332238
sVfact
p1425
F0.00042563535803496794
sVwrubwod
p1426
F0.0
sVsaquinavir
p1427
F0.0
sVnaprosyn
p1428
F0.0
sVrough
p1429
F0.0003373080407332238
sVcoloring
p1430
F0.0005501257197507078
sVbased
p1431
F0.00042563535803496794
sVcontrols
p1432
F0.0003373080407332238
sVscore
p1433
F0.00021281767901748397
sVblocker
p1434
F0.0005501257197507078
sVequivalents
p1435
F0.0003373080407332238
sVlariam
p1436
F0.0
sVmortality
p1437
F0.0
sVclopidogrel
p1438
F0.0
sVwatching
p1439
F0.0003373080407332238
sVones
p1440
F0.0006384530370524519
sVwords
p1441
F0.00012449036171573977
sVprocedures
p1442
F0.0
sVbrain
p1443
F0.00042563535803496794
sVh
p1444
F0.00042563535803496794
sVstuff
p1445
F0.00021281767901748397
sVdangerous
p1446
F0.0006384530370524519
sVnadolol
p1447
F0.0
sVgabapentin
p1448
F0.0
sVyugoslavia
p1449
F0.0
sVbeers_criteria
p1450
F0.0
sVenhanced
p1451
F0.0005501257197507078
sV130lbs
p1452
F0.0
sVnightmare
p1453
F0.00021281767901748397
sVtend
p1454
F0.0005501257197507078
sVdoxepin
p1455
F0.0
sVhorrible
p1456
F0.0003373080407332238
sVfluconazole
p1457
F0.0
sVotc
p1458
F0.0
sVvitamin
p1459
F0.0
sVkicking
p1460
F0.0005501257197507078
sVapproval
p1461
F0.0
sVlimits
p1462
F0.0011002514395014155
sVtaking
p1463
F0.00016793511525387282
sVcardura
p1464
F0.0
sVetc
p1465
F0.00027989185875645467
sVplacebo
p1466
F0.0
sVsafely
p1467
F0.0005501257197507078
sVcomment
p1468
F0.0006746160814664476
sVinflammatory
p1469
F0.0
sVhaloperidol
p1470
F0.0
sVwalk
p1471
F0.00021281767901748397
sVtable
p1472
F5.597837175129094e-05
sVquit
p1473
F0.0006746160814664476
sVsolareze
p1474
F0.0
sVaddition
p1475
F0.0005501257197507078
sVnaltrexone
p1476
F0.0
sVhellish
p1477
F0.0
sVtreat
p1478
F0.00042563535803496794
sVverelan
p1479
F0.0
sVquin
p1480
F0.0
sVfurazolidone
p1481
F0.0
sVlisting
p1482
F0.0003373080407332238
sVimproved
p1483
F0.0006746160814664476
sVvalue
p1484
F0.00012449036171573977
sVminipress
p1485
F0.0
sVpronestyl
p1486
F0.0
sVdolophine
p1487
F0.0
sVergotamine
p1488
F0.0
sValmost
p1489
F0.00022391348700516377
sVsite
p1490
F0.00042563535803496794
sVvs
p1491
F0.0005501257197507078
sVdual
p1492
F0.0003373080407332238
sVadministration
p1493
F0.0011002514395014155
sVsirolimus
p1494
F0.0
sVadverse
p1495
F0.0
sVanticonvulsant
p1496
F0.0
sVdifficult
p1497
F0.00042563535803496794
sVdisopyramide
p1498
F0.0
sVslave
p1499
F0.0005501257197507078
sVdrink
p1500
F0.00011195674350258189
sVeffect
p1501
F0.00011195674350258189
sVbeast
p1502
F0.00021281767901748397
sVglynase
p1503
F0.0
sVphp
p1504
F0.0005501257197507078
sVdiabetes
p1505
F0.0005501257197507078
sVwell
p1506
F0.0
sVthought
p1507
F0.00012449036171573977
sVmoexipril
p1508
F0.0
sVenglish
p1509
F0.0005501257197507078
sVposition
p1510
F0.00012449036171573977
sVmuscle
p1511
F0.0011002514395014155
sVless
p1512
F0.0006157620892642004
sVaccurate
p1513
F0.0005501257197507078
sVtrizivir
p1514
F0.0
sVdose
p1515
F0.006601508637008492
sVtetrazepma
p1516
F0.0
sVloprazolam
p1517
F0.0
sVbenzodiazepine_a
p1518
F0.0
sVrazobazam
p1519
F0.0
sVramelteon
p1520
F0.0
sVneonatal_withdrawal
p1521
F0.0
sVask_wikibot
p1522
F0.0
sVincreased
p1523
F0.0005501257197507078
sVoverdoses
p1524
F0.0
sVexecute
p1525
F0.0005501257197507078
sVzolmitriptan
p1526
F0.0
sVincreases
p1527
F0.0005501257197507078
sVknow
p1528
F0.00027989185875645467
sVimmediately
p1529
F0.00021281767901748397
sVloss
p1530
F0.0003373080407332238
sVlike
p1531
F0.0
sVsuccess
p1532
F0.0006746160814664476
sVgarage
p1533
F0.0011002514395014155
sVbecome
p1534
F5.597837175129094e-05
sVworks
p1535
F0.0006384530370524519
sVpage
p1536
F0.0003373080407332238
sVimprints
p1537
F0.0
sVbenzene
p1538
F0.0
sVklonopin
p1539
F0.0
sValive
p1540
F0.00012449036171573977
sV115
p1541
F0.0
sVtrisenox
p1542
F0.0
sV93la_roche
p1543
F0.0
sVhome
p1544
F0.00012449036171573977
sVthioridazine
p1545
F0.0
sVsupportive
p1546
F0.0
sVarsenic
p1547
F0.0
sValeve
p1548
F0.0
sVchains
p1549
F0.0
sVpressure
p1550
F0.002200502879002831
sValthough
p1551
F0.00024898072343147953
sVchoked
p1552
F0.0011002514395014155
sVsister
p1553
F0.0013492321629328952
sVrare
p1554
F0.0005501257197507078
sVgetting
p1555
F0.00016793511525387282
sVcolumn
p1556
F0.0005501257197507078
sVdissociation_
p1557
F0.0
sVequetro
p1558
F0.0
sVlanoxicaps
p1559
F0.0
sVdependence
p1560
F0.0
sVswear
p1561
F0.0005501257197507078
sVbloodstream
p1562
F0.0005501257197507078
sVnsaid
p1563
F0.0
sVtheolair
p1564
F0.0
sVzomig
p1565
F0.0
sVinvirase
p1566
F0.0
sVreceptor
p1567
F0.0
sVluck
p1568
F0.00042563535803496794
sVforget
p1569
F0.00021281767901748397
sVrevolve
p1570
F0.0
sVnegotiable
p1571
F0.0
sVserpasil
p1572
F0.0
sVlescol
p1573
F0.0
sVtransfer
p1574
F0.0006746160814664476
sVcaviar
p1575
F0.0005501257197507078
sV1988
p1576
F0.0
sVnoticed
p1577
F0.00012449036171573977
sVfunction
p1578
F0.0005501257197507078
sVvalerian
p1579
F0.0
sVmade
p1580
F5.597837175129094e-05
sVhitter
p1581
F0.0
sVwhether
p1582
F0.00016793511525387282
sVwish
p1583
F0.00021281767901748397
sVcells
p1584
F0.0003373080407332238
sVrecord
p1585
F0.0003373080407332238
sVproblem
p1586
F0.00012449036171573977
sVpiece
p1587
F0.00021281767901748397
sVminutes
p1588
F0.00024898072343147953
sVperiods
p1589
F0.0005501257197507078
sVfazaclo
p1590
F0.0
sVcompared
p1591
F0.00024898072343147953
sVpennsaid
p1592
F0.0
sVtrials
p1593
F0.0
sVsinequan
p1594
F0.0
sVsick
p1595
F0.0005501257197507078
sVziprasidone
p1596
F0.0
sVsimvastatin
p1597
F0.0
sVstar
p1598
F0.00042563535803496794
sVstay
p1599
F0.00024898072343147953
sVchance
p1600
F0.00024898072343147953
sVtwynsta
p1601
F0.0
sVkinda
p1602
F0.0005501257197507078
sVsilenor
p1603
F0.0
sVexposure
p1604
F0.0
sVisoproterenol
p1605
F0.0
sVusing
p1606
F0.00037347108514721925
sVstarting
p1607
F0.00021281767901748397
sVrule
p1608
F0.0003373080407332238
sVunderstand
p1609
F0.00016793511525387282
s.