(dp0
Vlimited
p1
F0.000268267625277445
sVsuicidal
p2
F0.00053653525055489
sVblind_placebo
p3
F0.0
sVchild
p4
F0.00012141491483999533
sVnarcotic
p5
F0.0
sVfour
p6
F5.459546542714616e-05
sVsleep
p7
F0.0007264605875010655
sVhanging
p8
F0.00010378008392872366
sVappetite
p9
F0.000268267625277445
sVoldest
p10
F0.00016448754134872133
sVhate
p11
F0.000268267625277445
sVaggression
p12
F0.0
sVbiaxin
p13
F0.0
sVincrease
p14
F0.000493462624046164
sVfeeding
p15
F0.00032897508269744266
sVprocainamide
p16
F0.0
sVswab
p17
F0.0
sVphysiological
p18
F0.0
sVriccardo
p19
F0.0
sVdisability
p20
F0.000268267625277445
sVwhatsoever
p21
F0.00016448754134872133
sVnaprelan
p22
F0.0
sVteaching
p23
F0.0
sVsorry
p24
F0.0003035372870999883
sVworth
p25
F0.00020756016785744731
sV50mg
p26
F0.0
sVrisk
p27
F0.00031134025178617097
sVcitalopram
p28
F0.0
sVevery
p29
F0.00016378639628143848
sVjack
p30
F0.000268267625277445
sVaffect
p31
F0.00107307050110978
sVtrailer
p32
F0.00053653525055489
sVschool
p33
F0.00214614100221956
sVprize
p34
F0.00016448754134872133
sVpinch
p35
F0.000268267625277445
sVsolution
p36
F0.0
sVprotriptyline
p37
F0.0
sVcholesterol
p38
F0.00053653525055489
sVbarbara_sherman2
p39
F0.0
sVaphrodisiacs
p40
F0.0
sVchew
p41
F0.00107307050110978
sVforce
p42
F0.00010378008392872366
sVconsistent
p43
F0.000268267625277445
sVlavender
p44
F0.0
sVlikely
p45
F0.0008048028758323349
sVpersuade
p46
F0.0
sV7th
p47
F0.00053653525055489
sVspect
p48
F0.00053653525055489
sVcytoxan
p49
F0.0
sVeven
p50
F0.00038216825799002307
sVclinicians
p51
F0.0
sVworsen
p52
F0.0
sVselected
p53
F0.000268267625277445
sVfingers
p54
F0.00016448754134872133
sVbipolar
p55
F0.00053653525055489
sVnew
p56
F0.0
sVnet
p57
F0.00016448754134872133
sVhmmm
p58
F0.000268267625277445
sVever
p59
F0.00013648866356786538
sVtold
p60
F0.00031134025178617097
sVmed
p61
F0.00016448754134872133
sVnever
p62
F0.0
sVreported
p63
F0.0029509438780518944
sV100
p64
F0.00010378008392872366
sVcardboard
p65
F0.00107307050110978
sVobtained
p66
F0.0
sVsubstance
p67
F0.0
sVphenelzine
p68
F0.0
sVstudy
p69
F0.00016448754134872133
sVreports
p70
F0.0006579501653948853
sVojdsvsh457noey5ub346
p71
F0.0
sVallready
p72
F0.0
sVneurologist
p73
F0.0
sVchanges
p74
F0.00010378008392872366
sVclonidine
p75
F0.0
sVfantastic
p76
F0.00016448754134872133
sVexplained
p77
F0.000268267625277445
sVschooling
p78
F0.0
sVhighly
p79
F0.000493462624046164
sVpunching
p80
F0.000268267625277445
sVzocor
p81
F0.0
sVtotal
p82
F0.00031134025178617097
sVexperimentation
p83
F0.0
sVdna
p84
F0.0
sVwould
p85
F0.0
sVsnri
p86
F0.0
sVdysfunction
p87
F0.0
sVnegative
p88
F0.00016448754134872133
sVcall
p89
F5.459546542714616e-05
sVtherefore
p90
F0.000268267625277445
sVrecommend
p91
F0.0008048028758323349
sVtype
p92
F0.00041512033571489463
sVtell
p93
F0.0004249522019399836
sVtolerated
p94
F0.0
sVchlorpromazine
p95
F0.0
sVrelax
p96
F0.00016448754134872133
sVsuccessful
p97
F0.00010378008392872366
sVaward
p98
F0.0
sVaware
p99
F0.0
sVgrief
p100
F0.00010378008392872366
sV98
p101
F0.00020756016785744731
sVreversible
p102
F0.0
sVadult
p103
F0.0013413381263872248
sVnb_sb_ss_c_0_15
p104
F0.0
sV97
p105
F0.00032897508269744266
sVmust
p106
F0.0
sV1990
p107
F0.00053653525055489
sVmg
p108
F0.0
sVword
p109
F0.00010919093085429232
sV1994
p110
F0.000268267625277445
sV1999
p111
F0.0008048028758323349
sV1998
p112
F0.0
sVwork
p113
F0.0
sVery
p114
F0.0
sVmovies
p115
F0.00010378008392872366
sVelbow
p116
F0.0008048028758323349
sVexample
p117
F0.0004249522019399836
sVhuperzin
p118
F0.0
sVloosen
p119
F0.0
sVgive
p120
F0.00013648866356786538
sVinvolve
p121
F0.0
sVquetiapine
p122
F0.0
sVwant
p123
F0.0
sVcounseling
p124
F0.0
sVhonest
p125
F0.00010378008392872366
sVlexapro
p126
F0.0
sV5ht2
p127
F0.0
sVend
p128
F0.00013648866356786538
sVknows
p129
F0.00010378008392872366
sVturn
p130
F6.0707457419997665e-05
sVprovide
p131
F0.0013413381263872248
sVverify
p132
F0.000268267625277445
sVfinalist
p133
F0.0
sVmorbid
p134
F0.0
sVcapoten
p135
F0.0
sVdescription
p136
F0.00107307050110978
sVmess
p137
F0.000493462624046164
sVtribenzor
p138
F0.0
sVhallucinogen
p139
F0.0
sVlab
p140
F0.0
sVwrong
p141
F0.000182122372259993
sVjumping
p142
F0.00016448754134872133
sVoutbursts
p143
F0.0
sVgravol
p144
F0.0
sVparallel
p145
F0.0
sVmellaril
p146
F0.0
sVeffective
p147
F0.00214614100221956
sVrifampin
p148
F0.0
sVtetracyclic
p149
F0.0
sVthink
p150
F0.00035487052527645
sValias
p151
F0.000268267625277445
sVdecreasing
p152
F0.0
sVcoumadin
p153
F0.0
sVorder
p154
F8.189319814071924e-05
sVexotic
p155
F0.000268267625277445
sVletrozole
p156
F0.0
sVvary
p157
F0.00016448754134872133
sVactivating
p158
F0.00053653525055489
sVmayor
p159
F0.000268267625277445
sVmember
p160
F0.0008048028758323349
sVfit
p161
F0.00012141491483999533
sVhighlights
p162
F0.0
sVfix
p163
F0.00246731312023082
sVrecreational
p164
F0.000268267625277445
sVpius
p165
F0.0
sVwriting
p166
F0.00010378008392872366
sVdestroyed
p167
F0.000268267625277445
sVurination
p168
F0.0026826762527744495
sVcontrolled_parallel
p169
F0.0
sVeasier
p170
F0.00041512033571489463
sVtheo
p171
F0.0
sVeventually
p172
F0.000268267625277445
sVdiseases
p173
F0.000268267625277445
sVremission
p174
F0.0
sVdrowsiness
p175
F0.0
sVsleepiness
p176
F0.0
sVtherapy
p177
F0.004560549629716565
sVeffects
p178
F0.000986925248092328
sVschools
p179
F0.00053653525055489
sVhypomanic
p180
F0.0
sVelavil
p181
F0.0
sVroutines
p182
F0.00053653525055489
sVl
p183
F0.00010378008392872366
sVlosartan
p184
F0.0
sVreasonable
p185
F0.00016448754134872133
sVwent
p186
F2.729773271357308e-05
sVside
p187
F2.729773271357308e-05
sVluck
p188
F0.0006226805035723419
sVdaraprim
p189
F0.0
sVconstipation
p190
F0.000268267625277445
sVfairly
p191
F0.00016448754134872133
sVergotamine
p192
F0.0
sVprinciples
p193
F0.0
sVused
p194
F0.0016998088077599344
sV395
p195
F0.0
sVaids
p196
F0.0
sVprotec
p197
F0.0
sVclozapine
p198
F0.0
sVvasotec
p199
F0.0
sVviracept
p200
F0.0
sVtrainers
p201
F0.0
sVcontent
p202
F0.000268267625277445
sVencourage
p203
F0.000268267625277445
sVcomprehensive
p204
F0.0
sVmedicine
p205
F0.0026826762527744495
sVgot
p206
F5.459546542714616e-05
sVgov
p207
F0.000268267625277445
sVarizona
p208
F0.0
sVgiven
p209
F2.729773271357308e-05
sVfree
p210
F0.0004856596593599813
sVstandard
p211
F0.001556701258930855
sVvets
p212
F0.0
sVstruggle
p213
F0.00032897508269744266
sVnmda
p214
F0.0
sVcertified
p215
F0.0008048028758323349
sVlongterm
p216
F0.0
sVdays
p217
F0.000364244744519986
sVlevels
p218
F0.000268267625277445
sVisn
p219
F0.00010919093085429232
sVincorporated
p220
F0.0
sVcataflam
p221
F0.0
sVonto
p222
F0.00010378008392872366
sVclouding
p223
F0.0
sValready
p224
F8.189319814071924e-05
sVgrade
p225
F0.0013413381263872248
sVprimary
p226
F0.00016448754134872133
sVwash
p227
F0.000268267625277445
sVfeatured
p228
F0.0
sVanother
p229
F0.00013648866356786538
sVwasn
p230
F0.00013648866356786538
sVrats
p231
F0.000268267625277445
sVelmu
p232
F0.0
sVresearched
p233
F0.0
sV170
p234
F0.000268267625277445
sVrated
p235
F0.0026826762527744495
sVservice
p236
F0.00010378008392872366
sVfluvoxamine
p237
F0.0
sVeuphoric
p238
F0.0
sVapproximately
p239
F0.0
sVneeded
p240
F0.00010378008392872366
sVsiad
p241
F0.0
sVobservations
p242
F0.0
sVpercentage
p243
F0.00053653525055489
sVbitter
p244
F0.00053653525055489
sVdogs
p245
F0.0024907220142893678
sVdyskinesia
p246
F0.0
sVwigraine
p247
F0.0
sVrisperidone
p248
F0.0
sVtook
p249
F0.0002456795944221577
sVdirect
p250
F0.00053653525055489
sVgodawful
p251
F0.0
sVsymptom
p252
F0.0
sVtoronto
p253
F0.0
sVanxiety
p254
F0.01716912801775648
sV5ht2c
p255
F0.0
sVshowed
p256
F0.0016448754134872133
sVmatter
p257
F0.00012141491483999533
sVclasses
p258
F0.00024282982967999066
sVsilly
p259
F0.00010378008392872366
sVexforge
p260
F0.0
sVfeeling
p261
F6.0707457419997665e-05
sVlbs
p262
F0.0
sVmind
p263
F0.0010378008392872365
sVmine
p264
F6.0707457419997665e-05
sVtalking
p265
F0.0024144086274970047
sVrap
p266
F0.000268267625277445
sVseen
p267
F6.0707457419997665e-05
sVseem
p268
F8.189319814071924e-05
sVkratom
p269
F0.0
sV1964
p270
F0.0
sVresponsible
p271
F0.00016448754134872133
sV1960
p272
F0.0
sV1961
p273
F0.0
sVrecommended
p274
F0.0013413381263872248
sVcausing
p275
F0.00016448754134872133
sVsotalol
p276
F0.0
sVregular
p277
F0.0008048028758323349
sVmouth
p278
F0.00031134025178617097
sVletter
p279
F0.00020756016785744731
sVresonated
p280
F0.0
sVnutritive
p281
F0.0
sVzelapar
p282
F0.0
sVobsessive
p283
F0.0
sVtreats
p284
F0.00053653525055489
sVconsumed
p285
F0.00053653525055489
sVdog
p286
F0.0025945020982180915
sVcelebrex
p287
F0.0
sVdystonic
p288
F0.0
sVcambia
p289
F0.0
sVcame
p290
F0.00020756016785744731
sVpope
p291
F0.0
sVdoped
p292
F0.0
sVpsilocybe
p293
F0.0
sVemotions
p294
F0.000268267625277445
sVkeywords
p295
F0.00053653525055489
sVsubtle
p296
F0.000268267625277445
sVd2
p297
F0.0
sVavailability
p298
F0.0
sVjudges
p299
F0.0
sVspite
p300
F0.0
sVversed
p301
F0.0
sVocd
p302
F0.0
sVbust
p303
F0.000268267625277445
sVkessler
p304
F0.0
sVtouched
p305
F0.00016448754134872133
sVwide
p306
F6.0707457419997665e-05
sVstop
p307
F5.459546542714616e-05
sVpsychiatric
p308
F0.0
sVamazon
p309
F0.0008048028758323349
sVlibidos
p310
F0.0
sVtuberculosis
p311
F0.0
sVdespite
p312
F6.0707457419997665e-05
sVreport
p313
F0.0013159003307897706
sVpheromones
p314
F0.0
sVfabrics
p315
F0.0
sVdp
p316
F0.0
sVunfortunately
p317
F0.000268267625277445
sVlovan
p318
F0.0
sV12555126_treatment_of_separation_anxiety_in_dogs_with_clomipramine_results_from_a_prospective_randomized_double
p319
F0.0
sVmethod
p320
F0.00053653525055489
sVtwice
p321
F0.00010378008392872366
sVbad
p322
F0.00010919093085429232
sVfuroxone
p323
F0.0
sVgotta
p324
F0.00016448754134872133
sV1960s
p325
F0.0
sVvalsartan
p326
F0.0
sVresist
p327
F0.00053653525055489
sVdepends
p328
F0.00032897508269744266
sVdecided
p329
F0.00010378008392872366
sVercaf
p330
F0.0
sVpatel
p331
F0.0
sVdisturbing
p332
F0.00053653525055489
sVbest
p333
F0.0004094659907035962
sVsubject
p334
F0.00053653525055489
sV02
p335
F0.000268267625277445
sV03
p336
F0.000268267625277445
sVsaid
p337
F0.00013648866356786538
sV06
p338
F0.0008048028758323349
sVavelox
p339
F0.0
sVaway
p340
F0.0
sVfeline
p341
F0.0
sVwikipedia
p342
F0.0
sVimipramine
p343
F0.0
sVorgasmic
p344
F0.0
sVprocan
p345
F0.0
sVhopefully
p346
F0.0
sVirb
p347
F0.0
sVapproach
p348
F0.00016448754134872133
sVreddit
p349
F0.0
sVmen
p350
F0.00031134025178617097
sVterms
p351
F0.00010378008392872366
sVwears
p352
F0.00016448754134872133
sVjose
p353
F0.0
sVsmelled
p354
F0.000268267625277445
sVweak
p355
F0.0013413381263872248
sVhowever
p356
F0.0023028255788820986
sVsansert
p357
F0.0
sVwear
p358
F0.00016448754134872133
sVdrowsy
p359
F0.0
sVimprove
p360
F0.0008224377067436066
sVsuggested
p361
F0.000268267625277445
sVhours
p362
F0.0003035372870999883
sVagonist
p363
F0.0
sVmet
p364
F0.00010378008392872366
sVplayers
p365
F0.0
sVgames
p366
F0.00016448754134872133
sVgenus
p367
F0.0
sVasked
p368
F0.00010378008392872366
sVappeared
p369
F0.00016448754134872133
sVseizure
p370
F0.0
sVabilify
p371
F0.0
sVpregnancy
p372
F0.000268267625277445
sVarsenic
p373
F0.0
sVconference
p374
F0.0008048028758323349
sVbathroom
p375
F0.000268267625277445
sVthree
p376
F0.0004640614561307424
sVconfident
p377
F0.0
sVbeer
p378
F0.000268267625277445
sVexpected
p379
F0.00010378008392872366
sVdozens
p380
F0.0
sVfelodipine
p381
F0.0
sVdry
p382
F0.000986925248092328
sVlife
p383
F0.0002456795944221577
sVfamilies
p384
F0.000268267625277445
sVefficacy
p385
F0.0
sVpimozide
p386
F0.0
sV900mg
p387
F0.0
sVconcerning
p388
F0.0
sVmarijuana
p389
F0.000268267625277445
sVdihydroergotamine
p390
F0.0
sVpersonally
p391
F0.00024282982967999066
sVcatch
p392
F0.00016448754134872133
sVworked
p393
F0.00024282982967999066
sVcum
p394
F0.0008048028758323349
sVapplied
p395
F0.001973850496184656
sVphysician
p396
F0.0
sVbalasubraminian
p397
F0.0
sVhallucinogens
p398
F0.0
sVtastes
p399
F0.00010378008392872366
sVcalcium
p400
F0.0
sVmalayalam
p401
F0.0
sVmistake
p402
F6.0707457419997665e-05
sVcarbatrol
p403
F0.0
sVmcgonagle
p404
F0.0
sVir
p405
F0.0
sVlotrel
p406
F0.0
sVii
p407
F0.0
sVshame
p408
F0.00016448754134872133
sVcant
p409
F0.000268267625277445
sVim
p410
F0.0008048028758323349
sVcaptopril
p411
F0.0
sVid
p412
F0.0016096057516646698
sVdiagnostic
p413
F0.0
sVgrown
p414
F0.00010378008392872366
sVsuggest
p415
F0.00053653525055489
sVmake
p416
F0.00027297732713573076
sVatopic
p417
F0.0
sVnardil
p418
F0.0
sVneuroleptics
p419
F0.0
sVpotentially
p420
F0.000268267625277445
sVsplit
p421
F0.00020756016785744731
sVbig
p422
F2.729773271357308e-05
sVseveral
p423
F0.0013159003307897706
sVzofran
p424
F0.0
sVdolasetron
p425
F0.0
sVnih
p426
F0.0
sVverapamil
p427
F0.0
sVhand
p428
F0.0
sVamturnide
p429
F0.0
sVpharmacological
p430
F0.0
sVsumatriptan
p431
F0.0
sVthoughts
p432
F0.001973850496184656
sVkid
p433
F0.000268267625277445
sVprescribed
p434
F0.0024144086274970047
sVkept
p435
F0.00010378008392872366
sV1977
p436
F0.0
sV1600
p437
F0.0
sVstimuli
p438
F0.0
sV720p
p439
F0.0
sVeps
p440
F0.0
sVpica
p441
F0.0
sVorgasms
p442
F0.0013413381263872248
sVmaterials
p443
F0.0
sValabama
p444
F0.0
sVcamps
p445
F0.000268267625277445
sVpooping
p446
F0.000268267625277445
sVleft
p447
F2.729773271357308e-05
sVsentence
p448
F0.00053653525055489
sVphoto
p449
F0.00010378008392872366
sVpsych
p450
F0.0
sVthanks
p451
F0.00031134025178617097
sVdopamine
p452
F0.0
sVyes
p453
F5.459546542714616e-05
sVyet
p454
F8.189319814071924e-05
sVgroup_multicenter_clinical_trial
p455
F0.0
sVunique
p456
F0.00016448754134872133
sVcandidate
p457
F0.00016448754134872133
sVbp2
p458
F0.0
sVteenager
p459
F0.000268267625277445
sVeasy
p460
F0.0
sVqualaquin
p461
F0.0
sVopipramol
p462
F0.0
sVgave
p463
F0.000493462624046164
sVquinidine
p464
F0.0
sVops
p465
F0.0
sVpossible
p466
F0.000364244744519986
sVvisibly
p467
F0.000268267625277445
sVposes
p468
F0.0
sVadvanced
p469
F0.00010378008392872366
sVcognitive
p470
F0.0
sVgado
p471
F0.0
sV55
p472
F0.000268267625277445
sVxbox
p473
F0.0
sVspecific
p474
F0.00020756016785744731
sVsteps
p475
F0.00020756016785744731
sVofficer
p476
F0.00016448754134872133
sVnight
p477
F5.459546542714616e-05
sVsecurity
p478
F0.00020756016785744731
sVcaduet
p479
F0.0
sVwww
p480
F0.005921551488553968
sV1976
p481
F0.0
sVold
p482
F0.0
sVtheanine
p483
F0.0
sVdeal
p484
F0.000182122372259993
sVsuccessfully
p485
F0.000268267625277445
sVmarplan
p486
F0.0
sVmultiple
p487
F0.00016448754134872133
sVdaytime
p488
F0.000268267625277445
sVcontributing
p489
F0.0
sVeverything
p490
F5.459546542714616e-05
sVindividuals
p491
F0.0
sVatenolol
p492
F0.0
sVdenied
p493
F0.000493462624046164
sVumm
p494
F0.0
sVsleepier
p495
F0.0
sVdrink
p496
F5.459546542714616e-05
sVcord
p497
F0.0
sVcore
p498
F0.00010378008392872366
sVdiltiazem
p499
F0.0
sVjantoven
p500
F0.0
sVdiscount
p501
F0.000268267625277445
sVpost
p502
F0.00016448754134872133
sVmefloquine
p503
F0.0
sVproperties
p504
F0.00020756016785744731
sVvalium
p505
F0.0
sVendorsing
p506
F0.0
sVattacks
p507
F0.00053653525055489
sVmonths
p508
F0.0007264605875010655
sVsnris
p509
F0.0
sVplus
p510
F0.00020756016785744731
sVslightly
p511
F0.00024282982967999066
sVnorpace
p512
F0.0
sVnerve
p513
F0.000268267625277445
sVdronedarone
p514
F0.0
sVthinner
p515
F0.00016448754134872133
sVwasting
p516
F0.000268267625277445
sVbeneficial
p517
F0.00053653525055489
sVtwo
p518
F0.0
sVright
p519
F0.00027297732713573076
sVcordarone
p520
F0.0
sVspores
p521
F0.0
sVhallucinogenic
p522
F0.0
sVanorexia
p523
F0.000268267625277445
sVamazingly
p524
F0.000268267625277445
sVinitial
p525
F0.00010378008392872366
sVfight
p526
F0.00010378008392872366
sVfucking
p527
F0.000268267625277445
sVclinical
p528
F0.0
sVway
p529
F0.00030027505984930387
sVreserpine
p530
F0.0
sVwar
p531
F0.00016448754134872133
sVhappy
p532
F6.0707457419997665e-05
sVhead
p533
F8.189319814071924e-05
sVform
p534
F0.00012141491483999533
sVclinics
p535
F0.0
sVlorazepam
p536
F0.0
sVdepakote
p537
F0.0
sVaspca
p538
F0.0
sVoil
p539
F0.0006579501653948853
sVdesipramine
p540
F0.0
sVhear
p541
F6.0707457419997665e-05
sVlows
p542
F0.0
sVrythmol
p543
F0.0
sVreset
p544
F0.000268267625277445
sVenalapril
p545
F0.0
sVinside
p546
F2.729773271357308e-05
sVemotional
p547
F0.000268267625277445
sVlatuda
p548
F0.0
sV150
p549
F0.0
sVjuvenile
p550
F0.0
sVb2
p551
F0.0
sVupset
p552
F0.000268267625277445
sVabstract
p553
F0.000268267625277445
sVcrumble
p554
F0.0
sVpentam
p555
F0.0
sVcovera
p556
F0.0
sVcheck
p557
F0.00016448754134872133
sVcasues
p558
F0.0
sVcomorbid
p559
F0.0
sVmarking
p560
F0.0
sVfloor
p561
F0.00016448754134872133
sVwhereas
p562
F0.00053653525055489
sVgenerally
p563
F0.00010378008392872366
sVtrimipramine
p564
F0.0
sVactos
p565
F0.0
sVny
p566
F0.0
sVsetting
p567
F6.0707457419997665e-05
sVrole
p568
F0.00107307050110978
sVtest
p569
F0.00020756016785744731
sVpanax
p570
F0.0
sVstutter
p571
F0.0
sVfelt
p572
F0.0006226805035723419
sVtrailers
p573
F0.0
sVcommiting
p574
F0.0
sVhurt
p575
F0.000268267625277445
sVweekend
p576
F0.00032897508269744266
sVapologizing
p577
F0.0
sVhappening
p578
F0.00020756016785744731
sVdaily
p579
F0.00107307050110978
sVtime
p580
F0.0
sVserious
p581
F0.0007264605875010655
sVaudiofile
p582
F0.0
sVantipsychotics
p583
F0.0
sVswitched
p584
F0.00016448754134872133
sVtamoxifen
p585
F0.0
sVrelieve
p586
F0.0
sVfocus
p587
F0.000268267625277445
sVmild
p588
F0.0
sVtrichotillomania
p589
F0.0
sVice
p590
F0.00016448754134872133
sVgrateful
p591
F0.0
sVbattle
p592
F0.0008048028758323349
sVvet
p593
F0.0040240143791616745
sVsuicide
p594
F0.000268267625277445
sVdisorders
p595
F0.0018778733769421146
sVtranylcypromine
p596
F0.0
sVobsessively
p597
F0.0
sVfather
p598
F0.00010378008392872366
sVenvironment
p599
F0.000986925248092328
sV0
p600
F0.00016448754134872133
sVfinally
p601
F0.000986925248092328
sVunpleasant
p602
F0.000268267625277445
sVrhythm
p603
F0.00053653525055489
sVtekamlo
p604
F0.0
sVprotective
p605
F0.000268267625277445
sVinciting
p606
F0.0
sVbenzodiazepines
p607
F0.0
sVfemara
p608
F0.0
sVchoice
p609
F0.00010378008392872366
sVmourn
p610
F0.0
sVmasturbate
p611
F0.000268267625277445
sVexact
p612
F0.00010378008392872366
sVminute
p613
F0.00010378008392872366
sVcool
p614
F0.000268267625277445
sVlevel
p615
F2.729773271357308e-05
sVturns
p616
F6.0707457419997665e-05
sVregistered
p617
F0.00032897508269744266
sVaccupril
p618
F0.0
sVleave
p619
F0.00012141491483999533
sVp
p620
F0.00041512033571489463
sVrescriptor
p621
F0.0
sVscience
p622
F0.0016448754134872133
sVguy
p623
F0.00010378008392872366
sVround
p624
F6.0707457419997665e-05
sVwellbutrin
p625
F0.0
sVshave
p626
F0.000268267625277445
sVprevent
p627
F0.00016448754134872133
sVtremendously
p628
F0.0
sVsays
p629
F8.189319814071924e-05
sVregret
p630
F0.00016448754134872133
sVs0168159199001276
p631
F0.0
sVdealing
p632
F0.000268267625277445
sVhtm
p633
F0.000268267625277445
sVrepetitive
p634
F0.0
sVhtp
p635
F0.0
sVpatient
p636
F0.00214614100221956
sVmigraines
p637
F0.0
sVfear
p638
F0.00010378008392872366
sVdrinks
p639
F0.000268267625277445
sVfluphenazine
p640
F0.0
sVrifater
p641
F0.0
sV25mg
p642
F0.0
sVcurrent
p643
F0.00020756016785744731
sVisoptin
p644
F0.0
sVshared
p645
F0.00016448754134872133
sVdogtraining
p646
F0.0
sVrifamate
p647
F0.0
sVtopiramate
p648
F0.0
sValone
p649
F0.0005189004196436182
sValong
p650
F0.00027297732713573076
sVteacher
p651
F0.000268267625277445
sVchange
p652
F0.0009340207553585129
sVtianeptine
p653
F0.0
sVnoticeable
p654
F0.000268267625277445
sVprecursor
p655
F0.0
sVstudied
p656
F0.0008048028758323349
sVfunded
p657
F0.0
sVtrial
p658
F0.0016448754134872133
sVineffective
p659
F0.000268267625277445
sVdiagnosed
p660
F0.0
sVusually
p661
F0.00031134025178617097
sVweird
p662
F0.00031134025178617097
sVmirtazapine
p663
F0.0
sVstudies
p664
F0.00053653525055489
sVthorazine
p665
F0.0
sVlove
p666
F0.00012141491483999533
sVextra
p667
F0.00010378008392872366
sVproblematic
p668
F0.000268267625277445
sVmarked
p669
F0.00010378008392872366
sVuphill
p670
F0.0
sVsincerely
p671
F0.0
sVmobic
p672
F0.0
sVfake
p673
F0.000268267625277445
sVmarket
p674
F0.00016448754134872133
sVsweating
p675
F0.000268267625277445
sVworking
p676
F0.0
sVtightly
p677
F0.00016448754134872133
sVintense
p678
F0.0006579501653948853
sVmasturbating
p679
F0.000268267625277445
sVlive
p680
F5.459546542714616e-05
sViphone
p681
F0.0
sVwondering
p682
F0.000268267625277445
sVcriteria
p683
F0.0
sVfilms
p684
F0.0
sVtheoretical
p685
F0.0
sVtoday
p686
F0.00012141491483999533
sVaspirin
p687
F0.0
sVclub
p688
F0.000268267625277445
sVergostat
p689
F0.0
sVtagamet
p690
F0.0
sVappendix
p691
F0.0
sVignorant
p692
F0.000268267625277445
sVcases
p693
F0.0008048028758323349
sVeffort
p694
F0.000268267625277445
sVgraphic
p695
F0.000268267625277445
sVedible
p696
F0.000268267625277445
sVdepressants
p697
F0.0
sVsoul
p698
F0.00016448754134872133
sVcat
p699
F0.000493462624046164
sVzhao
p700
F0.0
sVhope
p701
F0.00010919093085429232
sVaripiprazole
p702
F0.0
sVmaking
p703
F0.00010919093085429232
sVdosage
p704
F0.00107307050110978
sVstimulating
p705
F0.0
sVbreeds
p706
F0.00107307050110978
sVheart
p707
F0.0006226805035723419
sVawesome
p708
F0.00053653525055489
sVcimetidine
p709
F0.0
sVagent
p710
F0.00031134025178617097
sVsample
p711
F6.0707457419997665e-05
sVheard
p712
F0.00024282982967999066
sVperformed
p713
F0.00016448754134872133
sVcouncil
p714
F0.0
sVallowed
p715
F6.0707457419997665e-05
sVatorvastatin
p716
F0.0
sVcounting
p717
F0.00016448754134872133
sVclothing
p718
F0.000268267625277445
sVoccur
p719
F0.00053653525055489
sVramesh
p720
F0.0
sVlocomotory
p721
F0.0
sVdilantin
p722
F0.0
sVdiscussion
p723
F0.00016448754134872133
sVwatching
p724
F0.00016448754134872133
sVhoffer
p725
F0.0
sV1
p726
F0.00027297732713573076
sVhypersensitivity
p727
F0.0
sVactual
p728
F0.00053653525055489
sVswore
p729
F0.0
sVsignificant
p730
F0.00053653525055489
sVnyc
p731
F0.0
sVunbelievable
p732
F0.0
sVirrational
p733
F0.0
sVmay
p734
F0.0004913591888443154
sVsouthern
p735
F0.000268267625277445
sVtheochron
p736
F0.0
sVmembership
p737
F0.0
sVproduce
p738
F0.00032897508269744266
sVdesigned
p739
F0.000268267625277445
sVdate
p740
F0.00016448754134872133
sVsuck
p741
F0.0008224377067436066
sVrasagiline
p742
F0.0
sVrevealed
p743
F0.000268267625277445
sVmao
p744
F0.0
sVstress
p745
F0.000493462624046164
sVnatural
p746
F0.0006579501653948853
sVremember
p747
F0.00010919093085429232
sVwhenever
p748
F0.00016448754134872133
sV6th
p749
F0.000268267625277445
sVsclerosis
p750
F0.000268267625277445
sVst
p751
F0.0
sVpreventives
p752
F0.0
sVswitch
p753
F0.00016448754134872133
sVones
p754
F0.00010378008392872366
sVperphenazine
p755
F0.0
sVquantifiable
p756
F0.0
sVsa
p757
F0.000268267625277445
sVtalk
p758
F0.00020756016785744731
sVsciencedirect
p759
F0.0
sVindeed
p760
F0.00010378008392872366
sVyears
p761
F0.0006070745741999766
sVbrain
p762
F0.002075601678574473
sVcompulsivepsilocybinpsychedelic
p763
F0.0
sVpediazole
p764
F0.0
sVcold
p765
F0.00020756016785744731
sVstill
p766
F0.0
sVbirds
p767
F0.00016448754134872133
sVgroup
p768
F0.000728489489039972
sVthank
p769
F0.00041512033571489463
sVinteresting
p770
F6.0707457419997665e-05
sVmidazolam
p771
F0.0
sVideation
p772
F0.0
sVforms
p773
F0.000268267625277445
sVwindow
p774
F0.00012141491483999533
sVpolicy
p775
F0.00107307050110978
sVmain
p776
F2.729773271357308e-05
sVtoxin
p777
F0.0
sVdobutrex
p778
F0.0
sVnon
p779
F0.00016378639628143848
sVeryped
p780
F0.0
sVazilect
p781
F0.0
sVaghajanian
p782
F0.0
sV20behaviour
p783
F0.0
sVinsomnia
p784
F0.0
sVregarding
p785
F0.00016448754134872133
sVcafergot
p786
F0.0
sVlamisil
p787
F0.0
sVqualified
p788
F0.0013413381263872248
sVhalf
p789
F2.729773271357308e-05
sVkilled
p790
F0.00010378008392872366
sVoutweigh
p791
F0.0
sVanxietyobsessive
p792
F0.0
sVterm
p793
F0.00020756016785744731
sVname
p794
F8.189319814071924e-05
sV_____________________________________________________
p795
F0.0
sVprophylaxis
p796
F0.0
sVdidn
p797
F0.0004640614561307424
sVwellness
p798
F0.0
sVlast
p799
F0.00010919093085429232
sVen
p800
F0.0006579501653948853
sVsignificantly
p801
F0.0
sVnebupent
p802
F0.0
sVejaculation
p803
F0.0
sVyeah
p804
F0.00032897508269744266
sVindianapolis
p805
F0.0
sVbreakthrough
p806
F0.0
sVyear
p807
F0.00030027505984930387
sVet
p808
F0.0026826762527744495
sVdoxazosin
p809
F0.0
sVpills
p810
F0.00053653525055489
sVplans
p811
F0.000268267625277445
sVcanada
p812
F0.0
sVmedications
p813
F0.0
sVmelperone
p814
F0.0
sV3rd
p815
F0.00016448754134872133
sVfactors
p816
F0.00053653525055489
sVmevacor
p817
F0.0
sVgerstein
p818
F0.0
sVlooking
p819
F0.0
sVtrauma
p820
F0.0
sVreceiving
p821
F0.0026826762527744495
sVcorrect
p822
F0.00032897508269744266
sVhcl
p823
F0.0
sVmillion
p824
F0.00053653525055489
sVmechanisms
p825
F0.0
sVquite
p826
F0.00010919093085429232
sVterbinafine
p827
F0.0
sVontario
p828
F0.0
sVcalifornia
p829
F0.0
sVbesides
p830
F0.00016448754134872133
sVclozaril
p831
F0.0
sVorg
p832
F0.005097084880271455
sVcough
p833
F0.00010378008392872366
sVcare
p834
F0.0013159003307897706
sVtraining
p835
F0.000493462624046164
sVcouldn
p836
F0.000182122372259993
sVlanguage
p837
F0.00010378008392872366
sVaralen
p838
F0.0
sVcalories
p839
F0.000268267625277445
sV10mg
p840
F0.0
sVthing
p841
F0.00016378639628143848
sVsteroidal
p842
F0.0
sVrifadin
p843
F0.0
sVchildhood
p844
F0.0
sVfrequent
p845
F0.00107307050110978
sVfirst
p846
F0.0004094659907035962
sVblind
p847
F0.0016448754134872133
sVjurnal
p848
F0.0
sVnutritional
p849
F0.0
sVspecifically
p850
F0.0
sVsounds
p851
F0.00032897508269744266
sVmillions
p852
F0.000268267625277445
sVfmri
p853
F0.0
sVcity
p854
F0.00010378008392872366
sVlittle
p855
F0.0
sVdistrict
p856
F0.0016096057516646698
sVcarbonate
p857
F0.0
sVplastic
p858
F0.00107307050110978
sVanyone
p859
F0.00012141491483999533
sVpsychotic
p860
F0.00053653525055489
sV2
p861
F0.00030027505984930387
sVwhite
p862
F6.0707457419997665e-05
sVfriend
p863
F0.00010919093085429232
sVgives
p864
F6.0707457419997665e-05
sVreleaser
p865
F0.0
sVritonavir
p866
F0.0
sVhuh
p867
F0.00016448754134872133
sVmassages
p868
F0.0
sVnifedical
p869
F0.0
sVdisassociation
p870
F0.0
sVcopy
p871
F0.00010378008392872366
sVsubbed
p872
F0.0
sV10
p873
F8.189319814071924e-05
sVtelevision
p874
F0.00053653525055489
sV12
p875
F2.729773271357308e-05
sV15
p876
F2.729773271357308e-05
sV14
p877
F0.00031134025178617097
sVfwiw
p878
F0.0
sVrequire
p879
F0.0008048028758323349
sVmutilation
p880
F0.0
sVfuture
p881
F6.0707457419997665e-05
sVterrance
p882
F0.0
sVnewtoxnet
p883
F0.0
sVnifedipine
p884
F0.0
sVlick
p885
F0.00107307050110978
sVsan
p886
F0.0
sVsam
p887
F0.0
sVremained
p888
F0.0
sVpro
p889
F0.0
sVcymbalta
p890
F0.0
sVturned
p891
F2.729773271357308e-05
sVlocations
p892
F0.000268267625277445
sVsad
p893
F0.00010378008392872366
sVssris
p894
F0.0
sVsay
p895
F0.00010919093085429232
sVtylenol
p896
F0.0
sVallen
p897
F0.0
sVsaw
p898
F0.00010378008392872366
sVisoniazid
p899
F0.0
sVadvil
p900
F0.0
sVideas
p901
F0.0
sVlevofloxacin
p902
F0.0
sVgoodman
p903
F0.0
sVpotential
p904
F0.00107307050110978
sVonline
p905
F0.00032897508269744266
sVperformance
p906
F0.00010378008392872366
sVluvox
p907
F0.0
sVchannel
p908
F0.00032897508269744266
sVmesylate
p909
F0.0
sVsure
p910
F0.000182122372259993
sVpain
p911
F0.0006226805035723419
sVmethadone
p912
F0.0
sVbotulinum
p913
F0.0
sVnormal
p914
F0.00020756016785744731
sVprice
p915
F0.00010378008392872366
sVknew
p916
F0.00020756016785744731
sVbeta
p917
F0.000268267625277445
sVtract
p918
F0.0
sVfreshman
p919
F0.00053653525055489
sVespecially
p920
F0.0004249522019399836
sVconsidered
p921
F0.000493462624046164
sVlater
p922
F0.00020756016785744731
sVdrive
p923
F0.00016448754134872133
sVcomorbidity
p924
F0.0
sVprofessional
p925
F0.00016448754134872133
sVsigma
p926
F0.0
sVquantity
p927
F0.0
sVwebmd
p928
F0.0
sVshot
p929
F6.0707457419997665e-05
sVshow
p930
F8.189319814071924e-05
sVginseng
p931
F0.0
sVelevate
p932
F0.0
sVtherapist
p933
F0.00107307050110978
sVtiredness
p934
F0.0
sVthreshold
p935
F0.0
sVnlm
p936
F0.0
sVwoolen
p937
F0.0
sVenough
p938
F0.0
sVgoing
p939
F0.0
sVblack
p940
F6.0707457419997665e-05
sVsertraline
p941
F0.0
sVblinds
p942
F0.0
sVwool
p943
F0.00107307050110978
sVsensate
p944
F0.0
sVtruly
p945
F0.00016448754134872133
sVaffecting
p946
F0.0
sVcannot
p947
F0.000182122372259993
sVoutlet
p948
F0.0
sVbromocriptine
p949
F0.0
sVconjunction
p950
F0.0
sVrequip
p951
F0.0
sVuneven
p952
F0.0
sVsynapse
p953
F0.0
sVresource
p954
F0.000268267625277445
sVparasitic
p955
F0.0
sVmorning
p956
F0.00032897508269744266
sVpriest
p957
F0.000268267625277445
sVerythromycin
p958
F0.0
sVcardizem
p959
F0.0
sVvision
p960
F0.0
sVwiki
p961
F0.0
sVphysically
p962
F0.000268267625277445
sVspore
p963
F0.0
sVblurred
p964
F0.000268267625277445
sVelected
p965
F0.000268267625277445
sVsurgery
p966
F0.00053653525055489
sVcalan
p967
F0.0
sVways
p968
F0.000182122372259993
sVreview
p969
F0.0
sVwhippet
p970
F0.0
sVinhibitors
p971
F0.0
sV3
p972
F0.0004856596593599813
sVherbal
p973
F0.00107307050110978
sVreading
p974
F6.0707457419997665e-05
sV24
p975
F0.00010378008392872366
sVnotice
p976
F6.0707457419997665e-05
sVcaab
p977
F0.0
sVconcentrate
p978
F0.000268267625277445
sVvenlafaxine
p979
F0.0
sVarticle
p980
F0.0016604813428595785
sVcome
p981
F5.459546542714616e-05
sVreaction
p982
F0.00032897508269744266
sVdates
p983
F0.00016448754134872133
sVtopamax
p984
F0.0
sVmany
p985
F0.0
sVaccording
p986
F0.00012141491483999533
sVcalled
p987
F0.0003035372870999883
sVgrooming
p988
F0.0
sVexpression
p989
F0.00010378008392872366
sVamong
p990
F0.00016448754134872133
sVperiod
p991
F0.000182122372259993
sVpop
p992
F0.000493462624046164
sVsatisfaction
p993
F0.000268267625277445
sVquinine
p994
F0.0
sVlearning
p995
F0.0006579501653948853
sVapproval
p996
F0.0
sVassociated
p997
F0.000268267625277445
sVboat
p998
F0.000268267625277445
sVturkey
p999
F0.00053653525055489
sVbetter
p1000
F0.00038216825799002307
sVwest
p1001
F0.000268267625277445
sVinformed
p1002
F0.000268267625277445
sValtace
p1003
F0.0
sVcombined
p1004
F0.000986925248092328
sVjudging
p1005
F0.0
sVdirection
p1006
F2.729773271357308e-05
sVpioglitazone
p1007
F0.0
sVcoughing
p1008
F0.000268267625277445
sVformed
p1009
F0.00016448754134872133
sVperindopril
p1010
F0.0
sVibutilide
p1011
F0.0
sVpsychotherapy
p1012
F0.0
sVcareful
p1013
F0.00016448754134872133
sVspirit
p1014
F0.00010378008392872366
sVsound
p1015
F6.0707457419997665e-05
sVpremature
p1016
F0.0024144086274970047
sVrefractory
p1017
F0.0
sVtrich
p1018
F0.0
sVongoing
p1019
F0.0
sVpolicies
p1020
F0.0
sVpromising
p1021
F0.000268267625277445
sVsituation
p1022
F0.00032897508269744266
sVive
p1023
F0.0
sVprevalence
p1024
F0.0
sVside_effect
p1025
F0.0
sVmiddle
p1026
F0.00012141491483999533
sVsomeone
p1027
F0.0
sVpurportedly
p1028
F0.0
sVimitrex
p1029
F0.0
sVeveryday
p1030
F0.000268267625277445
sVworry
p1031
F0.00012141491483999533
sVupregulation
p1032
F0.0
sVsedating
p1033
F0.0
sVdifferent
p1034
F0.000728489489039972
sVdevelop
p1035
F0.0006579501653948853
sVcombination
p1036
F0.00020756016785744731
sVtrilafon
p1037
F0.0
sVrelaxant
p1038
F0.0
sVhtml
p1039
F0.0016096057516646698
sVshit
p1040
F0.000493462624046164
sVagitated
p1041
F0.0
sVphysical
p1042
F0.0
sVinvestigated
p1043
F0.0
sVsickness
p1044
F0.000268267625277445
sVdriven
p1045
F0.00016448754134872133
sVrunning
p1046
F0.0
sVchanging
p1047
F0.00020756016785744731
sVtotally
p1048
F6.0707457419997665e-05
sVbehaviorist
p1049
F0.0
sVtreximet
p1050
F0.0
sVcharges
p1051
F0.00016448754134872133
sVknow
p1052
F0.0005186569215578885
sVsevere
p1053
F0.00032897508269744266
sVwithout
p1054
F0.0
sVzestril
p1055
F0.0
sVrelief
p1056
F0.0
sVfurazolidone
p1057
F0.0
sVcialis
p1058
F0.0
sVnah
p1059
F0.000268267625277445
sVresearchers
p1060
F0.0
sVcelecoxib
p1061
F0.0
sVsummer
p1062
F0.00010378008392872366
sVescitalopram
p1063
F0.0
sVbenzo
p1064
F0.0
sVmoney
p1065
F0.00016448754134872133
sVergot
p1066
F0.0
sVinflammatory
p1067
F0.0
sVtouch
p1068
F6.0707457419997665e-05
sVbehavioural
p1069
F0.0
sVguys
p1070
F0.0008048028758323349
sVhalfway
p1071
F0.0008048028758323349
sVangiotensin
p1072
F0.0
sVthinking
p1073
F0.0006226805035723419
sVseems
p1074
F8.189319814071924e-05
sVexcept
p1075
F6.0707457419997665e-05
sVauthorsjames
p1076
F0.0
sVlets
p1077
F6.0707457419997665e-05
sV4
p1078
F0.00016378639628143848
sVgrip
p1079
F6.0707457419997665e-05
sVaround
p1080
F8.189319814071924e-05
sVread
p1081
F0.000364244744519986
sVindocin
p1082
F0.0
sVbuspirone
p1083
F0.0
sVinhibition
p1084
F0.0
sVamp
p1085
F0.002796288202928263
sVaccepted
p1086
F0.00016448754134872133
sVtegretol
p1087
F0.0
sV60
p1088
F0.000493462624046164
sVstranger
p1089
F0.000268267625277445
sVpounds
p1090
F0.00016448754134872133
sV20animal
p1091
F0.0
sVserves
p1092
F0.0
sVbenefit
p1093
F0.00053653525055489
sVmoreno
p1094
F0.0
sVeither
p1095
F0.0002456795944221577
sVneurologic
p1096
F0.0
sVnice
p1097
F0.0
sVreduced
p1098
F0.0008048028758323349
sVjews
p1099
F0.0
sVobsessions
p1100
F0.0
sVparnate
p1101
F0.0
sVquentiapine
p1102
F0.0
sVibuprofen
p1103
F0.0
sVduration
p1104
F0.0
sVthinks
p1105
F0.00010378008392872366
sVreasons
p1106
F0.00016448754134872133
sVprovided
p1107
F0.000493462624046164
sVmood
p1108
F0.0008224377067436066
sVneosar
p1109
F0.0
sVthroat
p1110
F6.0707457419997665e-05
sVtoxnet
p1111
F0.0
sVdeficit
p1112
F0.0
sVprovider
p1113
F0.0
sVhappened
p1114
F0.00024282982967999066
sVmaoi
p1115
F0.0
sVdoggy
p1116
F0.000268267625277445
sVquitting
p1117
F0.0
sVscientific
p1118
F0.00053653525055489
sVseconds
p1119
F0.00032897508269744266
sVmultaq
p1120
F0.0
sVzopiclone
p1121
F0.0
sVstone
p1122
F0.00010378008392872366
sVok
p1123
F0.00010378008392872366
sVace
p1124
F0.000268267625277445
sVoh
p1125
F0.00032897508269744266
sVanticonvulsants
p1126
F0.0
sVaceon
p1127
F0.0
sVpractical
p1128
F0.0
sVbenzos
p1129
F0.0
sV75mg
p1130
F0.0
sVmethysergide
p1131
F0.0
sVact
p1132
F6.0707457419997665e-05
sVlasting
p1133
F0.00053653525055489
sVop
p1134
F0.000268267625277445
sVfineberg
p1135
F0.0
sVcommunication
p1136
F0.0
sVcyclophosphamide
p1137
F0.0
sVosmond
p1138
F0.0
sVdetermine
p1139
F0.000268267625277445
sVprazosin
p1140
F0.0
sVcorvert
p1141
F0.0
sV3tfr90
p1142
F0.0
sVomega
p1143
F0.0
sVhey
p1144
F0.00016448754134872133
sVlol
p1145
F0.0008048028758323349
sVstrict
p1146
F0.000268267625277445
sVdetectable
p1147
F0.0
sVlow
p1148
F0.000182122372259993
sVlot
p1149
F0.0
sVenergy
p1150
F0.000268267625277445
sVallergic
p1151
F0.000268267625277445
sVcomplete
p1152
F0.000364244744519986
sVended
p1153
F0.00016448754134872133
sVelimination
p1154
F0.0
sVe
p1155
F0.0002456795944221577
sVtrying
p1156
F0.0004856596593599813
sVfaster
p1157
F0.0018680415107170257
sVoctober
p1158
F0.0
sVrage
p1159
F0.000268267625277445
sVnadolol
p1160
F0.0
sVvhc
p1161
F0.0
sVdetailed
p1162
F0.0008048028758323349
sVcartia
p1163
F0.0
sVtheophylline
p1164
F0.0
sVpinpointed
p1165
F0.0
sVssri
p1166
F0.0
sVdivalproex
p1167
F0.0
sVdescribe
p1168
F0.00016448754134872133
sVal
p1169
F0.0026826762527744495
sVdiffusers
p1170
F0.0
sVgeneral
p1171
F0.0
sVcbt
p1172
F0.0
sVlifetime
p1173
F0.00016448754134872133
sVmelatonin
p1174
F0.0
sVfilm
p1175
F0.0023028255788820986
sVgist
p1176
F0.000268267625277445
sV3tevvy
p1177
F0.0
sVrubber
p1178
F0.00107307050110978
sVtight
p1179
F0.00010378008392872366
sVvalid
p1180
F0.00016448754134872133
sV5
p1181
F0.00021838186170858464
sVpsychodynamic
p1182
F0.0
sVregardless
p1183
F0.000268267625277445
sVxanax
p1184
F0.0
sVtrioxide
p1185
F0.0
sVincludes
p1186
F0.00031134025178617097
sVpsychiatry
p1187
F0.0
sVimportant
p1188
F0.000493462624046164
sVincluded
p1189
F0.00016448754134872133
sVorap
p1190
F0.0
sVwife
p1191
F0.00016448754134872133
sVtricks
p1192
F0.0
sVingestion
p1193
F0.0
sVbehavioral
p1194
F0.0
sVdirectory
p1195
F0.0016096057516646698
sVoral
p1196
F0.00053653525055489
sVoriginal
p1197
F6.0707457419997665e-05
sVcatapres
p1198
F0.0
sVconsider
p1199
F0.0004249522019399836
sVlack
p1200
F6.0707457419997665e-05
sVdollar
p1201
F0.000268267625277445
sVmonth
p1202
F0.0003035372870999883
sVthoughtful
p1203
F0.000268267625277445
sVfollow
p1204
F6.0707457419997665e-05
sVexpressions
p1205
F0.0
sVcauses
p1206
F0.00016448754134872133
sVreluctant
p1207
F0.0
sVniacin
p1208
F0.0
sVapartment
p1209
F0.000268267625277445
sVreferring
p1210
F0.00016448754134872133
sVvs
p1211
F0.000268267625277445
sVhiring
p1212
F0.000268267625277445
sVinvestigational
p1213
F0.0
sVritualistic
p1214
F0.0
sVprograf
p1215
F0.0
sVhealth
p1216
F0.00053653525055489
sV1080p
p1217
F0.0
sVnorm
p1218
F0.0
sVactivities
p1219
F0.0
sVappointment
p1220
F0.00053653525055489
sVworse
p1221
F0.000182122372259993
sVreturning
p1222
F0.00016448754134872133
sVfar
p1223
F0.00016378639628143848
sVfaq
p1224
F0.0
sVinduce
p1225
F0.0
sVprolixin
p1226
F0.0
sVpsychologist
p1227
F0.0
sVworst
p1228
F0.0006579501653948853
sVzyban
p1229
F0.0
sVawful
p1230
F0.00010378008392872366
sVdifference
p1231
F0.00016448754134872133
sVcondition
p1232
F0.00041512033571489463
sVtreating
p1233
F0.000268267625277445
sVpbs
p1234
F0.0
sVdrugged
p1235
F0.0
sVlist
p1236
F0.0008302406714297893
sVterazosin
p1237
F0.0
sVlarge
p1238
F0.0
sVadjust
p1239
F0.000268267625277445
sVsmall
p1240
F0.00013648866356786538
sVantibiotic
p1241
F0.0
sVd3
p1242
F0.0
sVpast
p1243
F0.00012141491483999533
sVorgasm
p1244
F0.0008048028758323349
sVzero
p1245
F0.00032897508269744266
sVperspective
p1246
F0.0
sVkarno
p1247
F0.0
sVvoltaren
p1248
F0.0
sVdeeply
p1249
F0.00016448754134872133
sVwiki_early_ejaculation
p1250
F0.0
sVabs
p1251
F0.0008048028758323349
sVgi
p1252
F0.0
sVscientists
p1253
F0.000268267625277445
sVquinapril
p1254
F0.0
sVpublic
p1255
F0.00031134025178617097
sVmultitude
p1256
F0.0
sVedited
p1257
F0.0008048028758323349
sVfull
p1258
F0.0
sVmalaria
p1259
F0.00053653525055489
sVanswers
p1260
F0.000493462624046164
sVvomiting
p1261
F0.00053653525055489
sVbehaviour
p1262
F0.00032897508269744266
sVshouldn
p1263
F0.00020756016785744731
sVselective
p1264
F0.0
sVstrong
p1265
F0.0005189004196436182
sV3daps
p1266
F0.0
sVsearch
p1267
F0.00020756016785744731
sVminipress
p1268
F0.0
sVloadlinq
p1269
F0.0
sVexperimenting
p1270
F0.0
sVexperience
p1271
F0.0013159003307897706
sVpentamidine
p1272
F0.0
sVlos
p1273
F0.0
sVamount
p1274
F0.0008302406714297893
sVcatvets
p1275
F0.0
sVarent
p1276
F0.000268267625277445
sVsocial
p1277
F0.00012141491483999533
sVaction
p1278
F0.00016448754134872133
sVoptions
p1279
F0.0006579501653948853
sVtrainer
p1280
F0.00053653525055489
sVvia
p1281
F0.000268267625277445
sVfamily
p1282
F0.00020756016785744731
sVput
p1283
F5.459546542714616e-05
sVseroquel
p1284
F0.0
sVeldepryl
p1285
F0.0
sVvanggard
p1286
F0.0
sVprinivil
p1287
F0.0
sVbaby
p1288
F0.00032897508269744266
sVcharge
p1289
F0.00016448754134872133
sVanger
p1290
F0.00016448754134872133
sV6
p1291
F0.00010919093085429232
sVtaken
p1292
F0.00016378639628143848
sVlowering
p1293
F0.0
sVdoor
p1294
F6.0707457419997665e-05
sVdosages
p1295
F0.0
sVsubstances
p1296
F0.0016096057516646698
sVtardive
p1297
F0.0
sVcorrected
p1298
F0.000268267625277445
sVdapoxetine
p1299
F0.0
sVcontrolling
p1300
F0.0
sVbasically
p1301
F0.000268267625277445
sVparticular
p1302
F0.0003035372870999883
sVknown
p1303
F0.00024282982967999066
sVglad
p1304
F6.0707457419997665e-05
sVnone
p1305
F0.00010378008392872366
sVhour
p1306
F0.00031134025178617097
sVrecall
p1307
F0.000268267625277445
sVspecializes
p1308
F0.0
sVamiodarone
p1309
F0.0
sV2c948
p1310
F0.0
sVparagraph
p1311
F0.0
sVdel
p1312
F0.000268267625277445
sVmale
p1313
F0.00020756016785744731
sVspontaneous
p1314
F0.0
sVhistory
p1315
F0.00010378008392872366
sVantagonists
p1316
F0.0
sVscan
p1317
F0.000493462624046164
sVnumbers
p1318
F0.00016448754134872133
sVarise
p1319
F0.0
sVspecies
p1320
F0.0
sVstring
p1321
F0.00024282982967999066
sVinformation
p1322
F0.00016448754134872133
sVneeds
p1323
F0.0
sVcourt
p1324
F0.00016448754134872133
sVliver
p1325
F0.00016448754134872133
sVdesperation
p1326
F0.0
sVrather
p1327
F6.0707457419997665e-05
sVbreaking
p1328
F6.0707457419997665e-05
sVamerican
p1329
F0.0
sVoccasionally
p1330
F0.00010378008392872366
sVnoninvasive
p1331
F0.0
sVdiffuser
p1332
F0.0
sVokay
p1333
F0.00016448754134872133
sVtried
p1334
F0.002386941930360644
sVadvice
p1335
F0.00214614100221956
sVderived
p1336
F0.0
sVtreatments
p1337
F0.0
sVbrintellix
p1338
F0.0
sVtries
p1339
F0.00010378008392872366
sVblood
p1340
F0.00031134025178617097
sVnumb
p1341
F0.0
sVritalin
p1342
F0.0
sVshort
p1343
F2.729773271357308e-05
sVsupervision
p1344
F0.0
sVego
p1345
F0.0
sVnsaids
p1346
F0.0
sVpleasure
p1347
F0.00010378008392872366
sVretrieval
p1348
F0.0
sV1305
p1349
F0.0
sVhelp
p1350
F0.0007643365159800461
sVdisables
p1351
F0.000268267625277445
sVdeveloped
p1352
F0.0
sVdelavirdine
p1353
F0.0
sVtrade
p1354
F0.00020756016785744731
sVtelling
p1355
F0.000182122372259993
sVpaper
p1356
F0.0017642614267883022
sVsigns
p1357
F0.0011415809232159602
sVhell
p1358
F0.00010378008392872366
sVlisinopril
p1359
F0.0
sVdiskets
p1360
F0.0
sV25
p1361
F0.00020756016785744731
sVstyle
p1362
F6.0707457419997665e-05
sV27
p1363
F0.00010378008392872366
sVpray
p1364
F0.00010378008392872366
sVepileptic
p1365
F0.0
sVactually
p1366
F0.00021838186170858464
sVlate
p1367
F0.000182122372259993
sVharmless
p1368
F0.00016448754134872133
sVhairball
p1369
F0.0
sVsymptoms
p1370
F0.0
sVamitriptyline
p1371
F0.0
sVtravelling
p1372
F0.000268267625277445
sVmight
p1373
F0.0008189319814071924
sVwouldn
p1374
F6.0707457419997665e-05
sVgood
p1375
F0.0
sVsucking
p1376
F0.00107307050110978
sVfood
p1377
F6.0707457419997665e-05
sVtwitches
p1378
F0.0
sVcompound
p1379
F0.0
sVfoot
p1380
F0.00010378008392872366
sVassociation
p1381
F0.0008048028758323349
sVeasily
p1382
F6.0707457419997665e-05
sVcoping
p1383
F0.0
sValways
p1384
F0.0
sVpresented
p1385
F0.00016448754134872133
sVstopped
p1386
F0.00031134025178617097
sVpriligy
p1387
F0.0
sVfound
p1388
F0.00030027505984930387
sVrepeating
p1389
F0.000268267625277445
sVhammering
p1390
F0.000268267625277445
sVcharacterized
p1391
F0.0
sVreactions
p1392
F0.0
sVeveryone
p1393
F0.00010378008392872366
sVmental
p1394
F0.0008048028758323349
sVweight
p1395
F0.0003035372870999883
sVhouse
p1396
F6.0707457419997665e-05
sVfish
p1397
F0.00024282982967999066
sVhard
p1398
F6.0707457419997665e-05
sVreduce
p1399
F0.0006579501653948853
sVidea
p1400
F2.729773271357308e-05
sVfinish
p1401
F0.00010378008392872366
sVdoses
p1402
F0.0
sVscratching
p1403
F0.000268267625277445
sVcolumbia
p1404
F0.0
sVhart
p1405
F0.0
sVinsurance
p1406
F0.000268267625277445
sVzonegran
p1407
F0.0
sValcohol
p1408
F0.00032897508269744266
sVsince
p1409
F0.00035487052527645
sVresearch
p1410
F0.0018778733769421146
sVsafety
p1411
F0.00016448754134872133
sVvliet
p1412
F0.0
sV7
p1413
F6.0707457419997665e-05
sVoffline
p1414
F0.000268267625277445
sVsarotex
p1415
F0.0
sVissue
p1416
F0.00010378008392872366
sVasp
p1417
F0.000268267625277445
sVtimeline
p1418
F0.0
sVguess
p1419
F0.00020756016785744731
sVpleasant
p1420
F0.000268267625277445
sVqualify
p1421
F0.0
sVimaging
p1422
F0.0
sVimagine
p1423
F0.00010378008392872366
sVask
p1424
F8.189319814071924e-05
sVbumped
p1425
F0.00032897508269744266
sVowners
p1426
F0.000268267625277445
sVbenefits
p1427
F0.00053653525055489
sVthread
p1428
F0.000268267625277445
sVneeding
p1429
F0.000268267625277445
sVterrible
p1430
F0.00010378008392872366
sVconducted
p1431
F0.0
sVexpecting
p1432
F0.00010378008392872366
sVunaware
p1433
F0.000268267625277445
sVw
p1434
F0.00020756016785744731
sVxii
p1435
F0.0
sVsnopes
p1436
F0.0
sVsidenote
p1437
F0.0
sVbupropion
p1438
F0.0
sVfeed
p1439
F0.00016448754134872133
sVdont
p1440
F0.00016448754134872133
sVprobability
p1441
F0.0
sVfeel
p1442
F0.0006278478524121807
sVbullies
p1443
F0.0
sVnumber
p1444
F0.00031134025178617097
sVtalked
p1445
F0.00053653525055489
sVdone
p1446
F8.189319814071924e-05
sVdefects
p1447
F0.0
sVpropranolol
p1448
F0.0
sVstory
p1449
F0.00016448754134872133
sVhalcion
p1450
F0.0
sVmulticenter
p1451
F0.0
sVinteract
p1452
F0.0013413381263872248
sVleast
p1453
F0.0
sVregulation
p1454
F0.0
sVstatement
p1455
F0.00032897508269744266
sVseeker
p1456
F0.0
sVheadache
p1457
F0.0008048028758323349
sVshifted
p1458
F0.00010378008392872366
sVmuscles
p1459
F0.0016096057516646698
sVfeels
p1460
F0.0008224377067436066
sVoption
p1461
F0.00053653525055489
sVsynthetic
p1462
F0.00107307050110978
sVrelieved
p1463
F0.0
sVimmediate
p1464
F0.00016448754134872133
sVserotonin
p1465
F0.0
sVpart
p1466
F0.0004249522019399836
sVdoctors
p1467
F0.0008048028758323349
sVbelieve
p1468
F0.00012141491483999533
sVcritter
p1469
F0.0
sVneuropathic
p1470
F0.0
sVkind
p1471
F0.0
sVgrew
p1472
F0.000268267625277445
sVgotten
p1473
F0.000268267625277445
sVsupposed
p1474
F0.00010378008392872366
sVazithromycin
p1475
F0.0
sVtofranil
p1476
F0.0
sValike
p1477
F0.00016448754134872133
sVconcentration
p1478
F0.00032897508269744266
sVantagonizes
p1479
F0.0
sVdepending
p1480
F0.000268267625277445
sVodd
p1481
F0.00012141491483999533
sVself
p1482
F0.00010919093085429232
sVsorenson
p1483
F0.0
sVdisopyramide
p1484
F0.0
sVnaproxen
p1485
F0.0
sVfinding
p1486
F0.00012141491483999533
sVeffexor
p1487
F0.0
sVdraposil
p1488
F0.0
sVplay
p1489
F0.00020756016785744731
sVexperienced
p1490
F0.0008048028758323349
sVretired
p1491
F0.00053653525055489
sVinconvenience
p1492
F0.0
sVnasal
p1493
F0.0
sVevaluation
p1494
F0.0
sVyawn
p1495
F0.0
sVplan
p1496
F0.00031134025178617097
sVeaten
p1497
F0.00016448754134872133
sVnothing
p1498
F2.729773271357308e-05
sValpha
p1499
F0.000268267625277445
sVflector
p1500
F0.0
sVextremely
p1501
F0.0006579501653948853
sVcause
p1502
F0.0002456795944221577
sVgrams
p1503
F0.0
sVsometimes
p1504
F0.0003035372870999883
sVfianc
p1505
F0.00016448754134872133
sVtacrolimus
p1506
F0.0
sVkingsimpsonetalclomipraminetrial2000
p1507
F0.0
sVnonspecific
p1508
F0.0
sVposses
p1509
F0.0
sVindomethacin
p1510
F0.0
sVgaba
p1511
F0.0
sVugh
p1512
F0.0
sVparticularly
p1513
F0.0006579501653948853
sVphenomenon
p1514
F0.0
sVgold
p1515
F0.00041512033571489463
sVcrybaby
p1516
F0.0
sVcdi
p1517
F0.0
sVtranquilizer
p1518
F0.0
sVbusinesses
p1519
F0.0
sVnaomi
p1520
F0.0
sVfine
p1521
F0.0
sVfind
p1522
F0.0
sVimpact
p1523
F0.0
sVmusic
p1524
F2.729773271357308e-05
sVwrites
p1525
F0.000268267625277445
sVaren
p1526
F0.00010919093085429232
sVfailed
p1527
F0.00032897508269744266
sVviagra
p1528
F0.000268267625277445
sVdysfunctional
p1529
F0.0
sV8
p1530
F2.729773271357308e-05
sVaappublications
p1531
F0.0
sVhit
p1532
F6.0707457419997665e-05
sVhiv
p1533
F0.0
sVsprefix
p1534
F0.0
sVremedy
p1535
F0.0
sVb
p1536
F6.0707457419997665e-05
sVbreast
p1537
F0.00053653525055489
sVreply
p1538
F0.00032897508269744266
sVtarget
p1539
F0.00053653525055489
sVexhibiting
p1540
F0.0
sVkeyword
p1541
F0.00053653525055489
sVmedicines
p1542
F0.0
sVcardene
p1543
F0.0
sV20science
p1544
F0.0
sVprescribing
p1545
F0.0
sVcommon
p1546
F0.0006226805035723419
sVactivity
p1547
F0.00053653525055489
sVx
p1548
F0.00053653525055489
sVdizziness
p1549
F0.000268267625277445
sVwrote
p1550
F0.00016448754134872133
sVisuprel
p1551
F0.0
sV2000mg
p1552
F0.0
sVpotent
p1553
F0.0
sVsex
p1554
F0.0026318006615795413
sVsee
p1555
F0.00030027505984930387
sVindividual
p1556
F0.0006226805035723419
sVticlopidine
p1557
F0.0
sVsandimmune
p1558
F0.0
sVprobable
p1559
F0.0
sVfontana
p1560
F0.0
sVmovie
p1561
F0.000986925248092328
sVcurrently
p1562
F0.00031134025178617097
sVcase
p1563
F0.0004249522019399836
sVwon
p1564
F8.189319814071924e-05
sVvarious
p1565
F0.00010378008392872366
sVprobably
p1566
F0.000364244744519986
sVnope
p1567
F0.000268267625277445
sVmonsters
p1568
F0.000268267625277445
sVavailable
p1569
F0.00010378008392872366
sVseparationanxiety
p1570
F0.0
sVrecently
p1571
F6.0707457419997665e-05
sVcreating
p1572
F0.00010378008392872366
sVattention
p1573
F6.0707457419997665e-05
sVspray
p1574
F0.00053653525055489
sVclarithromycin
p1575
F0.0
sVac
p1576
F0.0
sVpissed
p1577
F0.000268267625277445
sVc
p1578
F5.459546542714616e-05
sVplendil
p1579
F0.0
sVprescription
p1580
F0.0
sVmethadose
p1581
F0.0
sVdolophine
p1582
F0.0
sVmcdonald
p1583
F0.0
sVbecame
p1584
F0.0008224377067436066
sValot
p1585
F0.000268267625277445
sVpdf
p1586
F0.0026826762527744495
sVondansetron
p1587
F0.0
sVprotector
p1588
F0.0
sVwhole
p1589
F0.00010378008392872366
sVexperimental
p1590
F0.0
sVreside
p1591
F0.000268267625277445
sVsloth
p1592
F0.0
sVliked
p1593
F0.00016448754134872133
sVdistress
p1594
F0.000268267625277445
sVpoint
p1595
F8.189319814071924e-05
sVsimple
p1596
F2.729773271357308e-05
sVgolding
p1597
F0.0
sVothers
p1598
F0.0003035372870999883
sVcommunity
p1599
F0.0
sVcoincidence
p1600
F0.000268267625277445
sV100mg
p1601
F0.0
sVagents
p1602
F0.000268267625277445
sVcontemporaneous
p1603
F0.0
sVlithium
p1604
F0.0
sVheadaches
p1605
F0.0
sVensures
p1606
F0.0
sVcreativity
p1607
F0.0
sVdue
p1608
F0.000493462624046164
sVhitting
p1609
F0.00010378008392872366
sVreciprocate
p1610
F0.0
sVmaintenance
p1611
F0.0
sVpe
p1612
F0.0
sVintrusive
p1613
F0.0018778733769421146
sVmoderntantra
p1614
F0.0
sVtreatment
p1615
F0.00858456400887824
sVjesuit
p1616
F0.0
sVlived
p1617
F0.00032897508269744266
sVdroperidol
p1618
F0.0
sVelse
p1619
F2.729773271357308e-05
sVamlodipine
p1620
F0.0
sVlives
p1621
F0.00010378008392872366
sVdisruptive
p1622
F0.0
sVsystematic
p1623
F0.000268267625277445
sVlamotrigine
p1624
F0.0
sVbestsellers
p1625
F0.0
sVhandling
p1626
F0.00016448754134872133
sVlook
p1627
F0.00010919093085429232
sVholocaust
p1628
F0.0
sVhealthy
p1629
F0.00010378008392872366
sVbehavior
p1630
F0.004276676075066755
sVfun
p1631
F0.00024282982967999066
sVguide
p1632
F0.000268267625277445
sVfluextine
p1633
F0.0
sVreal
p1634
F0.0
sVpound
p1635
F0.00016448754134872133
sVhoping
p1636
F0.000268267625277445
sVhydrocodone
p1637
F0.0
sVturkeying
p1638
F0.0
sVincreased
p1639
F0.0013413381263872248
sVbaseline
p1640
F0.000268267625277445
sVanymore
p1641
F0.00031134025178617097
sVmigraine
p1642
F0.0
sVtells
p1643
F0.00010378008392872366
sVvirtually
p1644
F0.0
sVwidely
p1645
F0.0
sVmodification
p1646
F0.0
sVdoubleday
p1647
F0.0
sVhigher
p1648
F0.00012141491483999533
sVmavik
p1649
F0.0
sVliterature
p1650
F0.00053653525055489
sVassignment
p1651
F0.000268267625277445
sVoverweight
p1652
F0.0
sVanzemet
p1653
F0.0
sV000
p1654
F0.000268267625277445
sVuses
p1655
F0.00010378008392872366
sVpurpose
p1656
F6.0707457419997665e-05
sVearly
p1657
F0.0003035372870999883
sVsafe
p1658
F0.00020756016785744731
sVtask
p1659
F0.00010378008392872366
sVolder
p1660
F6.0707457419997665e-05
sVanxious
p1661
F0.0016096057516646698
sVcheek
p1662
F0.000268267625277445
sVspent
p1663
F0.00016448754134872133
sVdouble
p1664
F0.0016448754134872133
sVperson
p1665
F0.00012141491483999533
sVy
p1666
F6.0707457419997665e-05
sVolanzapine
p1667
F0.0
sVspend
p1668
F0.00010378008392872366
sVprevention
p1669
F0.0
sVbrandup
p1670
F0.0
sV1967
p1671
F0.0
sVtolerability
p1672
F0.0
sVbrand_names
p1673
F0.0
sVquestions
p1674
F0.00010378008392872366
sVirritable
p1675
F0.000268267625277445
sVuseful
p1676
F0.000268267625277445
sValternative
p1677
F0.00032897508269744266
sVtapazole
p1678
F0.0
sVanimalbehaviorsociety
p1679
F0.0
sVdissociation
p1680
F0.0
sVtablet
p1681
F0.000268267625277445
sValternate
p1682
F0.00016448754134872133
sVfosinopril
p1683
F0.0
sVsource
p1684
F0.00041512033571489463
sVsedated
p1685
F0.0
sVprocardia
p1686
F0.0
sVinducing
p1687
F0.0
sVtramadol
p1688
F0.0
sVhates
p1689
F0.000268267625277445
sVvendor
p1690
F0.00016448754134872133
sVacute
p1691
F0.0
sVevaluate
p1692
F0.0
sVcouple
p1693
F0.00024282982967999066
sVmatters
p1694
F0.00016448754134872133
sVsuffering
p1695
F0.00010378008392872366
sVmoods
p1696
F0.0
sVhallucinations
p1697
F0.0
sVbit
p1698
F8.189319814071924e-05
sVformal
p1699
F0.000268267625277445
sVmodifications
p1700
F0.0013413381263872248
sVd
p1701
F0.0
sVlipitor
p1702
F0.0
sVhytrin
p1703
F0.0
sVmanifest
p1704
F0.000268267625277445
sVignore
p1705
F0.00010378008392872366
sVzoloft
p1706
F0.0
sVcontinue
p1707
F6.0707457419997665e-05
sVprovoking
p1708
F0.0
sVpopular
p1709
F0.000268267625277445
sVdisorder
p1710
F0.0040240143791616745
sVbetapace
p1711
F0.0
sVgoogle
p1712
F0.00016448754134872133
sVoften
p1713
F0.002386941930360644
sVjibes
p1714
F0.0
sVabsolutely
p1715
F0.00024282982967999066
sVpermitil
p1716
F0.0
sVmagnificent
p1717
F0.0
sVback
p1718
F8.189319814071924e-05
sVpaxil
p1719
F0.0
sVb6
p1720
F0.0
sVdiclofenac
p1721
F0.0
sVoxcarbazepine
p1722
F0.0
sVsight
p1723
F0.00010378008392872366
sVb3
p1724
F0.0
sVinapsine
p1725
F0.0
sVkegel
p1726
F0.0
sVcontacts
p1727
F0.0
sVpet
p1728
F0.004828817254994009
sVnorvir
p1729
F0.0
sVveterinary
p1730
F0.0
sVper
p1731
F0.0006579501653948853
sVinterations
p1732
F0.0
sVeliminate
p1733
F0.0
sVlevaquin
p1734
F0.0
sVisocarboxazid
p1735
F0.0
sVminimal
p1736
F0.0
sVbuspar
p1737
F0.0
sVthyroxine
p1738
F0.0
sVrun
p1739
F2.729773271357308e-05
sVwonders
p1740
F0.0
sVdermatitis
p1741
F0.0
sV300
p1742
F0.00016448754134872133
sVuse
p1743
F0.0005732523869850346
sVzombie
p1744
F0.000268267625277445
sVstep
p1745
F0.00012141491483999533
sVtinker
p1746
F0.0
sVbp
p1747
F0.0
sVpredictability
p1748
F0.0
sVanything
p1749
F0.00019108412899501153
sVstricken
p1750
F0.0
sVinvolving
p1751
F0.00032897508269744266
sVht2a
p1752
F0.0
sVgamma
p1753
F0.0
sVseeing
p1754
F0.00031134025178617097
sVplenty
p1755
F0.00016448754134872133
sVnortriptyline
p1756
F0.0
sVnonsense
p1757
F0.0
sVhallucinatory
p1758
F0.0
sVappropriate
p1759
F0.00053653525055489
sVcrps
p1760
F0.0
sVcalming
p1761
F0.0
sVimpressed
p1762
F0.00016448754134872133
sVstatistics
p1763
F0.000268267625277445
sVmotrin
p1764
F0.0
sVfast
p1765
F6.0707457419997665e-05
sVpharmaceuticals
p1766
F0.0
sVconsultation
p1767
F0.0
sVreduction
p1768
F0.000268267625277445
sVsuit
p1769
F0.00016448754134872133
sVforward
p1770
F0.0
sVsections
p1771
F0.000268267625277445
sVneoral
p1772
F0.0
sVlanoxin
p1773
F0.0
sVrelaxed
p1774
F0.00016448754134872133
sVproperly
p1775
F0.00012141491483999533
sVlink
p1776
F0.000986925248092328
sVhopes
p1777
F0.00016448754134872133
sVtryptophan
p1778
F0.0
sVamateurish
p1779
F0.0
sVconsiderable
p1780
F0.00016448754134872133
sVdirected
p1781
F0.0
sVnmom
p1782
F0.0
sV3tf6ut
p1783
F0.0
sVpaired
p1784
F0.0
sVsimilar
p1785
F0.000364244744519986
sVmedical
p1786
F0.00041512033571489463
sVparoxetine
p1787
F0.0
sVtricyclic
p1788
F0.0
sVconstant
p1789
F0.00016448754134872133
sVadults
p1790
F0.000268267625277445
sV00b4952c5c64501e44000000
p1791
F0.0
sVdoesn
p1792
F0.00030027505984930387
sVimages
p1793
F0.000268267625277445
sVsingle
p1794
F5.459546542714616e-05
sVcure
p1795
F0.000268267625277445
sVchat
p1796
F0.00010378008392872366
sVrimactane
p1797
F0.0
sVreuptake
p1798
F0.0
sVdofetilide
p1799
F0.0
sVpsychoanalysis
p1800
F0.0
sVcotton
p1801
F0.0013413381263872248
sVcalm
p1802
F0.000268267625277445
sVfixing
p1803
F0.000268267625277445
sVanalgesics
p1804
F0.0
sVpreventing
p1805
F0.000268267625277445
sVb12
p1806
F0.0
sVdepartment
p1807
F0.000268267625277445
sVmammoth
p1808
F0.0
sVlimbitrol
p1809
F0.0
sVusers
p1810
F0.000268267625277445
sVproblems
p1811
F0.0003035372870999883
sVhelpful
p1812
F0.0013413381263872248
sVhelping
p1813
F0.00031134025178617097
sVearphones
p1814
F0.0
sVago
p1815
F0.000493462624046164
sVhappier
p1816
F0.000268267625277445
sVage
p1817
F0.00012141491483999533
sVsedative
p1818
F0.0
sVholes
p1819
F0.00010378008392872366
sVwalked
p1820
F0.000268267625277445
sV2002
p1821
F0.004770138699112919
sVcarpet
p1822
F0.000268267625277445
sV2000
p1823
F0.000986925248092328
sVsummit
p1824
F0.0
sV2006
p1825
F0.0013413381263872248
sVlotensin
p1826
F0.0
sV2005
p1827
F0.000268267625277445
sV602p
p1828
F0.0
sVbeers
p1829
F0.00016448754134872133
sV2008
p1830
F0.0
sV2009
p1831
F0.0
sVrequires
p1832
F0.000268267625277445
sVenrichment
p1833
F0.0
sVessay
p1834
F0.000268267625277445
sVgt
p1835
F0.0
sVpartial
p1836
F0.00053653525055489
sVresults
p1837
F0.0037832134510205903
sVgf
p1838
F0.0
sVgang
p1839
F0.000268267625277445
sVedu
p1840
F0.0008048028758323349
sVgo
p1841
F0.0
sVpsycho
p1842
F0.000268267625277445
sVissues
p1843
F0.0006579501653948853
sVseemed
p1844
F6.0707457419997665e-05
sV393to
p1845
F0.0
sVprodrug
p1846
F0.0
sVside_effects
p1847
F0.0
sVyoung
p1848
F2.729773271357308e-05
sVsend
p1849
F0.00012141491483999533
sVselegiline
p1850
F0.0
sVhelps
p1851
F0.0011514127894410493
sVexcluded
p1852
F0.0
sVstable
p1853
F0.000268267625277445
sVinclude
p1854
F0.000493462624046164
sVsent
p1855
F2.729773271357308e-05
sVbloodplasma
p1856
F0.0
sVtorture
p1857
F0.000268267625277445
sVfluoxetine
p1858
F0.0
sVlisted
p1859
F0.000493462624046164
sVconditions
p1860
F0.0013413381263872248
sVwave
p1861
F0.00010378008392872366
sVputting
p1862
F6.0707457419997665e-05
sVissue5
p1863
F0.0
sVissue4
p1864
F0.0
sVnausea
p1865
F0.0
sVmoderate
p1866
F0.00053653525055489
sVmagic
p1867
F0.00016448754134872133
sVtransmission
p1868
F0.0
sVexperiencing
p1869
F0.0
sVcyclosporine
p1870
F0.0
sVtry
p1871
F0.00030027505984930387
sVmethimazole
p1872
F0.0
sVimgur
p1873
F0.0
sVhavent
p1874
F0.0
sVnoted
p1875
F0.000268267625277445
sVramipril
p1876
F0.0
sVsensation
p1877
F0.0
sVwaking
p1878
F0.00032897508269744266
sVvideo
p1879
F0.00016448754134872133
sVuncomfortable
p1880
F0.000268267625277445
sVdownload
p1881
F0.0006579501653948853
sVacid
p1882
F0.00016448754134872133
sVvolume46
p1883
F0.0
sVclick
p1884
F0.00031134025178617097
sVcq10
p1885
F0.0
sVindex
p1886
F0.000268267625277445
sVplays
p1887
F0.00020756016785744731
sVgiving
p1888
F6.0707457419997665e-05
sVchewed
p1889
F0.000268267625277445
sVmarketed
p1890
F0.0
sVlabeled
p1891
F0.000268267625277445
sVpractices
p1892
F0.0
sValprazolam
p1893
F0.0
sVcubensis
p1894
F0.0
sVexercise
p1895
F0.000268267625277445
sVbody
p1896
F5.459546542714616e-05
sVpediatrics
p1897
F0.0
sVdegree
p1898
F0.00016448754134872133
sVprescribe
p1899
F0.00053653525055489
sVnonexistent
p1900
F0.000268267625277445
sVobjects
p1901
F0.00107307050110978
sVlet
p1902
F5.459546542714616e-05
sVhealing
p1903
F0.0
sVseparation
p1904
F0.0
sVmetoprolol
p1905
F0.0
sVsine
p1906
F0.0
sVgreat
p1907
F0.0
sV38
p1908
F0.000268267625277445
sVwithdrawing
p1909
F0.0
sV30
p1910
F0.000364244744519986
sVpacerone
p1911
F0.0
sVadmit
p1912
F0.0
sVsuggests
p1913
F0.00032897508269744266
sVmigranal
p1914
F0.0
sVproducts
p1915
F0.000493462624046164
sVroundtable
p1916
F0.0
sVcontaminants
p1917
F0.0
sVdepressant
p1918
F0.0
sVmakes
p1919
F0.00019108412899501153
sVhonor
p1920
F0.00016448754134872133
sVshowing
p1921
F6.0707457419997665e-05
sVstabilization
p1922
F0.0
sVaddresses
p1923
F0.00016448754134872133
sVvalproic
p1924
F0.0
sVdanger
p1925
F6.0707457419997665e-05
sVshoved
p1926
F0.0
sVoutcomes
p1927
F0.0
sVnames
p1928
F0.00041512033571489463
sVe827
p1929
F0.0
sVpsychopharmacologyinstitute
p1930
F0.0
sVconfidence
p1931
F0.000268267625277445
sVtcas
p1932
F0.0
sVwliw
p1933
F0.0
sVusa
p1934
F0.000268267625277445
sVillegal
p1935
F0.000268267625277445
sVenzyme
p1936
F0.0
sVnext
p1937
F0.00010919093085429232
sVunivasc
p1938
F0.0
sVnimodipine
p1939
F0.0
sVsort
p1940
F2.729773271357308e-05
sVchloroquine
p1941
F0.0
sVindolealkylamine
p1942
F0.0
sVpretty
p1943
F0.0006226805035723419
sVstarted
p1944
F0.0004249522019399836
sVbecomes
p1945
F0.00041512033571489463
sVimpress
p1946
F0.00016448754134872133
sVlovastatin
p1947
F0.0
sVpsilocybin
p1948
F0.0
sVlifestyle
p1949
F0.000268267625277445
sVwomen
p1950
F6.0707457419997665e-05
sVtopic
p1951
F0.00016448754134872133
sVgeodon
p1952
F0.0
sVaugment
p1953
F0.0
sVlocks
p1954
F0.000268267625277445
sVunreal
p1955
F0.0
sVcrossed
p1956
F0.00016448754134872133
sVstabilizer
p1957
F0.0
sVdrill
p1958
F0.0
sVmeet
p1959
F0.00016448754134872133
sVinhibitor
p1960
F0.0
sVdidnt
p1961
F0.000268267625277445
sVinstitute
p1962
F0.0
sVcontrol
p1963
F0.001480387872138492
sVsri
p1964
F0.0
sVlinks
p1965
F0.0008048028758323349
sVprocess
p1966
F0.0006579501653948853
sVrisque
p1967
F0.0
sVhigh
p1968
F0.0
sVeffectively
p1969
F0.0
sVsomething
p1970
F0.0002456795944221577
sVtab
p1971
F0.00016448754134872133
sVrape
p1972
F0.000268267625277445
sVarthrotec
p1973
F0.0
sVsyndrome
p1974
F0.0011514127894410493
sVsix
p1975
F0.00016448754134872133
sV1638
p1976
F0.0
sVdigoxin
p1977
F0.0
sVanimal
p1978
F0.000182122372259993
sVinstead
p1979
F0.00031134025178617097
sVstruggled
p1980
F0.0
sVpanic
p1981
F0.0
sVprofile
p1982
F0.00032897508269744266
sVblocks
p1983
F0.00010378008392872366
sVbenazepril
p1984
F0.0
sVhighs
p1985
F0.0
sVfits
p1986
F0.000268267625277445
sVht1a
p1987
F0.0
sVpsychedelic
p1988
F0.0
sVbind
p1989
F0.0
sVcounter
p1990
F0.000493462624046164
sVinterrupted
p1991
F0.00010378008392872366
sVwwii
p1992
F0.0
sVallow
p1993
F0.000268267625277445
sVhealthcare
p1994
F0.0
sVlongest
p1995
F0.000268267625277445
sVserotonergic
p1996
F0.0
sVwarfarin
p1997
F0.0
sVpreclinical
p1998
F0.0
sVemsam
p1999
F0.0
sVincluding
p2000
F0.0008302406714297893
sVlooks
p2001
F5.459546542714616e-05
sVmentioned
p2002
F0.00107307050110978
sVconverting
p2003
F0.0
sVvhwc
p2004
F0.0
sVwrite
p2005
F6.0707457419997665e-05
sVh2o2
p2006
F0.0
sVdr
p2007
F0.00053653525055489
sVtemporal
p2008
F0.0
sVcompulsions
p2009
F0.0
sVwilling
p2010
F0.0006579501653948853
sVdegrees
p2011
F0.000268267625277445
sVasking
p2012
F0.00020756016785744731
sV2015
p2013
F0.0
sV2014
p2014
F0.0
sV2010
p2015
F0.0
sV2013
p2016
F0.0
sV2012
p2017
F0.0
sVcrash
p2018
F0.00010378008392872366
sVanticonvulsant
p2019
F0.0
sVmention
p2020
F0.00010378008392872366
sVhallway
p2021
F0.000268267625277445
sVkiss
p2022
F0.00016448754134872133
sVhands
p2023
F0.00032897508269744266
sVday
p2024
F0.0
sVmonopril
p2025
F0.0
sVarticles
p2026
F0.0018778733769421146
sVchronic
p2027
F0.0008048028758323349
sVedit
p2028
F0.00053653525055489
sVwarned
p2029
F0.000268267625277445
sVuniversity
p2030
F0.00053653525055489
sVcountries
p2031
F0.000268267625277445
sVdextromethorphan
p2032
F0.0
sVsufficiently
p2033
F0.0
sVlamictal
p2034
F0.0
sVbump
p2035
F0.0
sVcelexa
p2036
F0.0
sVymmv
p2037
F0.0
sVrelated
p2038
F0.00020756016785744731
sVsociety
p2039
F0.00032897508269744266
sVbooks
p2040
F0.00016448754134872133
sVpatch
p2041
F0.00016448754134872133
sVsexual
p2042
F0.00053653525055489
sVagoraphobia
p2043
F0.0
sVcategory
p2044
F0.000493462624046164
sVtriazolam
p2045
F0.0
sVejaculate
p2046
F0.0
sVjanimine
p2047
F0.0
sVoriental
p2048
F0.0
sVflushing
p2049
F0.0
sVdacvb
p2050
F0.0
sVref
p2051
F0.000268267625277445
sVmarek
p2052
F0.0
sVinteractions
p2053
F0.0
sVwithdrawal
p2054
F0.0
sVamitriptylline
p2055
F0.0
sVnelfinavir
p2056
F0.0
sVdigitalis
p2057
F0.0
sVaffective
p2058
F0.0
sVdoubles
p2059
F0.0
sVarelan
p2060
F0.0
sVrepairing
p2061
F0.0
sVinteraction
p2062
F0.0008048028758323349
sVg
p2063
F0.0008302406714297893
sVcould
p2064
F0.0
sVcompulsive
p2065
F0.0037557467538842293
sVtimes
p2066
F0.0
sVtantric
p2067
F0.0
sVstimulate
p2068
F0.0
sVprospective
p2069
F0.0
sV450
p2070
F0.0
sVpowerful
p2071
F0.000268267625277445
sVhypomania
p2072
F0.0
sVjesus
p2073
F0.0
sVrandomized
p2074
F0.0
sVdobutamine
p2075
F0.0
sV202002
p2076
F0.0
sVbitch
p2077
F0.000268267625277445
sVquality
p2078
F0.00010378008392872366
sVingested
p2079
F0.0
sVhtmlhttp
p2080
F0.0
sVlong
p2081
F0.0
sVpublication
p2082
F0.0
sVstart
p2083
F0.000364244744519986
sVdata
p2084
F0.00053653525055489
sVsystem
p2085
F0.00024282982967999066
sVkegeling
p2086
F0.0
sVattack
p2087
F0.00012141491483999533
sVcats
p2088
F0.0040240143791616745
sVmedihaler
p2089
F0.0
sVpainful
p2090
F0.0
sVscans
p2091
F0.0
sVstomach
p2092
F0.00016448754134872133
sVacademy
p2093
F0.000268267625277445
sVlists
p2094
F0.000268267625277445
sVregards
p2095
F0.0
sVbotox
p2096
F0.0
sVmorbidity
p2097
F0.0
sVhaven
p2098
F0.0003035372870999883
sVrelaxing
p2099
F0.000268267625277445
sVyoutube
p2100
F0.0
sVbed
p2101
F0.00016448754134872133
sVclaim
p2102
F0.00020756016785744731
sVss
p2103
F0.0
sVpatients
p2104
F0.0
sVlactmed
p2105
F0.0
sVloves
p2106
F0.00016448754134872133
sVmaybe
p2107
F0.0
sVtorrent
p2108
F0.0
sVbet
p2109
F6.0707457419997665e-05
sVbehaviors
p2110
F0.0
sVcomfortable
p2111
F0.00032897508269744266
sVunlikely
p2112
F0.0
sVneed
p2113
F0.0004367637234171693
sVdemonstration
p2114
F0.0
sVlinked
p2115
F0.000268267625277445
sVdiazepam
p2116
F0.0
sVdocuments
p2117
F0.000493462624046164
sVinform
p2118
F0.000268267625277445
sVncsu
p2119
F0.0
sVable
p2120
F0.000364244744519986
sVmechanism
p2121
F0.0
sVcontact
p2122
F0.00010378008392872366
sVinstance
p2123
F0.0012453610071446839
sVconcerns
p2124
F0.0
sVtechniques
p2125
F0.0
sVerythrocin
p2126
F0.0
sVunless
p2127
F0.00020756016785744731
sVcombat
p2128
F0.0
sV01
p2129
F0.000268267625277445
sVlearnt
p2130
F0.0
sVkurt
p2131
F0.0
sVvitamins
p2132
F0.00053653525055489
sVpropafenone
p2133
F0.0
sVwilcox
p2134
F0.0
sVconsequences
p2135
F0.00053653525055489
sVurl
p2136
F0.000268267625277445
sVatypical
p2137
F0.00053653525055489
sVstronger
p2138
F0.00053653525055489
sVdisease
p2139
F0.001480387872138492
sVlooked
p2140
F0.0006579501653948853
sVpictures
p2141
F0.00032897508269744266
sVskinny
p2142
F0.000268267625277445
sVnortryptiline
p2143
F0.0
sVfact
p2144
F0.00010378008392872366
sVselection
p2145
F0.00010378008392872366
sVcrate
p2146
F0.000986925248092328
sVsaquinavir
p2147
F0.0
sVwatch
p2148
F0.0
sVnaprosyn
p2149
F0.0
sVrough
p2150
F0.00016448754134872133
sVlonger
p2151
F5.459546542714616e-05
sVdecade
p2152
F0.00032897508269744266
sV5pm
p2153
F0.0
sVbased
p2154
F0.00010378008392872366
sVknowledge
p2155
F0.00032897508269744266
sVmeloxicam
p2156
F0.0
sVwinner
p2157
F0.00053653525055489
sVhopeful
p2158
F0.0
sVreceptors
p2159
F0.00053653525055489
sVterminal
p2160
F0.00016448754134872133
sV60mg
p2161
F0.0
sVcombo
p2162
F0.000268267625277445
sVriding
p2163
F6.0707457419997665e-05
sVlariam
p2164
F0.0
sVmortality
p2165
F0.0
sVmeant
p2166
F0.00010378008392872366
sVcapsules
p2167
F0.0
sVharmed
p2168
F0.0
sVfamiliar
p2169
F0.00016448754134872133
sVdiagnosing
p2170
F0.0
sVdumbing
p2171
F0.000268267625277445
sVmade
p2172
F0.0005459546542714615
sVlegitimate
p2173
F0.0
sVwords
p2174
F0.00012141491483999533
sV129
p2175
F0.0
sVdelgado
p2176
F0.0
sVareas
p2177
F0.00053653525055489
sVprocesses
p2178
F0.00107307050110978
sVmetabolite
p2179
F0.0
sVcourse
p2180
F6.0707457419997665e-05
sVh
p2181
F0.00010378008392872366
sVmarried
p2182
F6.0707457419997665e-05
sVstuff
p2183
F0.00031134025178617097
sVblogspot
p2184
F0.0
sVdangerous
p2185
F0.00010378008392872366
sVfixed
p2186
F0.00016448754134872133
sVgabapentin
p2187
F0.0
sVbtw
p2188
F0.0
sVtemporarily
p2189
F0.000268267625277445
sVnational
p2190
F0.0018778733769421146
sVhumans
p2191
F0.000268267625277445
sVbaster
p2192
F0.0
sVskateboarding
p2193
F0.0
sVpattern
p2194
F0.0
sVhorribly
p2195
F0.0
sVstate
p2196
F0.0005189004196436182
sVdoxepin
p2197
F0.0
sVprogress
p2198
F6.0707457419997665e-05
sV150mg
p2199
F0.0
sVseperation
p2200
F0.0
sVmasochistic
p2201
F0.0
sVamen
p2202
F0.0
sVvitamin
p2203
F0.0
sVembarrassment
p2204
F0.0
sVyawning
p2205
F0.0
sVresearchgate
p2206
F0.0
sVantipsychotic
p2207
F0.0
sVvanatrip
p2208
F0.0
sVtaking
p2209
F0.0005732523869850346
sVcardura
p2210
F0.0
sVetc
p2211
F2.729773271357308e-05
sVdoorway
p2212
F0.00016448754134872133
sVhaldol
p2213
F0.0
sVplacebo
p2214
F0.0
sVll
p2215
F0.00030027505984930387
sVcomment
p2216
F0.00016448754134872133
sVstrongly
p2217
F0.0
sVrelevant
p2218
F0.0
sVco
p2219
F0.00032897508269744266
sVtimolol
p2220
F0.0
sVafaik
p2221
F0.0
sVca
p2222
F0.000268267625277445
sVhaloperidol
p2223
F0.0
sVenvironments
p2224
F0.000268267625277445
sVnicardipine
p2225
F0.0
sVadding
p2226
F0.0008048028758323349
sVlaugh
p2227
F0.00010378008392872366
sVsolareze
p2228
F0.0
sVtrandolapril
p2229
F0.0
sVdecent
p2230
F0.00010378008392872366
sVpermanent
p2231
F0.00010378008392872366
sVtreat
p2232
F0.00031134025178617097
sVverelan
p2233
F0.0
sVcertain
p2234
F8.189319814071924e-05
sVquin
p2235
F0.0
sVremedies
p2236
F0.0
sVfield
p2237
F0.00053653525055489
sVcontrolled
p2238
F0.0029509438780518944
sVreceived
p2239
F0.00016448754134872133
sVotc
p2240
F0.0
sVanorgasmia
p2241
F0.0
sV250mg
p2242
F0.0
sVhateful
p2243
F0.0
sVimproved
p2244
F0.001973850496184656
sVpresent
p2245
F2.729773271357308e-05
sVmulti
p2246
F0.00031134025178617097
sVunlike
p2247
F0.00010378008392872366
sVvalue
p2248
F0.00012141491483999533
sVcvm
p2249
F0.0
sVropinirole
p2250
F0.0
sVinstantly
p2251
F0.000268267625277445
sVfile
p2252
F0.00214614100221956
sValmost
p2253
F8.189319814071924e-05
sVthus
p2254
F0.000493462624046164
sVhelped
p2255
F0.000493462624046164
sVexamined
p2256
F0.0
sVdual
p2257
F0.00016448754134872133
sVwatched
p2258
F0.000268267625277445
sVclaimed
p2259
F0.00016448754134872133
sVgeneric
p2260
F0.00053653525055489
sVtrazodone
p2261
F0.0
sVadverse
p2262
F0.0
sVstrange
p2263
F6.0707457419997665e-05
sVnorpramin
p2264
F0.0
sVparty
p2265
F0.00016448754134872133
sVgets
p2266
F0.00010378008392872366
sVdifficult
p2267
F0.00010378008392872366
sVexperimented
p2268
F0.0
sVpractitioner
p2269
F0.0
sVbald
p2270
F0.000268267625277445
sVhydroxyzine
p2271
F0.0
sVeffect
p2272
F0.00010919093085429232
sVblockers
p2273
F0.0008048028758323349
sVstudent
p2274
F0.00016448754134872133
sVfrequently
p2275
F0.00107307050110978
sVphp
p2276
F0.0024144086274970047
sVcollar
p2277
F0.0
sVdestruction
p2278
F0.0
sVcenter
p2279
F0.00010378008392872366
sVnevertheless
p2280
F0.000268267625277445
sVcontest
p2281
F0.000268267625277445
sVwell
p2282
F0.0
sVthought
p2283
F0.0003035372870999883
sVpatterns
p2284
F0.0
sVtouching
p2285
F0.000268267625277445
sVmoexipril
p2286
F0.0
sVbaltimore
p2287
F0.0
sVdeadly
p2288
F0.0
sVposition
p2289
F0.00012141491483999533
sVmuscle
p2290
F0.000268267625277445
sVlatest
p2291
F0.00016448754134872133
sVticlid
p2292
F0.0
sVexcessive
p2293
F0.00010378008392872366
sVslzgkqi
p2294
F0.0
sVless
p2295
F0.00021838186170858464
sVdose
p2296
F0.003487479128606785
sVclinic
p2297
F0.0
sVunderlying
p2298
F0.00016448754134872133
sVfeliway
p2299
F0.0
sVtca
p2300
F0.0
sVweb
p2301
F0.00031134025178617097
sVrepetitious
p2302
F0.0
sVdensity
p2303
F0.00016448754134872133
sVrecommending
p2304
F0.0
sVbattery
p2305
F0.000268267625277445
sVadd
p2306
F0.0009340207553585129
sVlower
p2307
F0.00012141491483999533
sVcompulsion
p2308
F0.0
sVcrack
p2309
F0.00032897508269744266
sVresolved
p2310
F0.00016448754134872133
sVtests
p2311
F0.00053653525055489
sVcomments
p2312
F0.00053653525055489
sVchecking
p2313
F0.00032897508269744266
sVtikosyn
p2314
F0.0
sVzolmitriptan
p2315
F0.0
sVwhatever
p2316
F0.00012141491483999533
sVsimilair
p2317
F0.0
sVincredibly
p2318
F0.00016448754134872133
sVnecessary
p2319
F6.0707457419997665e-05
sVlike
p2320
F0.0
sVsuccess
p2321
F0.0008224377067436066
sVrituals
p2322
F0.0
sVdefecation
p2323
F0.0
sVlose
p2324
F2.729773271357308e-05
sVworks
p2325
F0.0006226805035723419
sVpage
p2326
F0.001973850496184656
sVtherapeutic
p2327
F0.0
sVopioid
p2328
F0.0
sVklonopin
p2329
F0.0
sVnfl
p2330
F0.00053653525055489
sVscared
p2331
F0.00032897508269744266
sVtrisenox
p2332
F0.0
sVflush
p2333
F0.00053653525055489
sVhome
p2334
F0.000182122372259993
sVthioridazine
p2335
F0.0
sVsupportive
p2336
F0.0
sV250
p2337
F0.000268267625277445
sVsupplements
p2338
F0.0
sVpinpoint
p2339
F0.0
sVlead
p2340
F0.000182122372259993
sVliterally
p2341
F0.00016448754134872133
sValeve
p2342
F0.0
sVdemonstrated
p2343
F0.0
sVlimitations
p2344
F0.0
sVpressure
p2345
F0.00053653525055489
sValthough
p2346
F0.00024282982967999066
sVinstinct
p2347
F0.0
sVchoked
p2348
F0.000268267625277445
sVsimpler
p2349
F0.000268267625277445
sVgained
p2350
F0.00032897508269744266
sVsister
p2351
F0.00016448754134872133
sVrare
p2352
F0.00107307050110978
sVgetting
p2353
F8.189319814071924e-05
sV2caps
p2354
F0.0
sVlanoxicaps
p2355
F0.0
sVpyrimethamine
p2356
F0.0
sVingest
p2357
F0.0
sVangeles
p2358
F0.0
sVswear
p2359
F0.000268267625277445
sVintroduced
p2360
F0.00016448754134872133
sVduloxetine
p2361
F0.0
sVtheolair
p2362
F0.0
sVpreviously
p2363
F0.000268267625277445
sVzomig
p2364
F0.0
sVobliterated
p2365
F0.0
sVdemonstrable
p2366
F0.0
sVmushrooms
p2367
F0.001480387872138492
sVinvirase
p2368
F0.0
sVdoesnt
p2369
F0.00032897508269744266
sVreceptor
p2370
F0.0
sVpointless
p2371
F0.000268267625277445
sV1984
p2372
F0.0
sVprozac
p2373
F0.0
sVvan
p2374
F0.00016448754134872133
sVserpasil
p2375
F0.0
sVadolescent
p2376
F0.0
sVpruritus
p2377
F0.0
sVappt
p2378
F0.0
sVsecret
p2379
F0.00016448754134872133
sV1988
p2380
F0.0
sVnoticed
p2381
F6.0707457419997665e-05
sVstamina
p2382
F0.0
sVlost
p2383
F0.0
sVnaturally
p2384
F0.000268267625277445
sVnorth
p2385
F0.00010378008392872366
sVfunds
p2386
F0.000268267625277445
sVbrand
p2387
F0.00010378008392872366
sVht
p2388
F0.0
sVneutral
p2389
F0.000268267625277445
sVgain
p2390
F0.000493462624046164
sVdur
p2391
F0.0
sVcount
p2392
F0.00016448754134872133
sVchallenges
p2393
F0.0
sVnorvasc
p2394
F0.0
sVplaces
p2395
F0.00032897508269744266
sVwhether
p2396
F2.729773271357308e-05
sVwish
p2397
F0.00020756016785744731
sVrecord
p2398
F0.00016448754134872133
sVstories
p2399
F0.00016448754134872133
sVwoke
p2400
F0.000268267625277445
sVcyclothymia
p2401
F0.0
sV3mg
p2402
F0.0
sVadderall
p2403
F0.0
sVproblem
p2404
F0.0007891969464599697
sVpm
p2405
F0.0
sVminutes
p2406
F6.0707457419997665e-05
sVmechanics
p2407
F0.000268267625277445
sVpii
p2408
F0.0
sVphenytoin
p2409
F0.0
sVlobes
p2410
F0.0
sVmoxifloxacin
p2411
F0.0
sVpronestyl
p2412
F0.0
sVrecommendations
p2413
F0.0
sVfazaclo
p2414
F0.0
sVfunctions
p2415
F0.000268267625277445
sVcompared
p2416
F0.000728489489039972
sVimproving
p2417
F0.00016448754134872133
sVmushroom
p2418
F0.000268267625277445
sVpennsaid
p2419
F0.0
sVvariety
p2420
F0.00032897508269744266
sVtourette
p2421
F0.0
sVtrials
p2422
F0.0
sVparlodel
p2423
F0.0
sVvirtual
p2424
F0.0013159003307897706
sVfriggen
p2425
F0.0
sVbook
p2426
F0.000493462624046164
sVdetails
p2427
F0.00053653525055489
sVziprasidone
p2428
F0.0
sVsimvastatin
p2429
F0.0
sVer
p2430
F0.00020756016785744731
sVlaxatone
p2431
F0.0
sVfrancisco
p2432
F0.0
sVkeep
p2433
F0.00016378639628143848
sVfeelings
p2434
F0.00016448754134872133
sVclass
p2435
F0.000546367116779979
sVvol67
p2436
F0.0
sVjune
p2437
F0.0
sVstay
p2438
F0.00012141491483999533
sVhomestyle
p2439
F0.0
sVchance
p2440
F0.00012141491483999533
sVtwynsta
p2441
F0.0
sVwrenching
p2442
F0.0
sVkinda
p2443
F0.00053653525055489
sVcarbamazepine
p2444
F0.0
sVfriends
p2445
F0.0003035372870999883
sVexposure
p2446
F0.0
sVisoproterenol
p2447
F0.0
sVusing
p2448
F0.0010320267761399604
sVrisperdal
p2449
F0.0
sVstrings
p2450
F0.00016448754134872133
sVaetna
p2451
F0.0
sVriboflavin
p2452
F0.0
sVdiagnosis
p2453
F0.0
sV8th
p2454
F0.00107307050110978
s.