(dp0
Vsince
p1
F0.0009775954787879604
sVantipsychotics
p2
F0.0
sVvary
p3
F0.002945341256482868
sVmonth
p4
F0.004348151293385141
sVtms
p5
F0.0
sVfile
p6
F0.00480364468961945
sVyears
p7
F0.0010870378233462851
sVconverting
p8
F0.0
sVlabel
p9
F0.0018583034331365825
sVlisinopril
p10
F0.0
sVthyroid
p11
F0.0
sVcopy
p12
F0.0018583034331365825
sVfit
p13
F0.0010870378233462851
sVwrites
p14
F0.00480364468961945
sVepileptic
p15
F0.0
sVsometimes
p16
F0.0010870378233462851
sVfailed
p17
F0.005890682512965736
sVenzyme
p18
F0.0
sVgoing
p19
F0.0
sV4
p20
F0.0014663932181819405
sVstable
p21
F0.00480364468961945
sVamitriptyline
p22
F0.0
sVworth
p23
F0.0018583034331365825
sVhope
p24
F0.0004887977393939802
sVcognitive
p25
F0.0
sVtests
p26
F0.00480364468961945
sVgood
p27
F0.0
sVaround
p28
F0.0004887977393939802
sVchecking
p29
F0.002945341256482868
sVlisted
p30
F0.002945341256482868
sVmatters
p31
F0.002945341256482868
sVones
p32
F0.0018583034331365825
sVevery
p33
F0.0034215841757578606
sVeffects
p34
F0.002945341256482868
sVmom
p35
F0.0096072893792389
sVreport
p36
F0.002945341256482868
sVspecific
p37
F0.0018583034331365825
sVdose
p38
F0.00480364468961945
sVday
p39
F0.0
sVlike
p40
F0.0
sVschool
p41
F0.00480364468961945
sVinvestigational
p42
F0.0
sVfibromyalgia
p43
F0.0
sVd
p44
F0.0
sV_____________________________________________________
p45
F0.0
sVobsessive
p46
F0.0
sVprophylaxis
p47
F0.0
sVcry
p48
F0.005890682512965736
sVsolution
p49
F0.0
sVzonegran
p50
F0.0
sVtwice
p51
F0.0018583034331365825
sVbad
p52
F0.0004887977393939802
sVstuff
p53
F0.005574910299409748
sVstopped
p54
F0.0018583034331365825
sVmedications
p55
F0.0
sVactivity
p56
F0.00480364468961945
sVdone
p57
F0.0004887977393939802
sVround
p58
F0.0010870378233462851
sVgabapentin
p59
F0.0
sVheadache
p60
F0.0096072893792389
sVwork
p61
F0.0
sVold
p62
F0.0
sVyeah
p63
F0.002945341256482868
sVvalsartan
p64
F0.0
sVdepends
p65
F0.002945341256482868
sVbeta
p66
F0.00480364468961945
sVmarplan
p67
F0.0
sVduration
p68
F0.0
sVterms
p69
F0.0018583034331365825
sVmigraines
p70
F0.0
sVacid
p71
F0.002945341256482868
sVinsurance
p72
F0.00480364468961945
sVbest
p73
F0.0004887977393939802
sVeven
p74
F0.0019551909575759208
sVtry
p75
F0.0009775954787879604
sVallergic
p76
F0.00480364468961945
sVstill
p77
F0.0
sVrecently
p78
F0.0010870378233462851
sVvitamins
p79
F0.00480364468961945
sVnortryptiline
p80
F0.0
sVselected
p81
F0.00480364468961945
sVper
p82
F0.005890682512965736
sV25mg
p83
F0.0
sVlooking
p84
F0.0
sVeverything
p85
F0.0014663932181819405
sV3
p86
F0.0010870378233462851
sVdoxepin
p87
F0.0
sVatenolol
p88
F0.0
sVprovider
p89
F0.0
sVmedicine
p90
F0.00480364468961945
sVprobably
p91
F0.0010870378233462851
sVspeak
p92
F0.002945341256482868
sVapproach
p93
F0.002945341256482868
sVfull
p94
F0.0
sVanticholinergic
p95
F0.0
sVdiltiazem
p96
F0.0
sVcandidate
p97
F0.002945341256482868
sVgenes
p98
F0.00480364468961945
sVvitamin
p99
F0.0
sVdiagnostic
p100
F0.0
sVhours
p101
F0.003261113470038856
sVg
p102
F0.009291517165682913
sVqualify
p103
F0.0
sVadd
p104
F0.0018583034331365825
sVtopiramate
p105
F0.0
sValthough
p106
F0.0010870378233462851
sVmeet
p107
F0.002945341256482868
sVask
p108
F0.0004887977393939802
sVpost
p109
F0.002945341256482868
sVdry
p110
F0.002945341256482868
sVscary
p111
F0.00480364468961945
sVate
p112
F0.002945341256482868
sVlast
p113
F0.0004887977393939802
sVworking
p114
F0.0
sVlanguage
p115
F0.0018583034331365825
sVtopamax
p116
F0.0
sVjoke
p117
F0.002945341256482868
sVtaking
p118
F0.0004887977393939802
sVmonths
p119
F0.0018583034331365825
sVdays
p120
F0.006522226940077712
sVect
p121
F0.0
sVlasting
p122
F0.0096072893792389
sVmakes
p123
F0.0009775954787879604
sVside_effects
p124
F0.0
sVexperimental
p125
F0.0
sVfirst
p126
F0.0004887977393939802
sVsequenced
p127
F0.0
sVnerve
p128
F0.00480364468961945
sVslept
p129
F0.00480364468961945
sVtimolol
p130
F0.0
sVvalproic
p131
F0.0
sVgrade
p132
F0.00480364468961945
sVseems
p133
F0.0009775954787879604
sVnortriptyline
p134
F0.0
sVtwo
p135
F0.0
sV60
p136
F0.005890682512965736
sVchronic
p137
F0.00480364468961945
sVtons
p138
F0.002945341256482868
sVreceptor
p139
F0.0
sVnext
p140
F0.0004887977393939802
sVpointless
p141
F0.00480364468961945
sVpropranolol
p142
F0.0
sV14
p143
F0.00743321373254633
sVheadaches
p144
F0.0
sVlittle
p145
F0.0
sVtcas
p146
F0.0
sVtakes
p147
F0.0010870378233462851
sVwould
p148
F0.0
sVtest
p149
F0.0018583034331365825
sVcaught
p150
F0.0018583034331365825
sVnight
p151
F0.0004887977393939802
sVdue
p152
F0.002945341256482868
sVleast
p153
F0.0
sVlyme
p154
F0.0
sVclomipramine
p155
F0.0
sVstrict
p156
F0.00480364468961945
sV2
p157
F0.0004887977393939802
sVcall
p158
F0.0004887977393939802
sVlow
p159
F0.0021740756466925703
sVway
p160
F0.0004887977393939802
sV6
p161
F0.0004887977393939802
sVlosartan
p162
F0.0
sVnimodipine
p163
F0.0
sVantifungal
p164
F0.0
sVback
p165
F0.0004887977393939802
sVlife
p166
F0.0004887977393939802
sVlot
p167
F0.0
sVcriteria
p168
F0.0
sVrequires
p169
F0.00480364468961945
sVhurt
p170
F0.00480364468961945
sVpolicy
p171
F0.014410934068858352
sVappendix
p172
F0.0
sVbotox
p173
F0.0
sVhaven
p174
F0.0021740756466925703
sVcouldn
p175
F0.0021740756466925703
sVcase
p176
F0.0021740756466925703
sVlook
p177
F0.0014663932181819405
sVtricyclics
p178
F0.0
sVrequire
p179
F0.00480364468961945
sVdepressants
p180
F0.0
sVsee
p181
F0.0009775954787879604
sVeasier
p182
F0.0018583034331365825
sVcalcium
p183
F0.0
sVclasses
p184
F0.0021740756466925703
sVthree
p185
F0.0004887977393939802
sVpolicies
p186
F0.0
sVanticonvulsants
p187
F0.0
sVmetoprolol
p188
F0.0
sVhappy
p189
F0.0010870378233462851
sVexample
p190
F0.0021740756466925703
sVmirtazapine
p191
F0.0
sVnifedipine
p192
F0.0
sVcrazy
p193
F0.002945341256482868
sVneeding
p194
F0.00480364468961945
sVautoimmune
p195
F0.0
sVadults
p196
F0.00480364468961945
sVll
p197
F0.0009775954787879604
sVgive
p198
F0.0004887977393939802
sValmost
p199
F0.0004887977393939802
sVssri
p200
F0.0
sVdivalproex
p201
F0.0
sValongside
p202
F0.002945341256482868
sVmine
p203
F0.0010870378233462851
sVii
p204
F0.0
sVheard
p205
F0.0010870378233462851
sVevening
p206
F0.002945341256482868
sVsomething
p207
F0.0004887977393939802
sVpushing
p208
F0.0010870378233462851
sVallowed
p209
F0.0010870378233462851
sVend
p210
F0.0009775954787879604
sVanymore
p211
F0.0018583034331365825
sVpreventives
p212
F0.0
sVtrials
p213
F0.0
sVmake
p214
F0.0004887977393939802
sVable
p215
F0.0010870378233462851
sVtreatment
p216
F0.00480364468961945
sVthinks
p217
F0.0018583034331365825
sVnardil
p218
F0.0
sVnadolol
p219
F0.0
sVpatient
p220
F0.00480364468961945
sVtoxin
p221
F0.0
sVonline
p222
F0.002945341256482868
sVfinding
p223
F0.0021740756466925703
sVinstead
p224
F0.0018583034331365825
sVchannel
p225
F0.002945341256482868
sVprofile
p226
F0.002945341256482868
sVbegin
p227
F0.0018583034331365825
sVused
p228
F0.0021740756466925703
sVblocks
p229
F0.0018583034331365825
sVplans
p230
F0.00480364468961945
sVbotulinum
p231
F0.0
sVverapamil
p232
F0.0
sVclass
p233
F0.0010870378233462851
sVblockers
p234
F0.014410934068858352
sVmoment
p235
F0.0004887977393939802
sVlevels
p236
F0.00480364468961945
sVmouth
p237
F0.0018583034331365825
sVplan
p238
F0.003716606866273165
sVsnp
p239
F0.0
sVantinflammatory
p240
F0.0
sV23andme
p241
F0.0
sVunimaginably
p242
F0.0
sVmissed
p243
F0.002945341256482868
sVvortioxetine
p244
F0.0
sVlower
p245
F0.0010870378233462851
sVe
p246
F0.002443988696969901
sVlonger
p247
F0.0004887977393939802
sVolder
p248
F0.0010870378233462851
sVconsidered
p249
F0.002945341256482868
sVmaybe
p250
F0.0
sVangiotensin
p251
F0.0
sVinhibitors
p252
F0.0
sVminocycline
p253
F0.0
sVthink
p254
F0.0009775954787879604
sVaetna
p255
F0.0
sVmigraine
p256
F0.0
sVqualified
p257
F0.0096072893792389
sVprevention
p258
F0.0
sVpush
p259
F0.0018583034331365825
sVcure
p260
F0.00480364468961945
sVsounded
p261
F0.0
sVtalk
p262
F0.0018583034331365825
sVknow
p263
F0.0009775954787879604
s.