(dp0
Vpartial
p1
F0.004375480999335909
sVconsider
p2
F0.0009901467841469216
sVmonth
p3
F0.0009901467841469216
sV______________
p4
F0.0
sVgpcrs
p5
F0.0
sVgo
p6
F0.0
sVmeditation
p7
F0.0
sVcontent
p8
F0.004375480999335909
sVinverse
p9
F0.0021877404996679547
sVdepend
p10
F0.0021877404996679547
sVpenile
p11
F0.0
sV0
p12
F0.002682813891741416
sVinclude
p13
F0.001341406945870708
sVworth
p14
F0.000846333553797247
sVsound
p15
F0.0004950733920734608
sVworse
p16
F0.0004950733920734608
sVfar
p17
F0.00022261484346026202
sVdecide
p18
F0.001341406945870708
sVtrouble
p19
F0.00022261484346026202
sVdifference
p20
F0.001341406945870708
sVcool
p21
F0.0021877404996679547
sVdin
p22
F0.0
sVmagic
p23
F0.001341406945870708
sVstimulus
p24
F0.0
sVupload
p25
F0.004375480999335909
sVleave
p26
F0.0009901467841469216
sVp
p27
F0.000846333553797247
sVantagonize
p28
F0.0
sVregret
p29
F0.001341406945870708
sVplexus
p30
F0.0
sVjapanese
p31
F0.006563221499003864
sVpregaba
p32
F0.0
sVorgasm
p33
F0.004375480999335909
sVsecond
p34
F0.00044522968692052405
sVcost
p35
F0.000846333553797247
sVpatient
p36
F0.0021877404996679547
sVeven
p37
F0.0006678445303807861
sVappear
p38
F0.001341406945870708
sVworsen
p39
F0.0
sVcaffeine
p40
F0.0021877404996679547
sVd3
p41
F0.0
sVnew
p42
F0.0
sVnever
p43
F0.0
sVprescribe
p44
F0.004375480999335909
sVht7
p45
F0.0
sVselective
p46
F0.0
sVht2
p47
F0.0
sVothers
p48
F0.0004950733920734608
sVstrong
p49
F0.000846333553797247
sVstudy
p50
F0.001341406945870708
sVopiate
p51
F0.0
sVexperience
p52
F0.001341406945870708
sVsmoke
p53
F0.001341406945870708
sVsocial
p54
F0.0004950733920734608
sVaction
p55
F0.001341406945870708
sVopinion
p56
F0.004375480999335909
sVuseful
p57
F0.0021877404996679547
sVagomelatine
p58
F0.0
sVimpulsivity
p59
F0.0
sVpsychological
p60
F0.0021877404996679547
sVmicrodosing
p61
F0.0
sVmoran
p62
F0.0
sVapply
p63
F0.001341406945870708
sVcocaine
p64
F0.0021877404996679547
sVuse
p65
F0.0008904593738410481
sVwould
p66
F0.0
sVtwo
p67
F0.0
sVmediate
p68
F0.0
sVcalm
p69
F0.004375480999335909
sVmemory
p70
F0.000846333553797247
sVpregabalin
p71
F0.0
sVtype
p72
F0.000846333553797247
sVneverending
p73
F0.0
sVentrance
p74
F0.000846333553797247
sVrelax
p75
F0.001341406945870708
sVtardive
p76
F0.0
sVcompany
p77
F0.00044522968692052405
sVmuse
p78
F0.0
sVmescaline
p79
F0.0
sVshoot
p80
F0.001341406945870708
sVhigh
p81
F0.0
sVwork
p82
F0.0
sVlongitude
p83
F0.0
sVatypical
p84
F0.004375480999335909
sVobvious
p85
F0.000846333553797247
sVstabilizer
p86
F0.0
sVdosage
p87
F0.004375480999335909
sVmirtazapine
p88
F0.0
sVcontrol
p89
F0.002682813891741416
sVgive
p90
F0.00022261484346026202
sVfuck
p91
F0.0021877404996679547
sVorbit1
p92
F0.0
sVinvolve
p93
F0.0
sVminimum
p94
F0.001341406945870708
sVsomething
p95
F0.00022261484346026202
sVwant
p96
F0.0
sVsense
p97
F0.00022261484346026202
sVsharp
p98
F0.0021877404996679547
sVhonest
p99
F0.000846333553797247
sVguarantee
p100
F0.0021877404996679547
sVdiscussion
p101
F0.001341406945870708
sVchemical
p102
F0.0021877404996679547
sVmay
p103
F0.00044522968692052405
sVmax
p104
F0.0021877404996679547
sVwrong
p105
F0.0004950733920734608
sVplane
p106
F0.004375480999335909
sVsuck
p107
F0.001341406945870708
sVresponse
p108
F0.010938702498339774
sVrefuse
p109
F0.000846333553797247
sVmorphine
p110
F0.006563221499003864
sVbind
p111
F0.0
sVtetracyclic
p112
F0.0
sVswitch
p113
F0.002682813891741416
sVbeating_depression_w_memantine_and_lsd
p114
F0.0
sVpleasure
p115
F0.001692667107594494
sVaddiction
p116
F0.0
sVfirst
p117
F0.00044522968692052405
sVtalk
p118
F0.000846333553797247
sVexclusive
p119
F0.0021877404996679547
sVlsd
p120
F0.0
sVhelp
p121
F0.0008904593738410481
sVcourse
p122
F0.0004950733920734608
sVjapan
p123
F0.0
sVstill
p124
F0.0
sVinsted
p125
F0.0
sV25
p126
F0.000846333553797247
sVantipsychotic
p127
F0.0
sVll
p128
F0.00022261484346026202
sVbetter
p129
F0.0006678445303807861
sVabsence
p130
F0.0
sVfade
p131
F0.001341406945870708
sV2014
p132
F0.0
sVmain
p133
F0.00022261484346026202
sVmight
p134
F0.00044522968692052405
sVeasier
p135
F0.000846333553797247
sV2013
p136
F0.0
sVwouldn
p137
F0.0004950733920734608
sVnon
p138
F0.00044522968692052405
sVgood
p139
F0.0
sV3
p140
F0.001980293568293843
sVnod
p141
F0.0021877404996679547
sVpractice
p142
F0.0
sVtherapy
p143
F0.0021877404996679547
sVhalf
p144
F0.00022261484346026202
sVeasily
p145
F0.0004950733920734608
sVterm
p146
F0.001692667107594494
sVerection
p147
F0.0021877404996679547
sVedit
p148
F0.004375480999335909
sValways
p149
F0.0
sVdidn
p150
F0.0008904593738410481
sVevade
p151
F0.0021877404996679547
sVreasonable
p152
F0.001341406945870708
sVmean
p153
F0.0004950733920734608
sVen
p154
F0.002682813891741416
sVweight
p155
F0.0004950733920734608
sVreduce
p156
F0.001341406945870708
sVidea
p157
F0.00022261484346026202
sVbland
p158
F0.0
sVyear
p159
F0.00022261484346026202
sVdisinhibition
p160
F0.0
sVhypeprolactinemia
p161
F0.0
sVhappen
p162
F0.0004950733920734608
sVsexual
p163
F0.004375480999335909
sVagoraphobia
p164
F0.0
sVtry
p165
F0.00022261484346026202
sVsince
p166
F0.0006678445303807861
sVincrease
p167
F0.005365627783482832
sVwithdrawal
p168
F0.0
sVcommercially
p169
F0.0
sVbase
p170
F0.0004950733920734608
sVunwanted
p171
F0.0021877404996679547
sVask
p172
F0.0006678445303807861
sVorg
p173
F0.008750961998671819
sVinteraction
p174
F0.0021877404996679547
sVcould
p175
F0.0
sVterrible
p176
F0.001692667107594494
sVkeep
p177
F0.00044522968692052405
sVthing
p178
F0.00044522968692052405
sVplace
p179
F0.00022261484346026202
sVisn
p180
F0.00044522968692052405
sVthink
p181
F0.0013356890607615721
sVbupropion
p182
F0.0
sVfeed
p183
F0.001341406945870708
sVfeel
p184
F0.0006678445303807861
sVnumber
p185
F0.000846333553797247
sVlong
p186
F0.0
sVanother
p187
F0.00022261484346026202
sVcarry
p188
F0.00022261484346026202
sVmiss
p189
F0.00022261484346026202
sVht1a
p190
F0.0
sV1p
p191
F0.0
sVguess
p192
F0.003385334215188988
sVscript
p193
F0.0021877404996679547
sVleast
p194
F0.0
sVeuphoria
p195
F0.0
sVanyone
p196
F0.0004950733920734608
sV2
p197
F0.00044522968692052405
sVcondasending
p198
F0.0
sVdownregulate
p199
F0.0
sVway
p200
F0.00044522968692052405
sVmostly
p201
F0.000846333553797247
sVbehind
p202
F0.00022261484346026202
sVpart
p203
F0.0009901467841469216
sV11
p204
F0.00022261484346026202
sV10
p205
F0.00044522968692052405
sV13
p206
F0.000846333553797247
sVanxiety
p207
F0.017501923997343637
sV15
p208
F0.00022261484346026202
sVcounteract
p209
F0.0
sV5ht2a
p210
F0.0
sVsee
p211
F0.00022261484346026202
sVmemantine
p212
F0.0
sVresult
p213
F0.001341406945870708
sVmind
p214
F0.003385334215188988
sVblip
p215
F0.0
sVsay
p216
F0.00044522968692052405
sVlogitude
p217
F0.0
sVseem
p218
F0.00022261484346026202
sVregulate
p219
F0.0
sVoption
p220
F0.010938702498339774
sVgabaergics
p221
F0.0
sVstrength
p222
F0.000846333553797247
sVangle
p223
F0.0021877404996679547
sVlatter
p224
F0.0021877404996679547
sVmechanism
p225
F0.0
sVcitrulline
p226
F0.0
sV3mfw31
p227
F0.0
sVregard
p228
F0.0
sVpain
p229
F0.000846333553797247
sVclash
p230
F0.0021877404996679547
sVnormal
p231
F0.000846333553797247
sVclearer
p232
F0.0
sVaddict
p233
F0.006563221499003864
sVsignificant
p234
F0.004375480999335909
sVsub
p235
F0.000846333553797247
sVequatorial
p236
F0.0
sVespecially
p237
F0.0004950733920734608
sVki
p238
F0.0
sVlose
p239
F0.00022261484346026202
sVcover
p240
F0.0004950733920734608
sVsober
p241
F0.004375480999335909
sVsporadically
p242
F0.0021877404996679547
sVrestriction
p243
F0.0
sVanyway
p244
F0.001692667107594494
sVbring
p245
F0.00044522968692052405
sVsubtle
p246
F0.006563221499003864
sVfear
p247
F0.000846333553797247
sV25mg
p248
F0.0
sVd2
p249
F0.0
sVfind
p250
F0.0
sVurouge
p251
F0.0
sVocd
p252
F0.0
sVcombo
p253
F0.0021877404996679547
sVextracellular
p254
F0.0
sVhit
p255
F0.0004950733920734608
sVantagonism
p256
F0.0
sVstop
p257
F0.00044522968692052405
sVkind
p258
F0.0
sV12
p259
F0.00022261484346026202
sVbromocriptine
p260
F0.0
sVantagonist
p261
F0.0
sVht2c
p262
F0.0
sVht2a
p263
F0.0
sVstupid
p264
F0.000846333553797247
sVactivity
p265
F0.004375480999335909
sVrelease
p266
F0.003385334215188988
sVoccupy
p267
F0.0
sVgabapentin
p268
F0.0
sVwiki
p269
F0.0
sVbtw
p270
F0.0
sVhabit
p271
F0.0
sVphysically
p272
F0.0021877404996679547
sVnut
p273
F0.0021877404996679547
sVreinforce
p274
F0.0
sVht2c_receptor
p275
F0.0
sVsubject
p276
F0.0021877404996679547
sV04
p277
F0.002682813891741416
sVaway
p278
F0.0
sVposse
p279
F0.0021877404996679547
sVwikipedia
p280
F0.0
sVlabel
p281
F0.001692667107594494
sVstate
p282
F0.001692667107594494
sVprobably
p283
F0.0009901467841469216
sVneither
p284
F0.001341406945870708
sVdiscovery
p285
F0.0
sVavailable
p286
F0.001692667107594494
sVdisthymia
p287
F0.0
sVreddit
p288
F0.0
sVloose
p289
F0.000846333553797247
sVexam
p290
F0.0021877404996679547
sVchoroid
p291
F0.0
sVhowever
p292
F0.001341406945870708
sVselectively
p293
F0.0
sVwp
p294
F0.0
sVarticle
p295
F0.000846333553797247
sVc
p296
F0.0013356890607615721
sVlast
p297
F0.00044522968692052405
sVagonist
p298
F0.0
sVmany
p299
F0.0
sVpiracetam
p300
F0.0
sVupregulate
p301
F0.0
sVpdf
p302
F0.004375480999335909
sVapprove
p303
F0.004375480999335909
sVexperimental
p304
F0.0
sVotherwise
p305
F0.000846333553797247
sVcomment
p306
F0.001341406945870708
sVamong
p307
F0.001341406945870708
sVafaik
p308
F0.0
sVrevamp
p309
F0.0
sVthroughout
p310
F0.000846333553797247
sVavc_datasending_2014_en
p311
F0.0
sVquit
p312
F0.001341406945870708
sVlorcaserin
p313
F0.0
sVdecent
p314
F0.000846333553797247
sVpc
p315
F0.0021877404996679547
sVinterest
p316
F0.005365627783482832
sVtreatment
p317
F0.008750961998671819
sVefficacy
p318
F0.0
sVunderstand
p319
F0.00022261484346026202
sVcatch
p320
F0.001341406945870708
sVlamotrigine
p321
F0.0
sVcase
p322
F0.0014852201762203825
sVphysician
p323
F0.0
sVlook
p324
F0.00044522968692052405
sV2011
p325
F0.0
sVdepressionregimens
p326
F0.0
sVsuppose
p327
F0.001341406945870708
sVcountry
p328
F0.0004950733920734608
sVamisulpride
p329
F0.0
sVexclude
p330
F0.0021877404996679547
sValmost
p331
F0.00044522968692052405
sVside_effect
p332
F0.0
sVsurface
p333
F0.001341406945870708
sVanhedonia
p334
F0.0
sVritanserin
p335
F0.0
sVcomparative
p336
F0.0
sVdmt
p337
F0.0
sVverticaly
p338
F0.0
sVdevelop
p339
F0.001341406945870708
sVetc
p340
F0.00022261484346026202
sVcheck
p341
F0.001341406945870708
sVstrange
p342
F0.0014852201762203825
sVdownregulation
p343
F0.0
sVhigher
p344
F0.0004950733920734608
sVweek
p345
F0.000846333553797247
sVeffect
p346
F0.0011130742173013101
sVmoment
p347
F0.00022261484346026202
sVkaido
p348
F0.0
sVfrequently
p349
F0.004375480999335909
sVstack
p350
F0.004375480999335909
sVkid
p351
F0.004375480999335909
sVlower
p352
F0.0009901467841469216
sVexpression
p353
F0.001692667107594494
sVagonism
p354
F0.0
sVusual
p355
F0.0021877404996679547
sVbenzo
p356
F0.0
sVyea
p357
F0.0
sVdose
p358
F0.015314183497675686
sVdopamine
p359
F0.0
sVyes
p360
F0.00044522968692052405
sVconsole
p361
F0.0021877404996679547
sVdopaminergic
p362
F0.0
sVpoint
p363
F0.00044522968692052405
sVsky
p364
F0.002682813891741416
sVexcept
p365
F0.0004950733920734608
sVadd
p366
F0.002539000661391741
sVaffinity
p367
F0.0
sV4
p368
F0.00044522968692052405
sVformal
p369
F0.0021877404996679547
sVread
p370
F0.0014852201762203825
sVbig
p371
F0.00022261484346026202
sVpossible
p372
F0.001980293568293843
sVshitty
p373
F0.0021877404996679547
sVgame
p374
F0.001980293568293843
sVinhibition
p375
F0.0
sVknow
p376
F0.0006678445303807861
sVbackground
p377
F0.00022261484346026202
sVintersection
p378
F0.0
sVd
p379
F0.0
sVdesire
p380
F0.0021877404996679547
sVlike
p381
F0.0
sVstagger
p382
F0.0
sVcognition
p383
F0.0021877404996679547
sVbecome
p384
F0.00044522968692052405
sVtherapeutic
p385
F0.0
sVopioid
p386
F0.0
sVright
p387
F0.00044522968692052405
sVdeal
p388
F0.0009901467841469216
sVback
p389
F0.00022261484346026202
sVselectivity
p390
F0.0
sVpaxil
p391
F0.0
sVcabergoline
p392
F0.0
sVunless
p393
F0.000846333553797247
sVintact
p394
F0.001341406945870708
sVmood
p395
F0.001341406945870708
sVbenzodiazepine
p396
F0.0
sVdecision
p397
F0.000846333553797247
sVpsychologically
p398
F0.0
sVper
p399
F0.001341406945870708
sVresponder
p400
F0.0
sVcannabis
p401
F0.0
sVprovider
p402
F0.0
sVrun
p403
F0.00044522968692052405
sVschedule
p404
F0.0021877404996679547
sVnight
p405
F0.00022261484346026202
sV1snri
p406
F0.0
sVincline
p407
F0.0
sVanything
p408
F0.00044522968692052405
sVreappear
p409
F0.0
sVisland
p410
F0.002682813891741416
sVaco
p411
F0.0
sVdependence
p412
F0.0
sVbenzos
p413
F0.0
sVplus
p414
F0.000846333553797247
sValliance
p415
F0.0
sVpresence
p416
F0.0004950733920734608
sVnortriptyline
p417
F0.0
sVchronic
p418
F0.006563221499003864
sVoverkill
p419
F0.0
sVnicotine
p420
F0.0
sVreceptor
p421
F0.0
sVrisk
p422
F0.000846333553797247
sVlive
p423
F0.00022261484346026202
sVspecifically
p424
F0.0
sVdyskensia
p425
F0.0
sVstrict
p426
F0.0021877404996679547
sVlow
p427
F0.001980293568293843
sVlot
p428
F0.0
sVmetabolism
p429
F0.0021877404996679547
sVmedium
p430
F0.000846333553797247
sVelsewhere
p431
F0.0021877404996679547
sVform
p432
F0.0009901467841469216
sVenough
p433
F0.0
sVrecommend
p434
F0.0021877404996679547
sVht
p435
F0.0
sVasending
p436
F0.0
sVhear
p437
F0.0004950733920734608
sVgain
p438
F0.001341406945870708
sVline
p439
F0.0009901467841469216
sVmalate
p440
F0.0
sVpsychosis
p441
F0.0
sVoriginaly
p442
F0.0
sVplanet
p443
F0.0021877404996679547
sVetifoxine
p444
F0.0
sVlimit
p445
F0.001341406945870708
sVnootropic
p446
F0.0
sVproblem
p447
F0.001980293568293843
sVsimilar
p448
F0.0009901467841469216
sVclear
p449
F0.00022261484346026202
sVlongitude_of_the_ascending_node
p450
F0.0
sVlongjack
p451
F0.0
sVtricyclic
p452
F0.0
sVilegally
p453
F0.0
sVssri
p454
F0.0
sVdoesn
p455
F0.00022261484346026202
sVgeneral
p456
F0.0
sVfile
p457
F0.0021877404996679547
sVav
p458
F0.0
sVdealer
p459
F0.0021877404996679547
sVregime
p460
F0.0
sVmushroom
p461
F0.0021877404996679547
sVimage
p462
F0.001341406945870708
sVpeace
p463
F0.0021877404996679547
sV5
p464
F0.005565371086506551
sVsick
p465
F0.0021877404996679547
sVnode
p466
F0.0
sVwelcome
p467
F0.00022261484346026202
sVamphetamine
p468
F0.0
sVpractically
p469
F0.0021877404996679547
sVsvg
p470
F0.0
sVorbit
p471
F0.0
sVdaily
p472
F0.004375480999335909
sVwrite
p473
F0.0004950733920734608
sVtime
p474
F0.0
sVserious
p475
F0.000846333553797247
sVavoid
p476
F0.0004950733920734608
s.