(dp0
Vfour
p1
F4.068882903315861e-05
sVlocalized
p2
F4.998352635445239e-05
sVlooking
p3
F0.0
sVivabradine
p4
F0.0
sVdisinhibit
p5
F0.0
sVlord
p6
F3.0647258868750796e-05
sVimmature
p7
F0.0
sVhormone
p8
F0.0
sVtrileptal
p9
F0.0
sVleisurely
p10
F0.0
sVscreaming
p11
F6.129451773750159e-05
sVscholar
p12
F3.0647258868750796e-05
sVcommenter
p13
F0.0
sVkbar
p14
F0.0
sVstereotypical
p15
F0.0
sVspecially
p16
F4.998352635445239e-05
sVnigh
p17
F0.0
sVtired
p18
F0.0005607517570853464
sVpulse
p19
F0.0
sVtires
p20
F4.998352635445239e-05
sVsecond
p21
F7.120545080802758e-05
sVloathing
p22
F0.0
sVbolts
p23
F4.998352635445239e-05
sVrelieving
p24
F0.0
sVfingers
p25
F3.0647258868750796e-05
sVincreasing
p26
F0.00044985173719007155
sVhallucinating
p27
F0.0
sVcull
p28
F0.0
sVspecialist
p29
F0.0
sVherb
p30
F0.0
sVreported
p31
F4.998352635445239e-05
sVching
p32
F0.0
sVkids
p33
F0.00015323629434375397
sVphenelzine
p34
F0.0
sVk
p35
F6.129451773750159e-05
sVreports
p36
F3.0647258868750796e-05
sVcontroversy
p37
F4.998352635445239e-05
sVamitryptaline
p38
F0.0
sVneurologist
p39
F0.0
sVmilitary
p40
F0.00014995057906335717
sVprojection
p41
F0.0
sVwikimedia
p42
F0.0
sVexplained
p43
F4.998352635445239e-05
sVpsychological
p44
F0.00024991763177226195
sVcocaine
p45
F0.00014995057906335717
sVtrazodone
p46
F0.0
sVsexual
p47
F0.0019493575278236432
sVspoke
p48
F3.0647258868750796e-05
sVklonipin
p49
F0.0
sVmusic
p50
F5.5947139920593095e-05
sVtherefore
p51
F9.996705270890479e-05
sVcomorbid
p52
F0.0
sVholy
p53
F1.93362674857016e-05
sVrelax
p54
F9.194177660625239e-05
sVsuccessful
p55
F1.93362674857016e-05
sVbrings
p56
F3.0647258868750796e-05
sVhurt
p57
F0.00019993410541780957
sV99
p58
F3.0647258868750796e-05
sVglass
p59
F5.086103629144826e-06
sV90
p60
F0.00018388355321250478
sVhold
p61
F5.655495691524596e-05
sVbenedryl
p62
F0.0
sVcircumstances
p63
F6.129451773750159e-05
sVintake
p64
F0.0
sVpursue
p65
F0.0
sV105lbs
p66
F0.0
sVtemperatures
p67
F0.0
sVexample
p68
F0.00014704288797963948
sVwane
p69
F0.0
sVcaution
p70
F9.996705270890479e-05
sVwant
p71
F0.0
sVcounseling
p72
F0.0
sVabsolute
p73
F9.194177660625239e-05
sVpreferably
p74
F4.998352635445239e-05
sVpreventives
p75
F0.0
sVtravel
p76
F2.2621982766098382e-05
sVdamage
p77
F6.129451773750159e-05
sVmachine
p78
F0.00012258903547500319
sVhot
p79
F3.86725349714032e-05
sVmediating
p80
F0.0
sVmodulation
p81
F0.0
sVminimized
p82
F4.998352635445239e-05
sVwrong
p83
F0.00021490883627793466
sVtypes
p84
F0.00011601760491420961
sVeffective
p85
F0.00229924221230481
sVtetra
p86
F0.0
sVchildhood
p87
F0.0
sVorally
p88
F0.0
sVhorribly
p89
F0.0
sVkeeps
p90
F0.0001546901398856128
sVwind
p91
F1.93362674857016e-05
sVvary
p92
F0.00012258903547500319
sVantacid
p93
F0.0
sVactivating
p94
F0.00014995057906335717
sVfit
p95
F5.655495691524596e-05
sVbringing
p96
F2.2621982766098382e-05
sVfix
p97
F0.00024517807095000637
sVeasier
p98
F0.000290044012285524
sVzoning
p99
F0.0
sVeffects
p100
F0.00269695878045007
sVsixteen
p101
F3.0647258868750796e-05
sVelavil
p102
F0.0
sVlosartan
p103
F0.0
sVaddicted
p104
F0.0004998352635445239
sVinterfering
p105
F0.0
sVwhim
p106
F0.0
sVfinancial
p107
F4.998352635445239e-05
sVknockout
p108
F0.0
sVmda
p109
F0.0
sVspider
p110
F4.998352635445239e-05
sVmdd
p111
F0.0
sVcommons
p112
F0.0
sVring
p113
F3.0647258868750796e-05
sVru
p114
F0.0
sVrx
p115
F0.0
sVencourage
p116
F4.998352635445239e-05
sVdsm
p117
F0.0
sVadapt
p118
F0.0
sVrc
p119
F0.00014995057906335717
sVrn
p120
F0.0
sVwritten
p121
F6.129451773750159e-05
sVsensory
p122
F0.00019993410541780957
sVfaculties
p123
F0.0
sVsheet
p124
F1.93362674857016e-05
sVredhair
p125
F0.0
sVate
p126
F0.00018388355321250478
sVatm
p127
F0.0
sVmusicians
p128
F3.0647258868750796e-05
sVdentures
p129
F4.998352635445239e-05
sVwobbling
p130
F4.998352635445239e-05
sVsteroids
p131
F0.00014995057906335717
sVvitro
p132
F0.0
sVchannels
p133
F4.998352635445239e-05
sVkurzgesagt
p134
F0.0
sVwasn
p135
F0.00020344414516579304
sVclarity
p136
F3.0647258868750796e-05
sVseizures
p137
F0.0005998023162534287
sVfluvoxamine
p138
F0.0
sVneeded
p139
F0.0005414154895996448
sVmaster
p140
F1.93362674857016e-05
sVnoradrenergic_and_specific_serotonergic_antidepressant
p141
F0.0
sVlegs
p142
F5.8008802457104804e-05
sVbitter
p143
F4.998352635445239e-05
sVlisten
p144
F9.6681337428508e-05
sVrelative
p145
F0.00014995057906335717
sVminnies
p146
F0.0
sVpredictable
p147
F0.0
sVpositively
p148
F4.998352635445239e-05
sVshowed
p149
F0.00012258903547500319
sVcrave
p150
F0.0
sVfeeling
p151
F0.0004976836208541645
sVspectrum
p152
F0.0
sVshittiness
p153
F0.0
sVarousal
p154
F0.0
sVdozen
p155
F0.00012258903547500319
sVaffairs
p156
F4.998352635445239e-05
sVperson
p157
F0.0002601528018101314
sVresponsible
p158
F3.0647258868750796e-05
sVrecommended
p159
F0.00039986821083561915
sVcausing
p160
F0.00039841436529376034
sVresponsibly
p161
F0.0
sVgrips
p162
F1.93362674857016e-05
sVdiminishing
p163
F0.0
sVwells
p164
F0.0
sVresonates
p165
F4.998352635445239e-05
sVmouth
p166
F0.000193362674857016
sVdissociatives
p167
F0.0
sVchemistry
p168
F0.0
sVepisode
p169
F0.0005498187898989764
sVerectile
p170
F0.0
sVprofessor
p171
F4.998352635445239e-05
sVlose
p172
F6.611934717888274e-05
sVtech
p173
F4.998352635445239e-05
sVteca
p174
F0.0
sVcame
p175
F0.00036738908222833046
sVsaying
p176
F0.00012442090521354112
sVsetraline
p177
F0.0
sVmeetings
p178
F3.0647258868750796e-05
sVlethal
p179
F0.0
sVbusy
p180
F1.1310991383049191e-05
sVclicked
p181
F4.998352635445239e-05
sVcousins
p182
F4.998352635445239e-05
sVkinase
p183
F0.0
sVbliss
p184
F0.0
sVtouched
p185
F3.0647258868750796e-05
sVpsychiatric
p186
F0.0
sVforemost
p187
F0.0
sVpocket
p188
F9.996705270890479e-05
sValtogether
p189
F3.0647258868750796e-05
sVanxiolytic
p190
F0.0
sV80lbs
p191
F0.0
sVibotenic
p192
F0.0
sVnicely
p193
F3.0647258868750796e-05
sVdipping
p194
F0.0
sVyohimbe
p195
F0.0
sVpatch
p196
F6.129451773750159e-05
sVrelease
p197
F0.0002513714773141208
sVrespond
p198
F0.00018388355321250478
sVdeprenyl
p199
F0.0
sVblew
p200
F4.998352635445239e-05
sVfair
p201
F2.0344414516579305e-05
sVperipheral
p202
F0.0
sVresult
p203
F0.00024517807095000637
sVetiz
p204
F0.0
sVfail
p205
F6.786594829829516e-05
sVbleh
p206
F0.0
sVbest
p207
F0.00023904687056980684
sVavandia
p208
F0.0
sVlots
p209
F0.0002513714773141208
sVwikipedia
p210
F0.0
sVscore
p211
F1.93362674857016e-05
sVoccupational
p212
F0.0
sVirc
p213
F4.998352635445239e-05
sVletting
p214
F4.998352635445239e-05
sVmen
p215
F3.86725349714032e-05
sVdeltasone
p216
F0.0
sVnature
p217
F2.543051814572413e-05
sVsmelled
p218
F4.998352635445239e-05
sVmeh
p219
F0.0
sVextent
p220
F9.996705270890479e-05
sVaccident
p221
F0.00014995057906335717
sVtriggers
p222
F4.998352635445239e-05
sVcountry
p223
F5.655495691524596e-05
sVadventures
p224
F0.0
sVdemanded
p225
F0.0
sVplanned
p226
F9.996705270890479e-05
sVlogic
p227
F4.998352635445239e-05
sVpita
p228
F0.0
sVargue
p229
F9.996705270890479e-05
sVadapted
p230
F0.0
sVasked
p231
F0.0001353538723999112
sVirresponsible
p232
F0.0
sV2nd
p233
F9.194177660625239e-05
sVpregnancy
p234
F9.996705270890479e-05
sVlorcaserin
p235
F0.0
sVsubside
p236
F0.0
sVbothers
p237
F0.0
sVnorvasc
p238
F0.0
sVfatlogic
p239
F0.0
sVlife
p240
F0.00041706049758987574
sV25i
p241
F0.0
sVrecomend
p242
F0.0
sVhospitalized
p243
F0.0
sVworker
p244
F4.998352635445239e-05
sVwish
p245
F0.0001353538723999112
sVlift
p246
F6.129451773750159e-05
sVchild
p247
F3.393297414914758e-05
sVworked
p248
F0.000531616595003312
sVcalcium
p249
F0.0
sVbacolfen
p250
F0.0
sVarevailablell
p251
F0.0
sVremembering
p252
F0.00014995057906335717
sVplayed
p253
F3.0647258868750796e-05
sVupregulates
p254
F0.0
sVweirdness
p255
F4.998352635445239e-05
sVplayer
p256
F3.0647258868750796e-05
sVanhedonia
p257
F0.0
sVanhedonic
p258
F0.0
sVinsatiable
p259
F0.0
sVseverity
p260
F0.0
sVdhc
p261
F0.0
sV10yrs
p262
F0.0
sVeuropean
p263
F0.0
sVfairly
p264
F0.00027582532981875715
sVmyocardial
p265
F0.0
sVtops
p266
F3.0647258868750796e-05
sVtune
p267
F4.998352635445239e-05
sVabound
p268
F0.0
sVsleepy
p269
F0.0007497528953167859
sVphenubit
p270
F0.0
sVfinancially
p271
F9.996705270890479e-05
sVprevious
p272
F2.0344414516579305e-05
sVhah
p273
F0.0
sVantidopaminergic
p274
F0.0
sVdining
p275
F4.998352635445239e-05
sVacetylsalicylic
p276
F0.0
sVease
p277
F6.129451773750159e-05
sVeasy
p278
F0.0
sVprison
p279
F0.00012258903547500319
sVhat
p280
F1.93362674857016e-05
sVpossible
p281
F0.00021490883627793466
sVpossibly
p282
F0.00012442090521354112
sVbirth
p283
F0.00014995057906335717
sVshadow
p284
F3.0647258868750796e-05
sVunique
p285
F9.194177660625239e-05
sVtolerable
p286
F0.0
sVmassively
p287
F0.0
sVoccurring
p288
F0.0
sVdesire
p289
F9.996705270890479e-05
sVbrought
p290
F2.0344414516579305e-05
sVtapering
p291
F0.0
sVremind
p292
F6.129451773750159e-05
sVsteps
p293
F3.86725349714032e-05
sVbeneficial
p294
F9.996705270890479e-05
sVright
p295
F0.00032042452863612406
sVold
p296
F0.0
sVcrowd
p297
F6.129451773750159e-05
sVdepakene
p298
F0.0
sVtxt
p299
F4.998352635445239e-05
sVbottom
p300
F2.0344414516579305e-05
sVparesthesia
p301
F0.0
sVcreative
p302
F0.00012258903547500319
sVfog
p303
F0.0
sVperiphery
p304
F0.0
sVumm
p305
F0.0
sVdiltiazem
p306
F0.0
sVdental
p307
F4.998352635445239e-05
sVshifting
p308
F4.998352635445239e-05
sVlosing
p309
F5.655495691524596e-05
sVvalium
p310
F0.0
sVrestlessness
p311
F0.0
sVboiling
p312
F0.0
sVinderal
p313
F0.0
sVo
p314
F1.0172207258289653e-05
sVlacked
p315
F0.0
sVslightly
p316
F0.00010179892244744273
sVraised
p317
F1.93362674857016e-05
sVson
p318
F3.393297414914758e-05
sVthankful
p319
F0.0
sVraises
p320
F3.0647258868750796e-05
sVwrap
p321
F1.93362674857016e-05
sVreducing
p322
F0.0
sVvaldoxan
p323
F0.0
sVsupport
p324
F9.194177660625239e-05
sVconstantly
p325
F0.0001353538723999112
sVtame
p326
F9.996705270890479e-05
sVavail
p327
F0.0
sVhumorous
p328
F4.998352635445239e-05
sVcarthage_nursing_home_shooting
p329
F0.0
sVjane
p330
F0.0
sVacross
p331
F0.00017402640737131442
sVhappy
p332
F0.00020359784489488547
sVpamelor
p333
F0.0
sVoffer
p334
F0.0008507957693708705
sVforming
p335
F0.0
sVmorpine
p336
F0.0
sVunderstandable
p337
F0.0
sVcircumstantial
p338
F0.0
sV2000ug
p339
F0.0
sVaza
p340
F0.0
sVinside
p341
F2.0344414516579305e-05
sVbouncy
p342
F0.0
sVdevices
p343
F0.0
sVtonne
p344
F0.0
sV8mg
p345
F0.0
sV155
p346
F0.0
sVproven
p347
F0.00014995057906335717
sVrestorative
p348
F0.0
sVsoothe
p349
F0.0
sVexist
p350
F3.0647258868750796e-05
sVdealer
p351
F9.996705270890479e-05
sV200mg
p352
F0.0
sVfloor
p353
F3.0647258868750796e-05
sVactor
p354
F4.998352635445239e-05
sVactos
p355
F0.0
sVrole
p356
F0.00014995057906335717
sVbecuase
p357
F0.0
sVsmell
p358
F6.129451773750159e-05
sVroll
p359
F3.86725349714032e-05
sVintend
p360
F4.998352635445239e-05
sVinvested
p361
F0.0
sVrolling
p362
F1.93362674857016e-05
sVnoradrenergic
p363
F0.0
sVreabsorption
p364
F0.0
sVtime
p365
F0.0
sVpush
p366
F1.93362674857016e-05
sVmasturbation
p367
F4.998352635445239e-05
sVlamactil
p368
F0.0
sVwhoever
p369
F1.93362674857016e-05
sVhangovers
p370
F0.0
sVactivated
p371
F4.998352635445239e-05
sVtrichotillomania
p372
F0.0
sVasymptomatic
p373
F0.0
sVvet
p374
F0.00034988468448116675
sVobsessively
p375
F0.0
sV94
p376
F3.0647258868750796e-05
sVrecurrence
p377
F0.0
sVcheat
p378
F4.998352635445239e-05
sVpersevere
p379
F0.0
sVgooglefu
p380
F0.0
sVcheap
p381
F0.00012258903547500319
sVchoice
p382
F7.73450699428064e-05
sV977x
p383
F0.0
sVexact
p384
F0.00017402640737131442
sVdextropropoxyphene
p385
F0.0
sVtear
p386
F1.1310991383049191e-05
sVskewed
p387
F0.0
sVleave
p388
F9.048793106439353e-05
sVsolved
p389
F0.0
sVpropanolol
p390
F0.0
sVteam
p391
F0.00014995057906335717
sVloads
p392
F3.0647258868750796e-05
sVorganon
p393
F0.0
sVprevent
p394
F9.194177660625239e-05
sVspiritual
p395
F9.996705270890479e-05
sVfindings
p396
F0.0
sVinsignificant
p397
F0.0
sVsigh
p398
F3.0647258868750796e-05
sVsign
p399
F1.0172207258289653e-05
sVstrenghts
p400
F0.0
sVagonists
p401
F0.0
sVpatient
p402
F0.0009996705270890478
sVeducate
p403
F0.0
sVpsychotropic
p404
F0.0
sVrealizing
p405
F0.0
sVcurrent
p406
F0.00017402640737131442
sVremembered
p407
F1.93362674857016e-05
sVamericansubs
p408
F0.0
sVfalling
p409
F0.00018388355321250478
sVcrashing
p410
F3.86725349714032e-05
sVboost
p411
F0.0
sVfocalin
p412
F0.0
sVgrandparents
p413
F4.998352635445239e-05
sVfuneral
p414
F4.998352635445239e-05
sVunderstanding
p415
F5.8008802457104804e-05
sVaddress
p416
F0.00012258903547500319
sValone
p417
F0.0002513714773141208
sValong
p418
F6.1033243549737916e-05
sVstudied
p419
F4.998352635445239e-05
sVcommonly
p420
F0.0
sVineffective
p421
F0.00014995057906335717
sVstudies
p422
F0.00029990115812671435
sVpepto
p423
F0.0
sVlove
p424
F0.0001696648707457379
sVconfidentiality
p425
F4.998352635445239e-05
sVprefer
p426
F3.86725349714032e-05
sVlogical
p427
F0.0
sVlogically
p428
F4.998352635445239e-05
sVfake
p429
F9.996705270890479e-05
sVempathogens
p430
F0.0
sVworking
p431
F0.0
sV4ish
p432
F0.0
sVpositive
p433
F0.00023203520982841922
sVangry
p434
F9.194177660625239e-05
sVtightly
p435
F6.129451773750159e-05
sVopposed
p436
F3.0647258868750796e-05
sVbender
p437
F0.0
sVscope
p438
F4.998352635445239e-05
sVtheoretical
p439
F0.0
sVafford
p440
F9.996705270890479e-05
sVoregon
p441
F0.0
sVatarax
p442
F0.0
sVmirtazap
p443
F0.0
sVappendix
p444
F0.0
sVeverywhere
p445
F3.86725349714032e-05
sVopioids
p446
F0.0
sVoriginally
p447
F3.0647258868750796e-05
sVhomie
p448
F0.0
sVaripiprazole
p449
F0.0
sVbelieved
p450
F0.0
sVmetoprolol
p451
F0.0
sVawesome
p452
F0.0005498187898989764
sVallowed
p453
F4.5243965532196764e-05
sVoffense
p454
F4.998352635445239e-05
sVstole
p455
F4.998352635445239e-05
sVdiclazepam
p456
F0.0
sVwinter
p457
F3.0647258868750796e-05
sVimmune
p458
F4.998352635445239e-05
sVblasting
p459
F0.0
sVspot
p460
F3.86725349714032e-05
sVlaxative
p461
F0.0
sVexplored
p462
F0.0
sVdate
p463
F3.0647258868750796e-05
sVsuck
p464
F0.0002145308120812556
sVdata
p465
F0.00019993410541780957
sVcontraindicated
p466
F0.0
sVlids
p467
F0.0
sVstress
p468
F0.00030647258868750794
sVnatural
p469
F9.194177660625239e-05
sVvarieties
p470
F4.998352635445239e-05
sVconscious
p471
F4.998352635445239e-05
sVsr
p472
F0.0
sVse
p473
F6.129451773750159e-05
sVtachy
p474
F0.0
sVepilepsy
p475
F0.0
sVunacceptable
p476
F3.0647258868750796e-05
sVyears
p477
F0.0008257023709625909
sVpreskorn
p478
F0.0
sVcourse
p479
F0.00022621982766098383
sVepisodes
p480
F0.0
sVexperiments
p481
F0.0
sVtendency
p482
F0.00014995057906335717
sVlimbs
p483
F4.998352635445239e-05
sVtorn
p484
F0.0
sVtroubles
p485
F0.0
sVtwitching
p486
F4.998352635445239e-05
sVdecreases
p487
F0.0
sVjiu
p488
F0.0
sVconstitutes
p489
F0.0
sVsuspension
p490
F0.0
sVdecades
p491
F4.998352635445239e-05
sVinstantly
p492
F4.998352635445239e-05
sVstabilizers
p493
F0.0
sVthereby
p494
F0.0
sVinsomnia
p495
F0.0
sVrecords
p496
F9.996705270890479e-05
sVoverpowering
p497
F0.0
sVarriving
p498
F0.00019993410541780957
sVmatched
p499
F4.998352635445239e-05
sVprophylaxis
p500
F0.0
sVdidn
p501
F0.0004068882903315861
sVestablishing
p502
F4.998352635445239e-05
sVbowling
p503
F3.0647258868750796e-05
sVquarter
p504
F3.0647258868750796e-05
sVsuffixes
p505
F4.998352635445239e-05
sVcrushing
p506
F4.998352635445239e-05
sVbreakthrough
p507
F0.0
sVhcp
p508
F0.0
sVfu
p509
F0.0
sVseriously
p510
F0.00017402640737131442
sVtrauma
p511
F0.0
sVinternet
p512
F9.194177660625239e-05
sVsuggesting
p513
F3.0647258868750796e-05
sVastral
p514
F0.0
sVcurbs
p515
F0.0
sVmillion
p516
F9.996705270890479e-05
sVinhaled
p517
F0.0
sVpossibility
p518
F9.194177660625239e-05
sVquite
p519
F0.00015766921250348962
sVcomplicated
p520
F9.996705270890479e-05
sVbesides
p521
F0.0002145308120812556
sVvenlaflaxine
p522
F0.0
sVtraining
p523
F9.194177660625239e-05
sVhypnogogic
p524
F0.0
sVdunno
p525
F6.129451773750159e-05
sVdownsides
p526
F0.0
sVmassive
p527
F0.0
sVroutes
p528
F0.0
sVemotion
p529
F9.996705270890479e-05
sVsaving
p530
F3.86725349714032e-05
sVspoken
p531
F4.998352635445239e-05
sVentheogens
p532
F0.0
sVsubmit
p533
F6.129451773750159e-05
sVchubby
p534
F4.998352635445239e-05
sVcustom
p535
F0.0010996375797979528
sVopen
p536
F0.0
sVlanguish
p537
F0.0
sVcity
p538
F3.86725349714032e-05
sVbite
p539
F2.2621982766098382e-05
sV2
p540
F0.0007934321661465929
sVrealization
p541
F0.0
sVbits
p542
F3.0647258868750796e-05
sVwilliams
p543
F0.0
sVfma
p544
F0.0
sVsurges
p545
F0.0
sVridiculous
p546
F0.00014995057906335717
sVboyfriend
p547
F0.00024991763177226195
sVrehab
p548
F0.00014995057906335717
sVunfit
p549
F0.0
sVinmediatly
p550
F0.0
sVcounselor
p551
F4.998352635445239e-05
sVprospect
p552
F0.0
sVillness
p553
F0.0
sVtasted
p554
F3.0647258868750796e-05
sVnicer
p555
F3.0647258868750796e-05
sVturned
p556
F4.068882903315861e-05
sVlocations
p557
F9.996705270890479e-05
sVdiabeta
p558
F0.0
sVssris
p559
F0.0
sVtastes
p560
F5.8008802457104804e-05
sVpubmed
p561
F0.0
sVinhibiting
p562
F0.0
sVsaw
p563
F9.6681337428508e-05
sVaside
p564
F0.0001353538723999112
sVnote
p565
F0.00010179892244744273
sVrumination
p566
F0.0
sVdestroy
p567
F9.996705270890479e-05
sVopposite
p568
F0.00015323629434375397
sVknew
p569
F0.0001546901398856128
sVcrochet
p570
F0.0
sVknee
p571
F0.0
sVpages
p572
F6.129451773750159e-05
sVenamel
p573
F0.0
sVaverage
p574
F0.00012258903547500319
sVdrive
p575
F0.00030647258868750794
sVmanaging
p576
F4.998352635445239e-05
sVsalt
p577
F9.996705270890479e-05
sVstimulator
p578
F0.0
sVbright
p579
F1.93362674857016e-05
sVaggressive
p580
F0.0
sVslow
p581
F0.0001357318965965903
sVsativa
p582
F0.0
sVconduction
p583
F0.0
sVconsiderable
p584
F3.0647258868750796e-05
sVtears
p585
F6.129451773750159e-05
sVgoing
p586
F0.0
sVcarolina
p587
F0.0
sVoutlet
p588
F0.0
sVprime
p589
F4.998352635445239e-05
sVmaniacal
p590
F0.0
sVworried
p591
F0.0001546901398856128
sVtdoc
p592
F0.0
sVliable
p593
F0.0
sVsurgeries
p594
F0.0
sVvision
p595
F0.0
sVattenuates
p596
F0.0
sVanyways
p597
F0.00012258903547500319
sVsurgery
p598
F9.996705270890479e-05
sVintoxicating
p599
F0.0
sVpoops
p600
F9.996705270890479e-05
sVsites
p601
F9.996705270890479e-05
sVrefreshed
p602
F4.998352635445239e-05
sVaffecting
p603
F0.0
sVteens
p604
F4.998352635445239e-05
sVwalks
p605
F1.93362674857016e-05
sVinappropriately
p606
F0.0
sVjobs
p607
F6.129451773750159e-05
sVmature
p608
F1.93362674857016e-05
sVsmooths
p609
F0.0
sVconcentrate
p610
F9.996705270890479e-05
sVspark
p611
F0.0
sVcircumference
p612
F0.0
sVmany
p613
F0.0
sVflipped
p614
F0.0
sVexpression
p615
F1.93362674857016e-05
sVcoma
p616
F9.996705270890479e-05
sVludiomil
p617
F0.0
sVpanicy
p618
F0.0
sV3000
p619
F0.0
sVcomeback
p620
F4.998352635445239e-05
sVboat
p621
F9.996705270890479e-05
sVcaring
p622
F4.998352635445239e-05
sVstretch
p623
F3.0647258868750796e-05
sVcombined
p624
F0.0002145308120812556
sV15mg
p625
F0.0
sVwants
p626
F0.0
sVlanes
p627
F0.0
sVinfluence
p628
F3.86725349714032e-05
sVpersist
p629
F9.996705270890479e-05
sVpsychotherapy
p630
F0.0
sVformer
p631
F4.5243965532196764e-05
sVzispin
p632
F0.0
sVpolicies
p633
F0.0
sVsituation
p634
F0.00045970888303126196
sVive
p635
F0.0
sVctrl
p636
F4.998352635445239e-05
sVbros
p637
F0.0
sVblah
p638
F6.129451773750159e-05
sVblab
p639
F0.0
sVantihistiminergic
p640
F0.0
sVshuts
p641
F4.998352635445239e-05
sVperpetually
p642
F9.996705270890479e-05
sVunderestimate
p643
F4.998352635445239e-05
sVunemployed
p644
F0.0
sVbreakdown
p645
F0.00019993410541780957
sVvisually
p646
F3.0647258868750796e-05
sVsickness
p647
F4.998352635445239e-05
sVcheers
p648
F4.998352635445239e-05
sVesmirtazapine
p649
F0.0
sVintended
p650
F0.0
sVunmanageable
p651
F0.0
sVpsychiatrists
p652
F0.0
sVawesomeness
p653
F0.0
sVantihistamine
p654
F0.0
sVcosts
p655
F4.998352635445239e-05
sVcomes
p656
F0.000193362674857016
sVsummer
p657
F0.00017402640737131442
sVbenzo
p658
F0.0
sVexaggerating
p659
F0.0
sVslime
p660
F4.998352635445239e-05
sVrest
p661
F2.0344414516579305e-05
sVsummed
p662
F0.0
sVwiki_laboratory_analysis
p663
F0.0
sVprovocation
p664
F0.0
sVoccasional
p665
F0.0
sVgrounded
p666
F0.0
sVghostly
p667
F0.0
sVntioned
p668
F0.0
sVstarving
p669
F4.998352635445239e-05
sVaround
p670
F0.00022378855968237238
sVdiphenhydramine
p671
F0.0
sVmorphine
p672
F0.00044985173719007155
sVdart
p673
F4.998352635445239e-05
sVdark
p674
F0.0
sVtraffic
p675
F4.998352635445239e-05
sVworld
p676
F0.00014704288797963948
sVdecomposes
p677
F0.0
sVmeaning
p678
F3.86725349714032e-05
sV60
p679
F0.00015323629434375397
sVstranger
p680
F4.998352635445239e-05
sVbuspan
p681
F0.0
sVbuspar
p682
F0.0
sVunderweight
p683
F0.0
sVconditional
p684
F0.0
sVcognitive
p685
F0.0
sVdiving
p686
F0.0
sVdivine
p687
F4.998352635445239e-05
sVthinks
p688
F3.86725349714032e-05
sVdissociated
p689
F0.0
sVsubstance
p690
F0.0
sVdds
p691
F0.0
sVability
p692
F0.00036776710642500956
sVcannabis
p693
F0.0
sVexit
p694
F1.93362674857016e-05
sVwenlafaxine
p695
F0.0
sVpropylthiouracil
p696
F0.0
sV911
p697
F0.0
sVsided
p698
F0.0
sVrefer
p699
F9.996705270890479e-05
sVdestroys
p700
F0.0
sVscientific
p701
F9.996705270890479e-05
sVpower
p702
F6.786594829829516e-05
sVintimate
p703
F3.0647258868750796e-05
sVstandpoint
p704
F0.0
sVstone
p705
F7.73450699428064e-05
sVindustry
p706
F4.998352635445239e-05
sVfavorite
p707
F0.00011601760491420961
sVside
p708
F5.5947139920593095e-05
sV75mg
p709
F0.0
sVact
p710
F4.5243965532196764e-05
sVmean
p711
F0.0001696648707457379
sVimage
p712
F3.0647258868750796e-05
sVfreaked
p713
F4.998352635445239e-05
sVdxms
p714
F0.0
sVtechnically
p715
F3.0647258868750796e-05
sVhes
p716
F0.0
sVhey
p717
F0.00024517807095000637
sVbrazilian
p718
F0.0
sVpsychopharmacology
p719
F0.0
sVrecommends
p720
F0.0
sVcomplete
p721
F4.5243965532196764e-05
sVsurvived
p722
F4.998352635445239e-05
sVbuying
p723
F0.00014995057906335717
sVhandsome
p724
F3.0647258868750796e-05
sVcard
p725
F3.0647258868750796e-05
sVpull
p726
F2.2621982766098382e-05
sVregimen
p727
F0.0
sVrage
p728
F0.00024991763177226195
sVdirty
p729
F6.129451773750159e-05
sVdispensing
p730
F0.0
sVtrips
p731
F9.194177660625239e-05
sVmisery
p732
F4.998352635445239e-05
sVaa
p733
F0.0
sVgone
p734
F8.646376169546205e-05
sVac
p735
F0.0
sVab
p736
F0.0
sVohh
p737
F0.0
sVad
p738
F0.00015323629434375397
sVexhausted
p739
F0.00019993410541780957
sVcertain
p740
F9.154986532460688e-05
sVdoug
p741
F0.0
sVal
p742
F4.998352635445239e-05
sVap
p743
F0.0
sVhypertension
p744
F0.0
sVaw
p745
F0.0
sVav
p746
F0.0
sVyoga
p747
F4.998352635445239e-05
sVmandated
p748
F0.0
sVgraduate
p749
F4.998352635445239e-05
sVsomeones
p750
F0.0
sVpuppy
p751
F0.0
sVa2
p752
F0.0
sVtricky
p753
F4.998352635445239e-05
sVaday
p754
F0.0
sVgastric
p755
F0.0
sVmask
p756
F9.996705270890479e-05
sVmimic
p757
F4.998352635445239e-05
sVbehavioral
p758
F0.0
sVexternal
p759
F3.0647258868750796e-05
sVconsider
p760
F0.0001696648707457379
sVcaused
p761
F0.0006129451773750159
sVquietapine
p762
F0.0
sVcauses
p763
F0.0008581232483250224
sVimproperly
p764
F4.998352635445239e-05
sVcareful
p765
F0.0002145308120812556
sVtv
p766
F0.00014995057906335717
sVsulfate
p767
F0.0
sVtl
p768
F0.0
sVpaying
p769
F9.996705270890479e-05
sVappointment
p770
F0.0005498187898989764
sVzapping
p771
F0.0
sVblockade
p772
F0.0
sVdiary
p773
F4.998352635445239e-05
sVcondition
p774
F3.86725349714032e-05
sVnoobs
p775
F0.0
sVpotentiation
p776
F0.0
sVlaying
p777
F4.998352635445239e-05
sVt3
p778
F0.0
sVlarge
p779
F0.0
sVadjust
p780
F0.00014995057906335717
sVsmall
p781
F4.577493266230344e-05
sVpsychopharmacologist
p782
F0.0
sVquicker
p783
F4.998352635445239e-05
sVantibiotic
p784
F0.0
sVpast
p785
F0.0003167077587253774
sVpass
p786
F2.2621982766098382e-05
sVcomedown
p787
F0.0
sVsection
p788
F9.194177660625239e-05
sVfucks
p789
F4.998352635445239e-05
sVtrialing
p790
F0.0
sVmethod
p791
F9.996705270890479e-05
sVhasn
p792
F5.655495691524596e-05
sVfull
p793
F0.0
sVvomiting
p794
F0.00014995057906335717
sVhours
p795
F0.0005994825433016072
sVnovember
p796
F0.0
sV20lbs
p797
F0.0
sVcompliance
p798
F0.0
sVcyproheptadine
p799
F0.0
sVbrutal
p800
F0.0
sVprior
p801
F9.996705270890479e-05
sVhealthier
p802
F0.0
sVpick
p803
F0.00048340668714254005
sVcessation
p804
F0.0
sVmurdering
p805
F4.998352635445239e-05
sVvia
p806
F0.00019993410541780957
sVfollowed
p807
F5.8008802457104804e-05
sVagomelatine
p808
F0.0
sVbenifited
p809
F0.0
sVpulls
p810
F3.0647258868750796e-05
sVoccassion
p811
F0.0
sV6
p812
F0.00021870245605322755
sVmetformin
p813
F0.0
sVdoor
p814
F1.1310991383049191e-05
sVsubstances
p815
F0.0005498187898989764
sVenormous
p816
F4.998352635445239e-05
sVtested
p817
F4.998352635445239e-05
sVdood
p818
F0.0
sVdislike
p819
F4.998352635445239e-05
sVkeeping
p820
F0.0001353538723999112
sVscience
p821
F0.00018388355321250478
sVnovolog
p822
F0.0
sVlearn
p823
F0.00014995057906335717
sVknocked
p824
F5.8008802457104804e-05
sVmale
p825
F0.00011601760491420961
sVallegra
p826
F0.0
sVantagonists
p827
F0.0
sVstated
p828
F4.998352635445239e-05
sVaccept
p829
F3.86725349714032e-05
sVstates
p830
F0.00018388355321250478
sVnejmp0907708
p831
F0.0
sVsense
p832
F6.611934717888274e-05
sVaxit
p833
F0.0
sVdisliked
p834
F0.0
sVsalts
p835
F0.0
sVaxis
p836
F0.0
sVhuge
p837
F5.086103629144826e-05
sVdismissed
p838
F4.998352635445239e-05
sVsalvia
p839
F0.0
sVhugs
p840
F4.998352635445239e-05
sVingesting
p841
F0.0
sVplant
p842
F4.998352635445239e-05
sVtempting
p843
F0.0
sVblotter
p844
F0.0
sVsympathize
p845
F0.0
sVtreatments
p846
F0.0
sVbrintellix
p847
F0.0
sVrefuse
p848
F3.86725349714032e-05
sVreccomendation
p849
F0.0
sVsertraline
p850
F0.0
sVmayoclinic
p851
F0.0
sVtramadol
p852
F0.0
sVtrade
p853
F1.93362674857016e-05
sVmixing
p854
F0.00019993410541780957
sVattitude
p855
F4.998352635445239e-05
sVpaper
p856
F7.73450699428064e-05
sVsmiling
p857
F4.998352635445239e-05
sVorexigenic
p858
F0.0
sVrapidly
p859
F5.8008802457104804e-05
sVepileptic
p860
F0.0
sVsymptoms
p861
F0.0
sV2hours
p862
F0.0
sVindividuals
p863
F0.0
sVbypass
p864
F4.998352635445239e-05
sVamitriptyline
p865
F0.0
sVally
p866
F0.0
sVskipped
p867
F9.996705270890479e-05
sVentire
p868
F0.00011601760491420961
sVflonase
p869
F0.0
sVsnowball
p870
F0.0
sVrespire
p871
F0.0
sVmisuse
p872
F0.0
sVsucked
p873
F0.00024991763177226195
sVeverytime
p874
F4.998352635445239e-05
sVcoping
p875
F0.0
sValways
p876
F0.0
sVnauseous
p877
F0.0
sVfound
p878
F0.0003051662177486896
sVreactions
p879
F0.0
sVaccelerator
p880
F4.998352635445239e-05
sVreduce
p881
F0.00027582532981875715
sVfinish
p882
F5.8008802457104804e-05
sVdoses
p883
F0.0
sVtry
p884
F0.00048826594839790333
sVpsychology
p885
F9.996705270890479e-05
sVresearch
p886
F0.0010996375797979528
sVoccurs
p887
F6.129451773750159e-05
sVnervously
p888
F4.998352635445239e-05
sVbelief
p889
F0.0
sVness
p890
F4.998352635445239e-05
sVqualify
p891
F0.0
sVimagine
p892
F0.0001353538723999112
sVw
p893
F5.8008802457104804e-05
sVbupropion
p894
F0.0
sVmajor
p895
F0.0001583538793626887
sVrooted
p896
F0.0
sVthereafter
p897
F0.0
sVnumber
p898
F0.0002513714773141208
sVnumbed
p899
F0.0
sVcomedowns
p900
F0.0
sVhiatal
p901
F0.0
sVguess
p902
F0.00034805281474262884
sVcalculations
p903
F0.00019993410541780957
sVlisted
p904
F0.00018388355321250478
sVrelationship
p905
F0.0001353538723999112
sVimmediate
p906
F3.0647258868750796e-05
sVconsult
p907
F0.0
sVfocusing
p908
F4.998352635445239e-05
sVstairs
p909
F0.0002145308120812556
sVaaa
p910
F0.0
sVsyringes
p911
F0.00029990115812671435
sVrecreationally
p912
F0.0
sVdetermined
p913
F4.998352635445239e-05
sVrefrain
p914
F0.0
sVfights
p915
F3.0647258868750796e-05
sVorganisations
p916
F0.0
sVdefect
p917
F0.00012258903547500319
sVincidentally
p918
F0.0
sVantagonizes
p919
F0.0
sVself
p920
F7.120545080802758e-05
sVinternal
p921
F3.0647258868750796e-05
sVgeneralized
p922
F4.998352635445239e-05
sVplay
p923
F5.8008802457104804e-05
sVrisperidone
p924
F0.0
sVfirsthand
p925
F0.0
sVeffecting
p926
F0.0
sVplat
p927
F0.0
sVyawn
p928
F0.0
sVvirus
p929
F0.00019993410541780957
sVplan
p930
F0.0001546901398856128
sVaccepting
p931
F9.996705270890479e-05
sVcchrint
p932
F0.0
sVfunnier
p933
F4.998352635445239e-05
sVsometimes
p934
F0.0004976836208541645
sVcover
p935
F7.917693968134435e-05
sVartistic
p936
F0.0
sVgaba
p937
F0.0
sVugh
p938
F0.0
sVgold
p939
F3.86725349714032e-05
sVblended
p940
F0.0
sVdegrades
p941
F0.0
sVtranquilizer
p942
F0.0
sVsession
p943
F4.998352635445239e-05
sVfianc
p944
F3.0647258868750796e-05
sVimpact
p945
F0.0
sVwrites
p946
F4.998352635445239e-05
sVfailed
p947
F0.00018388355321250478
sVenzyme
p948
F0.0
sVfactor
p949
F0.00014995057906335717
sVcolumns
p950
F4.998352635445239e-05
sVdependent
p951
F0.00014995057906335717
sVbanned
p952
F0.0
sVremedy
p953
F0.0
sVadapts
p954
F0.0
sVprogressive
p955
F0.0
sVcry
p956
F6.129451773750159e-05
sVcrf
p957
F0.0
sVkill
p958
F0.00012442090521354112
sVinsane
p959
F0.00024991763177226195
sVautoreceptors
p960
F0.0
sVset
p961
F3.560272540401379e-05
sVpotent
p962
F0.0
sVsex
p963
F0.0004290616241625112
sVsee
p964
F0.00041706049758987574
sVvitamins
p965
F0.00014995057906335717
sVmuted
p966
F0.0
sVmovie
p967
F6.129451773750159e-05
sVcurrently
p968
F0.00046407041965683843
sVtenormin
p969
F0.0
sVnope
p970
F0.00014995057906335717
sVmonsters
p971
F4.998352635445239e-05
sVavailable
p972
F0.0002707077447998224
sVmilder
p973
F0.0
sVincident
p974
F0.0
sVselectively
p975
F0.0
sVrecreantional
p976
F0.0
sVtangible
p977
F0.0
sVbarely
p978
F0.00030647258868750794
sVconnection
p979
F6.129451773750159e-05
sVimproves
p980
F4.998352635445239e-05
sVretarded
p981
F4.998352635445239e-05
sVgoverment
p982
F0.0
sVtoxicology
p983
F0.0
sVwhole
p984
F0.0003287165472569272
sVdepersonalisation
p985
F0.0
sVload
p986
F1.93362674857016e-05
sVbell
p987
F4.998352635445239e-05
sVultrashort
p988
F0.0
sVexcept
p989
F0.0001583538793626887
sVbiiiiig
p990
F0.0
sVagents
p991
F0.00034988468448116675
sVadaptation
p992
F0.0
sVscottish
p993
F0.0
sVpsychoanalyst
p994
F0.0
sVhitting
p995
F3.86725349714032e-05
sVmindset
p996
F0.0
sVfogginess
p997
F0.0
sVnri
p998
F0.0
sVsobriety
p999
F0.0
sVfire
p1000
F2.2621982766098382e-05
sVmoderation
p1001
F0.0
sVawake
p1002
F0.00044985173719007155
sVsnfis
p1003
F0.0
sVlamotrigine
p1004
F0.0
sVuncertain
p1005
F4.998352635445239e-05
sVstraight
p1006
F0.0001525831088743448
sVerror
p1007
F0.00014995057906335717
sVrobin
p1008
F0.0
sVpound
p1009
F0.00012258903547500319
sVhoping
p1010
F0.00039986821083561915
sVstopdrinking
p1011
F0.0
sVagitation
p1012
F0.0
sVhyperactivity
p1013
F0.0
sVbinding
p1014
F3.0647258868750796e-05
sVhydrocodone
p1015
F0.0
sVhypoxiam
p1016
F0.0
sVfunny
p1017
F4.5243965532196764e-05
sVbenzydamine
p1018
F0.0
sVmethoxetamine
p1019
F0.0
sVelevated
p1020
F0.0
sVshorter
p1021
F6.129451773750159e-05
sVrules
p1022
F0.00018388355321250478
sVvirtually
p1023
F0.0
sVelevates
p1024
F0.0
sVknitting
p1025
F0.0
sVupbringing
p1026
F0.0
sValert
p1027
F3.0647258868750796e-05
sVveeery
p1028
F0.0
sVviewing
p1029
F4.998352635445239e-05
sVlevels
p1030
F0.0006997693689623335
sVgonna
p1031
F0.0001546901398856128
sVimplement
p1032
F4.998352635445239e-05
sVinfamous
p1033
F0.0
sVbuspirone
p1034
F0.0
sVexpend
p1035
F0.0
sVconcrete
p1036
F0.0
sVstrobe
p1037
F0.0
sVkelly
p1038
F0.0
sVdieting
p1039
F0.0
sVlads
p1040
F3.0647258868750796e-05
sVsuffolk
p1041
F0.0
sValtho
p1042
F0.0
sVusing
p1043
F0.00046375064670501687
sVsignal
p1044
F3.0647258868750796e-05
sVchest
p1045
F5.8008802457104804e-05
sVsignals
p1046
F4.998352635445239e-05
sVeager
p1047
F0.0
sVparents
p1048
F0.0007497528953167859
sVinput
p1049
F4.998352635445239e-05
sVsurprised
p1050
F3.86725349714032e-05
sVemergency
p1051
F0.00014995057906335717
sVformat
p1052
F4.998352635445239e-05
sV11229449
p1053
F0.0
sVcouple
p1054
F0.00021490883627793466
sVshitty
p1055
F0.00044985173719007155
sVsuffering
p1056
F3.86725349714032e-05
sVquest
p1057
F4.998352635445239e-05
sVhallucinate
p1058
F0.0
sVsnore
p1059
F4.998352635445239e-05
sVd
p1060
F0.0
sVspine
p1061
F4.998352635445239e-05
sVcontinue
p1062
F0.00014704288797963948
sVdisorder
p1063
F0.001649456369696929
sVnames
p1064
F3.86725349714032e-05
sVpertaining
p1065
F0.0
sVproscaline
p1066
F0.0
sVmethods
p1067
F9.996705270890479e-05
sVgoddamn
p1068
F0.00019993410541780957
sVunloved
p1069
F0.0
sVb6
p1070
F0.0
sVoxcarbazepine
p1071
F0.0
sVb2
p1072
F0.0
sVb3
p1073
F0.0
sVcurious
p1074
F3.393297414914758e-05
sVamicable
p1075
F0.0
sVreligion
p1076
F0.00024991763177226195
sVdating
p1077
F3.0647258868750796e-05
sVbd
p1078
F0.0
sVbf
p1079
F0.0
sVbi
p1080
F1.93362674857016e-05
sVturkeying
p1081
F0.0
sVnowhere
p1082
F4.998352635445239e-05
sVbs
p1083
F0.0
sVcranked
p1084
F0.0
sVanything
p1085
F0.00033568283952355854
sVnetflix
p1086
F0.0
sVaddict
p1087
F0.00019993410541780957
sVrepair
p1088
F0.0
sVtegretal
p1089
F0.0
sVgarbage
p1090
F6.129451773750159e-05
sVappropriate
p1091
F0.00039986821083561915
sVprimarily
p1092
F0.0
sVgreenies
p1093
F0.0
sVnext
p1094
F0.00010172207258289652
sVspan
p1095
F4.998352635445239e-05
sVpalinopsia
p1096
F0.0
sVspending
p1097
F9.996705270890479e-05
sVspecifically
p1098
F0.0
sVdelirients
p1099
F0.0
sVconsiderably
p1100
F4.998352635445239e-05
sVelsewhere
p1101
F4.998352635445239e-05
sVposter
p1102
F4.998352635445239e-05
sVrelaxed
p1103
F9.194177660625239e-05
sVlink
p1104
F0.00015323629434375397
sVline
p1105
F9.048793106439353e-05
sVrelaxer
p1106
F0.0
sVrelaxes
p1107
F0.0
sVintestines
p1108
F4.998352635445239e-05
sVposted
p1109
F9.194177660625239e-05
sVcig
p1110
F0.0
sVflubpam
p1111
F0.0
sVsomedays
p1112
F0.0
sVus
p1113
F0.00020853024879493787
sVpaired
p1114
F0.0
sVuh
p1115
F1.93362674857016e-05
sVuk
p1116
F0.00014995057906335717
sVfaded
p1117
F4.998352635445239e-05
sVcontinuously
p1118
F4.998352635445239e-05
sVmedical
p1119
F0.0002513714773141208
sVdocusate
p1120
F0.0
sVyelled
p1121
F9.996705270890479e-05
sVparoxetine
p1122
F0.0
sVlikewise
p1123
F0.0
sVunsafe
p1124
F4.998352635445239e-05
sVchat
p1125
F3.86725349714032e-05
sVpageid
p1126
F0.0
sVpreventing
p1127
F4.998352635445239e-05
sVpoints
p1128
F7.73450699428064e-05
sVenergetic
p1129
F0.0
sVbeginnings
p1130
F4.998352635445239e-05
sVlucid
p1131
F0.0
sVmaois
p1132
F0.0
sVativan
p1133
F0.0
sVsticklers
p1134
F0.0
sVmeals
p1135
F0.00029990115812671435
sVago
p1136
F0.0010726540604062778
sVworsened
p1137
F0.0
sVtailored
p1138
F0.0
sVland
p1139
F5.086103629144826e-06
sVnapping
p1140
F0.0
sVwalked
p1141
F0.00014995057906335717
sVhella
p1142
F0.0
sVpsychiatry
p1143
F0.0
sVfresh
p1144
F0.0004447341521711368
sVhello
p1145
F0.00012258903547500319
sVpartial
p1146
F4.998352635445239e-05
sVscratch
p1147
F3.0647258868750796e-05
sVresults
p1148
F0.0003371198475562588
sVexisting
p1149
F4.998352635445239e-05
sVenjoyable
p1150
F9.996705270890479e-05
sVtoggle
p1151
F9.996705270890479e-05
sVfreakin
p1152
F4.998352635445239e-05
sVflashback
p1153
F0.0
sVseemed
p1154
F0.0001357318965965903
sVconcerned
p1155
F0.00012258903547500319
sVyoung
p1156
F5.086103629144826e-06
sVsend
p1157
F2.2621982766098382e-05
sVciting
p1158
F0.0
sVoutlooks
p1159
F4.998352635445239e-05
sVmonoamine
p1160
F0.0
sVsent
p1161
F2.543051814572413e-05
sVstocked
p1162
F4.998352635445239e-05
sVtorture
p1163
F4.998352635445239e-05
sVcontinues
p1164
F3.0647258868750796e-05
sVpleasent
p1165
F0.0
sVmanipulated
p1166
F0.0
sValcar
p1167
F0.0
sVdihydracodiene
p1168
F0.0
sVenfp
p1169
F0.0
sVcontinued
p1170
F0.0
sVcategories
p1171
F0.0
sVmagic
p1172
F6.129451773750159e-05
sVtransmission
p1173
F0.0
sVexperiencing
p1174
F0.0
sVeve
p1175
F0.0
sVfewer
p1176
F0.00019993410541780957
sVanxious
p1177
F0.0008497199480256907
sVcrazymeds
p1178
F0.0
sVobesity
p1179
F0.0
sVvisuals
p1180
F0.0
sVlicensed
p1181
F4.998352635445239e-05
sVvideo
p1182
F6.129451773750159e-05
sVhppd
p1183
F0.0
sVodd
p1184
F4.5243965532196764e-05
sVsoulcrushing
p1185
F0.0
sVindex
p1186
F4.998352635445239e-05
sVconsistently
p1187
F4.998352635445239e-05
sVunreal
p1188
F0.0
sVbismol
p1189
F0.0
sVnonrecreational
p1190
F0.0
sVproliferation
p1191
F0.0
sVled
p1192
F0.0
sVleg
p1193
F7.73450699428064e-05
sVpill_testing
p1194
F0.0
sVgathered
p1195
F0.0
sVsuicidality
p1196
F0.0
sVlel
p1197
F0.0
sVpunch
p1198
F9.996705270890479e-05
sVpoverty
p1199
F4.998352635445239e-05
sVlex
p1200
F0.0
sVconsideration
p1201
F0.0
sVfifteen
p1202
F0.00019993410541780957
sVgreat
p1203
F0.0
sVoleptro
p1204
F0.0
sVreceive
p1205
F9.996705270890479e-05
sVinvolved
p1206
F6.129451773750159e-05
sVscientology
p1207
F0.0
sVresulting
p1208
F3.0647258868750796e-05
sVinsulin
p1209
F0.0
sVpopcorn
p1210
F4.998352635445239e-05
sVopinion
p1211
F0.00019993410541780957
sVmakes
p1212
F0.00031533842500697923
sVexplain
p1213
F0.00017402640737131442
sVthats
p1214
F3.0647258868750796e-05
sVholmes
p1215
F0.0
sVpanicked
p1216
F0.0
sVvalproic
p1217
F0.0
sVimpulsivity
p1218
F0.0
sVthiamine
p1219
F0.0
sVtools
p1220
F0.00012258903547500319
sVexenatide
p1221
F0.0
sVstanding
p1222
F1.1310991383049191e-05
sVconfidence
p1223
F4.998352635445239e-05
sVperfusion
p1224
F0.0
sVbinged
p1225
F0.0
sVdoubt
p1226
F2.2621982766098382e-05
sVoccurred
p1227
F4.998352635445239e-05
sVidra21
p1228
F0.0
sVrubbish
p1229
F4.998352635445239e-05
sV90mg
p1230
F0.0
sVbaby
p1231
F6.129451773750159e-05
sVballs
p1232
F4.998352635445239e-05
sVpracticing
p1233
F9.996705270890479e-05
sVintegrating
p1234
F4.998352635445239e-05
sVclients
p1235
F6.129451773750159e-05
sVmodalert
p1236
F0.0
sVthin
p1237
F5.8008802457104804e-05
sVanticonvulsants
p1238
F0.0
sVpozac
p1239
F0.0
sVweaker
p1240
F4.998352635445239e-05
sVprocess
p1241
F9.194177660625239e-05
sVslim
p1242
F3.0647258868750796e-05
sVpurposes
p1243
F0.0
sVhigh
p1244
F0.0
sVslip
p1245
F0.00014995057906335717
sVcitalapram
p1246
F0.0
sVdestroying
p1247
F0.0
sVmotivating
p1248
F0.0
sVamtriptyline
p1249
F0.0
sVanimal
p1250
F2.2621982766098382e-05
sVhormones
p1251
F9.996705270890479e-05
sVcomedy
p1252
F4.998352635445239e-05
sVintelligent
p1253
F3.0647258868750796e-05
sVblocks
p1254
F5.8008802457104804e-05
sVtied
p1255
F3.0647258868750796e-05
sVdoze
p1256
F0.0
sVweighed
p1257
F0.0
sVfits
p1258
F4.998352635445239e-05
sVht1a
p1259
F0.0
sVrealized
p1260
F0.0004998352635445239
sVcounter
p1261
F0.00012258903547500319
sVelement
p1262
F1.93362674857016e-05
sVrealizes
p1263
F0.0
sVallow
p1264
F9.996705270890479e-05
sVcounted
p1265
F0.0
sVevolutionary
p1266
F0.0
sVproduces
p1267
F9.996705270890479e-05
sVmove
p1268
F0.000193362674857016
sVproduced
p1269
F6.129451773750159e-05
sVselftext
p1270
F0.0
sVperfect
p1271
F0.00012258903547500319
sVdelay
p1272
F3.0647258868750796e-05
sVcompulsions
p1273
F0.0
sVvaries
p1274
F0.0
sVmeantime
p1275
F4.998352635445239e-05
sVdegrees
p1276
F4.998352635445239e-05
sV2015
p1277
F0.0
sV2014
p1278
F0.0
sV2017
p1279
F0.0
sV2011
p1280
F0.0
sV2010
p1281
F0.0
sV2013
p1282
F0.0
sV2012
p1283
F0.0
sVphysicians
p1284
F0.0
sVdocs
p1285
F0.00029990115812671435
sVdisrupted
p1286
F0.0
sVbothering
p1287
F0.0
sVrealize
p1288
F0.00019993410541780957
sVschizophrenias
p1289
F0.0
sVdextromethorphan
p1290
F0.0
sVtruth
p1291
F0.00039841436529376034
sV75g
p1292
F0.0
sVexacerbated
p1293
F0.0
sVbump
p1294
F0.0
sVdeficiency
p1295
F0.0
sVmeta
p1296
F6.129451773750159e-05
sVstatic
p1297
F0.00014995057906335717
sVmeth
p1298
F0.0
sVtenth
p1299
F3.0647258868750796e-05
sVedibles
p1300
F0.0
sVagoraphobia
p1301
F0.0
sVjanuvia
p1302
F0.0
sVfundamentally
p1303
F4.998352635445239e-05
sVborderline
p1304
F4.998352635445239e-05
sVtriazolam
p1305
F0.0
sVsever
p1306
F4.998352635445239e-05
sVshitload
p1307
F0.0
sVinteractions
p1308
F0.0
sVunipolar
p1309
F0.0
sVdisintegrating
p1310
F0.0
sVregulatory
p1311
F0.0
sVscary
p1312
F0.00034988468448116675
sVcould
p1313
F0.0
sVcompulsive
p1314
F9.996705270890479e-05
sVregresses
p1315
F0.0
sVscare
p1316
F4.998352635445239e-05
sVblown
p1317
F9.996705270890479e-05
sVimovane
p1318
F0.0
sVscene
p1319
F3.86725349714032e-05
sVowned
p1320
F1.93362674857016e-05
sVjesus
p1321
F0.0
sVlol
p1322
F0.0006997693689623335
sVfuckery
p1323
F0.0
sVsystem
p1324
F0.00011310991383049191
sVsensitivity
p1325
F0.0
sVpainful
p1326
F0.0
sVinterests
p1327
F3.0647258868750796e-05
sVstomach
p1328
F0.00030647258868750794
sVinjectable
p1329
F0.0
sVbotox
p1330
F0.0
sVhaven
p1331
F0.00045243965532196765
sVsteel
p1332
F6.129451773750159e-05
sVpregab
p1333
F0.0
sVbother
p1334
F3.0647258868750796e-05
sVreacted
p1335
F0.0
sVsteer
p1336
F0.0
sVfalse
p1337
F7.73450699428064e-05
sVreassuring
p1338
F0.0
sVtonight
p1339
F9.194177660625239e-05
sVclearly
p1340
F9.6681337428508e-05
sVdocuments
p1341
F3.0647258868750796e-05
sVstudying
p1342
F0.00019993410541780957
sVprobly
p1343
F0.0
sVmechanism
p1344
F0.0
sVaccuracy
p1345
F0.0
sVflipside
p1346
F0.0
sV01
p1347
F4.998352635445239e-05
sVamazon435hm6h3ye
p1348
F0.0
sVlunesta
p1349
F0.0
sVcabinet
p1350
F9.996705270890479e-05
sVsocializing
p1351
F0.0
sVplacement
p1352
F4.998352635445239e-05
sVhyperthyroidism
p1353
F0.0
sVstronger
p1354
F9.996705270890479e-05
sVface
p1355
F7.917693968134435e-05
sVdesvenlafaxine
p1356
F0.0
sVwounded
p1357
F3.0647258868750796e-05
sVpainting
p1358
F1.93362674857016e-05
sVfact
p1359
F0.000386725349714032
sVatmosphere
p1360
F4.998352635445239e-05
sVbring
p1361
F3.0516621774868958e-05
sVbedroom
p1362
F4.998352635445239e-05
sVrough
p1363
F0.00012258903547500319
sVtrivial
p1364
F0.0
sVdbt
p1365
F0.0
sVdecade
p1366
F3.0647258868750796e-05
sVpause
p1367
F1.1310991383049191e-05
sVellaborate
p1368
F0.0
sVwelbutrin
p1369
F0.0
sVjan
p1370
F0.0
sVmolecules
p1371
F0.0
sVriding
p1372
F1.1310991383049191e-05
sVhope
p1373
F0.0001373247979869103
sVmeant
p1374
F9.6681337428508e-05
sVcapsules
p1375
F0.0
sVlistened
p1376
F0.0
sVantagonism
p1377
F0.0
sVfamiliar
p1378
F9.194177660625239e-05
sVdetoxing
p1379
F0.0
sVcranky
p1380
F0.0
sVlucky
p1381
F9.6681337428508e-05
sVpathophysiology
p1382
F0.0
sVmolasses
p1383
F0.0
sVantagonist
p1384
F0.0
sVsmash
p1385
F9.996705270890479e-05
sVmetabolite
p1386
F0.0
sVstuff
p1387
F0.0007154418969709592
sVbtw
p1388
F0.0
sVtemporarily
p1389
F4.998352635445239e-05
sVremeronfeels
p1390
F0.0
sVframe
p1391
F3.0647258868750796e-05
sVlazy
p1392
F0.00015323629434375397
sVbth
p1393
F0.0
sVpersrcibed
p1394
F0.0
sVinvega
p1395
F0.0
sVends
p1396
F3.86725349714032e-05
sVstaring
p1397
F3.0647258868750796e-05
sVrestrictions
p1398
F4.998352635445239e-05
sVketo
p1399
F0.0
sVinvited
p1400
F4.998352635445239e-05
sVdeficits
p1401
F0.0
sVetc
p1402
F0.00017801362702006893
sVeta
p1403
F0.0
sVadjusted
p1404
F0.0
sVco
p1405
F0.00012258903547500319
sVwtf
p1406
F0.0
sVindica
p1407
F0.0
sVpmc3894718
p1408
F0.0
sVca
p1409
F4.998352635445239e-05
sVstabile
p1410
F0.0
sVilegally
p1411
F0.0
sVshudder
p1412
F0.0
sVhawkins
p1413
F0.0
sVgenetic
p1414
F0.0
sVdrank
p1415
F6.129451773750159e-05
sVwaste
p1416
F0.00011601760491420961
sVcruddy
p1417
F0.0
sVanorgasmia
p1418
F0.0
sV250mg
p1419
F0.0
sVdecaf
p1420
F4.998352635445239e-05
sVplanner
p1421
F3.0647258868750796e-05
sVgunpowder
p1422
F4.998352635445239e-05
sVspain
p1423
F0.0
sVoregon_sheriff_wrote_gun_control_is_not_the
p1424
F0.0
sVtricyclics
p1425
F0.0
sVgrinning
p1426
F0.0
sVfibrymyalgia
p1427
F0.0
sVbathtub
p1428
F4.998352635445239e-05
sVmanicy
p1429
F0.0
sVinsanely
p1430
F0.0
sVsurprisingly
p1431
F4.998352635445239e-05
sVagonizes
p1432
F0.0
sVsits
p1433
F1.93362674857016e-05
sVconserve
p1434
F0.0
sVmirtazapine2dacs
p1435
F0.0
sVdigging
p1436
F6.129451773750159e-05
sVinfarction
p1437
F0.0
sVbali
p1438
F0.0
sVdusk
p1439
F0.0
sVdrink
p1440
F5.5947139920593095e-05
sVupon
p1441
F2.2621982766098382e-05
sVphd
p1442
F0.0
sVphp
p1443
F9.996705270890479e-05
sVbroccoli
p1444
F0.0
sVidentity
p1445
F0.00029990115812671435
sVdiabetes
p1446
F0.0007997364216712383
sVdrawing
p1447
F3.86725349714032e-05
sVnewest
p1448
F4.998352635445239e-05
sVbananas
p1449
F1.93362674857016e-05
sVless
p1450
F0.00025430518145724135
sVmoments
p1451
F0.00024991763177226195
sVclocks
p1452
F4.998352635445239e-05
sVpaul
p1453
F0.0
sVglue
p1454
F4.998352635445239e-05
sVcombine
p1455
F3.0647258868750796e-05
sVexempt
p1456
F0.0
sVincreased
p1457
F0.0013495552115702146
sVgovernment
p1458
F3.0647258868750796e-05
sVchecking
p1459
F6.129451773750159e-05
sVincreases
p1460
F0.0004998352635445239
sVfive
p1461
F2.0344414516579305e-05
sVnvm
p1462
F0.0
sVoverdosed
p1463
F0.0
sVbenadryl
p1464
F0.0
sVonion
p1465
F0.003048995107621596
sVnerves
p1466
F9.996705270890479e-05
sVtherapeutic
p1467
F0.0
sVopioid
p1468
F0.0
sVpoor
p1469
F3.560272540401379e-05
sVklonopin
p1470
F0.0
sVphenylalanine
p1471
F0.0
sVdaylight
p1472
F4.998352635445239e-05
sVchoosing
p1473
F4.998352635445239e-05
sVflush
p1474
F9.996705270890479e-05
sVrecognition
p1475
F4.998352635445239e-05
sVliterally
p1476
F0.00039841436529376034
sVavoid
p1477
F0.0001583538793626887
sVpassion
p1478
F1.93362674857016e-05
sVtherapists
p1479
F0.0
sVschedule
p1480
F0.00034988468448116675
sVpressure
p1481
F0.001149621106152405
sVtargeting
p1482
F4.998352635445239e-05
sVstage
p1483
F1.93362674857016e-05
sVgained
p1484
F0.0008887705071937731
sVlifestyle
p1485
F0.00019993410541780957
sVasks
p1486
F1.93362674857016e-05
sVdilaudid
p1487
F0.0
sVgainer
p1488
F0.0
sVletters
p1489
F1.1310991383049191e-05
sVcyclobenzaprine
p1490
F0.0
sVassess
p1491
F0.0
sVfrustration
p1492
F0.0
sVgut
p1493
F4.998352635445239e-05
sVnaturally
p1494
F4.998352635445239e-05
sVfunction
p1495
F0.0005498187898989764
sVbelieve
p1496
F0.0002714637931931806
sVlowered
p1497
F0.00124958815886131
sVcount
p1498
F0.00024517807095000637
sVplaces
p1499
F6.129451773750159e-05
sVharvested
p1500
F0.0
sVbooks
p1501
F6.129451773750159e-05
sVadderall
p1502
F0.0
sVproblem
p1503
F0.0004298176725558693
sVreciprocated
p1504
F0.0
sVobese
p1505
F9.996705270890479e-05
sVnurses
p1506
F0.0
sVrecognize
p1507
F3.0647258868750796e-05
sVcontribute
p1508
F9.996705270890479e-05
sVconsumed
p1509
F4.998352635445239e-05
sVcompared
p1510
F0.0001357318965965903
sVnonetheless
p1511
F6.129451773750159e-05
sVdeadly
p1512
F0.0
sVwander
p1513
F4.998352635445239e-05
sVirratic
p1514
F0.0
sVdetails
p1515
F0.00014995057906335717
sVchubs
p1516
F0.0
sVquantities
p1517
F0.0
sVziprasidone
p1518
F0.0
sVhpa
p1519
F0.0
sVtranscranial
p1520
F0.0
sVfrisbee
p1521
F0.0
sVmonday
p1522
F0.0
sVpsychotics
p1523
F0.0
sVchance
p1524
F7.917693968134435e-05
sVidiopathic
p1525
F0.0
sVmatrix
p1526
F4.998352635445239e-05
sVrisperdal
p1527
F0.0
sVlasted
p1528
F0.00024991763177226195
sVrule
p1529
F6.129451773750159e-05
sVstrings
p1530
F3.0647258868750796e-05
sVaetna
p1531
F0.0
sVstatus
p1532
F1.93362674857016e-05
sVsuicidal
p1533
F0.0012995716852157622
sVsaver
p1534
F0.0
sVdoubts
p1535
F9.996705270890479e-05
sVdesirable
p1536
F0.0
sVblisters
p1537
F0.0
sVyikes
p1538
F0.0
sVdiss
p1539
F0.0
sVsaved
p1540
F5.8008802457104804e-05
sVrelationships
p1541
F0.00014995057906335717
sVhealthland
p1542
F0.0
sVphysiological
p1543
F0.0
sVlsds
p1544
F0.0
sVworth
p1545
F0.0005027429546282416
sVale
p1546
F0.0
sVblanket
p1547
F3.0647258868750796e-05
sVglimepiride
p1548
F0.0
sVmanic
p1549
F0.0007497528953167859
sVmania
p1550
F0.0
sVprogression
p1551
F0.0
sVupload
p1552
F4.998352635445239e-05
sVurinating
p1553
F0.0
sVblasphemy
p1554
F4.998352635445239e-05
sVshut
p1555
F3.393297414914758e-05
sVchem
p1556
F0.0
sVbipolar
p1557
F0.0014995057906335718
sVconsisting
p1558
F0.0
sVtold
p1559
F0.00048340668714254005
sVtextures
p1560
F0.0
sVsimultaneously
p1561
F9.996705270890479e-05
sVresidual
p1562
F4.998352635445239e-05
sVobtained
p1563
F0.0
sVrigorously
p1564
F0.0
sVitems
p1565
F3.0647258868750796e-05
sVstudy
p1566
F0.0005516506596375143
sVsmoke
p1567
F0.00018388355321250478
sVstressed
p1568
F4.998352635445239e-05
sVaka
p1569
F0.0
sVenvious
p1570
F0.0
sVsecure
p1571
F3.0647258868750796e-05
sVsearch
p1572
F9.6681337428508e-05
sVhighly
p1573
F0.00012258903547500319
sVhindsight
p1574
F0.0
sVtotal
p1575
F0.00011601760491420961
sVexperimentation
p1576
F0.0
sVnegative
p1577
F0.0003371198475562588
sVinsult
p1578
F4.998352635445239e-05
sVprogram
p1579
F0.00015323629434375397
sVabusing
p1580
F0.0
sVtolerated
p1581
F0.0
sVhaha
p1582
F0.00019993410541780957
sVaware
p1583
F0.0
sV3723a635b4269dd35dc25bc269025ddd85632212
p1584
F0.0
sVbackwards
p1585
F2.2621982766098382e-05
sVadamant
p1586
F0.0
sVblocking
p1587
F0.00027582532981875715
sVword
p1588
F5.086103629144826e-06
sV1996
p1589
F4.998352635445239e-05
sVwork
p1590
F0.0
sVrefusing
p1591
F0.0
sVworn
p1592
F4.998352635445239e-05
sVtheories
p1593
F0.0
sVoxide
p1594
F0.0
sVprecuneus
p1595
F0.0
sVacetylcholine
p1596
F0.0
sVindicated
p1597
F4.998352635445239e-05
sVimpair
p1598
F0.0
sVindifferent
p1599
F4.998352635445239e-05
sVcites
p1600
F0.0
sVrecovery
p1601
F9.194177660625239e-05
sVprovide
p1602
F0.00014995057906335717
sVnuts
p1603
F6.129451773750159e-05
sVsleeplessness
p1604
F0.0
sVig
p1605
F0.0
sVrookie
p1606
F0.0
sVmoron
p1607
F9.996705270890479e-05
sVmemorization
p1608
F4.998352635445239e-05
sVgamble
p1609
F4.998352635445239e-05
sVlam
p1610
F4.998352635445239e-05
sVfever
p1611
F0.0
sVdoable
p1612
F0.0
sVarcs
p1613
F4.998352635445239e-05
sVlad
p1614
F3.0647258868750796e-05
sVearlier
p1615
F7.917693968134435e-05
sVlab
p1616
F0.0
sVcustoms
p1617
F0.0
sVpublicised
p1618
F0.0
sVlay
p1619
F9.194177660625239e-05
sVchilled
p1620
F4.998352635445239e-05
sVoccurence
p1621
F0.0
sVappreciate
p1622
F0.00012258903547500319
sVstimulate
p1623
F0.0
sVorder
p1624
F5.5947139920593095e-05
sVtriggering
p1625
F0.0
sV7yrs
p1626
F0.0
sVneti
p1627
F0.0
sVconsent
p1628
F4.998352635445239e-05
sVawful
p1629
F0.00017402640737131442
sVnsfw
p1630
F0.0
sVdefintiley
p1631
F0.0
sVsomnolence
p1632
F0.0
sVsomewhere
p1633
F3.393297414914758e-05
sVrecreational
p1634
F0.0007497528953167859
sVproduction
p1635
F9.996705270890479e-05
sVacupuncture
p1636
F0.0
sVprecipitate
p1637
F0.0
sVversus
p1638
F3.0647258868750796e-05
sVeventually
p1639
F0.0008997034743801431
sVcoffee
p1640
F0.00024517807095000637
sVaffected
p1641
F0.00024991763177226195
sVwoken
p1642
F0.0
sVremission
p1643
F0.0
sVsafe
p1644
F0.000193362674857016
sVsleepiness
p1645
F0.0
sVbreak
p1646
F0.00039841436529376034
sVlifelong
p1647
F0.0
sVbank
p1648
F3.0647258868750796e-05
sVbread
p1649
F3.0647258868750796e-05
sVreasonably
p1650
F9.996705270890479e-05
sVclassified
p1651
F0.0
sVl
p1652
F7.73450699428064e-05
sVreasonable
p1653
F0.00015323629434375397
sVfeeds
p1654
F4.998352635445239e-05
sVcetirizine
p1655
F0.0
sVgating
p1656
F0.0
sVslew
p1657
F0.0
sVnetwork
p1658
F4.998352635445239e-05
sVhooked
p1659
F4.998352635445239e-05
sVstrangers
p1660
F9.194177660625239e-05
sVmedicine
p1661
F0.0004998352635445239
sVneuroskeptic
p1662
F0.0
sVbarrier
p1663
F3.0647258868750796e-05
sVmetoclopramide
p1664
F0.0
sVleftovers
p1665
F0.0
sVadmits
p1666
F0.0
sVappointments
p1667
F0.0
sVnmda
p1668
F0.0
sVforcibly
p1669
F0.0
sVrecovering
p1670
F4.998352635445239e-05
sVcreated
p1671
F0.00039986821083561915
sVcreates
p1672
F4.998352635445239e-05
sVchronotherapy
p1673
F0.0
sVassumptions
p1674
F0.0
sVanother
p1675
F0.0003051662177486896
sVkazmierczak
p1676
F0.0
sVrated
p1677
F4.998352635445239e-05
sVrates
p1678
F0.0
sVenhancing
p1679
F9.996705270890479e-05
sVinexact
p1680
F0.0
sVavanza
p1681
F0.0
sVlast
p1682
F0.00020853024879493787
sVebay
p1683
F4.998352635445239e-05
sVbinds
p1684
F0.0
sV5mg
p1685
F0.0
sVhacking
p1686
F0.0
sVsolely
p1687
F9.996705270890479e-05
sVmanner
p1688
F1.93362674857016e-05
sVstalls
p1689
F0.0
sVforced
p1690
F3.0647258868750796e-05
sVlatter
p1691
F0.00019993410541780957
sVovertook
p1692
F0.0
sVluxury
p1693
F0.0
sVtransmit
p1694
F0.0
sVaspirates
p1695
F0.0
sVcircles
p1696
F4.998352635445239e-05
sVgravy
p1697
F3.0647258868750796e-05
sVmethylphenidate
p1698
F0.0
sVastepro
p1699
F0.0
sVinvolving
p1700
F3.0647258868750796e-05
sVscripts
p1701
F4.998352635445239e-05
sVphase
p1702
F4.998352635445239e-05
sVautopsy
p1703
F9.996705270890479e-05
sVsmoked
p1704
F0.00014995057906335717
sVmyfitnesspal
p1705
F0.0
sVaunt
p1706
F0.0
sVsun
p1707
F1.1310991383049191e-05
sVboyfriends
p1708
F4.998352635445239e-05
sVresponded
p1709
F0.0
sVreserve
p1710
F4.998352635445239e-05
sVovarian
p1711
F0.0
sVreligions
p1712
F0.0
sVdopey
p1713
F0.0
sVsubtle
p1714
F0.00019993410541780957
sVd2
p1715
F0.0
sVd3
p1716
F0.0
sVguidance
p1717
F0.0
sVversed
p1718
F0.0
sVlayman
p1719
F0.0
sVgingko
p1720
F0.0
sVadequate
p1721
F0.0
sVindepth
p1722
F0.0
sVdc
p1723
F0.0
sVpreferred
p1724
F9.996705270890479e-05
sVdx
p1725
F0.0
sVcarries
p1726
F3.393297414914758e-05
sVnasty
p1727
F0.00012258903547500319
sVdr
p1728
F0.00019993410541780957
sVruns
p1729
F9.6681337428508e-05
sVcovering
p1730
F3.0647258868750796e-05
sVhumanish
p1731
F0.0
sVanalytical
p1732
F0.0
sVidentify
p1733
F6.129451773750159e-05
sVnortryptaline
p1734
F0.0
sVobserved
p1735
F4.998352635445239e-05
sVdepends
p1736
F0.00018388355321250478
sVhorrendous
p1737
F0.00014995057906335717
sVtechniques
p1738
F0.0
sVsnoozing
p1739
F0.0
sVaway
p1740
F0.0
sVcaved
p1741
F0.0
sVimipramine
p1742
F0.0
sVunable
p1743
F0.0002145308120812556
sVdrawn
p1744
F1.93362674857016e-05
sVaccord
p1745
F0.0
sVwd
p1746
F0.0
sVterms
p1747
F0.0001353538723999112
sVhandful
p1748
F0.0
sVwk
p1749
F0.0
sVws
p1750
F0.0
sVoverestimated
p1751
F0.0
sVkitchen
p1752
F4.998352635445239e-05
sVcop
p1753
F3.0647258868750796e-05
sVessentially
p1754
F0.0
sVpsychologists
p1755
F0.0
sVill
p1756
F5.8008802457104804e-05
sVparalyzing
p1757
F0.0
sVbrag
p1758
F0.0
sVdisappears
p1759
F3.0647258868750796e-05
sVpeacefully
p1760
F0.0
sVtough
p1761
F9.6681337428508e-05
sVseizure
p1762
F0.0
sVabilify
p1763
F0.0
sVtons
p1764
F0.00018388355321250478
sVrefill
p1765
F4.998352635445239e-05
sVchka
p1766
F0.0
sVspeak
p1767
F0.0002145308120812556
sVgratitude
p1768
F4.998352635445239e-05
sVbeloved
p1769
F4.998352635445239e-05
sVrelaxing
p1770
F0.00014995057906335717
sVattacked
p1771
F0.0
sVcarbamazepine
p1772
F0.0
sVcoherent
p1773
F0.0
sVbuprenorphine
p1774
F0.0
sVcomfortable
p1775
F0.00015323629434375397
sVeuropeanneuropsychopharmacology
p1776
F0.0
sVphysician
p1777
F0.0
sVinhibit
p1778
F0.0
sVspasms
p1779
F0.0
sVaim
p1780
F3.0647258868750796e-05
sVapplies
p1781
F0.0
sVaid
p1782
F0.0
sVvoice
p1783
F3.0647258868750796e-05
sVmealtime
p1784
F0.0
sVmistake
p1785
F2.2621982766098382e-05
sVcons
p1786
F4.998352635445239e-05
sVweaning
p1787
F0.0
sVskipping
p1788
F3.0647258868750796e-05
sVdizzy
p1789
F0.0
sVcone
p1790
F4.998352635445239e-05
sVrecurrent
p1791
F0.0
sVjerry
p1792
F0.0
sVindictment
p1793
F0.0
sVindependent
p1794
F3.0647258868750796e-05
sVnih
p1795
F0.0
sVsynapsesneuro
p1796
F0.0
sVhang
p1797
F2.2621982766098382e-05
sVevil
p1798
F7.73450699428064e-05
sVhand
p1799
F0.0
sVhypnagogic
p1800
F0.0
sVprescribed
p1801
F0.003848731529292834
sVflubromazelam
p1802
F0.0
sVkept
p1803
F0.000193362674857016
sVwhereby
p1804
F0.0
sVscenario
p1805
F0.0
sVmirtazipine
p1806
F0.0
sVcongrats
p1807
F0.0
sVeps
p1808
F0.0
sVtho
p1809
F0.0005998023162534287
sVorgasms
p1810
F4.998352635445239e-05
sVcontact
p1811
F9.6681337428508e-05
sVprescribes
p1812
F0.0
sVprescriber
p1813
F0.0
sVthc
p1814
F0.0
sVmusical
p1815
F4.998352635445239e-05
sVphoto
p1816
F1.93362674857016e-05
sV2844
p1817
F0.0
sVquotes
p1818
F3.0647258868750796e-05
sVthanks
p1819
F0.000386725349714032
sVsmoothies
p1820
F0.0
sVthyroid
p1821
F0.0
sVadding
p1822
F0.00019993410541780957
sVsubutex
p1823
F0.0
sVhydroxozine
p1824
F0.0
sVboard
p1825
F3.86725349714032e-05
sVevidenced
p1826
F0.0
sVmindfuck
p1827
F0.0
sVcaps
p1828
F3.0647258868750796e-05
sVunfounded
p1829
F0.0
sVbpd
p1830
F0.0
sVbpm
p1831
F0.0
sVnight
p1832
F0.00038145777218586194
sVinvaluable
p1833
F0.0
sVsecurity
p1834
F1.93362674857016e-05
sVstarvation
p1835
F0.0
sVhassle
p1836
F0.0
sVpsychogenic
p1837
F0.0
sVantihypertensives
p1838
F0.0
sVpurple
p1839
F9.996705270890479e-05
sVreflexively
p1840
F0.0
sVunavoidable
p1841
F0.0
sVcomments
p1842
F0.00044985173719007155
sVasking
p1843
F0.0001353538723999112
sVdenied
p1844
F6.129451773750159e-05
sVbeating
p1845
F3.0647258868750796e-05
sVphen
p1846
F0.0
sVsubstitution
p1847
F0.0
sVgraduated
p1848
F4.998352635445239e-05
sVpost
p1849
F0.0004903561419000127
sVproperties
p1850
F0.0001353538723999112
sVlightheaded
p1851
F0.0
sVmonths
p1852
F0.0015275651313704265
sVcontinous
p1853
F0.0
sVhorizon
p1854
F4.998352635445239e-05
sVdigestion
p1855
F0.0
sVwasting
p1856
F4.998352635445239e-05
sVstumble
p1857
F0.0
sVstrangely
p1858
F4.998352635445239e-05
sVwal
p1859
F0.0
sVcausative
p1860
F0.0
sVfight
p1861
F5.8008802457104804e-05
sVaccordingly
p1862
F4.998352635445239e-05
sVclinical
p1863
F0.0
sVway
p1864
F0.00031533842500697923
sVwax
p1865
F1.93362674857016e-05
sVwar
p1866
F0.00015323629434375397
sVlowest
p1867
F4.998352635445239e-05
sVbecoming
p1868
F0.00012258903547500319
sVdead
p1869
F3.393297414914758e-05
sVtrue
p1870
F0.00010179892244744273
sVreset
p1871
F4.998352635445239e-05
sVbypassing
p1872
F0.0
sVmaximum
p1873
F0.00014995057906335717
sVemotional
p1874
F0.00029990115812671435
sVlatuda
p1875
F0.0
sVabstract
p1876
F4.998352635445239e-05
sVreligiously
p1877
F0.0
sVmuscular
p1878
F3.0647258868750796e-05
sVevidence
p1879
F0.00024517807095000637
sVengeldinger
p1880
F0.0
sVphysical
p1881
F0.0
sVweaned
p1882
F0.0
sVtopped
p1883
F0.0
sVreality
p1884
F0.0004998352635445239
sVinterested
p1885
F2.2621982766098382e-05
sVholding
p1886
F1.1310991383049191e-05
sVtest
p1887
F0.00021269894234271763
sVshrink
p1888
F9.194177660625239e-05
sVwelcome
p1889
F1.0172207258289653e-05
sVconvincing
p1890
F0.0
sVupdate
p1891
F4.998352635445239e-05
sVscores
p1892
F0.0
sVdetox
p1893
F0.0
sVomega
p1894
F0.0
sVcheated
p1895
F4.998352635445239e-05
sVtogether
p1896
F0.0
sV5kg
p1897
F0.0
sVantidpressents
p1898
F0.0
sVstick
p1899
F0.0002145308120812556
sVconcept
p1900
F4.998352635445239e-05
sVbolus
p1901
F0.0
sVswitched
p1902
F0.0003371198475562588
sVcerenia
p1903
F0.0
sVswitches
p1904
F4.998352635445239e-05
sVmirt
p1905
F0.0
sVsupplement
p1906
F0.0
sVmicrowave
p1907
F4.998352635445239e-05
sVgrateful
p1908
F0.0
sVbattle
p1909
F9.996705270890479e-05
sVcertainly
p1910
F0.00011310991383049191
sVgrape
p1911
F3.0647258868750796e-05
sVzone
p1912
F9.6681337428508e-05
sVpermanently
p1913
F0.00014995057906335717
sV50lbs
p1914
F0.0
sVrhythm
p1915
F0.00019993410541780957
sVprotective
p1916
F4.998352635445239e-05
sV3am
p1917
F0.0
sVbenzodiazepines
p1918
F0.0
sVseemingly
p1919
F0.00014995057906335717
sVtrouble
p1920
F4.577493266230344e-05
sVblast
p1921
F3.0647258868750796e-05
sVpresented
p1922
F3.0647258868750796e-05
sValtering
p1923
F4.998352635445239e-05
sVturns
p1924
F9.048793106439353e-05
sVgun
p1925
F3.0647258868750796e-05
sVp
p1926
F0.00011601760491420961
sVsoooo
p1927
F4.998352635445239e-05
sVmoclobemide
p1928
F0.0
sVsidewalk
p1929
F4.998352635445239e-05
sVupper
p1930
F4.998352635445239e-05
sVregret
p1931
F6.129451773750159e-05
sVcost
p1932
F1.93362674857016e-05
sVupped
p1933
F0.0
sVneuropsychiatry
p1934
F0.0
sVmigraines
p1935
F0.0
sVassistance
p1936
F0.0
sVshared
p1937
F6.129451773750159e-05
sVappeal
p1938
F4.998352635445239e-05
sValertness
p1939
F0.0
sVparadoxical
p1940
F0.0
sVsatisfy
p1941
F0.0
sVht6
p1942
F0.0
sVcyp3a4
p1943
F0.0
sVappears
p1944
F3.393297414914758e-05
sVchange
p1945
F0.0005027429546282416
sVsending
p1946
F3.0647258868750796e-05
sVcondoms
p1947
F9.996705270890479e-05
sVsleepys
p1948
F0.0
sVtrial
p1949
F0.00027582532981875715
sVusually
p1950
F0.0006961056294852577
sVdspd
p1951
F0.0
sVpancreatitis
p1952
F0.0
sVregardless
p1953
F0.00019993410541780957
sVextra
p1954
F9.6681337428508e-05
sVcvp06t4
p1955
F0.0
sVrarely
p1956
F0.0
sVmarket
p1957
F0.00076618147171877
sVbury
p1958
F0.0
sVlive
p1959
F6.1033243549737916e-05
sVclub
p1960
F9.996705270890479e-05
sVclue
p1961
F3.0647258868750796e-05
sVfixed
p1962
F3.0647258868750796e-05
sVcar
p1963
F7.73450699428064e-05
sVcap
p1964
F4.998352635445239e-05
sVibd
p1965
F0.0
sVcolonidine
p1966
F0.0
sVcat
p1967
F0.00012258903547500319
sVhardest
p1968
F0.00019993410541780957
sVcal
p1969
F0.0
sVibs
p1970
F0.0
sVibu
p1971
F0.0
sVstimulating
p1972
F0.0
sVheart
p1973
F0.000580088024571048
sVhears
p1974
F0.0
sVdecember
p1975
F0.0
sVtopic
p1976
F0.00012258903547500319
sV7pm
p1977
F0.0
sVdxm
p1978
F0.0
sVrefine
p1979
F0.0
sVexclude
p1980
F9.996705270890479e-05
sVhandle
p1981
F0.00010179892244744273
sVcardio
p1982
F0.0
sVoccur
p1983
F0.00014995057906335717
sVproductive
p1984
F9.996705270890479e-05
sVdatura
p1985
F0.0
sVfortunately
p1986
F0.0
sVdiscussion
p1987
F6.129451773750159e-05
sVmeans
p1988
F0.0003371198475562588
sVwrite
p1989
F5.655495691524596e-05
sVnonstop
p1990
F4.998352635445239e-05
sVproduct
p1991
F0.0006742396951125175
sVinfluenced
p1992
F4.998352635445239e-05
sVproduce
p1993
F9.194177660625239e-05
sVdrastic
p1994
F0.0
sVwhathaveyou
p1995
F0.0
sVtitrating
p1996
F0.0
sVremember
p1997
F0.00015766921250348962
sVwhenever
p1998
F9.194177660625239e-05
sVghb
p1999
F0.0
sVtypical
p2000
F0.00018388355321250478
sVindeed
p2001
F5.8008802457104804e-05
sVbrain
p2002
F0.0011408397816563944
sVtablets
p2003
F0.0
sVcold
p2004
F0.00036738908222833046
sVstill
p2005
F0.0
sVethic
p2006
F0.0
sVacknowledge
p2007
F0.0
sVtemporolimbical
p2008
F0.0
sVholing
p2009
F0.0
sVreacting
p2010
F0.0
sVforms
p2011
F9.996705270890479e-05
sVwindow
p2012
F2.2621982766098382e-05
sVnon
p2013
F9.66359689537517e-05
sVnod
p2014
F9.996705270890479e-05
sVpsychothropic
p2015
F0.0
sVadrenaline
p2016
F0.0
sVhalf
p2017
F0.0001373247979869103
sVdiscuss
p2018
F0.00014995057906335717
sVwont
p2019
F0.00024991763177226195
sVsusceptibility
p2020
F0.0
sVdeliriants
p2021
F0.0
sV3grams
p2022
F0.0
sVjames
p2023
F4.998352635445239e-05
sVdrop
p2024
F9.6681337428508e-05
sVconcerta
p2025
F0.0
sVdaytrana
p2026
F0.0
sVentirely
p2027
F0.0001357318965965903
sVem
p2028
F1.1310991383049191e-05
sVen
p2029
F0.0010113595426687763
sVeh
p2030
F3.86725349714032e-05
sVfixes
p2031
F9.996705270890479e-05
sVyeah
p2032
F0.0006742396951125175
sVchallenges
p2033
F0.0
sVex
p2034
F0.00018388355321250478
sVyear
p2035
F0.00024413297419895167
sVokay
p2036
F0.0005822979185062651
sVhappen
p2037
F7.917693968134435e-05
sVavoided
p2038
F0.00024991763177226195
sVpills
p2039
F0.006347907847015454
sVer
p2040
F9.6681337428508e-05
sVshown
p2041
F0.00021269894234271763
sVmedications
p2042
F0.0
sVspace
p2043
F6.129451773750159e-05
sVfurthermore
p2044
F4.998352635445239e-05
sVincrease
p2045
F0.0008581232483250224
sVzmjjijj
p2046
F0.0
sVrational
p2047
F0.0
sVviable
p2048
F0.0
sVshows
p2049
F5.086103629144826e-06
sVdiagnostic
p2050
F0.0
sVprosource
p2051
F0.0
sVunwanted
p2052
F0.00019993410541780957
sVcounteracted
p2053
F0.0
sVcarb
p2054
F3.0647258868750796e-05
sVrls
p2055
F0.0
sVcare
p2056
F0.0002145308120812556
sVcycles
p2057
F4.998352635445239e-05
sVcouldn
p2058
F0.00018097586212878706
sVdeprivation
p2059
F0.0
sVhonest
p2060
F0.00021269894234271763
sVsuffice
p2061
F4.998352635445239e-05
sVblind
p2062
F3.0647258868750796e-05
sVinitial
p2063
F9.6681337428508e-05
sVxl
p2064
F0.0
sVdirectly
p2065
F7.73450699428064e-05
sVxr
p2066
F0.0
sVimpossible
p2067
F0.0002145308120812556
sVmessage
p2068
F0.0002707077447998224
sVraped
p2069
F3.0647258868750796e-05
sVtomorrow
p2070
F9.996705270890479e-05
sVzap
p2071
F4.998352635445239e-05
sVsize
p2072
F3.393297414914758e-05
sVsheer
p2073
F4.998352635445239e-05
sVchecked
p2074
F0.0019307773087313001
sVsilent
p2075
F3.0647258868750796e-05
sVcaught
p2076
F1.93362674857016e-05
sVremotely
p2077
F3.0647258868750796e-05
sVcatastrophic
p2078
F0.0
sVfriend
p2079
F3.560272540401379e-05
sV__mirtazapine__
p2080
F0.0
sVnutrition
p2081
F0.0
sVmostly
p2082
F0.0002707077447998224
sVbrains
p2083
F0.00015323629434375397
sVmirtaz
p2084
F0.0
sVx3
p2085
F0.0
sVeliminated
p2086
F0.0
sVpeck
p2087
F0.0
sVpng
p2088
F4.998352635445239e-05
sV1800mg
p2089
F0.0
sVmagnesium
p2090
F0.0
sVtroublesome
p2091
F0.0
sVoverdosing
p2092
F0.0
sVremained
p2093
F0.0
sVslap
p2094
F4.998352635445239e-05
sVinpatient
p2095
F0.0
sVsupervision
p2096
F0.0
sVanger
p2097
F0.00015323629434375397
sVbreakfast
p2098
F9.194177660625239e-05
sVrecover
p2099
F3.86725349714032e-05
sVstoners
p2100
F0.00024991763177226195
sV1000000
p2101
F0.0
sVonline
p2102
F0.00024517807095000637
sVego
p2103
F0.0
sVimpairment
p2104
F0.0
sVbegin
p2105
F5.8008802457104804e-05
sVprice
p2106
F0.0004447341521711368
sVimportantly
p2107
F0.0
sVforever
p2108
F0.00015323629434375397
sVdream
p2109
F0.00030647258868750794
sVsteady
p2110
F0.0
sVtooth
p2111
F9.996705270890479e-05
sVprofessional
p2112
F6.129451773750159e-05
sVtypically
p2113
F0.00044985173719007155
sVrambling
p2114
F0.0
sVfifty
p2115
F6.129451773750159e-05
sVdiscovered
p2116
F5.8008802457104804e-05
sVpromosing
p2117
F0.0
sV120mg
p2118
F0.0
sVground
p2119
F1.93362674857016e-05
sVratio
p2120
F4.998352635445239e-05
sVtitle
p2121
F6.129451773750159e-05
sVprogesterones
p2122
F0.0
sVdeveloped
p2123
F0.0
sValcoholism
p2124
F0.00014995057906335717
sVtruly
p2125
F0.00015323629434375397
sVcannot
p2126
F7.917693968134435e-05
sVstroll
p2127
F0.0
sVhusband
p2128
F9.194177660625239e-05
sVmedicated
p2129
F9.996705270890479e-05
sVconcert
p2130
F4.998352635445239e-05
sVburst
p2131
F3.0647258868750796e-05
sVphysically
p2132
F0.0004998352635445239
sVamtriptalyne
p2133
F0.0
sVnamely
p2134
F0.0
sVactively
p2135
F0.0
sVasleep
p2136
F0.0006435924362437667
sVconcern
p2137
F0.00014995057906335717
sV3
p2138
F0.0011650321124540668
sVherbal
p2139
F0.00019993410541780957
sVlisinopril
p2140
F0.0
sVtherapies
p2141
F0.0
sVnotice
p2142
F0.0001583538793626887
sVblame
p2143
F9.6681337428508e-05
sVseroqeul
p2144
F0.0
sVhurts
p2145
F0.00024991763177226195
sVarticle
p2146
F9.6681337428508e-05
sVhydrate
p2147
F0.0
sVndri
p2148
F0.0
sVapdb
p2149
F0.0
sVnoopept
p2150
F0.0
sV150
p2151
F0.0
sVjeans
p2152
F4.998352635445239e-05
sVlearning
p2153
F0.00015323629434375397
sVsynergize
p2154
F0.0
sVcycling
p2155
F0.00039986821083561915
sVneurogenesis
p2156
F0.0
sVinformed
p2157
F4.998352635445239e-05
sVmarkedly
p2158
F0.0
sVdangers
p2159
F9.996705270890479e-05
sVsesh
p2160
F0.0
sVexhaustion
p2161
F4.998352635445239e-05
sVdiscontinuing
p2162
F0.0
sVfigured
p2163
F6.129451773750159e-05
sV1ml
p2164
F0.0
sVsuspected
p2165
F0.0
sV1mg
p2166
F0.0
sVcountless
p2167
F0.0
sVdeveloping
p2168
F4.998352635445239e-05
sVtrick
p2169
F5.8008802457104804e-05
sVcigs
p2170
F0.0
sValcoholic
p2171
F4.998352635445239e-05
sVanxieties
p2172
F0.0
sVembrace
p2173
F4.998352635445239e-05
sVhelium
p2174
F0.0
sVawhile
p2175
F0.00014995057906335717
sVworry
p2176
F9.048793106439353e-05
sVdevelop
p2177
F0.0002145308120812556
sVfiguring
p2178
F9.996705270890479e-05
sVcoworkers
p2179
F9.996705270890479e-05
sVinvestigated
p2180
F0.0
sVclosest
p2181
F3.0647258868750796e-05
sVenjoyment
p2182
F0.0
sVfoam
p2183
F4.998352635445239e-05
sVfruit
p2184
F1.1310991383049191e-05
sVanecdotal
p2185
F0.0
sVfavorites
p2186
F4.998352635445239e-05
sVpassing
p2187
F5.086103629144826e-06
sVmentally
p2188
F0.00039986821083561915
sVsevere
p2189
F0.00076618147171877
sValleviate
p2190
F4.998352635445239e-05
sVcialis
p2191
F0.0
sVheaps
p2192
F0.0
sVcomment
p2193
F0.00018388355321250478
sVescitalopram
p2194
F0.0
sVrelevant
p2195
F0.0
sVtouch
p2196
F5.655495691524596e-05
sVspeed
p2197
F2.543051814572413e-05
sVdeath
p2198
F9.6681337428508e-05
sVangiotensin
p2199
F0.0
sVthinking
p2200
F0.00023203520982841922
sVimprovement
p2201
F0.00015323629434375397
sVtreatment
p2202
F0.0015494893169880242
sVstruck
p2203
F4.998352635445239e-05
sVreal
p2204
F0.0
sVread
p2205
F0.00014704288797963948
sVtwitchy
p2206
F0.0
sVpsilocin
p2207
F0.0
sVdiscontinue
p2208
F0.0
sVstools
p2209
F0.0
sVearly
p2210
F6.786594829829516e-05
sVpsy
p2211
F0.0
sVlistening
p2212
F3.0647258868750796e-05
sVamp
p2213
F0.001195243095881281
sVbodyweightfitness
p2214
F0.0
sVruled
p2215
F4.998352635445239e-05
sVtegretol
p2216
F0.0
sVx4
p2217
F0.0
sVpounds
p2218
F0.0009194177660625239
sVsuppliers
p2219
F0.0
sVmiracle
p2220
F0.0
sVbenefit
p2221
F0.0007997364216712383
sVoccasions
p2222
F0.0
sVduration
p2223
F0.0
sVbusiness
p2224
F1.0172207258289653e-05
sVasap
p2225
F0.0
sVequivalent
p2226
F3.0647258868750796e-05
sVstrained
p2227
F0.0
sVhectic
p2228
F0.0
sVfractured
p2229
F0.0
sVsixty
p2230
F0.0
sVrutaecarpine
p2231
F0.0
sVexciting
p2232
F1.1310991383049191e-05
sVthrow
p2233
F0.00024517807095000637
sVfriendship
p2234
F6.129451773750159e-05
sVsri
p2235
F0.0
sVdrugsdb
p2236
F0.0
sVbenzos
p2237
F0.0
sVwolf
p2238
F0.0
sVgreatly
p2239
F0.00019993410541780957
sVinternalize
p2240
F4.998352635445239e-05
sVbackup
p2241
F4.998352635445239e-05
sVflashbacks
p2242
F0.0
sVresearching
p2243
F0.0
sVprotests
p2244
F0.0
sVmethylone
p2245
F0.0
sVsnooze
p2246
F0.0
sVbedtime
p2247
F0.0
sVprazosin
p2248
F0.0
sVlog
p2249
F4.998352635445239e-05
sVarea
p2250
F5.086103629144826e-06
sVaren
p2251
F0.00014749700524519996
sVremoving
p2252
F4.998352635445239e-05
sVpaywall
p2253
F0.0
sVstark
p2254
F0.0
sVstart
p2255
F0.0004298176725558693
sVcats
p2256
F0.00014995057906335717
sVlow
p2257
F0.0005203056036202628
sVlot
p2258
F0.0
sVallergic
p2259
F9.996705270890479e-05
sVcuriously
p2260
F0.0
sVlymph
p2261
F0.0
sVtrying
p2262
F0.0005429275863863612
sVhappening
p2263
F7.73450699428064e-05
sVstanford
p2264
F0.0
sVdefault
p2265
F4.998352635445239e-05
sVsadness
p2266
F0.0
sVbeliefs
p2267
F0.0
sVillnesses
p2268
F0.0
sV600
p2269
F3.0647258868750796e-05
sVdescribe
p2270
F6.129451773750159e-05
sVmoved
p2271
F0.00021269894234271763
sV1200
p2272
F0.0
sV225mg
p2273
F0.0
sVevenings
p2274
F0.00014995057906335717
sVforcing
p2275
F9.996705270890479e-05
sVgaining
p2276
F0.00034988468448116675
sVpolar
p2277
F4.998352635445239e-05
sVpoop
p2278
F4.998352635445239e-05
sVdrift
p2279
F0.0
sVsuited
p2280
F9.996705270890479e-05
sVbuilding
p2281
F5.8008802457104804e-05
sVridden
p2282
F3.0647258868750796e-05
sVacutally
p2283
F0.0
sVtitration
p2284
F0.0
sVdexmethylphenidate
p2285
F0.0
sVamaryl
p2286
F0.0
sVoutlining
p2287
F0.0
sVskeleton
p2288
F1.93362674857016e-05
sV5htp
p2289
F0.0
sVmonth
p2290
F0.00047506163808806604
sVthoughtful
p2291
F4.998352635445239e-05
sVcardiologist
p2292
F0.0
sVmessy
p2293
F4.998352635445239e-05
sVcarpet
p2294
F4.998352635445239e-05
sVequivalence
p2295
F0.0
sVfoster
p2296
F4.998352635445239e-05
sVsthat
p2297
F0.0
sVnodes
p2298
F0.0
sVpatently
p2299
F0.0
sVhorror
p2300
F4.998352635445239e-05
sVbalancing
p2301
F6.129451773750159e-05
sVminded
p2302
F4.998352635445239e-05
sVdecide
p2303
F0.00015323629434375397
sVgeneralised
p2304
F0.0
sVheaven
p2305
F3.0647258868750796e-05
sVnorthern_illinois_university_shooting
p2306
F0.0
sVmanager
p2307
F9.194177660625239e-05
sVsedation
p2308
F0.0
sVthrobbing
p2309
F4.998352635445239e-05
sVamnesiac
p2310
F0.0
sVfence
p2311
F6.129451773750159e-05
sV2012_minneapolis_workplace_shooting
p2312
F0.0
sVstreets
p2313
F4.998352635445239e-05
sVunheard
p2314
F0.0
sVpregaba
p2315
F0.0
sVorgasm
p2316
F9.996705270890479e-05
sVenhancement
p2317
F9.996705270890479e-05
sVdissertation
p2318
F9.996705270890479e-05
sVcues
p2319
F4.998352635445239e-05
sVdarkness
p2320
F4.998352635445239e-05
sVinduce
p2321
F0.0
sVemotions
p2322
F0.00034988468448116675
sVinsomniacs
p2323
F0.0
sVlearned
p2324
F0.00024991763177226195
sVloose
p2325
F7.73450699428064e-05
sVanswers
p2326
F3.0647258868750796e-05
sVselective
p2327
F0.0
sVstrong
p2328
F0.0002513714773141208
sVultra
p2329
F0.0
sVahead
p2330
F3.86725349714032e-05
sVhypochondria
p2331
F0.0
sVmdma
p2332
F0.0
sVvasodilation
p2333
F0.0
sVamount
p2334
F0.00021269894234271763
sVheroin
p2335
F0.00014995057906335717
sVtrainer
p2336
F4.998352635445239e-05
sVfamily
p2337
F0.00017402640737131442
sVrequiring
p2338
F4.998352635445239e-05
sVput
p2339
F0.00032042452863612406
sVaimed
p2340
F0.0
sVtrained
p2341
F4.998352635445239e-05
sVtoys
p2342
F4.998352635445239e-05
sVeldepryl
p2343
F0.0
sVtakes
p2344
F0.0001583538793626887
sVdpdr
p2345
F0.0
sVcontains
p2346
F3.0647258868750796e-05
sVtaken
p2347
F0.00018309973064921376
sVinjury
p2348
F4.998352635445239e-05
sVoutpatient
p2349
F0.0
sVsite
p2350
F0.0001546901398856128
sVexcuse
p2351
F3.86725349714032e-05
sVbroke
p2352
F1.93362674857016e-05
sVhelped
p2353
F0.001348479390225035
sVhistory
p2354
F0.0001353538723999112
sVpusher
p2355
F0.0
sVpushed
p2356
F5.8008802457104804e-05
sVphrase
p2357
F3.0647258868750796e-05
sVlacks
p2358
F6.129451773750159e-05
sVfirmly
p2359
F4.998352635445239e-05
sVcalms
p2360
F0.0
sV1056
p2361
F0.0
sVstayed
p2362
F0.00011601760491420961
sVvisteril
p2363
F0.0
sVtried
p2364
F0.0015275651313704265
sVreuptake
p2365
F0.0
sVfa
p2366
F0.0
sVtries
p2367
F1.93362674857016e-05
sVremeronwithdrawal
p2368
F0.0
sVcriticize
p2369
F0.0
sVuracil
p2370
F0.0
sVenzymes
p2371
F0.0
sVdocumentation
p2372
F4.998352635445239e-05
sVovernight
p2373
F4.998352635445239e-05
sVanytime
p2374
F4.998352635445239e-05
sVnegligible
p2375
F0.0
sVegg
p2376
F4.998352635445239e-05
sVuninstall
p2377
F4.998352635445239e-05
sVhelp
p2378
F0.0006001602282390895
sVslouch
p2379
F0.0
sVsoon
p2380
F6.1033243549737916e-05
sVbcuz
p2381
F0.0
sVperceptive
p2382
F0.0
sVffi
p2383
F0.0
sVcommitted
p2384
F3.0647258868750796e-05
sVhell
p2385
F0.00011601760491420961
sVmcdonalds
p2386
F0.0
sVseeming
p2387
F4.998352635445239e-05
sVactually
p2388
F0.00031533842500697923
sVsystems
p2389
F9.996705270890479e-05
sVevening
p2390
F0.00018388355321250478
sVmotivated
p2391
F0.00014995057906335717
sVyo
p2392
F6.129451773750159e-05
sVya
p2393
F6.129451773750159e-05
sVknocking
p2394
F4.998352635445239e-05
sVfloating
p2395
F3.0647258868750796e-05
sVvomit
p2396
F0.00014995057906335717
sVdesperately
p2397
F0.00012258903547500319
sVerection
p2398
F4.998352635445239e-05
sVholiday
p2399
F3.0647258868750796e-05
sVfully
p2400
F0.00011310991383049191
sVstopped
p2401
F0.0006961056294852577
sVreferred
p2402
F0.0
sVheavy
p2403
F5.655495691524596e-05
sVrestless
p2404
F0.0
sVtrip_report_mirtazapine_remeron_225mg
p2405
F0.0
sVevens
p2406
F0.0
sVbeyond
p2407
F3.0516621774868958e-05
sVzonegran
p2408
F0.0
sVvertigo
p2409
F4.998352635445239e-05
sVemotionally
p2410
F0.00029990115812671435
sVrobert
p2411
F0.0
sVsince
p2412
F0.0002949940104903999
sVmeditating
p2413
F0.0
sVdouglas
p2414
F0.0
sVsustain
p2415
F0.0
sV7
p2416
F0.0001696648707457379
sVissue
p2417
F0.00040606161719973364
sVass
p2418
F0.00024517807095000637
sVpun
p2419
F4.998352635445239e-05
sVreason
p2420
F0.0003167077587253774
sVbase
p2421
F1.1310991383049191e-05
sVunsightly
p2422
F0.0
sVask
p2423
F0.00020344414516579304
sVterrible
p2424
F0.00040606161719973364
sVamerican
p2425
F0.0
sVexpecting
p2426
F5.8008802457104804e-05
sVprobability
p2427
F0.0
sVmisc
p2428
F4.998352635445239e-05
sVdysthymia
p2429
F0.0
sVnutritionist
p2430
F0.0
sVmiss
p2431
F2.543051814572413e-05
sVpropranolol
p2432
F0.0
sVwonderful
p2433
F7.73450699428064e-05
sVhivemind
p2434
F0.0
sVscheme
p2435
F3.0647258868750796e-05
sVrewired
p2436
F0.0
sVselling
p2437
F4.998352635445239e-05
sVtrapped
p2438
F0.0
sVbowel
p2439
F0.0
sV1918
p2440
F0.0
sVboredom
p2441
F0.0
sVblindly
p2442
F0.0
sVgrew
p2443
F4.998352635445239e-05
sVvalporic
p2444
F0.0
sVkindly
p2445
F4.998352635445239e-05
sVgrogginess
p2446
F0.0
sVkindle
p2447
F0.0
sVgps
p2448
F0.0
sVdeciding
p2449
F0.0
sVwasnt
p2450
F0.0
sValongside
p2451
F6.129451773750159e-05
sVsitatuation
p2452
F0.0
sVsubstantial
p2453
F4.998352635445239e-05
sVsentences
p2454
F4.998352635445239e-05
sVconcentration
p2455
F9.194177660625239e-05
sVorgans
p2456
F4.998352635445239e-05
sVlie
p2457
F7.73450699428064e-05
sVpotentiated
p2458
F0.0
sVlil
p2459
F4.998352635445239e-05
sVuseless
p2460
F4.998352635445239e-05
sVtowards
p2461
F1.0172207258289653e-05
sVquote
p2462
F3.0647258868750796e-05
sVexperiences
p2463
F0.0003371198475562588
sVchanneling
p2464
F0.0
sVeaten
p2465
F6.129451773750159e-05
sValpha
p2466
F0.0004998352635445239
sVapproved
p2467
F0.0
sVgain
p2468
F0.003616376546512594
sVsalary
p2469
F0.0
sVclear
p2470
F5.086103629144826e-05
sVziggy
p2471
F0.0
sVclean
p2472
F1.0172207258289653e-05
sVlatest
p2473
F3.0647258868750796e-05
sVphysics
p2474
F4.998352635445239e-05
sVhyper
p2475
F0.0
sVaaaaand
p2476
F0.0
sVbooze
p2477
F9.996705270890479e-05
sVvynase
p2478
F0.0
sVstalker
p2479
F4.998352635445239e-05
sVnorthern
p2480
F9.996705270890479e-05
sVparanoid
p2481
F0.00024991763177226195
sVparanoia
p2482
F0.0
sVflights
p2483
F4.998352635445239e-05
sVpretty
p2484
F0.0013148661890277089
sVcircle
p2485
F0.0
sVmeanwhile
p2486
F0.0
sVtrees
p2487
F1.93362674857016e-05
sVfamous
p2488
F3.0647258868750796e-05
sVfeels
p2489
F0.0002145308120812556
sVpretending
p2490
F3.0647258868750796e-05
sVcombinations
p2491
F0.00024991763177226195
sVintensify
p2492
F0.0
sVfluff
p2493
F0.0
sVhypo
p2494
F0.0
sVwithdrawal
p2495
F0.0
sVx
p2496
F4.998352635445239e-05
sVthrowing
p2497
F5.8008802457104804e-05
sVschizophrenic
p2498
F0.0
sVschizophrenia
p2499
F9.996705270890479e-05
sVrtms
p2500
F0.0
sVclose
p2501
F0.0002513714773141208
sVhorrid
p2502
F0.0
sVpictures
p2503
F3.0647258868750796e-05
sVwow
p2504
F9.996705270890479e-05
sVwon
p2505
F8.646376169546205e-05
sVwok
p2506
F0.0
sVassertive
p2507
F4.998352635445239e-05
sVprobably
p2508
F0.0004298176725558693
sVconditions
p2509
F0.00019993410541780957
sVpictured
p2510
F0.0
sVanticholinergic
p2511
F0.0
sVstatistically
p2512
F0.0
sVmissing
p2513
F2.2621982766098382e-05
sVdibilitating
p2514
F0.0
sVleague
p2515
F0.0
sVsecrets
p2516
F0.00014995057906335717
sVsensitive
p2517
F4.5243965532196764e-05
sVbuzz
p2518
F9.194177660625239e-05
sVhistamine
p2519
F0.0
sVexperimental
p2520
F0.0
sVliked
p2521
F0.00012258903547500319
sVtofranil
p2522
F0.0
sVwhatever
p2523
F0.0001583538793626887
sV100mg
p2524
F0.0
sVlikes
p2525
F3.86725349714032e-05
sVdescribed
p2526
F6.129451773750159e-05
sVdamn
p2527
F0.00029990115812671435
sVmetronidazole
p2528
F0.0
sVempty
p2529
F2.0344414516579305e-05
sVgenerating
p2530
F3.0647258868750796e-05
sVsuspicious
p2531
F9.996705270890479e-05
sV0003
p2532
F0.0
sVelse
p2533
F0.00012715259072862067
sVnorepherine
p2534
F0.0
sVliver
p2535
F0.0002145308120812556
sVlook
p2536
F0.00018309973064921376
sVsmart
p2537
F3.0647258868750796e-05
sVguide
p2538
F4.998352635445239e-05
sVpack
p2539
F0.0002601528018101314
sVoverlooked
p2540
F0.0
sVredacted
p2541
F4.998352635445239e-05
sVjpg
p2542
F0.00015323629434375397
sVhereis
p2543
F0.0
sVterminator
p2544
F0.0
sVpromethazine
p2545
F0.0
sVhydromorphone
p2546
F0.0
sVblissful
p2547
F0.0
sVbaseline
p2548
F0.00024991763177226195
sVanymore
p2549
F0.00023203520982841922
sVenergizing
p2550
F0.0
sVused
p2551
F0.0011989650866032144
sVtemporary
p2552
F0.00044985173719007155
sVdime
p2553
F4.998352635445239e-05
sVbonus
p2554
F9.996705270890479e-05
sVoverweight
p2555
F0.0
sV25gram
p2556
F0.0
sV000
p2557
F0.00019993410541780957
sVuses
p2558
F1.93362674857016e-05
sVuser
p2559
F0.0013178321313562843
sVhaunting
p2560
F0.0
sV009
p2561
F0.0
sV80
p2562
F0.0
sVolder
p2563
F6.786594829829516e-05
sVmemantine
p2564
F0.0
sVpoland
p2565
F0.0
sVobviously
p2566
F0.0002513714773141208
sVappalled
p2567
F0.0
sVgrossly
p2568
F0.0
sVabstain
p2569
F0.0
sVtolerability
p2570
F0.0
sVreviewed
p2571
F0.0
sVmyristicin
p2572
F0.0
sVpraying
p2573
F4.998352635445239e-05
sVpocinki_nonrestorative_sleep_2013_s
p2574
F0.0
sVguaranteed
p2575
F0.0
sVexercising
p2576
F0.0
sVtripsit
p2577
F0.0
sVsedated
p2578
F0.0
sVtransformation
p2579
F0.0
sVmarch
p2580
F4.998352635445239e-05
sVlacking
p2581
F4.998352635445239e-05
sVevaluate
p2582
F0.0
sVgame
p2583
F3.393297414914758e-05
sVantidepresant
p2584
F0.0
sVsubmission
p2585
F4.998352635445239e-05
sVinterestingly
p2586
F4.998352635445239e-05
sVmanifest
p2587
F9.996705270890479e-05
sVpopular
p2588
F9.996705270890479e-05
sVeeg
p2589
F0.0
sVterminology
p2590
F0.0
sVbrakes
p2591
F4.998352635445239e-05
sVsoma
p2592
F0.0
sVcreation
p2593
F4.998352635445239e-05
sVexperienced
p2594
F0.0006497858426078811
sVerupts
p2595
F0.0
sVdescribing
p2596
F0.00014995057906335717
sVpounding
p2597
F4.998352635445239e-05
sVminimal
p2598
F0.0
sVsweating
p2599
F4.998352635445239e-05
sVeating
p2600
F0.0012258903547500317
sVanecdotes
p2601
F0.0
sVrub
p2602
F4.998352635445239e-05
sVgoooood
p2603
F0.0
sVrue
p2604
F0.0
sVstep
p2605
F3.393297414914758e-05
sVnegatives
p2606
F0.0
sVlasts
p2607
F6.129451773750159e-05
sVbecome
p2608
F5.5947139920593095e-05
sVache
p2609
F0.0
sVtaboo
p2610
F0.0
sV1snri
p2611
F0.0
sVwouldnt
p2612
F0.0
sVsimulation
p2613
F0.0
sVidk
p2614
F0.0
sVblock
p2615
F0.00018388355321250478
sVantihistaminic
p2616
F0.0
sVdisclosure
p2617
F0.0
sVvisit
p2618
F3.86725349714032e-05
sVwithin
p2619
F0.00012442090521354112
sVnonsense
p2620
F0.0
sVstatistics
p2621
F4.998352635445239e-05
sVconsultation
p2622
F0.0
sVinept
p2623
F0.0
sVpsychoactive
p2624
F0.0
sVproperly
p2625
F3.393297414914758e-05
sVnewer
p2626
F0.00044985173719007155
sVrussian
p2627
F4.998352635445239e-05
sVtryptophan
p2628
F0.0
sVtachycardia
p2629
F0.0
sVmineral
p2630
F4.998352635445239e-05
sVfda
p2631
F0.0
sVpersisting
p2632
F0.0
sVrestarted
p2633
F4.998352635445239e-05
sV2gram
p2634
F0.0
sVsimilar
p2635
F0.0002827747845762298
sVtricyclic
p2636
F0.0
sVadults
p2637
F4.998352635445239e-05
sVdoesn
p2638
F0.00033568283952355854
sVunwise
p2639
F0.0
sVkidney
p2640
F9.996705270890479e-05
sVinsomniac
p2641
F0.0
sVamounts
p2642
F0.00012258903547500319
sVnah
p2643
F4.998352635445239e-05
sVnap
p2644
F0.0
sVelectrical
p2645
F0.00014995057906335717
sVdepartment
p2646
F4.998352635445239e-05
sVhydrated
p2647
F0.0
sVvisits
p2648
F0.0
sVdrag
p2649
F1.1310991383049191e-05
sVrested
p2650
F0.0
sVvalidity
p2651
F0.0
sVeval
p2652
F4.998352635445239e-05
sVstructure
p2653
F9.996705270890479e-05
sVindependently
p2654
F0.0
sVe
p2655
F8.646376169546205e-05
sVpractically
p2656
F4.998352635445239e-05
sVsvg
p2657
F0.0
sVsedative
p2658
F0.0
sVwellbeing
p2659
F0.0
sVvisual
p2660
F9.996705270890479e-05
sVdepth
p2661
F3.86725349714032e-05
sVignorant
p2662
F0.00024991763177226195
sVrequires
p2663
F9.996705270890479e-05
sVsounded
p2664
F0.0
sVgt
p2665
F0.0
sVgp
p2666
F0.0
sVpsyche
p2667
F0.0
sVgo
p2668
F0.0
sVpsycho
p2669
F9.996705270890479e-05
sVruminate
p2670
F0.0
sVstave
p2671
F0.0
sVsuits
p2672
F4.998352635445239e-05
sVselegiline
p2673
F0.0
sVworred
p2674
F0.0
sVwave
p2675
F1.93362674857016e-05
sVunstructured
p2676
F0.0
sVfacebook
p2677
F0.0
sVtelling
p2678
F0.00010179892244744273
sVnausea
p2679
F0.0
sVmichael
p2680
F0.0
sVflickered
p2681
F0.0
sVchristpsychosis
p2682
F0.0
sVwaking
p2683
F0.00030647258868750794
sVjump
p2684
F3.86725349714032e-05
sVplays
p2685
F5.8008802457104804e-05
sVexacerbate
p2686
F0.0
sVunhelpful
p2687
F3.0647258868750796e-05
sValprazolam
p2688
F0.0
sVexperiment
p2689
F6.129451773750159e-05
sVprescribe
p2690
F0.0006997693689623335
sVfollowing
p2691
F7.917693968134435e-05
sVfocused
p2692
F0.0002145308120812556
sVzopiclone
p2693
F0.0
sVwithdrawing
p2694
F0.0
sVpreferentially
p2695
F0.0
sVproducts
p2696
F0.0006742396951125175
sVdopamin
p2697
F0.0
sVgene
p2698
F0.00014995057906335717
sVflexeril
p2699
F0.0
sVstabilization
p2700
F0.0
sVrecommended_routine
p2701
F0.0
sVwin
p2702
F1.93362674857016e-05
sVmanage
p2703
F9.6681337428508e-05
sVcollaborating
p2704
F0.0
sVwih
p2705
F0.0
sVorganon_international
p2706
F0.0
sVsinging
p2707
F1.93362674857016e-05
sVtrimipramine
p2708
F0.0
sVtcas
p2709
F0.0
sVcrap
p2710
F9.194177660625239e-05
sVremains
p2711
F1.93362674857016e-05
sVsimpler
p2712
F4.998352635445239e-05
sVpopped
p2713
F0.00019993410541780957
sVstarted
p2714
F0.0009840562503252797
sVbecomes
p2715
F9.6681337428508e-05
sVconfused
p2716
F3.0647258868750796e-05
sVweened
p2717
F0.0
sVendocrinologist
p2718
F0.0
sVsalad
p2719
F4.998352635445239e-05
sVzyrtec
p2720
F0.0
sVlapse
p2721
F0.0
sVcrossed
p2722
F3.0647258868750796e-05
sVmeet
p2723
F9.194177660625239e-05
sVinhibitor
p2724
F0.0
sVcontrol
p2725
F0.0010420068015375272
sVwaaaay
p2726
F0.0
sVescapes
p2727
F4.998352635445239e-05
sVhalloween
p2728
F0.0
sVsought
p2729
F4.998352635445239e-05
sVbowl
p2730
F9.996705270890479e-05
sVstemmed
p2731
F0.0
sVblessings
p2732
F0.0
sVfart
p2733
F3.0647258868750796e-05
sVfatigue
p2734
F0.0
sVcontraceptives
p2735
F0.0
sVserotonergic
p2736
F0.0
sVincluding
p2737
F0.0001353538723999112
sVmentioned
p2738
F0.0004998352635445239
sVconverting
p2739
F0.0
sVbrittle
p2740
F0.0
sVimbalance
p2741
F0.0
sVhalflife
p2742
F0.0
sVfrontal
p2743
F3.0647258868750796e-05
sVsweets
p2744
F4.998352635445239e-05
sVhands
p2745
F0.00015323629434375397
sVfront
p2746
F4.5243965532196764e-05
sVcircadian
p2747
F0.0
sVhandy
p2748
F9.996705270890479e-05
sVmods
p2749
F0.0
sVuniversity
p2750
F0.00034988468448116675
sVmesolimbic
p2751
F0.0
sVdoesnt
p2752
F0.00015323629434375397
sVmode
p2753
F3.0647258868750796e-05
sVunwind
p2754
F4.998352635445239e-05
sVflunked
p2755
F0.0
sVaggravated
p2756
F0.0
sVcorticosteroids
p2757
F0.0
sVstimulants
p2758
F0.0
sVspecial
p2759
F1.0172207258289653e-05
sVreboot
p2760
F4.998352635445239e-05
sVobsessive
p2761
F0.0
sVbarbiturates
p2762
F0.0
sVreacts
p2763
F0.0
sVattending
p2764
F0.0
sVcompletely
p2765
F0.0001696648707457379
sVect
p2766
F0.0
sVhostile
p2767
F4.998352635445239e-05
sVroute
p2768
F5.8008802457104804e-05
sVdiminished
p2769
F0.0
sVtimes
p2770
F0.0
sVkeen
p2771
F3.0647258868750796e-05
sVhassling
p2772
F0.0
sVtimed
p2773
F4.998352635445239e-05
sVmad
p2774
F1.1310991383049191e-05
sVprospective
p2775
F0.0
sVswapped
p2776
F4.998352635445239e-05
sVdepress_appd
p2777
F0.0
sVpowerful
p2778
F0.00014995057906335717
sVimproving
p2779
F6.129451773750159e-05
sVpermenant
p2780
F0.0
sVbitch
p2781
F9.996705270890479e-05
sVdrinker
p2782
F4.998352635445239e-05
sVquality
p2783
F0.0005414154895996448
sVingested
p2784
F0.0
sVmanagement
p2785
F4.998352635445239e-05
sVpractitioners
p2786
F0.0
sVguys
p2787
F0.00019993410541780957
sVclomipramine
p2788
F0.0
sVattack
p2789
F5.655495691524596e-05
sVneurotransmitter
p2790
F0.0
sVperfectly
p2791
F3.86725349714032e-05
sVcnnz7pl
p2792
F0.0
sVprone
p2793
F0.0
sVcraziest
p2794
F9.996705270890479e-05
sVexactly
p2795
F0.0002714637931931806
sVlists
p2796
F0.00014995057906335717
sVchemicals
p2797
F0.0
sVwaist
p2798
F3.0647258868750796e-05
sVben
p2799
F0.0
sVbed
p2800
F0.0013178321313562843
sVprobiotics
p2801
F0.0
sVcravings
p2802
F0.0005498187898989764
sVproviding
p2803
F0.0
sVbet
p2804
F1.1310991383049191e-05
sVbehaviors
p2805
F0.0
sVtabs
p2806
F3.0647258868750796e-05
sVneed
p2807
F0.0004730076375104689
sVtale
p2808
F3.0647258868750796e-05
sVphysique
p2809
F0.0
sVinstance
p2810
F7.73450699428064e-05
sVgrounding
p2811
F0.0
sVmountaintop
p2812
F0.0
sVmileage
p2813
F0.0
sVintentions
p2814
F0.0
sVconnected
p2815
F1.1310991383049191e-05
sVconsequences
p2816
F4.998352635445239e-05
sVupset
p2817
F9.996705270890479e-05
sVindo
p2818
F0.0
sVdrunken
p2819
F9.996705270890479e-05
sVindoor
p2820
F0.0010996375797979528
sVanyway
p2821
F0.0003093802797712256
sVmirtazapie
p2822
F0.0
sVbased
p2823
F0.00011601760491420961
sVtire
p2824
F6.129451773750159e-05
sVhadn
p2825
F7.73450699428064e-05
sVnitrous
p2826
F0.0
sVreceptors
p2827
F0.0014995057906335718
sVemployer
p2828
F0.0
sVreactive
p2829
F0.0
sVfuel
p2830
F0.0
sVsulfur
p2831
F4.998352635445239e-05
sVachieve
p2832
F0.00014995057906335717
sVslows
p2833
F4.998352635445239e-05
sVoverall
p2834
F0.00039986821083561915
sV120
p2835
F0.0
sVtbh
p2836
F0.0
sV125
p2837
F0.0
sVneurosteroids
p2838
F0.0
sVtecas
p2839
F0.0
sVendless
p2840
F3.0647258868750796e-05
sVevident
p2841
F0.00019993410541780957
sVtobacco
p2842
F3.0647258868750796e-05
sVtuned
p2843
F0.00012258903547500319
sVthalamic
p2844
F0.0
sVnutmeg
p2845
F0.0
sVprocessed
p2846
F4.998352635445239e-05
sVacording
p2847
F0.0
sVgrams
p2848
F0.0
sVdph
p2849
F0.0
sVprayers
p2850
F4.998352635445239e-05
sVcomputer
p2851
F6.129451773750159e-05
sVpowder
p2852
F9.194177660625239e-05
sVdesperate
p2853
F4.998352635445239e-05
sVdanger
p2854
F1.1310991383049191e-05
sVlux
p2855
F0.0
sVnightmare
p2856
F1.93362674857016e-05
sVillusory
p2857
F0.0
sVwillpower
p2858
F0.0
sVtend
p2859
F0.0009996705270890478
sVmacros
p2860
F0.0
sVstate
p2861
F0.00042539788468543525
sVcorrectly
p2862
F1.93362674857016e-05
sVhorrible
p2863
F0.00039841436529376034
sVneither
p2864
F6.129451773750159e-05
sVkidneys
p2865
F4.998352635445239e-05
sVcomparable
p2866
F0.0
sVsole
p2867
F0.0
sVinterfere
p2868
F4.998352635445239e-05
sVkicking
p2869
F0.00014995057906335717
sVkey
p2870
F1.93362674857016e-05
sVdeliriant
p2871
F0.0
sVgroup
p2872
F0.00011310991383049191
sVmonitor
p2873
F4.998352635445239e-05
sVhits
p2874
F5.8008802457104804e-05
sVcareer
p2875
F3.0647258868750796e-05
sVantidepressives
p2876
F0.0
sVpresentations
p2877
F0.0
sVminature
p2878
F0.0
sVstrains
p2879
F0.0
sVadmit
p2880
F0.0
sVcouncilling
p2881
F0.0
sVjourney
p2882
F0.0
sVafaik
p2883
F0.0
sVtuesday
p2884
F0.0
sVprebiotics
p2885
F0.0
sVwilly
p2886
F0.0
sVquit
p2887
F0.0007048869539812683
sVaccomplishing
p2888
F0.0
sVyay
p2889
F0.0
sVaddition
p2890
F0.00034988468448116675
sVimmense
p2891
F0.0
sVslowly
p2892
F0.00011601760491420961
sVtreat
p2893
F0.00042539788468543525
sVsars
p2894
F0.0
sVsenses
p2895
F0.0
sVcontrolled
p2896
F9.996705270890479e-05
sVreleasing
p2897
F4.998352635445239e-05
sVcontroller
p2898
F0.0
sVdecreased
p2899
F0.0
sVkicks
p2900
F0.00019993410541780957
sVsmoking
p2901
F0.00024517807095000637
sVnovel
p2902
F0.0
sVkava
p2903
F0.0
sVharder
p2904
F0.00018388355321250478
sVchalk
p2905
F0.0
sV160mg
p2906
F0.0
sVdiscontinuation
p2907
F0.0
sVbcguidelines
p2908
F0.0
sVexaminer
p2909
F0.0
sVkamil330
p2910
F0.0
sVneuron
p2911
F0.0
sVsustenance
p2912
F0.0
sVexamined
p2913
F0.0
sVpiracetam
p2914
F0.0
sVgeneric
p2915
F0.00044985173719007155
sVbegan
p2916
F9.194177660625239e-05
sVstrange
p2917
F0.00014704288797963948
sVparty
p2918
F0.0007355342128500191
sVforgotten
p2919
F3.0647258868750796e-05
sVeffect
p2920
F0.0003305967358944137
sVrenin
p2921
F0.0
sVfrequently
p2922
F0.00029990115812671435
sVdelsym
p2923
F0.0
sVenergized
p2924
F0.0
sVreflection
p2925
F0.0
sVlunch
p2926
F3.86725349714032e-05
sVawakenings
p2927
F0.0
sVvariety
p2928
F9.194177660625239e-05
sVwell
p2929
F0.0
sVtrials
p2930
F0.0
sVmistaked
p2931
F0.0
sVchicro
p2932
F0.0
sVincreasingly
p2933
F4.998352635445239e-05
sVdesyrel
p2934
F0.0
sVdose
p2935
F0.003798748002938382
sVsources
p2936
F0.00014995057906335717
sVdistant
p2937
F6.129451773750159e-05
sVlately
p2938
F9.194177660625239e-05
sVcoordination
p2939
F0.0
sVspells
p2940
F6.129451773750159e-05
sVdensity
p2941
F9.194177660625239e-05
sVtheroadback
p2942
F0.0
sVheaded
p2943
F5.8008802457104804e-05
sVpatricia
p2944
F0.0
sVbullshit
p2945
F0.00019993410541780957
sVask_wikibot
p2946
F0.0
sVclouded
p2947
F0.0
sVfate
p2948
F4.998352635445239e-05
sV5am
p2949
F0.00014995057906335717
sVimmediately
p2950
F5.8008802457104804e-05
sVprominent
p2951
F4.998352635445239e-05
sVloss
p2952
F0.0005516506596375143
sVnecessary
p2953
F4.5243965532196764e-05
sVemetophobia
p2954
F0.0
sVcortef
p2955
F0.0
sVsizes
p2956
F4.998352635445239e-05
sValternatively
p2957
F4.998352635445239e-05
sVcandy
p2958
F4.998352635445239e-05
sVsized
p2959
F3.0647258868750796e-05
sV4mg
p2960
F0.0
sVamitryptiline
p2961
F0.0
sVpage
p2962
F0.00012258903547500319
sVshed
p2963
F0.0
sVhydrocortisone
p2964
F0.0
sVfrancisco
p2965
F0.0
sVhome
p2966
F0.00022621982766098383
sVdemonstrates
p2967
F0.0
sVinflammation
p2968
F0.0
sVreaching
p2969
F9.996705270890479e-05
sVsyrian
p2970
F0.0
sVnaps
p2971
F0.0
sVfreedom
p2972
F1.93362674857016e-05
sVfubinaca
p2973
F0.0
sVtongue
p2974
F3.86725349714032e-05
sVduloxetine
p2975
F0.0
sVequally
p2976
F0.0
sVpreviously
p2977
F0.00019993410541780957
sVh1
p2978
F0.0
sVmushrooms
p2979
F9.194177660625239e-05
sVreceptor
p2980
F0.0
sVpointless
p2981
F0.00019993410541780957
sVprozac
p2982
F0.0
sVadditional
p2983
F9.194177660625239e-05
sVvolinanserin
p2984
F0.0
sVnoticed
p2985
F0.00014704288797963948
sVdelusions
p2986
F9.996705270890479e-05
sVinner
p2987
F3.86725349714032e-05
sVexposure
p2988
F0.0
sVnorth
p2989
F1.93362674857016e-05
sVhr
p2990
F9.996705270890479e-05
sVht
p2991
F0.0
sVescrow
p2992
F0.0
sVcollected
p2993
F4.998352635445239e-05
sVneutral
p2994
F0.00039986821083561915
sVhi
p2995
F9.996705270890479e-05
sVvalerian
p2996
F0.0
sVho
p2997
F1.93362674857016e-05
sVhm
p2998
F0.0
sVha
p2999
F3.86725349714032e-05
sVeat
p3000
F0.0005429275863863612
sVcells
p3001
F3.0647258868750796e-05
sVsigned
p3002
F1.93362674857016e-05
sVboluses
p3003
F0.0
sVetifoxine
p3004
F0.0
sVprojecting
p3005
F0.0
sVstories
p3006
F0.00015323629434375397
sVpiece
p3007
F0.00040606161719973364
sVedronax
p3008
F0.0
sVlived
p3009
F3.0647258868750796e-05
sVjudgemental
p3010
F4.998352635445239e-05
sVsneak
p3011
F4.998352635445239e-05
sVeducation
p3012
F4.998352635445239e-05
sVfunctions
p3013
F9.996705270890479e-05
sVoffensive
p3014
F3.0647258868750796e-05
sVastounding
p3015
F0.0
sVstay
p3016
F0.00023753081904403302
sVadditionally
p3017
F4.998352635445239e-05
sVfriends
p3018
F0.0001583538793626887
sVsilenor
p3019
F0.0
sVatheist
p3020
F0.00039986821083561915
sVpersistent
p3021
F0.00012258903547500319
sVescitlopram
p3022
F0.0
sVdiagnosis
p3023
F0.0
sVindirectly
p3024
F0.0
sVpowders
p3025
F0.0
sVoffenses
p3026
F0.0
sVbuddy
p3027
F4.998352635445239e-05
sVtremors
p3028
F0.0
sVblacking
p3029
F0.0
sVswap
p3030
F3.0647258868750796e-05
sVteaching
p3031
F0.0
sVsorry
p3032
F0.00020359784489488547
sVmagnetic
p3033
F0.0
sVupdated
p3034
F3.0647258868750796e-05
sVdownstream
p3035
F0.0
sVhypertensive
p3036
F0.0
sVmisunderstanding
p3037
F0.0
sVaffect
p3038
F0.0007497528953167859
sVvast
p3039
F0.0
sVhci
p3040
F0.0
sVskills
p3041
F0.0002145308120812556
sVsolution
p3042
F0.0
sVunrelated
p3043
F0.00014995057906335717
sVprotriptyline
p3044
F0.0
sVcholesterol
p3045
F0.00019993410541780957
sVenhance
p3046
F5.8008802457104804e-05
sVups
p3047
F0.00015323629434375397
sVclothes
p3048
F6.129451773750159e-05
sVforce
p3049
F0.00011601760491420961
sV10g
p3050
F0.0
sVpalps
p3051
F0.0
sVlikely
p3052
F0.0013495552115702146
sVeven
p3053
F0.0006052463318682344
sVbromantane
p3054
F0.0
sVasia
p3055
F0.0
sVlights
p3056
F3.0647258868750796e-05
sVnew
p3057
F0.0
sVtips
p3058
F3.0647258868750796e-05
sVever
p3059
F0.00022887466331151718
sVmed
p3060
F0.00076618147171877
sVmea
p3061
F0.0
sVpresynaptic
p3062
F0.0
sVmeo
p3063
F0.0
sVnever
p3064
F0.0
sVweirdly
p3065
F0.0
sVmet
p3066
F5.8008802457104804e-05
sVactive
p3067
F9.6681337428508e-05
sV100
p3068
F0.000290044012285524
sVeliciting
p3069
F0.0
sVdry
p3070
F0.0002145308120812556
sVtaper
p3071
F0.0
sVdrs
p3072
F0.0
sV3nkz1u
p3073
F0.0
sVjama
p3074
F0.0
sVsuitable
p3075
F0.0
sVmenial
p3076
F0.0
sVclonidine
p3077
F0.0
sVfantastic
p3078
F9.194177660625239e-05
sVhunch
p3079
F0.0
sVschooling
p3080
F0.0
sVsliced
p3081
F0.0
sVcounts
p3082
F3.0647258868750796e-05
sVarmy
p3083
F3.0647258868750796e-05
sVsnri
p3084
F0.0
sVarms
p3085
F1.93362674857016e-05
sVarmo
p3086
F0.0
sVcall
p3087
F6.1033243549737916e-05
sVcalm
p3088
F0.00019993410541780957
sVrecommend
p3089
F0.0007497528953167859
sVsurvive
p3090
F4.998352635445239e-05
sVgilding
p3091
F0.0
sVtype
p3092
F0.0003287165472569272
sVtell
p3093
F0.0004298176725558693
sVunequivicolly
p3094
F0.0
sVdisruption
p3095
F0.0
sVwarm
p3096
F1.1310991383049191e-05
sVadult
p3097
F0.00024991763177226195
sVward
p3098
F0.00014995057906335717
sVroom
p3099
F4.5243965532196764e-05
sVrights
p3100
F3.0647258868750796e-05
sVnoots
p3101
F0.0
sVroof
p3102
F6.129451773750159e-05
sVmovies
p3103
F3.86725349714032e-05
sVsuggestive
p3104
F4.998352635445239e-05
sVexceptions
p3105
F4.998352635445239e-05
sVroot
p3106
F3.0647258868750796e-05
sVamitryp
p3107
F0.0
sVgive
p3108
F0.0001983580415366482
sVdosing
p3109
F0.0
sVready
p3110
F3.0516621774868958e-05
sVfoods
p3111
F0.00034988468448116675
sVquetiapine
p3112
F0.0
sVdosages
p3113
F0.0
sVsertaline
p3114
F0.0
sVamazing
p3115
F0.0002145308120812556
sVanswer
p3116
F6.786594829829516e-05
sVshortens
p3117
F0.0
sVundesirable
p3118
F0.0
sVuntill
p3119
F4.998352635445239e-05
sVundergoing
p3120
F0.0
sVreplacing
p3121
F4.998352635445239e-05
sVthankyou
p3122
F0.0
sVgravol
p3123
F0.0
sVsummarize
p3124
F0.0
sVpurchase
p3125
F3.0647258868750796e-05
sVattempt
p3126
F7.917693968134435e-05
sVthird
p3127
F1.5258310887434479e-05
sVreplication
p3128
F0.0
sVbattletag
p3129
F0.0
sVmaintain
p3130
F0.00012258903547500319
sVfrequent
p3131
F0.00014995057906335717
sVwut
p3132
F0.0
sVtochka3evlj3sxdv
p3133
F0.0
sVtyramine
p3134
F0.0
sV19185342
p3135
F0.0
sVpersonal
p3136
F0.0001583538793626887
sVbetter
p3137
F0.0005645575028350757
sVdifferently
p3138
F0.00015323629434375397
sVpharms
p3139
F0.0
sVcred
p3140
F0.0
sVpleasurable
p3141
F0.0
sVaborter
p3142
F0.0
sVwidely
p3143
F0.0
sVcombination
p3144
F0.00017402640737131442
sV20cat
p3145
F0.0
sVdowns
p3146
F9.996705270890479e-05
sVdrowsiness
p3147
F0.0
sVschool
p3148
F0.0009496870007345955
sVmxp
p3149
F0.0
sVtherapy
p3150
F0.0020993081068870004
sVindulge
p3151
F0.0
sVvaping
p3152
F0.0
sVmxe
p3153
F0.0
sVadvise
p3154
F0.0
sVsleepless
p3155
F0.0
sVlucy
p3156
F0.0
sVacoustic
p3157
F0.0
sVwent
p3158
F0.0003305967358944137
sVmeal
p3159
F7.73450699428064e-05
sVbone
p3160
F7.73450699428064e-05
sVluck
p3161
F0.00040606161719973364
sVsomnolent
p3162
F0.0
sVbusiprone
p3163
F0.0
sVaide
p3164
F0.0
sVforgot
p3165
F0.00029990115812671435
sVaids
p3166
F0.0
sVextract
p3167
F4.998352635445239e-05
sVcrucial
p3168
F0.0
sVgenerics
p3169
F0.0
sVsurprise
p3170
F1.93362674857016e-05
sVsluggish
p3171
F9.996705270890479e-05
sVturning
p3172
F6.129451773750159e-05
sVstruggle
p3173
F0.00018388355321250478
sVinadequately
p3174
F0.0
sVzaps
p3175
F0.0
sVstirrers
p3176
F0.0
sVheteroreceptors
p3177
F0.0
sVstarts
p3178
F4.5243965532196764e-05
sVish
p3179
F4.998352635445239e-05
sVisn
p3180
F0.00023904687056980684
sVperforated
p3181
F0.0
sVstewart
p3182
F0.0
sVfeatures
p3183
F3.0647258868750796e-05
sVgrade
p3184
F4.998352635445239e-05
sVcomforted
p3185
F0.0
sVhook
p3186
F3.86725349714032e-05
sVdeplete
p3187
F0.0
sVdownside
p3188
F0.0
sVgirls
p3189
F3.0647258868750796e-05
sVgym
p3190
F0.00018388355321250478
sV2am
p3191
F0.0
sVtrippy
p3192
F9.996705270890479e-05
sVsomewhat
p3193
F0.0005998023162534287
sVsymptom
p3194
F0.0
sVdistance
p3195
F3.0647258868750796e-05
sVanxiety
p3196
F0.008497199480256906
sVmatter
p3197
F7.917693968134435e-05
sVsilly
p3198
F1.93362674857016e-05
sVlingering
p3199
F0.0
sVmitigating
p3200
F0.0
sVmini
p3201
F4.998352635445239e-05
sVmodulating
p3202
F0.0
sVendquote
p3203
F0.0
sVminn
p3204
F0.0
sVmodern
p3205
F1.1310991383049191e-05
sVmind
p3206
F0.000773450699428064
sVmine
p3207
F0.0001357318965965903
sVginger
p3208
F3.0647258868750796e-05
sVparamaters
p3209
F0.0
sVseen
p3210
F0.00011310991383049191
sVseem
p3211
F0.000116980383470331
sVmins
p3212
F0.00014995057906335717
sVseek
p3213
F1.1310991383049191e-05
sVtells
p3214
F9.6681337428508e-05
sVfitting
p3215
F0.0
sVchess
p3216
F4.998352635445239e-05
sVworsening
p3217
F0.0
sVwrists
p3218
F3.0647258868750796e-05
sVpsychologically
p3219
F0.0
sVclonazepam
p3220
F0.0
sVaccumbal
p3221
F0.0
sVnorepinephrine
p3222
F0.0
sVregular
p3223
F0.0004998352635445239
sV1ux484
p3224
F0.0
sVdoi
p3225
F0.0
sVobservation
p3226
F9.996705270890479e-05
sVdob
p3227
F0.0
sVdoc
p3228
F0.0006742396951125175
sValarm
p3229
F3.0647258868750796e-05
sVnighttime
p3230
F4.998352635445239e-05
sVdog
p3231
F5.8008802457104804e-05
sVdigress
p3232
F0.0
sVdefinitely
p3233
F0.0008314595018851688
sVdot
p3234
F6.129451773750159e-05
sVhunger
p3235
F0.0005998023162534287
sVprobe
p3236
F0.0
sVending
p3237
F3.0647258868750796e-05
sVndma
p3238
F0.0
sVattempts
p3239
F5.8008802457104804e-05
sVchord
p3240
F4.998352635445239e-05
sVlyrica
p3241
F0.0
sVcapitulate
p3242
F0.0
sVexperiemented
p3243
F0.0
sVchamomile
p3244
F0.0
sVcarbons
p3245
F0.0
sVexcercise
p3246
F0.0
sVsugar
p3247
F0.0004290616241625112
sVjudged
p3248
F0.00014995057906335717
sVfolks
p3249
F9.996705270890479e-05
sVinventor
p3250
F0.0
sVsudafed
p3251
F0.0
sVstop
p3252
F0.00018309973064921376
sVperceive
p3253
F0.0
sVmeditate
p3254
F0.00019993410541780957
sVbar
p3255
F1.93362674857016e-05
sVbay
p3256
F6.129451773750159e-05
sVbag
p3257
F6.129451773750159e-05
sVbad
p3258
F0.0004374049121064551
sVbam
p3259
F4.998352635445239e-05
sVeffing
p3260
F0.0
sVears
p3261
F6.129451773750159e-05
sVdecides
p3262
F4.998352635445239e-05
sVfascinating
p3263
F4.998352635445239e-05
sVrockstar
p3264
F0.0
sVtesting
p3265
F0.00019993410541780957
sValterations
p3266
F0.0
sVzones
p3267
F0.0
sVdecided
p3268
F0.00023203520982841922
sVsubject
p3269
F0.00014995057906335717
sVsaid
p3270
F0.000233960766940662
sV07
p3271
F3.0647258868750796e-05
sVinappropriate
p3272
F9.194177660625239e-05
sVsorta
p3273
F4.998352635445239e-05
sVsigaint
p3274
F0.0
sVfuture
p3275
F4.5243965532196764e-05
sVomeprazole
p3276
F0.0
sVtolerance
p3277
F0.0009996705270890478
sVlethargic
p3278
F0.0
sVreddit
p3279
F0.0
sVinsurances
p3280
F0.0
sVrestricting
p3281
F0.0
sVvitamin
p3282
F0.0
sVtripled
p3283
F0.0
sVcousin
p3284
F4.998352635445239e-05
sVpicking
p3285
F3.0647258868750796e-05
sVsuggested
p3286
F0.00029990115812671435
sVagonist
p3287
F0.0
sVresistant
p3288
F0.0
sVuni
p3289
F0.00039986821083561915
sVagonism
p3290
F0.0
sVanxiolytics
p3291
F0.0
sVheight
p3292
F1.93362674857016e-05
sVawesomely
p3293
F0.0
sVhygiene
p3294
F0.00014995057906335717
sVnilly
p3295
F0.0
sVsan
p3296
F0.0
sVtint
p3297
F0.0
sVabdominal
p3298
F0.0
sVputs
p3299
F2.2621982766098382e-05
sVbasis
p3300
F0.00010179892244744273
sVphonecalls
p3301
F0.0
sVthree
p3302
F7.62915544371724e-05
sVtiny
p3303
F3.393297414914758e-05
sVtrigger
p3304
F4.998352635445239e-05
sVdetrimental
p3305
F0.0
sVinterest
p3306
F9.194177660625239e-05
sVbasic
p3307
F1.93362674857016e-05
sVentered
p3308
F1.93362674857016e-05
sVlovely
p3309
F1.93362674857016e-05
sVthrew
p3310
F3.0647258868750796e-05
sVwebsite
p3311
F3.0647258868750796e-05
sVdeeper
p3312
F4.998352635445239e-05
sVefficacy
p3313
F0.0
sV900mg
p3314
F0.0
sVsuppress
p3315
F0.0
sVsooooo
p3316
F4.998352635445239e-05
sVargument
p3317
F6.129451773750159e-05
sVpersonally
p3318
F0.00019228685351183628
sVdeepen
p3319
F0.0
sVsad
p3320
F0.00011601760491420961
sV161
p3321
F0.0
sVexception
p3322
F9.194177660625239e-05
sVtank
p3323
F4.998352635445239e-05
sVsay
p3324
F0.0002746495959738206
sVremaining
p3325
F6.129451773750159e-05
sVnear
p3326
F2.0344414516579305e-05
sVsuppose
p3327
F3.0647258868750796e-05
sVbalance
p3328
F0.00029990115812671435
sVemployees
p3329
F0.0
sVseven
p3330
F6.129451773750159e-05
sViq
p3331
F0.0
sVir
p3332
F0.0
sViv
p3333
F0.0
sVii
p3334
F0.0
sVshame
p3335
F3.0647258868750796e-05
sVcant
p3336
F9.996705270890479e-05
sVim
p3337
F0.0008997034743801431
sVvendor
p3338
F3.0647258868750796e-05
sVie
p3339
F4.998352635445239e-05
sVdisappear
p3340
F0.00012258903547500319
sVgrown
p3341
F3.86725349714032e-05
sV20049305
p3342
F0.0
sVbottles
p3343
F5.8008802457104804e-05
sVstickied
p3344
F0.0
sVmake
p3345
F0.0005492991919476412
sVnardil
p3346
F0.0
sVpotentially
p3347
F0.00019993410541780957
sVunfortunate
p3348
F3.86725349714032e-05
sVvegetable
p3349
F4.998352635445239e-05
sVambien
p3350
F0.0
sVbells
p3351
F3.0647258868750796e-05
sVverapamil
p3352
F0.0
sVkit
p3353
F0.00012258903547500319
sVpharmacological
p3354
F0.0
sVpotentials
p3355
F0.0
sVthoughts
p3356
F0.0007968287305875207
sVkid
p3357
F0.00014995057906335717
sVsettled
p3358
F0.00014995057906335717
sVfailing
p3359
F4.998352635445239e-05
sVsmokes
p3360
F4.998352635445239e-05
sVpractices
p3361
F0.0
sVqualities
p3362
F4.998352635445239e-05
sVclaims
p3363
F9.996705270890479e-05
sV800
p3364
F3.0647258868750796e-05
sVleft
p3365
F3.560272540401379e-05
sVsentence
p3366
F0.00024991763177226195
sVyea
p3367
F0.0
sVunited_states
p3368
F0.0
sVpsych
p3369
F0.0
sVhuman
p3370
F0.0001353538723999112
sVfacts
p3371
F0.0
sVyep
p3372
F0.00019993410541780957
sVyes
p3373
F8.646376169546205e-05
sVyet
p3374
F0.00010172207258289652
sVcandidate
p3375
F6.129451773750159e-05
sVaffinity
p3376
F0.0
sVsave
p3377
F3.86725349714032e-05
sVflatulence
p3378
F0.0
sVbackground
p3379
F1.5258310887434479e-05
sVwanting
p3380
F0.00019993410541780957
sVdreams
p3381
F0.0006497858426078811
sVconcious
p3382
F0.0
sVunnecessary
p3383
F4.998352635445239e-05
sVnotorious
p3384
F0.00039986821083561915
sVoverslept
p3385
F0.0
sVwww
p3386
F0.0010113595426687763
sVdeal
p3387
F0.00019228685351183628
sVsomehow
p3388
F1.93362674857016e-05
sVelderly
p3389
F4.998352635445239e-05
sVdear
p3390
F1.93362674857016e-05
sVtripped
p3391
F4.998352635445239e-05
sVdense
p3392
F4.998352635445239e-05
sVtracked
p3393
F4.998352635445239e-05
sVdaytime
p3394
F0.00029990115812671435
sVincidence
p3395
F0.0
sVsuper
p3396
F0.0012871848724875334
sVpuking
p3397
F0.0
sVconceal
p3398
F0.0
sVafternoon
p3399
F0.00024991763177226195
sVcommit
p3400
F3.0647258868750796e-05
sVautomatically
p3401
F9.194177660625239e-05
sVnerve
p3402
F4.998352635445239e-05
sVwhats
p3403
F0.0
sVhungrier
p3404
F4.998352635445239e-05
sVchooses
p3405
F0.0
sVfrightened
p3406
F0.0
sVflying
p3407
F3.0647258868750796e-05
sVbodies
p3408
F0.00012258903547500319
sVfork
p3409
F1.93362674857016e-05
sVstarve
p3410
F4.998352635445239e-05
sVamphs
p3411
F0.0
sVform
p3412
F0.0001357318965965903
sVlorazepam
p3413
F0.0
sVspike
p3414
F9.996705270890479e-05
sVanalyse
p3415
F0.0
sVpowerfully
p3416
F0.0
sVblindness
p3417
F4.998352635445239e-05
sVbuilds
p3418
F3.0647258868750796e-05
sVpaxil
p3419
F0.0
sVprevents
p3420
F9.996705270890479e-05
sVattached
p3421
F1.93362674857016e-05
sVhorrifying
p3422
F0.0
sVdelete
p3423
F6.129451773750159e-05
sVreevaluate
p3424
F0.0
sVsticks
p3425
F3.0647258868750796e-05
sVclassic
p3426
F6.129451773750159e-05
sVtoss
p3427
F4.998352635445239e-05
sVsale
p3428
F0.0010496540534435002
sVship
p3429
F1.1310991383049191e-05
sVshit
p3430
F0.0009807122838000255
sVclingy
p3431
F4.998352635445239e-05
sVanesthesiologist
p3432
F0.0
sVgenerally
p3433
F0.0003287165472569272
sVhandicap
p3434
F0.00019993410541780957
sVfelt
p3435
F0.0009861496417707817
sVdiet
p3436
F0.00044985173719007155
sVfell
p3437
F3.86725349714032e-05
sVglucocorticoids
p3438
F0.0
sVneuroscience
p3439
F0.0
sVpizzas
p3440
F0.0
sVweekend
p3441
F3.0647258868750796e-05
sVallright
p3442
F0.0
sVassume
p3443
F0.00019993410541780957
sVdaily
p3444
F0.0020993081068870004
sVgorilla
p3445
F4.998352635445239e-05
sVteeth
p3446
F0.00012258903547500319
sVmanaged
p3447
F0.0003371198475562588
sVskip
p3448
F3.0647258868750796e-05
sVrelieve
p3449
F0.0
sVwalking
p3450
F5.655495691524596e-05
sVinvent
p3451
F4.998352635445239e-05
sV______________
p3452
F0.0
sVmild
p3453
F0.0
sVskin
p3454
F5.086103629144826e-06
sVmilk
p3455
F4.998352635445239e-05
sVanony
p3456
F0.0
sVretention
p3457
F4.998352635445239e-05
sVsuicide
p3458
F0.0006997693689623335
sVdepend
p3459
F9.996705270890479e-05
sVdisorders
p3460
F0.0004998352635445239
sVsufferer
p3461
F0.0
sVdisgusting
p3462
F9.996705270890479e-05
sV0
p3463
F0.00015323629434375397
sVfinally
p3464
F0.0004903561419000127
sVmarks
p3465
F1.93362674857016e-05
sVsuffered
p3466
F5.8008802457104804e-05
sVaspx
p3467
F0.00014995057906335717
sVyeast
p3468
F3.0647258868750796e-05
sVgeometrical
p3469
F0.0
sVadvised
p3470
F4.998352635445239e-05
sVclonazapam
p3471
F0.0
sVunifiram
p3472
F0.0
sVdie
p3473
F5.655495691524596e-05
sVaccidentally
p3474
F1.93362674857016e-05
sVerections
p3475
F0.0
sVround
p3476
F3.393297414914758e-05
sVanesthetic
p3477
F0.0
sVtalked
p3478
F0.00029990115812671435
sVdealing
p3479
F0.00029990115812671435
sVravenous
p3480
F0.0
sVbacterial
p3481
F0.0
sVreaaaaally
p3482
F0.0
sVadds
p3483
F4.998352635445239e-05
sV75mgs
p3484
F0.0
sVheres
p3485
F0.0
sVsuspect
p3486
F9.194177660625239e-05
sVinternational
p3487
F6.129451773750159e-05
sVfilled
p3488
F1.1310991383049191e-05
sVproclaiming
p3489
F0.0
sVappetites
p3490
F0.0
sVwussy
p3491
F0.0
sVelses
p3492
F0.0
sVwithdrawals
p3493
F0.0
sVwait
p3494
F2.2621982766098382e-05
sVbox
p3495
F3.393297414914758e-05
sVboy
p3496
F1.93362674857016e-05
sVdiagnoses
p3497
F0.0
sVbattling
p3498
F0.0
sVinstitute
p3499
F0.0
sVshift
p3500
F0.00019993410541780957
sVbot
p3501
F0.0
sVdiagnosed
p3502
F0.0
sVsuggestion
p3503
F9.194177660625239e-05
sV20mg
p3504
F0.0
sVgenuinely
p3505
F9.996705270890479e-05
sVuseful
p3506
F0.00044985173719007155
sVmerely
p3507
F0.0
sVwestroads_mall_shooting
p3508
F0.0
sVflexibility
p3509
F0.0
sVeverybody
p3510
F3.0647258868750796e-05
sVdeplin
p3511
F0.0
sVperk
p3512
F0.0
sVdude
p3513
F0.00039986821083561915
sVayy
p3514
F0.0
sVtachycardic
p3515
F0.0
sVsharpen
p3516
F0.0
sVcheckout
p3517
F0.0
sVlessened
p3518
F0.0
sVahha
p3519
F0.0
sVaspirin
p3520
F0.0
sVsharing
p3521
F0.0
sVacceptable
p3522
F4.998352635445239e-05
sVtandem
p3523
F0.0
sVeffort
p3524
F0.00014995057906335717
sVflubromazepam
p3525
F0.0
sVavoiding
p3526
F0.00014995057906335717
sVflu
p3527
F9.996705270890479e-05
sVgrowing
p3528
F6.129451773750159e-05
sVmaking
p3529
F0.00014241090161605516
sVdosage
p3530
F0.0011996046325068574
sVclaim
p3531
F1.93362674857016e-05
sVcrazy
p3532
F0.0003371198475562588
sVfuck
p3533
F0.0010496540534435002
sVagent
p3534
F1.93362674857016e-05
sVednf
p3535
F0.0
sVconfuses
p3536
F0.0
sVbelsomra
p3537
F0.0
sVpink
p3538
F6.129451773750159e-05
sVtilt
p3539
F0.0
sVchemical
p3540
F0.00024991763177226195
sVtill
p3541
F6.129451773750159e-05
sVemotionless
p3542
F0.0
sVpure
p3543
F2.2621982766098382e-05
sVlooses
p3544
F4.998352635445239e-05
sVpathway
p3545
F0.0
sVsnf
p3546
F0.0
sVstaying
p3547
F0.00018388355321250478
sV145
p3548
F0.0
sV140
p3549
F4.998352635445239e-05
sV141
p3550
F0.0
sVmay
p3551
F0.0004628354302521792
sVmax
p3552
F9.996705270890479e-05
sVdesigned
p3553
F4.998352635445239e-05
sVmah
p3554
F4.998352635445239e-05
sVjournals
p3555
F0.0
sVgrow
p3556
F3.0647258868750796e-05
sVman
p3557
F6.1033243549737916e-05
sVneck
p3558
F3.0647258868750796e-05
sVmaybe
p3559
F0.0
sVq
p3560
F0.0
sVswitch
p3561
F0.0004903561419000127
sVunleash
p3562
F0.0
sVtalk
p3563
F0.0007541144319423624
sV2mg
p3564
F0.0
sVlsd
p3565
F0.0
sVseeing
p3566
F0.0003093802797712256
sVgradual
p3567
F0.0
sVpointed
p3568
F9.194177660625239e-05
sVmianserin
p3569
F0.0
sVwishing
p3570
F0.0
sVstability
p3571
F0.0
sVshake
p3572
F6.129451773750159e-05
sVdiffers
p3573
F4.998352635445239e-05
sVpolice
p3574
F3.0647258868750796e-05
sVthank
p3575
F0.00034805281474262884
sVinteresting
p3576
F0.00012442090521354112
sVpolicy
p3577
F0.00014995057906335717
sVenquire
p3578
F0.0
sVmain
p3579
F0.00014241090161605516
sVmorbid
p3580
F0.0
sVemailed
p3581
F6.129451773750159e-05
sVimpulses
p3582
F0.0
sVsarcastic
p3583
F4.998352635445239e-05
sVinterview
p3584
F4.998352635445239e-05
sVtouching
p3585
F9.996705270890479e-05
sVrexulti
p3586
F0.0
sVkilled
p3587
F0.0001353538723999112
sVdevelopments
p3588
F0.0
sVoutweigh
p3589
F0.0
sV_____________________________________________________
p3590
F0.0
sVcognition
p3591
F9.996705270890479e-05
sVlithobid
p3592
F0.0
sVdysphoric
p3593
F0.0
sVrock
p3594
F5.8008802457104804e-05
sVmirtazepine
p3595
F0.0
sVeyelid
p3596
F0.0
sVmanifests
p3597
F0.0
sVsignage
p3598
F0.0
sVgirl
p3599
F2.2621982766098382e-05
sVsummary
p3600
F0.0
sVcanada
p3601
F0.0
sVliving
p3602
F3.560272540401379e-05
sVjackson
p3603
F0.0
sVsocialized
p3604
F0.0
sVsitagliptin
p3605
F0.0
sVinterference
p3606
F0.0
sVcorrect
p3607
F6.129451773750159e-05
sVneurotrophic
p3608
F0.0
sVmonster
p3609
F3.86725349714032e-05
sVepival
p3610
F0.0
sVmechanisms
p3611
F0.0
sVcalifornia
p3612
F0.0
sVorg
p3613
F0.0023992092650137148
sVadvance
p3614
F5.8008802457104804e-05
sVlanguage
p3615
F1.93362674857016e-05
sVstandby
p3616
F0.0
sVthing
p3617
F0.0003102523213778344
sVthink
p3618
F0.0006662795754179723
sVwaited
p3619
F0.00029990115812671435
sVfirst
p3620
F0.0005086103629144827
sVexotic
p3621
F4.998352635445239e-05
sVnutritional
p3622
F0.0
sVdeclared
p3623
F0.0
sVfast
p3624
F0.0001357318965965903
sVsuspended
p3625
F0.0
sVcarry
p3626
F1.5258310887434479e-05
sVtransdermal
p3627
F0.0
sVsounds
p3628
F0.0007048869539812683
sVchalked
p3629
F0.0
sVlittle
p3630
F0.0
sV1x
p3631
F0.0
sVslept
p3632
F0.0007497528953167859
sVanyone
p3633
F7.917693968134435e-05
sVpsychotic
p3634
F0.0005498187898989764
sV1g
p3635
F0.0
sVamphetamines
p3636
F0.0
sVspeaking
p3637
F0.00012258903547500319
sVeyes
p3638
F5.655495691524596e-05
sVcontinuous
p3639
F4.998352635445239e-05
sVadrenergic
p3640
F0.0
sVaccurately
p3641
F3.0647258868750796e-05
sVbutt
p3642
F0.00014995057906335717
sV11
p3643
F1.5258310887434479e-05
sV10
p3644
F0.00027973569960296543
sV13
p3645
F7.73450699428064e-05
sV12
p3646
F0.0002899079068612551
sV15
p3647
F0.00022887466331151718
sV14
p3648
F0.0003093802797712256
sV17
p3649
F0.0005027429546282416
sV16
p3650
F0.0003093802797712256
sV19
p3651
F3.86725349714032e-05
sV18
p3652
F7.73450699428064e-05
sVgotta
p3653
F0.00015323629434375397
sVnifedipine
p3654
F0.0
sVcymbalta
p3655
F0.0
sVmarijuana
p3656
F0.00029990115812671435
sVvoices
p3657
F0.0
sVwinding
p3658
F0.0
sVcomedian
p3659
F4.998352635445239e-05
sVtetracyclic
p3660
F0.0
sVefficient
p3661
F0.0
sVanswering
p3662
F3.0647258868750796e-05
sVshocked
p3663
F3.0647258868750796e-05
sVpotential
p3664
F0.0006497858426078811
sVperformance
p3665
F7.73450699428064e-05
sVrages
p3666
F0.0
sVswitching
p3667
F0.0002145308120812556
sVchannel
p3668
F9.194177660625239e-05
sV200
p3669
F0.00019993410541780957
sVpain
p3670
F0.00042539788468543525
sVnormal
p3671
F0.000773450699428064
sVtrack
p3672
F0.00012258903547500319
sVcorrelation
p3673
F0.0
sVpaid
p3674
F9.194177660625239e-05
sVbeta
p3675
F0.0009496870007345955
sVsheets
p3676
F3.0647258868750796e-05
sVbowels
p3677
F4.998352635445239e-05
sVtugging
p3678
F0.0
sVespecially
p3679
F0.00032801875010842656
sVsurprising
p3680
F3.0647258868750796e-05
sVpdoc
p3681
F0.0
sVsigma
p3682
F0.0
sVshop
p3683
F4.998352635445239e-05
sVshot
p3684
F0.00012442090521354112
sVtragically
p3685
F0.0
sVshow
p3686
F2.0344414516579305e-05
sVelevate
p3687
F0.0
sVtherapist
p3688
F0.0006497858426078811
sVtiredness
p3689
F0.0
sVcorner
p3690
F1.1310991383049191e-05
sVfend
p3691
F0.0
sVoffice
p3692
F1.93362674857016e-05
sVglucotrol
p3693
F0.0
sVdick
p3694
F9.996705270890479e-05
sV500mg
p3695
F0.0
sVbehind
p3696
F1.0172207258289653e-05
sVdull
p3697
F3.0647258868750796e-05
sVblack
p3698
F7.917693968134435e-05
sVextracellular
p3699
F0.0
sVawareness
p3700
F0.0
sVfluoxoetine
p3701
F0.0
sVinfo
p3702
F0.00019993410541780957
sVexaggeration
p3703
F0.0
sVreps
p3704
F0.0
sVunimportant
p3705
F4.998352635445239e-05
sVsoltab
p3706
F0.0
sVconjunction
p3707
F0.0
sVsecondary
p3708
F5.8008802457104804e-05
sVmorning
p3709
F0.0009807122838000255
sVstupid
p3710
F0.000290044012285524
sVfinishing
p3711
F4.998352635445239e-05
sVworrying
p3712
F0.0
sVwiki
p3713
F0.0
sVaffordable
p3714
F0.0
sVallosteric
p3715
F0.0
sVlethargy
p3716
F0.0
sVcocktails
p3717
F9.996705270890479e-05
sVpsychosis
p3718
F0.0
sVprocoralan
p3719
F0.0
sVstigma
p3720
F0.0
sVcalendar
p3721
F3.0647258868750796e-05
sVwonder
p3722
F5.8008802457104804e-05
sVsatisfying
p3723
F4.998352635445239e-05
sVglipizide
p3724
F0.0
sVlabel
p3725
F0.00011601760491420961
sVboundaries
p3726
F4.998352635445239e-05
sVpump
p3727
F4.998352635445239e-05
sVreading
p3728
F7.917693968134435e-05
sVchecks
p3729
F3.0647258868750796e-05
sVnutrical
p3730
F0.0
sVpsychedelics
p3731
F0.0
sVaugust
p3732
F0.0
sVparent
p3733
F3.0647258868750796e-05
sVbrokenly
p3734
F0.0
sVkilling
p3735
F0.00014995057906335717
sVtub
p3736
F0.0
sVtrolling
p3737
F0.0
sVfried
p3738
F0.00014995057906335717
sVaccording
p3739
F6.786594829829516e-05
sVvilazodone
p3740
F0.0
sVdisappointment
p3741
F3.0647258868750796e-05
sVamong
p3742
F0.0002145308120812556
sVcancer
p3743
F9.996705270890479e-05
sVmaintained
p3744
F4.998352635445239e-05
sVcancel
p3745
F9.996705270890479e-05
sVguesstimate
p3746
F0.0
sVconsidering
p3747
F0.00012258903547500319
sVunusual
p3748
F3.0647258868750796e-05
sVtuning
p3749
F0.0
sVcapable
p3750
F0.00014995057906335717
sVmark
p3751
F5.8008802457104804e-05
sVmart
p3752
F0.0
sVmary
p3753
F0.0
sVeducated
p3754
F0.00015323629434375397
sVshopping
p3755
F3.0647258868750796e-05
sVagranulocytosis
p3756
F0.0
sVoffered
p3757
F0.00015323629434375397
sVbmi
p3758
F0.0
sVwake
p3759
F0.0005220792221139432
sVoverdose
p3760
F0.0004998352635445239
sVhardcore
p3761
F4.998352635445239e-05
sVsound
p3762
F0.0001357318965965903
sVkappa
p3763
F0.0
sV2894
p3764
F0.0
sVwarning
p3765
F9.6681337428508e-05
sVongoing
p3766
F0.0
sVpromising
p3767
F4.998352635445239e-05
sVcancelled
p3768
F3.0647258868750796e-05
sVinvestigating
p3769
F0.0
sVsleeping
p3770
F0.0013178321313562843
sVjitsu
p3771
F0.0
sVstrain
p3772
F0.0
sVdangerously
p3773
F4.998352635445239e-05
sVprotein
p3774
F0.0
sVeveryday
p3775
F0.00019993410541780957
sVdifferent
p3776
F0.0007352144398981975
sVritalin
p3777
F0.0
sVharsh
p3778
F6.129451773750159e-05
sVpay
p3779
F1.5258310887434479e-05
sVpad
p3780
F3.0647258868750796e-05
sVjohnshopkinshealthalerts
p3781
F0.0
sVstruggling
p3782
F0.00014995057906335717
sVoil
p3783
F0.00015323629434375397
sVrunning
p3784
F0.0
sVtotally
p3785
F0.00014704288797963948
sVcatastrophizing
p3786
F0.0
sVlargely
p3787
F0.0
sVamazes
p3788
F4.998352635445239e-05
sVsolve
p3789
F6.129451773750159e-05
sVbottle
p3790
F0.0017789366086845473
sVconsisted
p3791
F0.0
sVmoney
p3792
F0.0003371198475562588
sVadjustments
p3793
F0.0
sVaspect
p3794
F0.00012258903547500319
sVethyl
p3795
F0.0
sVketamine
p3796
F0.0
sVasthma
p3797
F9.996705270890479e-05
sV4
p3798
F0.0002848218032321103
sVglyburide
p3799
F0.0
sVpill
p3800
F0.0012995716852157622
sVmom
p3801
F0.00024991763177226195
sVmoa
p3802
F0.0
sVlightning
p3803
F4.998352635445239e-05
sVnose
p3804
F1.1310991383049191e-05
sVneuronal
p3805
F0.0
sVserved
p3806
F1.1310991383049191e-05
sVpassionate
p3807
F1.93362674857016e-05
sVroutines
p3808
F4.998352635445239e-05
sVsneaked
p3809
F0.0
sVspecified
p3810
F9.996705270890479e-05
sVimages
p3811
F9.996705270890479e-05
sVperpetuating
p3812
F4.998352635445239e-05
sVbenzodiazepine
p3813
F0.0
sV28k465
p3814
F0.0
sVoverly
p3815
F4.998352635445239e-05
sVcritical
p3816
F3.0647258868750796e-05
sVmaoi
p3817
F0.0
sVmoderate
p3818
F0.00024991763177226195
sVknife
p3819
F3.86725349714032e-05
sVapocalyptic
p3820
F0.0
sVcramps
p3821
F0.0
sVseconds
p3822
F6.129451773750159e-05
sVnotable
p3823
F9.996705270890479e-05
sVnotably
p3824
F0.00014995057906335717
sVbroken
p3825
F2.2621982766098382e-05
sVfinicky
p3826
F0.0
sVianavet
p3827
F0.0
sVcrafting
p3828
F0.0
sVmuscanric
p3829
F0.0
sVinstantaneously
p3830
F0.0
sVvoxra
p3831
F0.0
sVviolence
p3832
F6.129451773750159e-05
sVgenerated
p3833
F4.998352635445239e-05
sVyouve
p3834
F0.0
sVmixed
p3835
F0.0003371198475562588
sVroad
p3836
F6.129451773750159e-05
sVcevs
p3837
F0.0
sVpurported
p3838
F0.0
sVskilled
p3839
F0.0
sVdreaming
p3840
F0.00019993410541780957
sVpharmaceutical
p3841
F0.0
sVshells
p3842
F4.998352635445239e-05
sVpresyncope
p3843
F0.0
sVzolpidem
p3844
F0.0
sVdowner
p3845
F0.0
sVchats
p3846
F0.0
sVmornings
p3847
F0.0004998352635445239
sVenough
p3848
F0.0
sVstressors
p3849
F0.0
sV95ish
p3850
F0.0
sVorthostatic
p3851
F0.0
sVdownstairs
p3852
F9.194177660625239e-05
sVextend
p3853
F3.0647258868750796e-05
sVnadolol
p3854
F0.0
sVaffection
p3855
F0.0
sVhaloperidol
p3856
F0.0
sVrequired
p3857
F0.00012258903547500319
sVgeriatric
p3858
F0.0
sVresolving
p3859
F4.998352635445239e-05
sVdivalproex
p3860
F0.0
sVdeep
p3861
F0.00011310991383049191
sVgeneral
p3862
F0.0
sVfile
p3863
F0.00014995057906335717
sVgirlfriend
p3864
F0.00014995057906335717
sVmelatonin
p3865
F0.0
sVneurotransmitters
p3866
F0.0
sVfill
p3867
F3.86725349714032e-05
sVhybrid
p3868
F0.0
sVfield
p3869
F4.998352635445239e-05
sVmertazapine
p3870
F0.0
sVburproprion
p3871
F0.0
sVeurope
p3872
F0.0
sVformed
p3873
F3.0647258868750796e-05
sVobsessed
p3874
F4.998352635445239e-05
sVxanax
p3875
F0.0
sVstudents
p3876
F4.998352635445239e-05
sVimportant
p3877
F0.0003371198475562588
sVbrands
p3878
F4.998352635445239e-05
sVboosters
p3879
F0.0
sVhugely
p3880
F0.0
sVhaired
p3881
F9.996705270890479e-05
sValright
p3882
F9.194177660625239e-05
sVresolution
p3883
F3.0647258868750796e-05
sVcolleges
p3884
F4.998352635445239e-05
sVforget
p3885
F9.6681337428508e-05
sVaaaaalright
p3886
F0.0
sVforbidden
p3887
F0.0
sVallergy
p3888
F9.996705270890479e-05
sVworms
p3889
F4.998352635445239e-05
sValerting
p3890
F0.0
sVshrooms
p3891
F9.996705270890479e-05
sVoxycodone
p3892
F0.0
sVimpared
p3893
F0.0
sVextant
p3894
F0.0
sVreluctant
p3895
F0.0
sVniacin
p3896
F0.0
sVresponsiveness
p3897
F0.0
sVdiffuse
p3898
F4.998352635445239e-05
sVinvestigational
p3899
F0.0
sVenjoying
p3900
F3.0647258868750796e-05
sV_pixiepudding_
p3901
F0.0
sVsitting
p3902
F6.129451773750159e-05
sViud
p3903
F0.0
sVfall
p3904
F0.0004290616241625112
sVdifference
p3905
F0.00045970888303126196
sVneurological
p3906
F0.0
sVdampen
p3907
F0.0
sVdrugged
p3908
F0.0
sVreminding
p3909
F4.998352635445239e-05
sVbiological
p3910
F0.0
sVphenibut
p3911
F0.0
sVzero
p3912
F9.194177660625239e-05
sVperspective
p3913
F0.0
sVwyeth
p3914
F0.0
sVappreciating
p3915
F0.0
sV200mic
p3916
F0.0
sVstood
p3917
F3.0647258868750796e-05
sVbrackets
p3918
F4.998352635445239e-05
sVstool
p3919
F4.998352635445239e-05
sVcaffeine
p3920
F0.0007497528953167859
sVmirtzapine
p3921
F0.0
sVpublic
p3922
F3.86725349714032e-05
sVmovement
p3923
F1.93362674857016e-05
sVranged
p3924
F0.0
sVvraylar
p3925
F0.0
sVthreads
p3926
F0.0
sVunbinds
p3927
F0.0
sVtable
p3928
F1.0172207258289653e-05
sVfantasies
p3929
F0.0
sV900
p3930
F0.0
sVantagonizing
p3931
F0.0
sVreuptaken
p3932
F0.0
sVsignificantly
p3933
F0.0
sVairport
p3934
F4.998352635445239e-05
sVtemazepam
p3935
F0.0
sVsimply
p3936
F0.0001353538723999112
sVpublished
p3937
F0.00019993410541780957
sVrestoril
p3938
F0.0
sVspecialize
p3939
F0.0
sVpepcid
p3940
F0.0
sVseroquel
p3941
F0.0
sVeye
p3942
F0.00018388355321250478
sVwiped
p3943
F4.998352635445239e-05
sVtwo
p3944
F0.0
sVcomparing
p3945
F4.998352635445239e-05
sVneverending
p3946
F0.0
sVformality
p3947
F0.0
sVconcomitantly
p3948
F0.0
sVcontrolling
p3949
F0.0
sVparticular
p3950
F9.048793106439353e-05
sVneurosci
p3951
F0.0
sVtown
p3952
F1.93362674857016e-05
sVnone
p3953
F0.00011601760491420961
sVhour
p3954
F0.0002513714773141208
sVmiddle
p3955
F5.655495691524596e-05
sVrecall
p3956
F0.00034988468448116675
sVspecializes
p3957
F0.0
sVsucks
p3958
F0.00039841436529376034
sVdazed
p3959
F0.0
sVstrategies
p3960
F0.0
sVtianeptine
p3961
F0.0
sVdef
p3962
F3.0647258868750796e-05
sVstubborn
p3963
F0.0
sVcompare
p3964
F3.0647258868750796e-05
sVshare
p3965
F9.048793106439353e-05
sVsocal
p3966
F0.0
sVminimum
p3967
F6.129451773750159e-05
sVnumbers
p3968
F3.0647258868750796e-05
sVpurchased
p3969
F9.996705270890479e-05
sVsharp
p3970
F4.998352635445239e-05
sVmapb
p3971
F0.0
sVneeds
p3972
F0.0
sVstim
p3973
F0.0
sVawkward
p3974
F3.86725349714032e-05
sVacts
p3975
F0.00015323629434375397
sVblacked
p3976
F9.996705270890479e-05
sVlopressor
p3977
F0.0
sVadvice
p3978
F0.0008497199480256907
sVquestioning
p3979
F0.0
sVblood
p3980
F0.0006961056294852577
sVcoming
p3981
F8.137765806631722e-05
sVresponse
p3982
F0.0004998352635445239
sVreappeared
p3983
F4.998352635445239e-05
sVsulfonylureas
p3984
F0.0
sVeats
p3985
F2.2621982766098382e-05
sVolanzipine
p3986
F0.0
sVresponsibility
p3987
F4.998352635445239e-05
sVpleasure
p3988
F1.93362674857016e-05
sVplaying
p3989
F0.0001353538723999112
sVsuffer
p3990
F0.00024517807095000637
sVjames_eagan_holmes
p3991
F0.0
sV24
p3992
F0.000193362674857016
sVmessed
p3993
F6.129451773750159e-05
sV26
p3994
F1.93362674857016e-05
sV27
p3995
F3.86725349714032e-05
sV20
p3996
F0.00014241090161605516
sV21
p3997
F5.8008802457104804e-05
sV22
p3998
F5.8008802457104804e-05
sVsodium
p3999
F0.0
sVpcp
p4000
F0.0
sVyohimbine
p4001
F0.0
sVlate
p4002
F4.5243965532196764e-05
sVmesses
p4003
F9.194177660625239e-05
sVmethylfolate
p4004
F0.0
sVupping
p4005
F0.0
sVgood
p4006
F0.0
sVseeking
p4007
F0.00019993410541780957
sVlibido
p4008
F0.0
sVsocially
p4009
F0.00024991763177226195
sVnoticing
p4010
F6.129451773750159e-05
sVencouraging
p4011
F0.0
sVwalls
p4012
F6.129451773750159e-05
sVcompound
p4013
F0.0
sVcomplain
p4014
F3.0647258868750796e-05
sVmystery
p4015
F0.0
sVeasily
p4016
F0.00012442090521354112
sVdeteriorates
p4017
F0.0
sV2x
p4018
F0.0
sVevade
p4019
F4.998352635445239e-05
sVjitteriness
p4020
F0.0
sVhabits
p4021
F0.00012258903547500319
sV2c
p4022
F0.0
sVharm
p4023
F0.0
sVeveryone
p4024
F0.00042539788468543525
sVmental
p4025
F0.0015994728433424766
sVhouse
p4026
F7.917693968134435e-05
sVfish
p4027
F5.655495691524596e-05
sVhard
p4028
F0.0005089946122372136
sVidea
p4029
F0.00012715259072862067
sVextended
p4030
F0.00019993410541780957
sVinsurance
p4031
F0.00039986821083561915
sVchildish
p4032
F0.0
sVacting
p4033
F0.00015323629434375397
sVdysfunction
p4034
F0.0
sVpleasant
p4035
F0.00019993410541780957
sVdifficulty
p4036
F0.00014995057906335717
sVmembers
p4037
F3.0647258868750796e-05
sVbeginning
p4038
F3.560272540401379e-05
sVbenefits
p4039
F0.00044985173719007155
sVneeding
p4040
F9.996705270890479e-05
sVdont
p4041
F0.00024517807095000637
sVnach
p4042
F0.0
sVinstances
p4043
F4.998352635445239e-05
sVinhibits
p4044
F0.0
sVcopped
p4045
F4.998352635445239e-05
sV40mg
p4046
F0.0
sVcups
p4047
F3.0647258868750796e-05
sVtwenty
p4048
F1.93362674857016e-05
sVleast
p4049
F0.0
sVpaint
p4050
F1.93362674857016e-05
sVregulation
p4051
F0.0
sVpains
p4052
F0.0
sVkor
p4053
F0.0
sVcatapult
p4054
F0.0
sVsensitization
p4055
F0.0
sVpark
p4056
F0.00019993410541780957
sVtracking
p4057
F3.0647258868750796e-05
sVdoctors
p4058
F0.0009996705270890478
sVetsy
p4059
F0.0
sVb
p4060
F5.655495691524596e-05
sVcyclic
p4061
F0.0
sVgotten
p4062
F0.00024991763177226195
sVyouth
p4063
F3.0647258868750796e-05
sVcontrary
p4064
F4.998352635445239e-05
sVsupposed
p4065
F0.0001353538723999112
sVsedate
p4066
F3.0647258868750796e-05
sVtreated
p4067
F0.0001353538723999112
sVoutta
p4068
F4.998352635445239e-05
sVages
p4069
F4.998352635445239e-05
sVcategorized
p4070
F0.0
sVconfirms
p4071
F0.0
sVfading
p4072
F9.996705270890479e-05
sVditched
p4073
F0.0
sVlisdexamfetamine
p4074
F0.0
sVbuilt
p4075
F1.1310991383049191e-05
sVdepending
p4076
F0.00029990115812671435
sVsuicidally
p4077
F0.0
sVcouch
p4078
F4.998352635445239e-05
sVmajority
p4079
F9.194177660625239e-05
sVbuild
p4080
F1.1310991383049191e-05
sV12mg
p4081
F0.0
sVchart
p4082
F9.194177660625239e-05
sVcharm
p4083
F4.998352635445239e-05
sVsignificant
p4084
F0.00029990115812671435
sVservices
p4085
F3.86725349714032e-05
sVextremely
p4086
F0.0005516506596375143
sV45mg
p4087
F0.0
sVkg
p4088
F4.998352635445239e-05
sVko
p4089
F0.0
sVweigh
p4090
F6.129451773750159e-05
sVparticularly
p4091
F0.00024517807095000637
sVdisturbances
p4092
F0.0
sVheadlines
p4093
F0.00014995057906335717
sVmarinol
p4094
F0.0
sVfine
p4095
F0.0
sVfind
p4096
F0.0
sVcell
p4097
F3.86725349714032e-05
sVnervous
p4098
F3.0647258868750796e-05
sVruin
p4099
F4.998352635445239e-05
sVunhappy
p4100
F4.998352635445239e-05
sVdysfunctional
p4101
F0.0
sV8
p4102
F0.00025430518145724135
sVchronically
p4103
F0.0
sVcysts
p4104
F0.0
sVsill
p4105
F0.0
sVremove
p4106
F7.73450699428064e-05
sVcommon
p4107
F0.00048340668714254005
sVdoubles
p4108
F0.0
sVcalifornian
p4109
F0.0
sVspeedball
p4110
F4.998352635445239e-05
sVniggling
p4111
F0.0
sVovereat
p4112
F0.0
sVchangeable
p4113
F0.0
sVcurvilinear
p4114
F0.0
sVexpert
p4115
F0.00014995057906335717
sVplease
p4116
F0.00015766921250348962
sVsmallest
p4117
F4.998352635445239e-05
sVmyriad
p4118
F0.0
sVburned
p4119
F5.8008802457104804e-05
sVweekly
p4120
F4.998352635445239e-05
sVresponses
p4121
F0.0
sVmajor_depressive_disorder
p4122
F0.0
sVcomplement
p4123
F0.0
sVpissed
p4124
F4.998352635445239e-05
sVreverse
p4125
F5.8008802457104804e-05
sVtapered
p4126
F0.0
sVannual
p4127
F4.998352635445239e-05
sVsonata
p4128
F0.0
sValot
p4129
F9.996705270890479e-05
sVdysphagia
p4130
F0.0
sVconsume
p4131
F6.129451773750159e-05
sVpoint
p4132
F0.0002492190778280965
sVsimple
p4133
F2.0344414516579305e-05
sVpanicking
p4134
F0.0
sVdietary
p4135
F0.0
sVreupping
p4136
F0.0
sVshutdown
p4137
F4.998352635445239e-05
sVthroughout
p4138
F0.0001546901398856128
sVexpensive
p4139
F0.00011601760491420961
sVheadaches
p4140
F0.0
sV30mg
p4141
F0.0
sVperspectives
p4142
F0.0
sVcreate
p4143
F0.00024517807095000637
sVcreativity
p4144
F0.0
sVdropping
p4145
F3.0647258868750796e-05
sVamnesia
p4146
F4.998352635445239e-05
sVireland
p4147
F0.0
sVintrusive
p4148
F0.00034988468448116675
sVmeeting
p4149
F1.93362674857016e-05
sVaddison
p4150
F0.0
sVgas
p4151
F4.998352635445239e-05
sVgap
p4152
F0.00014995057906335717
sVamlodipine
p4153
F0.0
sVpricey
p4154
F4.998352635445239e-05
sVgal
p4155
F4.998352635445239e-05
sVunderstand
p4156
F5.086103629144826e-05
sVgag
p4157
F0.0
sVgad
p4158
F0.0
sVrupture
p4159
F0.0
sVtrojan
p4160
F0.0
sVsolid
p4161
F0.00012258903547500319
sVtolerate
p4162
F0.0
sVcrutch
p4163
F0.0
sVreplaced
p4164
F3.0647258868750796e-05
sVfun
p4165
F0.00019228685351183628
sVconstipated
p4166
F4.998352635445239e-05
sVadjusts
p4167
F0.0
sVcents
p4168
F4.998352635445239e-05
sVencountered
p4169
F4.998352635445239e-05
sVlimit
p4170
F6.129451773750159e-05
sVunaffected
p4171
F0.0
sVmigraine
p4172
F0.0
sVbenign
p4173
F4.998352635445239e-05
sVruta
p4174
F0.0
sVdevelopment
p4175
F3.0647258868750796e-05
sVstrips
p4176
F0.0006742396951125175
sVpraising
p4177
F0.0
sVyesterday
p4178
F0.00019993410541780957
sVquetiepine
p4179
F0.0
sVmoment
p4180
F6.611934717888274e-05
sVpurpose
p4181
F4.5243965532196764e-05
sVcraved
p4182
F0.0
sVampa
p4183
F0.0
sVcodeine
p4184
F0.0
sVspent
p4185
F0.00030647258868750794
sViffy
p4186
F0.0
sVrozerem
p4187
F0.0
sVolanzapine
p4188
F0.0
sVspend
p4189
F7.73450699428064e-05
sVprevention
p4190
F0.0
sVludicrous
p4191
F0.0
sVdistracting
p4192
F4.998352635445239e-05
sVshape
p4193
F0.00012258903547500319
sValternative
p4194
F9.194177660625239e-05
sVwage
p4195
F9.996705270890479e-05
sVcut
p4196
F8.137765806631722e-05
sVhated
p4197
F0.00029990115812671435
sVfentanyl
p4198
F0.0
sVcuz
p4199
F9.996705270890479e-05
sVsource
p4200
F0.00023203520982841922
sVsnap
p4201
F1.93362674857016e-05
sVexcited
p4202
F6.129451773750159e-05
sVridiculously
p4203
F4.998352635445239e-05
sVbio
p4204
F4.998352635445239e-05
sVbig
p4205
F5.086103629144826e-05
sVrebound
p4206
F0.0
sVadrafinil
p4207
F0.0
sVmatters
p4208
F3.0647258868750796e-05
sVhallucinations
p4209
F0.0
sVbit
p4210
F0.0001983580415366482
sVknock
p4211
F0.00024517807095000637
sVpharmawhore
p4212
F0.0
sVsemi
p4213
F1.93362674857016e-05
sVptst
p4214
F0.0
sVzoloft
p4215
F0.0
sVptsd
p4216
F0.0
sVgoogle
p4217
F0.00024517807095000637
sVoften
p4218
F0.0006380968270281529
sVmetabolic
p4219
F0.0
sVabsolutely
p4220
F0.0001583538793626887
sVback
p4221
F0.0003661994612984275
sVstrongest
p4222
F4.998352635445239e-05
sVexamples
p4223
F0.0007997364216712383
sVmirror
p4224
F0.00015323629434375397
sVserver
p4225
F4.998352635445239e-05
sVpronounced
p4226
F7.73450699428064e-05
sVculprit
p4227
F0.0
sVpet
p4228
F4.998352635445239e-05
sVaffects
p4229
F0.0002145308120812556
sVdecision
p4230
F0.00011601760491420961
sVper
p4231
F0.00030647258868750794
sVeliminate
p4232
F0.0
sVpee
p4233
F4.998352635445239e-05
sVaugmenting
p4234
F0.0
sVeither
p4235
F0.00016784141976177927
sVdepressions
p4236
F0.0
sV300
p4237
F6.129451773750159e-05
sVcontinuing
p4238
F4.998352635445239e-05
sVrestrictive
p4239
F0.0
sVtripping
p4240
F0.0
sVjeezus
p4241
F0.0
sVgerd
p4242
F0.0
sVoatmeal
p4243
F4.998352635445239e-05
sVpediatrician
p4244
F4.998352635445239e-05
sVabusive
p4245
F0.00019993410541780957
sVcrps
p4246
F0.0
sVsteven
p4247
F0.0
sVreabsorbed
p4248
F0.0
sVdelusional
p4249
F9.996705270890479e-05
sVcalming
p4250
F0.0
sVpharmaceuticals
p4251
F0.0
sVforward
p4252
F0.0
sVerasmus
p4253
F0.0
sVbored
p4254
F4.998352635445239e-05
sVadjusting
p4255
F0.0
sVhoped
p4256
F3.0647258868750796e-05
sVpilling
p4257
F0.0
sVdirected
p4258
F0.0
sVrejection
p4259
F0.0
sVdevastating
p4260
F0.0
sVconstant
p4261
F0.00045970888303126196
sVsingle
p4262
F3.0516621774868958e-05
sVcure
p4263
F0.0004998352635445239
sVcurb
p4264
F0.00014995057906335717
sVappetizing
p4265
F4.998352635445239e-05
sVtransg
p4266
F0.0
sVfogged
p4267
F0.0
sVmatching
p4268
F4.998352635445239e-05
sVexcuses
p4269
F0.0
sVb12
p4270
F0.0
sVopiates
p4271
F0.0009496870007345955
sVfriggen
p4272
F0.0
sVexplaining
p4273
F4.998352635445239e-05
sVprepared
p4274
F3.0647258868750796e-05
sVutterly
p4275
F4.998352635445239e-05
sVdesert
p4276
F3.0647258868750796e-05
sVconfirm
p4277
F9.194177660625239e-05
sV2007
p4278
F0.0
sV2008
p4279
F0.0
sV2009
p4280
F0.0
sVdogged
p4281
F0.0
sVgroceries
p4282
F9.996705270890479e-05
sVamplified
p4283
F0.0
sVcompose
p4284
F0.00024991763177226195
sVintensive
p4285
F4.998352635445239e-05
sVchristpsychotics
p4286
F0.0
sVhelps
p4287
F0.0013178321313562843
sVfatal
p4288
F3.0647258868750796e-05
sVknowledgebase
p4289
F0.0
sVputting
p4290
F4.5243965532196764e-05
sVsurgeon
p4291
F0.0
sVseverely
p4292
F0.00014995057906335717
sVseoquel
p4293
F0.0
sVantihistaminergic
p4294
F0.0
sVshock
p4295
F3.0647258868750796e-05
sVqueencoyote
p4296
F0.0
sVimgur
p4297
F0.0
sVveeeeeery
p4298
F0.0
sVuncomfortable
p4299
F9.996705270890479e-05
sV3x
p4300
F0.0
sVconfided
p4301
F0.0
sVgiving
p4302
F7.917693968134435e-05
sVenjoyed
p4303
F6.129451773750159e-05
sVaccess
p4304
F0.0002145308120812556
sVexercise
p4305
F0.0015494893169880242
sVbody
p4306
F0.0001932719379075034
sVnonexistent
p4307
F4.998352635445239e-05
sVobjects
p4308
F4.998352635445239e-05
sVothers
p4309
F0.0003053967673423282
sVsafer
p4310
F0.0
sVextreme
p4311
F0.0001546901398856128
sVnumbness
p4312
F0.0
sV32
p4313
F1.93362674857016e-05
sV30
p4314
F0.0003958846984067217
sV37
p4315
F3.0647258868750796e-05
sV35
p4316
F0.0007048869539812683
sV34
p4317
F1.93362674857016e-05
sVprincipally
p4318
F0.0
sVclimb
p4319
F6.129451773750159e-05
sVdepressant
p4320
F0.0
sVnullifies
p4321
F0.0
sVnamed
p4322
F1.1310991383049191e-05
sVformulated
p4323
F0.0
sVprivate
p4324
F1.93362674857016e-05
sVdecrease
p4325
F0.00019993410541780957
sVprivately
p4326
F0.0
sVsignposting
p4327
F0.0
sVgateway
p4328
F3.0647258868750796e-05
sVimpotency
p4329
F0.0
sVviibryd
p4330
F0.0
sVnauseated
p4331
F0.0
sVnimodipine
p4332
F0.0
sVtrain
p4333
F4.998352635445239e-05
sV4am
p4334
F0.0
sVaccount
p4335
F3.0647258868750796e-05
sVf
p4336
F6.129451773750159e-05
sVneedle
p4337
F3.0647258868750796e-05
sVredhaired
p4338
F0.0
sVobvious
p4339
F7.73450699428064e-05
sVclosing
p4340
F3.0647258868750796e-05
sVpersonality
p4341
F6.129451773750159e-05
sVdidnt
p4342
F0.00034988468448116675
sVsnacks
p4343
F0.0
sVpharmacologically
p4344
F0.0
sVeffectively
p4345
F0.0
sVdietician
p4346
F0.0
sVmjne
p4347
F0.0
sVlamb
p4348
F4.998352635445239e-05
sVlame
p4349
F0.00014995057906335717
sVtrazadone
p4350
F0.0
sVholds
p4351
F1.1310991383049191e-05
sVregions
p4352
F0.0
sVrun
p4353
F5.5947139920593095e-05
sVattachment
p4354
F4.998352635445239e-05
sVmeditated
p4355
F0.0
sVstock
p4356
F1.93362674857016e-05
sVprofile
p4357
F0.0014097739079625366
sVbyetta
p4358
F0.0
sVhighs
p4359
F0.0
sVphilosophy
p4360
F4.998352635445239e-05
sVcollection
p4361
F3.0647258868750796e-05
sVnullify
p4362
F0.0
sVbind
p4363
F0.0
sVlines
p4364
F1.93362674857016e-05
sVshutting
p4365
F4.998352635445239e-05
sV9am
p4366
F0.0
sVredditor
p4367
F0.0
sVaddiction
p4368
F0.0
sVlined
p4369
F3.0647258868750796e-05
sVoral
p4370
F0.00044985173719007155
sVemsam
p4371
F0.0
sVfrying
p4372
F0.0
sVhorny
p4373
F4.998352635445239e-05
sVbunch
p4374
F0.00011601760491420961
sVantipsychotic
p4375
F0.0
sVla
p4376
F5.086103629144826e-06
sVll
p4377
F0.0004068882903315861
sVage
p4378
F7.917693968134435e-05
sVlt
p4379
F0.0
sVwilling
p4380
F0.00027582532981875715
sVerowid
p4381
F0.0
sVdad
p4382
F0.00011601760491420961
sVgreater
p4383
F6.129451773750159e-05
sVspell
p4384
F3.0647258868750796e-05
sVmention
p4385
F0.000193362674857016
sVcutting
p4386
F3.86725349714032e-05
sVtickles
p4387
F0.0
sVday
p4388
F0.0
sVsynaptic
p4389
F0.0
sVwarned
p4390
F9.996705270890479e-05
sVblazing
p4391
F0.0
sVlamictal
p4392
F0.0
sVtoke
p4393
F0.0
sVactivate
p4394
F9.194177660625239e-05
sVcelexa
p4395
F0.0
sVstrip
p4396
F0.0012871848724875334
sVmarley
p4397
F0.0
sVpopping
p4398
F6.129451773750159e-05
sVmate
p4399
F1.93362674857016e-05
sVsituational
p4400
F0.0
sVrem
p4401
F0.0
sVlecture
p4402
F0.0
sVreg
p4403
F0.0
sVred
p4404
F2.0344414516579305e-05
sVapproaches
p4405
F3.86725349714032e-05
sVlikelihood
p4406
F0.0
sVafterward
p4407
F0.0
sVinteraction
p4408
F0.00019993410541780957
sVcured
p4409
F4.998352635445239e-05
sVdeprived
p4410
F0.0
sVlitterbox
p4411
F4.998352635445239e-05
sVretail
p4412
F0.0
sVsouth
p4413
F1.93362674857016e-05
sVstrategic
p4414
F0.0
sVimprovements
p4415
F0.00019993410541780957
sVhurdle
p4416
F0.0
sVsockets
p4417
F0.0
sVsadly
p4418
F0.0
sVmonkey
p4419
F3.0647258868750796e-05
sVpots
p4420
F0.00029990115812671435
sVintermediate
p4421
F0.0
sVmessing
p4422
F4.998352635445239e-05
sVgear
p4423
F0.0
sVdoexpin
p4424
F0.0
sVexplanation
p4425
F4.998352635445239e-05
sVnobody
p4426
F0.00012258903547500319
sVenvironmental
p4427
F0.0
sVsporadically
p4428
F4.998352635445239e-05
sVloved
p4429
F0.00012258903547500319
sVslack
p4430
F0.0
sVpinelake
p4431
F0.0
sVhalcyon
p4432
F0.0
sVflashes
p4433
F4.998352635445239e-05
sVdoctorate
p4434
F0.0
sVtyrosine
p4435
F0.0
sVhavr
p4436
F0.0
sVmflb
p4437
F0.0
sVdeterred
p4438
F0.0
sVtide
p4439
F4.998352635445239e-05
sVunlikely
p4440
F0.0
sVthroat
p4441
F3.393297414914758e-05
sVdementia
p4442
F0.0
sVapparently
p4443
F0.00017402640737131442
sVmin
p4444
F4.998352635445239e-05
sVmid
p4445
F3.86725349714032e-05
sVmix
p4446
F0.00017402640737131442
sVconcerns
p4447
F0.0
sVnorepenphrine
p4448
F0.0
sVunless
p4449
F0.0001546901398856128
sVprednisone
p4450
F0.0
sVsfx
p4451
F0.0
sVsfw
p4452
F0.0
sVprocure
p4453
F0.0
sVmimics
p4454
F0.0
sVeight
p4455
F1.93362674857016e-05
sVpreliminary
p4456
F0.00014995057906335717
sVgather
p4457
F3.0647258868750796e-05
sVrequest
p4458
F5.8008802457104804e-05
sVdisease
p4459
F3.0647258868750796e-05
sVoccasion
p4460
F3.0647258868750796e-05
sVskinny
p4461
F0.00024991763177226195
sVmonotherapy
p4462
F0.0
sVnormally
p4463
F0.00027582532981875715
sVnortryptiline
p4464
F0.0
sVtext
p4465
F0.00018388355321250478
sVsupported
p4466
F9.996705270890479e-05
sVsublingual
p4467
F0.0
sVvistaril
p4468
F0.0
sVkits
p4469
F0.0
sVsupporter
p4470
F0.0
sVstaff
p4471
F4.998352635445239e-05
sVknowledge
p4472
F6.129451773750159e-05
sVresubmit
p4473
F0.0
sVregularly
p4474
F0.00014995057906335717
sVabused
p4475
F0.0
sVpharmacology
p4476
F0.0
sVexceptional
p4477
F4.998352635445239e-05
sVbeat
p4478
F7.73450699428064e-05
sVtiming
p4479
F0.0
sVareas
p4480
F0.00014995057906335717
sVorgan
p4481
F9.996705270890479e-05
sVht2a
p4482
F0.0
sVcycled
p4483
F0.0
sVblogspot
p4484
F0.0
sV2990008
p4485
F0.0
sVopiod
p4486
F0.0
sVgabapentin
p4487
F0.0
sVenhancer
p4488
F0.0
sVenhances
p4489
F0.0
sVexists
p4490
F3.0647258868750796e-05
sVgroggy
p4491
F0.0
sVintensity
p4492
F0.00014995057906335717
sVenhanced
p4493
F9.996705270890479e-05
sVphases
p4494
F0.0
sVattempting
p4495
F1.93362674857016e-05
sVpattern
p4496
F0.0
sVdifficulties
p4497
F0.0
sVroutine
p4498
F0.00015323629434375397
sVprogress
p4499
F2.2621982766098382e-05
sVboundary
p4500
F4.998352635445239e-05
sVlegit
p4501
F9.996705270890479e-05
sVintubate
p4502
F0.0
sVempathy
p4503
F0.0
sVinstant
p4504
F6.129451773750159e-05
sVjoke
p4505
F3.0647258868750796e-05
sVtaking
p4506
F0.0007273128189677101
sVequal
p4507
F0.00019993410541780957
sVagree
p4508
F9.048793106439353e-05
sVmoderators
p4509
F0.0
sVswallow
p4510
F9.194177660625239e-05
sVplacebo
p4511
F0.0
sVotherwise
p4512
F0.000290044012285524
sVanxienty
p4513
F0.0
sVinflammatory
p4514
F0.0
sVtimolol
p4515
F0.0
sVinvasive
p4516
F0.0
sVlaugh
p4517
F1.93362674857016e-05
sVah
p4518
F0.0
sVoutliers
p4519
F0.0
sVarises
p4520
F4.998352635445239e-05
sVbulk
p4521
F0.0
sVfinished
p4522
F3.86725349714032e-05
sVassessments
p4523
F0.0
sVfellow
p4524
F4.998352635445239e-05
sVmulti
p4525
F1.93362674857016e-05
sVhypotension
p4526
F0.0
sVplain
p4527
F1.93362674857016e-05
sVappearance
p4528
F3.86725349714032e-05
sVheadspace
p4529
F0.0
sVvalue
p4530
F5.655495691524596e-05
sVpromotes
p4531
F0.0
sVvenlaxfine
p4532
F0.0
sVfrustrating
p4533
F0.0
sValmost
p4534
F0.0001932719379075034
sVhobbies
p4535
F0.0
sVrespected
p4536
F4.998352635445239e-05
sVclaimed
p4537
F6.129451773750159e-05
sVpartner
p4538
F0.00015323629434375397
sVcables
p4539
F0.0
sVadministration
p4540
F4.998352635445239e-05
sVinjured
p4541
F0.0
sVtighten
p4542
F0.0
sVfucker
p4543
F4.998352635445239e-05
sVblockers
p4544
F0.0005998023162534287
sVfucked
p4545
F0.0008997034743801431
sVshitting
p4546
F4.998352635445239e-05
sVretard
p4547
F9.996705270890479e-05
sVwys
p4548
F0.0
sVneural
p4549
F0.0
sVdisoriented
p4550
F0.0
sVthought
p4551
F0.00044112866393891843
sVoops
p4552
F4.998352635445239e-05
sVsets
p4553
F1.1310991383049191e-05
sVposition
p4554
F1.1310991383049191e-05
sVmuscle
p4555
F0.00024991763177226195
sVusual
p4556
F0.0005498187898989764
sVclinic
p4557
F0.0
sVunderlying
p4558
F9.194177660625239e-05
sVloperamide
p4559
F0.0
sVcitalorpram
p4560
F0.0
sVads
p4561
F4.998352635445239e-05
sVrepetitious
p4562
F0.0
sVvyvanse
p4563
F0.0
sVrecommending
p4564
F0.0
sVadd
p4565
F0.00011601760491420961
sVreenact
p4566
F0.0
sVmatch
p4567
F1.93362674857016e-05
sVtests
p4568
F0.00019993410541780957
sVfyi
p4569
F0.0
sVlike
p4570
F0.0
sVsuccess
p4571
F0.00030647258868750794
sVsofa
p4572
F0.0
sVadmitted
p4573
F0.00019993410541780957
sVworky
p4574
F0.0
sVrozerm
p4575
F0.0
sVheed
p4576
F4.998352635445239e-05
sVworks
p4577
F0.0007927869669137656
sVsoft
p4578
F1.1310991383049191e-05
sValive
p4579
F2.2621982766098382e-05
sVproper
p4580
F0.00011310991383049191
sVsupportive
p4581
F0.0
sVhappens
p4582
F0.0001583538793626887
sVtms
p4583
F0.0
sVpropofol
p4584
F0.0
sVesp
p4585
F0.0
sVcorpse
p4586
F3.0647258868750796e-05
sVslight
p4587
F9.194177660625239e-05
sVhost
p4588
F1.93362674857016e-05
sValthough
p4589
F0.0002827747845762298
sVworthy
p4590
F3.0647258868750796e-05
sVsnapped
p4591
F4.998352635445239e-05
sVperiodically
p4592
F3.0647258868750796e-05
sVnoisy
p4593
F4.998352635445239e-05
sVactual
p4594
F0.00014995057906335717
sV6am
p4595
F0.0
sVstatement
p4596
F3.0647258868750796e-05
sVintroduced
p4597
F3.0647258868750796e-05
sVobliterated
p4598
F0.0
sVfunctional
p4599
F0.00019993410541780957
sVchronic
p4600
F0.0005498187898989764
sVweekends
p4601
F6.129451773750159e-05
sVesteem
p4602
F4.998352635445239e-05
sVfemale
p4603
F3.86725349714032e-05
sVwack
p4604
F4.998352635445239e-05
sVlegends
p4605
F0.0
sVrushed
p4606
F0.0
sVrcs
p4607
F0.0
sVbiggest
p4608
F0.00015323629434375397
sVbuy
p4609
F5.8008802457104804e-05
sVdextroamphetamine
p4610
F0.0
sVbus
p4611
F4.998352635445239e-05
sVcoke
p4612
F9.996705270890479e-05
sVbuh
p4613
F0.0
sVbud
p4614
F0.0
sVpartially
p4615
F3.0647258868750796e-05
sVwise
p4616
F0.00014995057906335717
sVdangerous
p4617
F0.00021269894234271763
sVflip
p4618
F4.998352635445239e-05
sVminutes
p4619
F0.0001583538793626887
sVpig
p4620
F3.0647258868750796e-05
sVperiods
p4621
F0.00024991763177226195
sVshooting
p4622
F4.998352635445239e-05
sVpit
p4623
F4.998352635445239e-05
sVautism
p4624
F0.0
sVhospitalization
p4625
F0.0
sV48
p4626
F3.0647258868750796e-05
sV45
p4627
F0.00011601760491420961
sVdetail
p4628
F3.0647258868750796e-05
sV40
p4629
F0.000290044012285524
sVsurreal
p4630
F0.0
sVstimulant
p4631
F0.0
sVirritability
p4632
F0.0
sVtraumatic
p4633
F0.0
sVvalproate
p4634
F0.0
sVaugmentation
p4635
F0.0
sVgodsend
p4636
F0.0
sVstarting
p4637
F0.00040606161719973364
sV_apasserby_
p4638
F0.0
sVyell
p4639
F0.00014995057906335717
sVbaked
p4640
F3.0647258868750796e-05
sVaugmented
p4641
F0.0
sVlimited
p4642
F9.996705270890479e-05
sVderp
p4643
F0.0
sVsleep
p4644
F0.0042346425793686505
sVappetite
p4645
F0.003998682108356191
sVhate
p4646
F0.00044985173719007155
sVcytokines
p4647
F0.0
sVpoorly
p4648
F9.996705270890479e-05
sVfeeding
p4649
F9.194177660625239e-05
sVpantoprazole
p4650
F0.0
sVwhatsoever
p4651
F9.194177660625239e-05
sV50mg
p4652
F0.0
sVrisk
p4653
F0.00036738908222833046
sVcitalopram
p4654
F0.0
sVdispense
p4655
F0.0
sVevery
p4656
F0.0003611133576692827
sVjack
p4657
F4.998352635445239e-05
sVvastly
p4658
F0.0
sVtheanine
p4659
F0.0
sVbestfriend
p4660
F0.0
sVcause
p4661
F0.0003255106322652689
sVenjoy
p4662
F9.6681337428508e-05
sVinfancy
p4663
F0.0
sVconsistent
p4664
F4.998352635445239e-05
sVdirect
p4665
F0.00029990115812671435
sVstreet
p4666
F0.00019993410541780957
sVocassional
p4667
F0.0
sVkratom
p4668
F0.0
sVemptiness
p4669
F0.0
sVblue
p4670
F1.93362674857016e-05
sVchrist
p4671
F0.0
sVworsen
p4672
F0.0
sVselected
p4673
F4.998352635445239e-05
sVpoison
p4674
F4.998352635445239e-05
sVconduct
p4675
F0.0
sVsupplier
p4676
F0.0
sVchloral
p4677
F0.0
sVseeks
p4678
F4.998352635445239e-05
sVkicked
p4679
F3.0647258868750796e-05
sVsocialize
p4680
F0.0
sVkicker
p4681
F0.0
sVethanol
p4682
F0.0
sVpath
p4683
F3.393297414914758e-05
sVforum
p4684
F4.998352635445239e-05
sVanyeone
p4685
F0.0
sVchanged
p4686
F0.0001546901398856128
sVjogging
p4687
F4.998352635445239e-05
sVchanges
p4688
F0.00017402640737131442
sVfeelings
p4689
F0.00024517807095000637
sVpatience
p4690
F4.998352635445239e-05
sVmodafinilpots
p4691
F0.0
sVforums
p4692
F9.996705270890479e-05
sVswings
p4693
F0.00024991763177226195
sVwould
p4694
F0.0
sVhospital
p4695
F0.0005822979185062651
sVtail
p4696
F1.93362674857016e-05
sVasses
p4697
F4.998352635445239e-05
sVdepakote
p4698
F0.0
sVassessment
p4699
F4.998352635445239e-05
sVbreathe
p4700
F9.996705270890479e-05
sVnaive
p4701
F0.0
sVphone
p4702
F0.00024517807095000637
sVexcellent
p4703
F0.00019993410541780957
sVsupplemental
p4704
F0.0
sVmust
p4705
F0.0
sVshoot
p4706
F6.129451773750159e-05
sVmd
p4707
F0.0
sVmg
p4708
F0.0
sVjoin
p4709
F4.5243965532196764e-05
sVmm
p4710
F0.00018388355321250478
sVtremendously
p4711
F0.0
sVdeficiencies
p4712
F0.0
sVmr
p4713
F0.0
sVaddictive
p4714
F0.0
sVkpin
p4715
F0.0
sVscheduling
p4716
F0.0
sVclonazopam
p4717
F0.0
sVkeep
p4718
F0.0002746495959738206
sVlexapro
p4719
F0.0
sVguarantee
p4720
F0.00014995057906335717
sVend
p4721
F0.00012206648709947583
sVillicit
p4722
F0.0
sVbunk
p4723
F4.998352635445239e-05
sVent
p4724
F0.0
sVtoxin
p4725
F0.0
sVtoxic
p4726
F0.0
sVbadly
p4727
F4.5243965532196764e-05
sVdescription
p4728
F4.998352635445239e-05
sVmess
p4729
F0.00015323629434375397
sVarthritis
p4730
F0.0
sVimaginable
p4731
F0.0
sVmesh
p4732
F0.0
sVparallel
p4733
F0.0
sVcopay
p4734
F0.0
sVhypnotic
p4735
F0.0
sVhypotheses
p4736
F0.0
sVupside
p4737
F3.0647258868750796e-05
sVultimate
p4738
F0.0
sVdecreasing
p4739
F0.0
sVvits
p4740
F0.0
sVncbi
p4741
F0.0
sVcanto
p4742
F0.0
sVexpectations
p4743
F4.998352635445239e-05
sVimo
p4744
F0.0
sVdestroyed
p4745
F4.998352635445239e-05
sVcomplex
p4746
F1.93362674857016e-05
sVcompensatory
p4747
F0.0
sVfade
p4748
F9.194177660625239e-05
sV400
p4749
F3.0647258868750796e-05
sVpropanalol
p4750
F0.0
sVdiseases
p4751
F0.00014995057906335717
sVbouts
p4752
F0.0
sVhotics
p4753
F0.0
sV40g
p4754
F0.0
sVlithium
p4755
F0.0
sVexplode
p4756
F0.0
sVedit2
p4757
F0.0
sVfitness
p4758
F9.996705270890479e-05
sVlasting
p4759
F0.00019993410541780957
sVsigning
p4760
F4.998352635445239e-05
sV127lbs
p4761
F0.0
sVconstipation
p4762
F4.998352635445239e-05
sVcombining
p4763
F0.00014995057906335717
sVclozapine
p4764
F0.0
sVgod
p4765
F0.0004903561419000127
sVmeclizine
p4766
F0.0
sVgot
p4767
F0.0003305967358944137
sVgov
p4768
F0.00034988468448116675
sVperception
p4769
F0.00019993410541780957
sVfree
p4770
F0.00010179892244744273
sVboosting
p4771
F0.0
sVwanted
p4772
F0.0007968287305875207
sVfret
p4773
F0.0
sVdays
p4774
F0.001051922198623575
sVtolerant
p4775
F0.0
sVheck
p4776
F9.996705270890479e-05
sVhopeless
p4777
F0.00014995057906335717
sVsoda
p4778
F4.998352635445239e-05
sVonto
p4779
F0.00011601760491420961
sVrecite
p4780
F0.0
sVrang
p4781
F0.0
sValready
p4782
F9.154986532460688e-05
sVprimary
p4783
F0.00012258903547500319
sVhearing
p4784
F0.00012258903547500319
sVrestrict
p4785
F0.0
sVfantasy
p4786
F4.998352635445239e-05
sVnhs
p4787
F0.0
sVsober
p4788
F0.00029990115812671435
sVcalorie
p4789
F0.00014995057906335717
sVcaloric
p4790
F0.0
sVresearched
p4791
F0.0
sVpristiq
p4792
F0.0
sVtop
p4793
F0.0003393297414914758
sVeuphoric
p4794
F0.0
sVeuphoria
p4795
F0.0
sVton
p4796
F0.00014995057906335717
sVanalgesic
p4797
F0.0
sVglucose
p4798
F0.0
sVconsented
p4799
F0.0
sVantihypertensive
p4800
F0.0
sVcentered
p4801
F4.998352635445239e-05
sVtool
p4802
F0.00014995057906335717
sVserve
p4803
F3.0647258868750796e-05
sVtook
p4804
F0.0003305967358944137
sVinjected
p4805
F0.00014995057906335717
sV150mg
p4806
F0.0
sV5ht2c
p4807
F0.0
sVfrankly
p4808
F4.998352635445239e-05
sV5ht2a
p4809
F0.0
sVbloated
p4810
F0.0
sVfinal
p4811
F2.2621982766098382e-05
sVclasses
p4812
F0.00014704288797963948
sVmodulators
p4813
F0.0
sVbeard
p4814
F6.129451773750159e-05
sVlbs
p4815
F0.0
sVfashion
p4816
F4.998352635445239e-05
sVran
p4817
F7.73450699428064e-05
sVtalking
p4818
F0.0010496540534435002
sVrat
p4819
F3.0647258868750796e-05
sVadhd
p4820
F0.0
sVregulate
p4821
F0.0
sVrelatively
p4822
F0.00014995057906335717
sVrelapse
p4823
F0.0
sVisolated
p4824
F0.0
sVthorough
p4825
F0.0
sVcleft
p4826
F0.0
sVeffectiveness
p4827
F0.0
sVplenty
p4828
F0.00012258903547500319
sVpromotions
p4829
F0.0
sVpeers
p4830
F0.0
sVlifesaver
p4831
F0.0
sVtreats
p4832
F4.998352635445239e-05
sVflop
p4833
F4.998352635445239e-05
sVflow
p4834
F9.996705270890479e-05
sVreputation
p4835
F6.129451773750159e-05
sVnorepenephrine
p4836
F0.0
sVrandom
p4837
F9.194177660625239e-05
sVcolors
p4838
F3.0647258868750796e-05
sVsolutions
p4839
F0.0
sVanalogue
p4840
F0.0
sVsituations
p4841
F0.00011601760491420961
sVocd
p4842
F0.0
sVmixture
p4843
F4.998352635445239e-05
sVcriticizes
p4844
F4.998352635445239e-05
sVkindling
p4845
F0.0
sVwatch
p4846
F0.0
sVfluid
p4847
F9.996705270890479e-05
sVamazon
p4848
F0.0010996375797979528
sVlibidos
p4849
F0.0
sVdespite
p4850
F5.655495691524596e-05
sVreport
p4851
F0.00012258903547500319
sVknocks
p4852
F9.996705270890479e-05
sVcountries
p4853
F4.998352635445239e-05
sVhospitalize
p4854
F0.0
sVidiotic
p4855
F0.0
sVtwice
p4856
F7.73450699428064e-05
sVmglur
p4857
F0.0
sVhabit
p4858
F0.0
sVvalsartan
p4859
F0.0
sVreligiouspsychotics
p4860
F0.0
sVdepressive
p4861
F0.0
sVtemptation
p4862
F3.0647258868750796e-05
sViirc
p4863
F0.0
sVcontinually
p4864
F4.998352635445239e-05
sVfinger
p4865
F3.86725349714032e-05
sV2013conference
p4866
F0.0
sVhopefully
p4867
F0.0
sVmum
p4868
F6.129451773750159e-05
sVapproach
p4869
F9.194177660625239e-05
sVwean
p4870
F0.0
sVweak
p4871
F0.0006497858426078811
sVhowever
p4872
F0.0015630102023062905
sVboss
p4873
F4.998352635445239e-05
sVnightmares
p4874
F0.0
sVwear
p4875
F0.00012258903547500319
sV20151009_101200
p4876
F0.0
sVnews
p4877
F0.0001353538723999112
sVoxidase
p4878
F0.0
sVdrowsy
p4879
F0.0
sVimprove
p4880
F0.00012258903547500319
sVfaced
p4881
F3.0647258868750796e-05
sVreferral
p4882
F0.0
sVirregular
p4883
F4.998352635445239e-05
sVfault
p4884
F2.2621982766098382e-05
sVdisengage
p4885
F0.0
sVgames
p4886
F0.00015323629434375397
sVmildly
p4887
F0.0
sVvariance
p4888
F0.0
sVexhibit
p4889
F4.998352635445239e-05
sVbetting
p4890
F0.0
sVinactivate
p4891
F0.0
sVtrust
p4892
F0.00015323629434375397
sVbuzzing
p4893
F4.998352635445239e-05
sVbathroom
p4894
F4.998352635445239e-05
sVincomparable
p4895
F0.0
sVbinge
p4896
F0.0
sVquickly
p4897
F0.00014704288797963948
sVbeer
p4898
F9.996705270890479e-05
sVexpected
p4899
F1.93362674857016e-05
sVpmwiki
p4900
F0.0
sVfleeting
p4901
F4.998352635445239e-05
sVbladder
p4902
F9.996705270890479e-05
sVuncommon
p4903
F6.129451773750159e-05
sVcraft
p4904
F0.0
sVneurontin
p4905
F0.0
sVcatch
p4906
F6.129451773750159e-05
sVdeductible
p4907
F0.0
sVpecker
p4908
F0.0
sVintending
p4909
F0.0
sVlessen
p4910
F0.0
sVbuproprion
p4911
F0.0
sVn
p4912
F5.086103629144826e-06
sVlesser
p4913
F4.998352635445239e-05
sVweren
p4914
F0.00011601760491420961
sVstopping
p4915
F0.0003371198475562588
sVprocedure
p4916
F9.996705270890479e-05
sVclonazolam
p4917
F0.0
sVpharm
p4918
F0.0
sVexperts
p4919
F0.0
sVexperience
p4920
F0.0013178321313562843
sVsuggest
p4921
F0.0008497199480256907
sVdrawback
p4922
F0.0
sVseveral
p4923
F0.0005516506596375143
sVworkout
p4924
F0.0
sVscrew
p4925
F6.129451773750159e-05
sVsocial
p4926
F0.00014704288797963948
sVaction
p4927
F0.0004290616241625112
sVdozing
p4928
F0.0
sVcycle
p4929
F0.00012258903547500319
sVmentioning
p4930
F4.998352635445239e-05
sVtoxicity
p4931
F0.0
sVshortly
p4932
F4.998352635445239e-05
sVsavings
p4933
F0.0
sVmother
p4934
F2.543051814572413e-05
sValarms
p4935
F9.996705270890479e-05
sVproposed
p4936
F0.0
sVable
p4937
F0.0004298176725558693
sVlaptop
p4938
F3.0647258868750796e-05
sVgrades
p4939
F0.0
sVdopamine
p4940
F0.0
sVresigning
p4941
F0.0
sVvices
p4942
F0.0
sVpharmacy
p4943
F0.0033988797921027628
sVteenager
p4944
F4.998352635445239e-05
sV5g
p4945
F0.0
sVhumanity
p4946
F4.998352635445239e-05
sVgave
p4947
F0.0008274759894562715
sVbreaks
p4948
F5.8008802457104804e-05
sVeesh
p4949
F0.0
sVjudge
p4950
F6.129451773750159e-05
sVburnt
p4951
F6.129451773750159e-05
sVadvanced
p4952
F3.86725349714032e-05
sVapart
p4953
F1.93362674857016e-05
sVmelting
p4954
F0.0
sVappearing
p4955
F1.93362674857016e-05
sV55
p4956
F4.998352635445239e-05
sVcontradict
p4957
F0.0
sV50
p4958
F0.0006107935346846564
sVspecific
p4959
F0.000193362674857016
sVinformative
p4960
F4.998352635445239e-05
sVdissociative
p4961
F0.0
sVhung
p4962
F1.93362674857016e-05
sVstereotype
p4963
F4.998352635445239e-05
sVzoom
p4964
F4.998352635445239e-05
sVselectivity
p4965
F0.0
sVescape
p4966
F3.393297414914758e-05
sVtotaly
p4967
F0.0
sVeverything
p4968
F0.00018309973064921376
sVatenolol
p4969
F0.0
sVchristmas
p4970
F0.0
sVicu
p4971
F0.0
sVcord
p4972
F0.0
sVcore
p4973
F7.73450699428064e-05
sVdisappeared
p4974
F1.93362674857016e-05
sVdiscount
p4975
F9.996705270890479e-05
sVsrni
p4976
F0.0
sVattacks
p4977
F0.0007497528953167859
sVtrustworthy
p4978
F4.998352635445239e-05
sVsnris
p4979
F0.0
sVplus
p4980
F0.000193362674857016
sVsteadily
p4981
F0.0
sVefforts
p4982
F3.0647258868750796e-05
sVpresence
p4983
F1.1310991383049191e-05
sVuncontrolled
p4984
F0.0
sVfinely
p4985
F0.00019993410541780957
sVprazocin
p4986
F0.0
sVanorexic
p4987
F9.996705270890479e-05
sVanorexia
p4988
F4.998352635445239e-05
sVrely
p4989
F3.0647258868750796e-05
sVstuck
p4990
F6.129451773750159e-05
sVhumalog
p4991
F0.0
sVmetabolism
p4992
F0.00024991763177226195
sVpurposely
p4993
F0.0
sVintolerance
p4994
F0.0
sVhead
p4995
F5.5947139920593095e-05
sVhangover
p4996
F0.00029990115812671435
sVattempted
p4997
F9.996705270890479e-05
sVdifferences
p4998
F4.998352635445239e-05
sVhear
p4999
F0.00021490883627793466
sVheap
p5000
F0.0
sVremoved
p5001
F1.1310991383049191e-05
sVnodded
p5002
F0.0
sVcounsel
p5003
F0.0
sVportions
p5004
F0.0
sVbargain
p5005
F4.998352635445239e-05
sVruined
p5006
F9.194177660625239e-05
sVannoying
p5007
F0.0001353538723999112
sVtrip
p5008
F0.0007355342128500191
sVregime
p5009
F0.0
sVpipe
p5010
F1.93362674857016e-05
sVradically
p5011
F0.0
sVnl
p5012
F9.996705270890479e-05
sVfaithful
p5013
F4.998352635445239e-05
sVnb
p5014
F0.0
sVtip
p5015
F0.00011601760491420961
sVtil
p5016
F1.93362674857016e-05
sVsetting
p5017
F5.655495691524596e-05
sVcomplicit
p5018
F0.0
sVpapers
p5019
F4.998352635445239e-05
sVnp
p5020
F0.0
sVpanax
p5021
F0.0
sVnode
p5022
F0.0
sVpicture
p5023
F3.86725349714032e-05
sVfootball
p5024
F3.0647258868750796e-05
sVmiscellaneous
p5025
F4.998352635445239e-05
sVquintessentially
p5026
F0.0
sV2btoggle
p5027
F0.0
sVyounger
p5028
F1.93362674857016e-05
sVfaster
p5029
F5.8008802457104804e-05
sVserious
p5030
F0.000386725349714032
sVantipsychotics
p5031
F0.0
sVimpression
p5032
F9.996705270890479e-05
sValternatives
p5033
F0.00019993410541780957
sVfocus
p5034
F0.0005498187898989764
sVleads
p5035
F3.86725349714032e-05
sVmodafinil
p5036
F0.0
sVremarkably
p5037
F0.0
sVenvironment
p5038
F9.194177660625239e-05
sVcharge
p5039
F3.0647258868750796e-05
sVadvantage
p5040
F3.0647258868750796e-05
sVsloppy
p5041
F4.998352635445239e-05
sVcook
p5042
F3.0647258868750796e-05
sVcool
p5043
F0.00029990115812671435
sVsleepier
p5044
F0.0
sVlevel
p5045
F4.577493266230344e-05
sVposts
p5046
F4.998352635445239e-05
sVbrother
p5047
F6.129451773750159e-05
sVannihilates
p5048
F0.0
sVquick
p5049
F2.543051814572413e-05
sVwellbutrin
p5050
F0.0
sVsays
p5051
F4.577493266230344e-05
sVpms
p5052
F0.0
sVsidetracking
p5053
F0.0
sVslowed
p5054
F0.0
sVpmc
p5055
F0.0
sVprefrontal
p5056
F0.0
sVport
p5057
F1.93362674857016e-05
sVsubstitute
p5058
F0.0
sVdrinks
p5059
F0.00029990115812671435
sVstands
p5060
F1.93362674857016e-05
sV25mg
p5061
F0.0
sVgoes
p5062
F9.154986532460688e-05
sVreply
p5063
F6.129451773750159e-05
sVwithdrawls
p5064
F0.0
sVprescriptions
p5065
F0.0
sVwater
p5066
F7.73450699428064e-05
sVtopiramate
p5067
F0.0
sVgroups
p5068
F9.996705270890479e-05
sVnoticeable
p5069
F4.998352635445239e-05
sVhealthy
p5070
F0.0005220792221139432
sVguilty
p5071
F4.998352635445239e-05
sVproud
p5072
F3.0647258868750796e-05
sVexams
p5073
F0.0
sVweird
p5074
F0.00036738908222833046
sVlowers
p5075
F4.998352635445239e-05
sVshootings
p5076
F0.0
sVhumous
p5077
F0.0
sVinducing
p5078
F0.0
sV1st
p5079
F3.0647258868750796e-05
sVfastime
p5080
F0.0
sVvenalefexine
p5081
F0.0
sVvivid
p5082
F0.0
sVbrighter
p5083
F4.998352635445239e-05
sVsports
p5084
F6.129451773750159e-05
sVmemory
p5085
F0.000193362674857016
sVpregabalin
p5086
F0.0
sVtoday
p5087
F0.00018097586212878706
sVantiemetic
p5088
F0.0
sVsessions
p5089
F9.996705270890479e-05
sVcashier
p5090
F4.998352635445239e-05
sVcases
p5091
F0.00019993410541780957
sVinsights
p5092
F0.0
sVlocal
p5093
F6.129451773750159e-05
sVdepressants
p5094
F0.0
sVintensely
p5095
F0.0
sVcalisthenic
p5096
F0.0
sVslightest
p5097
F0.0
sVnursing
p5098
F0.0
sVfigure
p5099
F0.00024517807095000637
sVnexus
p5100
F0.0
sVstroke
p5101
F9.996705270890479e-05
sVpalpitations
p5102
F0.0
sVdropped
p5103
F0.00011601760491420961
sVcounting
p5104
F9.194177660625239e-05
sVconversely
p5105
F0.0
sVpainkillers
p5106
F4.998352635445239e-05
sVrequirements
p5107
F4.998352635445239e-05
sVbrand
p5108
F3.86725349714032e-05
sVdinner
p5109
F5.8008802457104804e-05
sV1
p5110
F0.00026447738871553095
sVvital
p5111
F4.998352635445239e-05
sVensure
p5112
F4.998352635445239e-05
sVopana
p5113
F0.0
sVefficacies
p5114
F0.0
sVirrational
p5115
F0.0
sVcocktail
p5116
F0.00029990115812671435
sVinformation
p5117
F0.0003371198475562588
sV4th
p5118
F4.998352635445239e-05
sVdexedrine
p5119
F0.0
sVliquid
p5120
F0.00034988468448116675
sVjoint
p5121
F0.00024991763177226195
sVcomfort
p5122
F0.0
sVfood
p5123
F0.0002714637931931806
sVblocker
p5124
F0.0005998023162534287
sVmainly
p5125
F0.00015323629434375397
sVymmv
p5126
F0.0
sVblocked
p5127
F0.00014995057906335717
sVvta
p5128
F0.0
sVparadoxically
p5129
F9.996705270890479e-05
sVgtg
p5130
F0.0
sVideation
p5131
F0.0
sVhappened
p5132
F0.00011310991383049191
sVlonely
p5133
F0.00015323629434375397
sVremron
p5134
F0.0
sVconversations
p5135
F9.996705270890479e-05
sVbenzodiazepine_withdrawal_syndrome
p5136
F0.0
sVqualified
p5137
F9.996705270890479e-05
sVppl
p5138
F0.0
sVterm
p5139
F0.0005220792221139432
sVinderall
p5140
F0.0
sVname
p5141
F2.0344414516579305e-05
sVstabilize
p5142
F0.0
sVstahl
p5143
F0.0
sVdebating
p5144
F0.0
sVpossibilities
p5145
F0.0
sVnodding
p5146
F9.996705270890479e-05
sVrealise
p5147
F0.0
sVantiepileptic
p5148
F0.0
sVunproductive
p5149
F0.0
sVhiccups
p5150
F0.00019993410541780957
sVnassa
p5151
F0.0
sVcatching
p5152
F3.0647258868750796e-05
sVplans
p5153
F4.998352635445239e-05
sVsustains
p5154
F0.0
sVfactors
p5155
F0.00019993410541780957
sV100g
p5156
F0.0
sVunrefreshing
p5157
F0.0
sVhacked
p5158
F3.0647258868750796e-05
sV100x
p5159
F0.0
sVpyridinylpiperazine
p5160
F0.0
sV10pack
p5161
F0.0
sVim_just_curious_how_many_pills_do_you_take_on_a
p5162
F0.0
sVgram
p5163
F0.0
sVtheory
p5164
F9.996705270890479e-05
sVvariant
p5165
F0.0
sVnucleuspf3izq7o6
p5166
F0.0
sVantihistamines
p5167
F0.0
sVclozaril
p5168
F0.0
sVescitralopram
p5169
F0.0
sV10ml
p5170
F0.0
sVyup
p5171
F0.0
sVcalories
p5172
F0.0004998352635445239
sV10mg
p5173
F0.0
sVmotion
p5174
F3.0647258868750796e-05
sVturn
p5175
F9.048793106439353e-05
sVplace
p5176
F3.560272540401379e-05
sVdiscontinued
p5177
F0.0
sVlmaoooooooo
p5178
F0.0
sVawfully
p5179
F3.0647258868750796e-05
sVarray
p5180
F0.0
sVtingling
p5181
F0.0
sVgiven
p5182
F5.5947139920593095e-05
sVnecessarily
p5183
F9.194177660625239e-05
sVcarbonate
p5184
F0.0
sVstimulation
p5185
F0.00029990115812671435
sVreturns
p5186
F1.1310991383049191e-05
sVterrifying
p5187
F0.0
sVwhite
p5188
F3.393297414914758e-05
sVgives
p5189
F7.917693968134435e-05
sVfexofenadine
p5190
F0.0
sVhug
p5191
F4.998352635445239e-05
sV150lbs
p5192
F0.0
sVhypnotics
p5193
F0.0
sVscrewing
p5194
F0.0
sVreleased
p5195
F9.996705270890479e-05
sVcopy
p5196
F1.93362674857016e-05
sVpopulation
p5197
F6.129451773750159e-05
sVwide
p5198
F1.1310991383049191e-05
sVunfortunately
p5199
F0.00034988468448116675
sVrequire
p5200
F0.00014995057906335717
sVnonides
p5201
F0.0
sVcards
p5202
F3.0647258868750796e-05
sVpre
p5203
F6.129451773750159e-05
sVpro
p5204
F0.0
sVcrippling
p5205
F0.0
sVans
p5206
F0.0
sVkush
p5207
F0.0
sVsciences
p5208
F0.0
sVideal
p5209
F9.194177660625239e-05
sVanimation
p5210
F4.998352635445239e-05
sVsorority
p5211
F4.998352635445239e-05
sVurge
p5212
F0.0
sVsure
p5213
F0.0007465254312812467
sVmultiple
p5214
F0.00030647258868750794
sVbotulinum
p5215
F0.0
sVprobed
p5216
F0.0
sVclearer
p5217
F0.0
sVfalls
p5218
F2.2621982766098382e-05
sVupregulating
p5219
F0.0
sVnet
p5220
F6.129451773750159e-05
sVcleared
p5221
F3.0647258868750796e-05
sVlatex
p5222
F0.00014995057906335717
sVconsidered
p5223
F0.00030647258868750794
sVlater
p5224
F0.00046407041965683843
sVhungry
p5225
F0.0006129451773750159
sVcortex
p5226
F0.0
sVquantity
p5227
F0.0
sVslope
p5228
F3.0647258868750796e-05
sVvetspecialistsofrochester
p5229
F0.0
sVdrastically
p5230
F0.0
sVginseng
p5231
F0.0
sVrecipe
p5232
F0.0
sVnlm
p5233
F0.0
sVlearntech
p5234
F0.0
sVfavor
p5235
F3.0647258868750796e-05
sVampakines
p5236
F0.0
sVnootropics
p5237
F0.0
sVregarding
p5238
F3.0647258868750796e-05
sVobliterate
p5239
F0.0
sVfainted
p5240
F0.0
sVjokes
p5241
F3.0647258868750796e-05
sVpants
p5242
F4.998352635445239e-05
sVdiscussing
p5243
F4.998352635445239e-05
sVcollege
p5244
F0.00029990115812671435
sVapologies
p5245
F0.0
sVexam
p5246
F4.998352635445239e-05
sVfails
p5247
F0.00019993410541780957
sVinhibitory
p5248
F0.0
sVways
p5249
F0.00010179892244744273
sVsubsequent
p5250
F9.996705270890479e-05
sVdefinite
p5251
F4.998352635445239e-05
sVinhibitors
p5252
F0.0
sVoutside
p5253
F4.068882903315861e-05
sVstims
p5254
F0.0
sVcortisol
p5255
F0.0
sV25
p5256
F0.0003093802797712256
sVballsdeep
p5257
F0.0
sVguitar
p5258
F6.129451773750159e-05
sVunusually
p5259
F0.0
sVvenlafaxine
p5260
F0.0
sVharshly
p5261
F0.0
sVcities
p5262
F4.998352635445239e-05
sVcome
p5263
F0.0001525831088743448
sVreaction
p5264
F0.00024517807095000637
sVemaciated
p5265
F0.0
sVtopamax
p5266
F0.0
sV23
p5267
F3.86725349714032e-05
sVquiet
p5268
F3.393297414914758e-05
sVreboxetine
p5269
F0.0
sVutterance
p5270
F0.0
sVduty
p5271
F3.0647258868750796e-05
sVafterwards
p5272
F7.73450699428064e-05
sVcolor
p5273
F3.86725349714032e-05
sVnooooope
p5274
F0.0
sVpot
p5275
F0.00015323629434375397
sVperiod
p5276
F7.917693968134435e-05
sVpop
p5277
F3.0647258868750796e-05
sVthiazolidinediones
p5278
F0.0
sVlosses
p5279
F0.0
sVturkey
p5280
F0.0006497858426078811
sVsubscribed
p5281
F0.0
sVhardly
p5282
F9.194177660625239e-05
sVdirection
p5283
F5.086103629144826e-06
sVpioglitazone
p5284
F0.0
sV6g
p5285
F0.0
sVandrew
p5286
F0.0
sVhernia
p5287
F0.0
sVattentive
p5288
F0.0
sVirrelevant
p5289
F4.998352635445239e-05
sVcase
p5290
F0.00035064073287452495
sVmegace
p5291
F0.0
sVsildenafil
p5292
F0.0
sVslippery
p5293
F0.0
sVside_effect
p5294
F0.0
sVsomeone
p5295
F0.0
sVdowners
p5296
F0.0
sVsedating
p5297
F0.0
sVreshape
p5298
F0.0
sVreminded
p5299
F9.996705270890479e-05
sVrelaxant
p5300
F0.0
sVsupra
p5301
F0.0
sVcheck
p5302
F0.00027582532981875715
sVhtml
p5303
F0.00019993410541780957
sVsuboxone
p5304
F0.0
sVagitated
p5305
F0.0
sVreminder
p5306
F4.998352635445239e-05
sVevents
p5307
F9.194177660625239e-05
sVmoronic
p5308
F0.0
sVweek
p5309
F0.0010054859092564832
sVween
p5310
F0.0
sVdrives
p5311
F1.93362674857016e-05
sVweed
p5312
F0.001399538737924667
sVpersons
p5313
F6.129451773750159e-05
sVrocknroll
p5314
F0.0
sVchanging
p5315
F7.73450699428064e-05
sVfasting
p5316
F0.0
sVwithout
p5317
F0.0
sVrelief
p5318
F0.0
sVinability
p5319
F9.996705270890479e-05
sVreward
p5320
F9.194177660625239e-05
sVmotorskills
p5321
F0.0
sVresearchers
p5322
F0.0
sVjustify
p5323
F0.0
sVcaptures
p5324
F0.0
sVactions
p5325
F9.996705270890479e-05
sVdysautonomia
p5326
F0.0
sV5ht
p5327
F0.0
sVcease
p5328
F4.998352635445239e-05
sVconflating
p5329
F0.0
sVabstained
p5330
F0.0
sVbehavioural
p5331
F0.0
sVrefills
p5332
F0.0
sVsampled
p5333
F0.0
sVrose
p5334
F4.998352635445239e-05
sVseems
p5335
F0.0001729275233909241
sVreccomend
p5336
F0.0
sVlets
p5337
F3.393297414914758e-05
sVblob
p5338
F0.0
sVsamples
p5339
F0.00014995057906335717
sVdisrupt
p5340
F0.0
sVvicodin
p5341
F0.0
sVscheduled
p5342
F9.996705270890479e-05
sVkills
p5343
F3.86725349714032e-05
sV60mgs
p5344
F0.0
sVaccepted
p5345
F0.00012258903547500319
sVcorrecting
p5346
F0.0
sVacute
p5347
F0.0
sVfibromyalgia
p5348
F0.0
sVreduces
p5349
F0.0
sVbuddies
p5350
F4.998352635445239e-05
sVoddly
p5351
F3.0647258868750796e-05
sVsanity
p5352
F0.0
sVsnort
p5353
F4.998352635445239e-05
sVtic
p5354
F0.0
sVreduced
p5355
F0.00029990115812671435
sVnodd
p5356
F0.0
sVmeara
p5357
F0.0
sVibuprofen
p5358
F0.0
sVintact
p5359
F3.0647258868750796e-05
sVprovided
p5360
F0.00012258903547500319
sVmood
p5361
F0.001501715684568789
sVgoogled
p5362
F0.0
sVlegal
p5363
F0.00014995057906335717
sVprovider
p5364
F0.0
sVcompulsion
p5365
F0.0
sVquitting
p5366
F0.0
sVcalmed
p5367
F0.0
sVerased
p5368
F3.0647258868750796e-05
sVmethamphetamine
p5369
F0.0
sVnails
p5370
F9.996705270890479e-05
sVweirdest
p5371
F4.998352635445239e-05
sVvoracious
p5372
F0.0
sVcalmer
p5373
F0.0
sVterrified
p5374
F0.0
sVok
p5375
F0.0001546901398856128
sVoi
p5376
F0.0
sVoh
p5377
F0.0005822979185062651
sVod
p5378
F0.0
sVdiscussed
p5379
F0.0
sVstand
p5380
F5.655495691524596e-05
sVconcentrations
p5381
F0.0
sVop
p5382
F0.0005498187898989764
sVlantus
p5383
F0.0
sVcommunication
p5384
F0.0
sVspinal
p5385
F0.0
sVaccounts
p5386
F1.93362674857016e-05
sVdetermine
p5387
F4.998352635445239e-05
sVlastly
p5388
F0.0
sVtheoretically
p5389
F0.0
sV300mg
p5390
F0.0
sVstrictly
p5391
F9.194177660625239e-05
sVstrict
p5392
F0.00014995057906335717
sVcultures
p5393
F4.998352635445239e-05
sVenergy
p5394
F0.0011996046325068574
sVcatholics
p5395
F0.0
sVregard
p5396
F0.0
sVaniracetam
p5397
F0.0
sVpromote
p5398
F4.998352635445239e-05
sVlonger
p5399
F0.00012206648709947583
sVapplying
p5400
F4.998352635445239e-05
sVmedrol
p5401
F0.0
sVnootropic
p5402
F0.0
sVgrasp
p5403
F0.0
sVgrass
p5404
F1.93362674857016e-05
sVstrongly
p5405
F0.0
sVcbd
p5406
F0.0
sVtaste
p5407
F3.86725349714032e-05
sVssri
p5408
F0.0
sVcbn
p5409
F0.0
sVminneapolis
p5410
F0.0
sVbritain
p5411
F0.0
sVcbt
p5412
F0.0
sVstumbled
p5413
F0.0
sVidiot
p5414
F4.998352635445239e-05
sVdiarrhea
p5415
F0.00044985173719007155
sVtemazapam
p5416
F0.0
sV5
p5417
F0.0002695634923446758
sVbriefly
p5418
F4.998352635445239e-05
sVotc
p5419
F0.0
sVfor_moderators_switches_commands_and_css
p5420
F0.0
sVsymbol
p5421
F3.0647258868750796e-05
sVincludes
p5422
F0.00042539788468543525
sVnucleus
p5423
F0.0
sVincluded
p5424
F0.00018388355321250478
sVmissed
p5425
F9.194177660625239e-05
sVcarbs
p5426
F0.00019993410541780957
sVclinically
p5427
F0.0
sVcalls
p5428
F3.86725349714032e-05
sVwife
p5429
F0.00012258903547500319
sVcurve
p5430
F6.129451773750159e-05
sVexhausting
p5431
F0.0
sVnumbing
p5432
F9.996705270890479e-05
sVcatapres
p5433
F0.0
sVembolism
p5434
F0.0
sVlack
p5435
F0.0001357318965965903
sVsulfonylurea
p5436
F0.0
sVantagonize
p5437
F0.0
sVfollow
p5438
F5.655495691524596e-05
sVmeditation
p5439
F0.0
sVdecisions
p5440
F0.0
sVhmmm
p5441
F9.996705270890479e-05
sVsynthetic
p5442
F0.00014995057906335717
sVlexipro
p5443
F0.0
sVsubsided
p5444
F0.0
sVextraneous
p5445
F4.998352635445239e-05
sVautowikibot
p5446
F0.0
sVactivities
p5447
F0.0
sVwoman
p5448
F1.1310991383049191e-05
sVworse
p5449
F0.0002827747845762298
sVsong
p5450
F1.1310991383049191e-05
sVfar
p5451
F0.0001983580415366482
sVtripdude
p5452
F0.0
sVfav
p5453
F0.0
sVfat
p5454
F0.00024517807095000637
sVunregulated
p5455
F0.0
sVsimpsons
p5456
F0.0
sVpsychologist
p5457
F0.0
sVworst
p5458
F0.0004290616241625112
sVsublingually
p5459
F0.0
sVvacationing
p5460
F0.0
sVenter
p5461
F1.1310991383049191e-05
sVuwe
p5462
F0.0
sVtreating
p5463
F0.0005498187898989764
sVlist
p5464
F0.000676769361999556
sVprolonged
p5465
F0.0
sVgrandfather
p5466
F4.998352635445239e-05
sVsingularly
p5467
F0.0
sVteh
p5468
F4.998352635445239e-05
sVtel
p5469
F0.0
sVten
p5470
F5.655495691524596e-05
sVtea
p5471
F7.73450699428064e-05
sVsynergy
p5472
F0.0
sVrate
p5473
F0.00039841436529376034
sVnbc
p5474
F0.0
sVfunctioning
p5475
F0.00014995057906335717
sVsub
p5476
F3.86725349714032e-05
sVdeeply
p5477
F9.194177660625239e-05
sVbrief
p5478
F4.998352635445239e-05
sVversion
p5479
F0.00012258903547500319
sVracing
p5480
F5.8008802457104804e-05
sVguns
p5481
F3.0647258868750796e-05
sVsupposedly
p5482
F4.998352635445239e-05
sVbehaviour
p5483
F3.0647258868750796e-05
sVcombating
p5484
F0.0
sVshouldn
p5485
F0.000193362674857016
sVrelaxation
p5486
F0.0
sVnewish
p5487
F0.0
sVallows
p5488
F9.996705270890479e-05
sVsupplements
p5489
F0.0
sVoptions
p5490
F0.0006129451773750159
sVsticking
p5491
F4.998352635445239e-05
sVtightness
p5492
F0.0
sVthankfully
p5493
F0.0
sVsuddenly
p5494
F6.786594829829516e-05
sVscreens
p5495
F4.998352635445239e-05
sVmunchies
p5496
F0.0005998023162534287
sVdonuts
p5497
F4.998352635445239e-05
sVfaint
p5498
F4.998352635445239e-05
sVshite
p5499
F0.0
sVshits
p5500
F4.998352635445239e-05
sVminor
p5501
F7.73450699428064e-05
sVflat
p5502
F2.2621982766098382e-05
sVknows
p5503
F5.8008802457104804e-05
sVoxymorphone
p5504
F0.0
sVbasically
p5505
F0.0009496870007345955
sVknown
p5506
F0.0003167077587253774
sVglad
p5507
F0.00011310991383049191
sVstereoisomers
p5508
F0.0
sVplea
p5509
F0.0
sVv
p5510
F0.00014995057906335717
sVcomputers
p5511
F9.996705270890479e-05
sVpsychonautwiki
p5512
F0.0
sVsectioned
p5513
F0.0
sVcaffeinated
p5514
F0.0
sV3yr
p5515
F0.0
sVchores
p5516
F4.998352635445239e-05
sVinfectedmethod
p5517
F0.0
sVcourt
p5518
F3.0647258868750796e-05
sVgoal
p5519
F0.00014995057906335717
sVdesperation
p5520
F0.0
sVrather
p5521
F0.0002601528018101314
sVbreaking
p5522
F3.393297414914758e-05
sVoccasionally
p5523
F5.8008802457104804e-05
sVexplains
p5524
F9.996705270890479e-05
sVubiquitous
p5525
F0.0
sVmaprotiline
p5526
F0.0
sVnumb
p5527
F0.0
sVmeathead
p5528
F4.998352635445239e-05
sVshort
p5529
F0.00012206648709947583
sVselegeline
p5530
F0.0
sVshady
p5531
F0.0
sVstash
p5532
F0.0
sVclimaxed
p5533
F0.0
sVmdmaish
p5534
F0.0
sVessence
p5535
F0.0
sVflowers
p5536
F3.0647258868750796e-05
sVdisabled
p5537
F3.0647258868750796e-05
sVinterpersonal
p5538
F0.0
sVresort
p5539
F0.0
sVparts
p5540
F7.73450699428064e-05
sVbout
p5541
F9.996705270890479e-05
sVmight
p5542
F0.0003712855649275723
sValter
p5543
F0.0
sVwouldn
p5544
F0.00024884181042708224
sVreturn
p5545
F5.655495691524596e-05
sVarmodafinil
p5546
F0.0
sVbigger
p5547
F3.86725349714032e-05
sVinstructions
p5548
F4.998352635445239e-05
sV0924
p5549
F0.0
sV400mg
p5550
F0.0
sVdone
p5551
F0.00012715259072862067
sVdifficult
p5552
F0.0003093802797712256
sVintolerable
p5553
F0.0
sVcharacterized
p5554
F0.0
sVnicotine
p5555
F0.0
sVweight
p5556
F0.0020812224144810512
sVneedless
p5557
F0.0
sVgeneration
p5558
F0.0
sV3faj7m
p5559
F0.0
sVexpect
p5560
F0.0001373247979869103
sVscratching
p5561
F9.996705270890479e-05
sValcohol
p5562
F0.00076618147171877
sV4pm
p5563
F0.0
sV14mg
p5564
F0.0
sVinduces
p5565
F0.0
sVfaqs
p5566
F0.0
sVhealth
p5567
F0.0010996375797979528
sVhill
p5568
F3.0647258868750796e-05
sVinduced
p5569
F0.0
sValleviating
p5570
F0.0
sVfriday
p5571
F0.0
sVexperimenting
p5572
F0.0
sVguy
p5573
F0.00017402640737131442
sVthrown
p5574
F3.86725349714032e-05
sVunconfident
p5575
F0.0
sVthread
p5576
F0.00034988468448116675
sVcircuit
p5577
F0.0
sVzyprexa
p5578
F0.0
sVfeed
p5579
F9.194177660625239e-05
sVunhealthy
p5580
F4.998352635445239e-05
sVdiscourraging
p5581
F0.0
sVfeel
p5582
F0.0007629155443717239
sVrelate
p5583
F0.0
sVfancy
p5584
F9.996705270890479e-05
sVfeet
p5585
F1.1310991383049191e-05
sVsympathy
p5586
F4.998352635445239e-05
sVadderal
p5587
F0.0
sVpasses
p5588
F3.0647258868750796e-05
sVstory
p5589
F0.00030647258868750794
sVscript
p5590
F0.0004998352635445239
sVleading
p5591
F3.86725349714032e-05
sVinteract
p5592
F0.00019993410541780957
sVpassed
p5593
F1.1310991383049191e-05
sVracemic
p5594
F0.0
sVoverusing
p5595
F0.0
sVstore
p5596
F3.0647258868750796e-05
sVheadache
p5597
F0.00034988468448116675
sVoption
p5598
F0.00039986821083561915
sVrelieved
p5599
F0.0
sVserotonin
p5600
F0.0
sVluckily
p5601
F0.0
sVconvinced
p5602
F9.194177660625239e-05
sVkind
p5603
F0.0
sVexcitability
p5604
F0.0
sVdank
p5605
F0.0
sVrisks
p5606
F0.0
sVcompazine
p5607
F0.0
sVrisky
p5608
F4.998352635445239e-05
sVmotivation
p5609
F0.0
sVexert
p5610
F0.0
sVhtp
p5611
F0.0
sVearflap
p5612
F0.0
sVetizolam
p5613
F0.0
sVnights
p5614
F0.00024517807095000637
sVdrunk
p5615
F7.73450699428064e-05
sVfinding
p5616
F0.0001583538793626887
sVeffexor
p5617
F0.0
sVirritated
p5618
F0.0
sVadded
p5619
F0.00030647258868750794
sVelectric
p5620
F6.129451773750159e-05
sVwarnings
p5621
F9.194177660625239e-05
sVmeasures
p5622
F0.0
sVreach
p5623
F7.73450699428064e-05
sVreact
p5624
F0.00018388355321250478
sV75
p5625
F0.00024991763177226195
sVimpacting
p5626
F0.0
sV72
p5627
F4.998352635445239e-05
sV70
p5628
F3.86725349714032e-05
sVnothing
p5629
F0.0001729275233909241
sVeegs
p5630
F0.0
sVdissolves
p5631
F0.0
sVnefazodone
p5632
F0.0
sVtraditional
p5633
F6.129451773750159e-05
sVpart
p5634
F0.0002714637931931806
sVlying
p5635
F5.8008802457104804e-05
sVstones
p5636
F0.0
sVstoner
p5637
F4.998352635445239e-05
sVpostsynaptic
p5638
F0.0
sVaggravate
p5639
F0.0
sVrocket
p5640
F0.0
sVrampant
p5641
F4.998352635445239e-05
sVviagra
p5642
F4.998352635445239e-05
sVintermezzo
p5643
F0.0
sVhit
p5644
F7.917693968134435e-05
sVgains
p5645
F9.996705270890479e-05
sVhiv
p5646
F0.0
sVbluelight
p5647
F0.0
sVlongest
p5648
F9.996705270890479e-05
sVtreshold
p5649
F0.0
sVmedicines
p5650
F0.0
sVinvestigate
p5651
F9.194177660625239e-05
sVprescribing
p5652
F0.0
sVactivity
p5653
F0.0009496870007345955
sVsustainable
p5654
F0.0
sVguinea
p5655
F0.0
sVdizziness
p5656
F0.00034988468448116675
sVwrote
p5657
F0.00012258903547500319
sVconsciously
p5658
F0.0
sVbars
p5659
F3.86725349714032e-05
sVart
p5660
F5.8008802457104804e-05
sVdump
p5661
F6.129451773750159e-05
sVdumb
p5662
F0.00012258903547500319
sVdeclined
p5663
F6.129451773750159e-05
sVdynakids
p5664
F0.0
sVnailed
p5665
F0.0
sVvarious
p5666
F0.00017402640737131442
sVnumerous
p5667
F9.194177660625239e-05
sVblurb
p5668
F0.0
sVrecently
p5669
F0.00011310991383049191
sVinitially
p5670
F0.00012258903547500319
sVattention
p5671
F4.5243965532196764e-05
sVconfiscated
p5672
F0.0
sVbetrayed
p5673
F0.0
sVsolu
p5674
F0.0
sVc
p5675
F1.5258310887434479e-05
sVprescription
p5676
F0.0
sVhesitant
p5677
F0.0
sVriddled
p5678
F0.0
sVbecame
p5679
F0.0003371198475562588
sV8am
p5680
F0.0
sVcontext
p5681
F6.129451773750159e-05
sVbond
p5682
F3.0647258868750796e-05
sVfinds
p5683
F1.93362674857016e-05
sVregulates
p5684
F0.0
sVdistress
p5685
F4.998352635445239e-05
sVreasons
p5686
F0.0002145308120812556
sVsweet
p5687
F3.86725349714032e-05
sVsweep
p5688
F0.0
sVdudes
p5689
F4.998352635445239e-05
sVregulated
p5690
F0.0
sVcrisps
p5691
F0.0
sVps
p5692
F0.00014995057906335717
sVpt
p5693
F9.996705270890479e-05
sVoverlook
p5694
F0.0
sVdue
p5695
F0.0010113595426687763
sVpc
p5696
F4.998352635445239e-05
sVreduction
p5697
F9.996705270890479e-05
sVpg
p5698
F0.0
sVpd
p5699
F0.0
sVwoke
p5700
F0.00044985173719007155
sVpm
p5701
F0.0
sVinstitutionalized
p5702
F0.0
sVflight
p5703
F3.86725349714032e-05
sV2bdelete
p5704
F0.0
sVbeforehand
p5705
F0.0
sVtransferring
p5706
F4.998352635445239e-05
sVplants
p5707
F4.998352635445239e-05
sVthirty
p5708
F9.194177660625239e-05
sVbatch
p5709
F0.0
sVevaluated
p5710
F0.0
sVkick
p5711
F0.0001353538723999112
sVbehavior
p5712
F0.00015323629434375397
sVdemon
p5713
F4.998352635445239e-05
sVdisappointing
p5714
F3.0647258868750796e-05
sVneurons
p5715
F4.998352635445239e-05
sVlodged
p5716
F0.0
sVrid
p5717
F9.194177660625239e-05
sVaged
p5718
F1.93362674857016e-05
sVstimulates
p5719
F0.0
sVstimulated
p5720
F0.0
sVdeletion
p5721
F4.998352635445239e-05
sVpeoples
p5722
F9.996705270890479e-05
sV9
p5723
F7.917693968134435e-05
sVitchy
p5724
F0.0
sVhigher
p5725
F0.00029408577595927896
sVliterature
p5726
F9.996705270890479e-05
sVdepersonalization
p5727
F0.0
sVpainless
p5728
F0.0
sVgabaergics
p5729
F0.0
sVmoving
p5730
F5.655495691524596e-05
sVseizurish
p5731
F0.0
sVnoticeably
p5732
F0.0
sVlower
p5733
F0.00022621982766098383
sVanalysis
p5734
F0.00014995057906335717
sVedgy
p5735
F0.00019993410541780957
sVcheer
p5736
F0.0
sVedge
p5737
F5.655495691524596e-05
sVthrowaway
p5738
F0.0
sVreliant
p5739
F0.0
sVintervals
p5740
F0.0
sVquestions
p5741
F0.00023203520982841922
sVtablet
p5742
F0.00024991763177226195
sVworkers
p5743
F6.129451773750159e-05
sVplateau
p5744
F0.0
sVproblematic
p5745
F9.996705270890479e-05
sVunscheduled
p5746
F0.0
sVapnea
p5747
F0.0
sVzofran
p5748
F0.0
sVadvocate
p5749
F0.0
sVantidepressents
p5750
F0.0
sVmoods
p5751
F0.0
sVlost
p5752
F0.0
sVconfront
p5753
F4.998352635445239e-05
sVshapes
p5754
F4.998352635445239e-05
sVunstable
p5755
F4.998352635445239e-05
sVessential
p5756
F0.0
sVfucking
p5757
F0.001649456369696929
sVunderstood
p5758
F9.996705270890479e-05
sVgradually
p5759
F0.0
sVantichollinergic
p5760
F0.0
sVpros
p5761
F4.998352635445239e-05
sVcrisis
p5762
F0.0
sVtends
p5763
F0.0
sVt_t
p5764
F0.0
sVtetracyclic_antidepressant
p5765
F0.0
sVrefused
p5766
F0.00019993410541780957
sVzombie
p5767
F0.0005498187898989764
sVrefuses
p5768
F4.998352635445239e-05
sVintense
p5769
F0.00036776710642500956
sVprojector
p5770
F4.998352635445239e-05
sVdormant
p5771
F4.998352635445239e-05
sVpipeline
p5772
F0.0
sVcautious
p5773
F9.996705270890479e-05
sVfiring
p5774
F4.998352635445239e-05
sVlifeless
p5775
F0.0
sVrange
p5776
F2.2621982766098382e-05
sVpsychonaut
p5777
F0.0
sV5yrs
p5778
F0.0
sVwanna
p5779
F9.194177660625239e-05
sVplethora
p5780
F0.0
sVnortriptyline
p5781
F0.0
sVholster
p5782
F0.0
sVintroverted
p5783
F0.0
sVquestion
p5784
F7.917693968134435e-05
sVlong
p5785
F0.0
sVvendors
p5786
F0.0
sVanalyze
p5787
F0.0
sVkb
p5788
F0.0
sVcriteria
p5789
F0.0
sVrepeatedly
p5790
F3.0647258868750796e-05
sV1x013o
p5791
F0.0
sVraising
p5792
F3.0647258868750796e-05
sVz
p5793
F0.00029990115812671435
sVcalled
p5794
F0.0003053967673423282
sVassociated
p5795
F0.0011996046325068574
sVassociates
p5796
F4.998352635445239e-05
sVstraterra
p5797
F0.0
sVpeace
p5798
F4.998352635445239e-05
sVnick
p5799
F4.998352635445239e-05
sVincome
p5800
F0.0
sVnice
p5801
F0.0
sVusers
p5802
F0.00014995057906335717
sVproblems
p5803
F0.00047506163808806604
sV23921954
p5804
F0.0
sVhelping
p5805
F0.00034805281474262884
sVbonding
p5806
F0.0
sVallowing
p5807
F1.93362674857016e-05
sVamphetamine
p5808
F0.0
sVhappier
p5809
F0.00014995057906335717
sVvice
p5810
F4.998352635445239e-05
sVimpatient
p5811
F4.998352635445239e-05
sVweights
p5812
F0.0
sVnarrative
p5813
F0.0
sVresistance
p5814
F4.998352635445239e-05
sValien
p5815
F4.998352635445239e-05
sVedu
p5816
F4.998352635445239e-05
sVscreen
p5817
F3.0647258868750796e-05
sVadjustment
p5818
F0.0
sVissues
p5819
F0.001195243095881281
sVside_effects
p5820
F0.0
sVstable
p5821
F0.0004998352635445239
sVinclude
p5822
F0.0004903561419000127
sVdramatically
p5823
F4.998352635445239e-05
sVfwiw
p5824
F0.0
sVbreathing
p5825
F6.129451773750159e-05
sVfluoxetine
p5826
F0.0
sVdrinking
p5827
F0.000290044012285524
sVvapes
p5828
F0.0
sVnotes
p5829
F3.0647258868750796e-05
sVdeals
p5830
F0.0
sVlamatrogine
p5831
F0.0
sVdealt
p5832
F0.0
sVnoted
p5833
F0.00014995057906335717
sVdisclaimer
p5834
F4.998352635445239e-05
sVsmaller
p5835
F1.93362674857016e-05
sVsurefire
p5836
F0.0
sVsensation
p5837
F0.0
sVbevery
p5838
F0.0
sVacid
p5839
F0.0003371198475562588
sVcfs
p5840
F0.0
sVcq10
p5841
F0.0
sVuniversities
p5842
F0.0
sVcarthage
p5843
F0.0
sVwaiting
p5844
F7.917693968134435e-05
sVjournal
p5845
F0.0
sVrefilled
p5846
F0.0
sVchose
p5847
F9.996705270890479e-05
sVdegree
p5848
F0.00012258903547500319
sVdarknet
p5849
F0.0
sVdesired
p5850
F0.0
sVdisinhibiting
p5851
F0.0
sVskyrocketed
p5852
F0.0
sVlarger
p5853
F3.86725349714032e-05
sVopiate
p5854
F0.0
sVleaving
p5855
F2.2621982766098382e-05
sVsuggests
p5856
F6.129451773750159e-05
sVaps
p5857
F0.0
sVmotor
p5858
F4.998352635445239e-05
sVapb
p5859
F0.0
sVapply
p5860
F6.129451773750159e-05
sVuse
p5861
F0.00037637166855671717
sVfeb
p5862
F0.0
sVusa
p5863
F9.996705270890479e-05
sVbottomless
p5864
F0.0
sVsort
p5865
F8.137765806631722e-05
sVinclined
p5866
F0.0
sVmusician
p5867
F0.0
sVinfection
p5868
F9.996705270890479e-05
sVpsilocybin
p5869
F0.0
sVwomen
p5870
F3.393297414914758e-05
sVstabilized
p5871
F0.0
sVgeodon
p5872
F0.0
sVaugment
p5873
F0.0
sVheard
p5874
F0.00014704288797963948
sVanywhere
p5875
F5.655495691524596e-05
sVstabilizes
p5876
F0.0
sVstabilizer
p5877
F0.0
sVperformed
p5878
F9.194177660625239e-05
sVwiki_test_kit__suppliers
p5879
F0.0
sVtar
p5880
F6.129451773750159e-05
sVamoxapine
p5881
F0.0
sVhypersomnia
p5882
F0.0
sVtad
p5883
F0.0
sVcarrot
p5884
F4.998352635445239e-05
sVsomething
p5885
F0.0003102523213778344
sVtab
p5886
F9.194177660625239e-05
sVrape
p5887
F4.998352635445239e-05
sVunited
p5888
F0.0
sVsyndrome
p5889
F0.00045970888303126196
sVsit
p5890
F7.73450699428064e-05
sVsix
p5891
F0.00015323629434375397
sVstruggles
p5892
F4.998352635445239e-05
sVaurorix
p5893
F0.0
sVinstead
p5894
F0.000290044012285524
sVstruggled
p5895
F0.0
sVpanic
p5896
F0.0
sVcupboard
p5897
F0.0
sVattend
p5898
F3.0647258868750796e-05
sVimpulsive
p5899
F0.0
sVdiscomfort
p5900
F0.0
sVabuse
p5901
F0.00019993410541780957
sVnejm
p5902
F0.0
sVpsychedelic
p5903
F0.0
sVlight
p5904
F0.0001357318965965903
sVhonestly
p5905
F0.0004290616241625112
sVspreads
p5906
F0.0
sV800mg
p5907
F0.0
sVwhilst
p5908
F0.00015323629434375397
sV130
p5909
F3.0647258868750796e-05
sVlooks
p5910
F2.543051814572413e-05
sVboosts
p5911
F9.996705270890479e-05
sVsuperior
p5912
F0.0
sVpermanent
p5913
F7.73450699428064e-05
sVchoose
p5914
F9.6681337428508e-05
sVcovered
p5915
F4.5243965532196764e-05
sVbye
p5916
F4.998352635445239e-05
sVcrash
p5917
F0.00011601760491420961
sVpractice
p5918
F0.0
sVflew
p5919
F4.998352635445239e-05
sVimpaired
p5920
F4.998352635445239e-05
sVarticles
p5921
F4.998352635445239e-05
sVedit
p5922
F0.0010996375797979528
sVfeast
p5923
F3.0647258868750796e-05
sVunpredictable
p5924
F9.996705270890479e-05
sVpropylhexedrine
p5925
F0.0
sVerratic
p5926
F3.0647258868750796e-05
sVtraz
p5927
F0.0
sVrelated
p5928
F0.000290044012285524
sVweening
p5929
F0.0
sV89
p5930
F4.998352635445239e-05
sVxyrem
p5931
F0.0
sV86
p5932
F0.0
sVcategory
p5933
F3.0647258868750796e-05
sVrespects
p5934
F0.0
sVdisarray
p5935
F0.0
sV40gs
p5936
F0.0
sVbrilliantly
p5937
F0.0
sVintegrated
p5938
F4.998352635445239e-05
sV8g
p5939
F0.0
sVvacations
p5940
F9.996705270890479e-05
sVanyhow
p5941
F0.0
sVorganic
p5942
F0.0
sVg
p5943
F0.00023203520982841922
sVfeasible
p5944
F4.998352635445239e-05
sVconversation
p5945
F3.393297414914758e-05
sVhypomania
p5946
F0.0
sVethylphenidate
p5947
F0.0
sVhypomanic
p5948
F0.0
sVcorticosteroid
p5949
F0.0
sVprobation
p5950
F0.0
sV10x
p5951
F0.0
sVunknown
p5952
F3.0647258868750796e-05
sVaccent
p5953
F1.93362674857016e-05
sVinmate
p5954
F0.0
sVlifting
p5955
F9.194177660625239e-05
sVdrool
p5956
F0.0
sVmisunderstood
p5957
F0.0
sVregards
p5958
F0.0
sVclearnet
p5959
F0.0
sVreverses
p5960
F0.0
sVwhatmeds
p5961
F0.0
sVmirtazon
p5962
F0.0
sVboring
p5963
F3.0647258868750796e-05
sVlimiting
p5964
F0.0
sVpatients
p5965
F0.0
sVbluebrainboost
p5966
F0.0
sVanesthesiologists
p5967
F0.0
sVacademically
p5968
F0.0
sVlinked
p5969
F0.00039986821083561915
sVdiazepam
p5970
F0.0
sVafraid
p5971
F6.786594829829516e-05
sVangle
p5972
F4.998352635445239e-05
sVallergies
p5973
F0.00014995057906335717
sVtldr
p5974
F0.0
sVagency
p5975
F4.998352635445239e-05
sVlope
p5976
F0.0
sVahold
p5977
F4.998352635445239e-05
sVpharmacist
p5978
F0.0
sVcombat
p5979
F0.0
sVcentre
p5980
F4.998352635445239e-05
sVharmful
p5981
F0.0
sVnbome
p5982
F0.0
sVblaming
p5983
F0.0
sVclass
p5984
F0.0003167077587253774
sVspirits
p5985
F4.998352635445239e-05
sVdeny
p5986
F4.998352635445239e-05
sVatypical
p5987
F0.0006497858426078811
sVlooked
p5988
F0.00024517807095000637
sVballons
p5989
F0.0
sVdiagnostics
p5990
F0.0
sVgoals
p5991
F0.0
sVchances
p5992
F6.129451773750159e-05
sVagreed
p5993
F9.996705270890479e-05
sVplanning
p5994
F0.0
sVfear
p5995
F0.00011601760491420961
sVdarkest
p5996
F0.0
sVlitigation
p5997
F0.0
sVhighest
p5998
F9.996705270890479e-05
sVexacerbating
p5999
F0.0
sVclomiphene
p6000
F0.0
sVsurroundings
p6001
F0.0
sV60mg
p6002
F0.0
sVcombo
p6003
F0.0007497528953167859
sVthousands
p6004
F4.998352635445239e-05
sVovereating
p6005
F0.0
sVwatching
p6006
F0.00015323629434375397
sVmidnight
p6007
F0.00015323629434375397
sVdope
p6008
F4.998352635445239e-05
sVcommunity
p6009
F0.0
sVones
p6010
F0.00034805281474262884
sVwords
p6011
F6.786594829829516e-05
sVclondine
p6012
F0.0
sVchips
p6013
F4.998352635445239e-05
sVnearly
p6014
F4.577493266230344e-05
sVended
p6015
F0.00036776710642500956
sVoptimally
p6016
F0.0
sVavoidable
p6017
F0.0
sV11am
p6018
F0.0
sVview
p6019
F4.5243965532196764e-05
sVknowing
p6020
F0.0002707077447998224
sVexpel
p6021
F0.0
sVmethylprednisolone
p6022
F0.0
sVdysmorphia
p6023
F0.0
sVcloser
p6024
F6.129451773750159e-05
sVglucophage
p6025
F0.0
sVarguably
p6026
F0.0
sVcruel
p6027
F3.0647258868750796e-05
sVgenius
p6028
F4.998352635445239e-05
sVdoxepin
p6029
F0.0
sVclosed
p6030
F5.655495691524596e-05
sVdmt
p6031
F0.0
sVbought
p6032
F4.5243965532196764e-05
sVaddin
p6033
F0.0
sVopening
p6034
F2.2621982766098382e-05
sVjoy
p6035
F3.0647258868750796e-05
sVjob
p6036
F0.00048340668714254005
sVdissonance
p6037
F0.0
sVapril
p6038
F0.0
sVgrain
p6039
F0.0
sVsafely
p6040
F4.998352635445239e-05
sVgrounds
p6041
F0.0
sVunclear
p6042
F3.0647258868750796e-05
sVwall
p6043
F0.00012258903547500319
sVwalk
p6044
F0.000193362674857016
sVepigenetic
p6045
F0.0
sVrespect
p6046
F7.73450699428064e-05
sVpulmonary
p6047
F0.0
sVrosiglitazone
p6048
F0.0
sVwithdrawn
p6049
F0.0
sVwithdrawl
p6050
F0.0
sVdecent
p6051
F9.6681337428508e-05
sVbbc
p6052
F4.998352635445239e-05
sVcharts
p6053
F0.0
sVcommercials
p6054
F4.998352635445239e-05
sVoutflow
p6055
F0.0
sVremedies
p6056
F0.0
sVcrappy
p6057
F9.194177660625239e-05
sVhmm
p6058
F1.93362674857016e-05
sVimproved
p6059
F0.00018388355321250478
sVpresent
p6060
F3.0516621774868958e-05
sVunlike
p6061
F0.0001353538723999112
sVchoices
p6062
F4.998352635445239e-05
sVcannabinoids
p6063
F0.0
sVringing
p6064
F4.998352635445239e-05
sVvape
p6065
F0.0
sVthus
p6066
F0.00012258903547500319
sVencouragement
p6067
F0.0
sVavm
p6068
F0.0
sVdraining
p6069
F0.0
sVdual
p6070
F9.194177660625239e-05
sVlightweight
p6071
F4.998352635445239e-05
sVlet
p6072
F0.00014749700524519996
sVperhaps
p6073
F6.129451773750159e-05
sVcross
p6074
F1.5258310887434479e-05
sVmember
p6075
F4.998352635445239e-05
sVadverse
p6076
F0.0
sVgets
p6077
F0.00023203520982841922
sVhammering
p6078
F4.998352635445239e-05
sVhydroxyzine
p6079
F0.0
sVberberine
p6080
F0.0
sVneurology
p6081
F0.0
sVstudent
p6082
F0.00012258903547500319
sVpdf
p6083
F0.00029990115812671435
sVespeciallyl
p6084
F0.0
sVfighting
p6085
F3.0647258868750796e-05
sVfirstly
p6086
F0.0
sVbreaker
p6087
F0.0
sVreligiouspsychotic
p6088
F0.0
sVexcessive
p6089
F1.93362674857016e-05
sVcried
p6090
F4.998352635445239e-05
sVheavily
p6091
F3.0647258868750796e-05
sVpercent
p6092
F0.00024517807095000637
sVobtain
p6093
F0.0
sVrecollection
p6094
F4.998352635445239e-05
sVtca
p6095
F0.0
sVrapid
p6096
F0.00039986821083561915
sVavidly
p6097
F0.0
sVsupply
p6098
F4.998352635445239e-05
sVcapabilities
p6099
F4.998352635445239e-05
sVgoogling
p6100
F0.0
sVattractive
p6101
F3.86725349714032e-05
sVusage
p6102
F6.129451773750159e-05
sVidentical
p6103
F3.0647258868750796e-05
sVmyth
p6104
F4.998352635445239e-05
sVndris
p6105
F0.0
sVcpap
p6106
F0.0
sVknow
p6107
F0.0007171406117094205
sVcoincidence
p6108
F4.998352635445239e-05
sVketipinor
p6109
F0.0
sVhelpful
p6110
F0.0008997034743801431
sVsafest
p6111
F0.0
sVloses
p6112
F3.0647258868750796e-05
sVleaves
p6113
F3.393297414914758e-05
sVwonders
p6114
F0.0
sVnigga
p6115
F4.998352635445239e-05
sVscared
p6116
F0.00018388355321250478
sVchurch
p6117
F3.0647258868750796e-05
sVsearching
p6118
F6.129451773750159e-05
sV115
p6119
F0.0
sVdisrupting
p6120
F0.0
sVlead
p6121
F0.00023753081904403302
sVwhereas
p6122
F0.00014995057906335717
sV136lbs
p6123
F0.0
sVraise
p6124
F5.8008802457104804e-05
sV250mics
p6125
F0.0
sVrare
p6126
F0.00029990115812671435
sVgetting
p6127
F0.00022887466331151718
sVcolumn
p6128
F4.998352635445239e-05
sVdependence
p6129
F0.0
sVdependency
p6130
F0.00024991763177226195
sVperks
p6131
F0.0
sVswear
p6132
F0.00029990115812671435
sVsweat
p6133
F9.996705270890479e-05
sVurges
p6134
F0.0
sV30ml
p6135
F0.0
sVowl
p6136
F0.0
sVwilderness
p6137
F4.998352635445239e-05
sVmras
p6138
F0.0
sVloner
p6139
F0.0
sVweather
p6140
F1.93362674857016e-05
sVpromise
p6141
F3.0647258868750796e-05
sVfired
p6142
F3.0647258868750796e-05
sVbenzodiazepenes
p6143
F0.0
sVspiral
p6144
F4.998352635445239e-05
sVkidding
p6145
F4.998352635445239e-05
sVed
p6146
F9.194177660625239e-05
sVuncontrollable
p6147
F0.0
sVtriggered
p6148
F4.998352635445239e-05
sVvolume
p6149
F4.998352635445239e-05
sVcontradictory
p6150
F4.998352635445239e-05
sVphenelzineu
p6151
F0.0
sVmade
p6152
F0.000467921533881324
sVwhether
p6153
F4.577493266230344e-05
sVrecord
p6154
F6.129451773750159e-05
sVintimidating
p6155
F4.998352635445239e-05
sVcounteract
p6156
F0.0
sVincredible
p6157
F9.996705270890479e-05
sVboot
p6158
F4.998352635445239e-05
sVetizest
p6159
F0.0
sVillinois
p6160
F0.0
sVbook
p6161
F9.194177660625239e-05
sVsick
p6162
F0.0009996705270890478
sVincredibly
p6163
F0.00024517807095000637
sVconclusion
p6164
F3.0647258868750796e-05
sVjunk
p6165
F6.129451773750159e-05
sVkinds
p6166
F0.00019993410541780957
sVjune
p6167
F0.0
sVultimately
p6168
F0.00014995057906335717
sVinherently
p6169
F0.0
sVmargaret
p6170
F0.0
sVkinda
p6171
F0.00024991763177226195
sVsubreddit
p6172
F0.0
sVriboflavin
p6173
F0.0
sVirony
p6174
F6.129451773750159e-05
s.