(dp0
Vconsider
p1
F0.0005497831974347992
sVrelieve
p2
F0.0
sVfocus
p3
F0.003644256547582485
sVmonth
p4
F0.0008246747961521988
sVfour
p5
F0.00037082350534363645
sVmild
p6
F0.0
sVsleep
p7
F0.0004699302919050477
sVgo
p8
F0.0
sVappetite
p9
F0.001214752182527495
sVforget
p10
F0.0004699302919050477
sVextraneous
p11
F0.001214752182527495
sVselegiline
p12
F0.0
sVmonoamine
p13
F0.0
sVinclude
p14
F0.004468931343734684
sVshoot
p15
F0.0007448218906224473
sVworse
p16
F0.0002748915987173996
sVfluoxetine
p17
F0.0
sVfar
p18
F0.00037082350534363645
sVlater
p19
F0.0009398605838100954
sVfall
p20
F0.0007448218906224473
sVtrouble
p21
F0.0001236078351145455
sVenfp
p22
F0.0
sVexact
p23
F0.0004699302919050477
sVminute
p24
F0.0004699302919050477
sVnausea
p25
F0.0
sVlevel
p26
F0.000247215670229091
sVissue
p27
F0.0004699302919050477
sVlist
p28
F0.0004699302919050477
sVaccidentally
p29
F0.0004699302919050477
sVtry
p30
F0.00037082350534363645
sVadjust
p31
F0.00242950436505499
sVsedation
p32
F0.0
sVenhance
p33
F0.0004699302919050477
sVspeculation
p34
F0.0
sVwellbutrin
p35
F0.0
sVanesthetic
p36
F0.0
sVprevent
p37
F0.0007448218906224473
sVforce
p38
F0.0009398605838100954
sVremeron
p39
F0.0
sVagitate
p40
F0.0
sVjump
p41
F0.0004699302919050477
sVpmc
p42
F0.0
sVeven
p43
F0.000247215670229091
sVsection
p44
F0.0007448218906224473
sVstool
p45
F0.001214752182527495
sVbrief
p46
F0.001214752182527495
sVfind
p47
F0.0
sValprazolam
p48
F0.0
sVbipolar
p49
F0.001214752182527495
sVimproperly
p50
F0.001214752182527495
sVever
p51
F0.0001236078351145455
sValertness
p52
F0.0
sVmovement
p53
F0.0004699302919050477
sVbody
p54
F0.00037082350534363645
sVhasn
p55
F0.0002748915987173996
sVpresynaptic
p56
F0.0
sVloose
p57
F0.0009398605838100954
sVprescribe
p58
F0.006073760912637474
sVselective
p59
F0.0
sVlet
p60
F0.000247215670229091
sVstrong
p61
F0.0004699302919050477
sVfifteen
p62
F0.001214752182527495
sVchange
p63
F0.0004699302919050477
sVextreme
p64
F0.0009398605838100954
sVdry
p65
F0.0014896437812448946
sVsubstance
p66
F0.0
sVphenelzine
p67
F0.0
sVstudy
p68
F0.0037241094531122363
sVlarger
p69
F0.0004699302919050477
sVcompletely
p70
F0.0002748915987173996
sVcommonly
p71
F0.0
sVdosage
p72
F0.00242950436505499
sVtrial
p73
F0.0007448218906224473
sVamount
p74
F0.0009398605838100954
sVect
p75
F0.0
sVusually
p76
F0.0032895120433353332
sVregardless
p77
F0.001214752182527495
sVdanger
p78
F0.0002748915987173996
sVproblematic
p79
F0.001214752182527495
sVmanage
p80
F0.0018797211676201907
sVpsychological
p81
F0.001214752182527495
sVput
p82
F0.0001236078351145455
sVdecrease
p83
F0.001214752182527495
sVestablish
p84
F0.001214752182527495
sVcausal
p85
F0.0
sVeldepryl
p86
F0.0
sVuse
p87
F0.0018541175267181823
sVtcas
p88
F0.0
sVviibryd
p89
F0.0
sVwould
p90
F0.0
sVsnri
p91
F0.0
sVpositive
p92
F0.0004699302919050477
sVtwo
p93
F0.0
sVprocess
p94
F0.0014896437812448946
sVlive
p95
F0.0001236078351145455
sVcall
p96
F0.000247215670229091
sVsharpen
p97
F0.0
sVcare
p98
F0.0007448218906224473
sVtype
p99
F0.001409790875715143
sVtell
p100
F0.0008246747961521988
sVminor
p101
F0.0004699302919050477
sVsort
p102
F0.0001236078351145455
sVchlorpromazine
p103
F0.0
sVthus
p104
F0.0014896437812448946
sVaware
p105
F0.0
sVdegrade
p106
F0.0
sVexcellent
p107
F0.00242950436505499
sVmust
p108
F0.0
sVannoy
p109
F0.001214752182527495
sVfatal
p110
F0.0007448218906224473
sVhour
p111
F0.0004699302919050477
sVscience
p112
F0.0014896437812448946
sVchallenge
p113
F0.001214752182527495
sVwork
p114
F0.0
sVanywhere
p115
F0.0002748915987173996
sVreabsorb
p116
F0.0
sVstabilizer
p117
F0.0
sVlearn
p118
F0.001214752182527495
sVinhibitor
p119
F0.0
sVexample
p120
F0.0035735907833261945
sVmirtazapine
p121
F0.0
sVcontrol
p122
F0.0029792875624897893
sVcompare
p123
F0.0014896437812448946
sVacetylcholine
p124
F0.0
sVgive
p125
F0.000247215670229091
sVhypersomnia
p126
F0.0
sVfuck
p127
F0.001214752182527495
sVagent
p128
F0.002349651459525238
sVhigh
p129
F0.0
sVeffectively
p130
F0.0
sVsomething
p131
F0.0001236078351145455
sVwant
p132
F0.0
sVexclude
p133
F0.001214752182527495
sVoccur
p134
F0.001214752182527495
sVlexapro
p135
F0.0
sVguarantee
p136
F0.001214752182527495
sVrather
p137
F0.0002748915987173996
sVsix
p138
F0.0007448218906224473
sV1
p139
F0.0001236078351145455
sVhypertensive
p140
F0.0
sVvital
p141
F0.001214752182527495
sVndris
p142
F0.0
sVtoxic
p143
F0.0
sVpanic
p144
F0.0
sVnonstop
p145
F0.001214752182527495
sVmassive
p146
F0.0
sVprofile
p147
F0.0007448218906224473
sVokay
p148
F0.0007448218906224473
sVmay
p149
F0.0021013331969472735
sVadvice
p150
F0.001214752182527495
sVearlier
p151
F0.0002748915987173996
sVscoff
p152
F0.00242950436505499
sVreuptake
p153
F0.0
sVcollection
p154
F0.0007448218906224473
sVproduce
p155
F0.0007448218906224473
sVblood
p156
F0.0009398605838100954
sVdevelop
p157
F0.0029792875624897893
sVdata
p158
F0.001214752182527495
sVresponse
p159
F0.00242950436505499
sVbaseline
p160
F0.001214752182527495
sVremember
p161
F0.0001236078351145455
sVeffective
p162
F0.012147521825274949
sVbind
p163
F0.0
sVtetracyclic
p164
F0.0
sVgap
p165
F0.003644256547582485
sVcannot
p166
F0.0008246747961521988
sVupside
p167
F0.0007448218906224473
sVcorrelation
p168
F0.0
sVpleasure
p169
F0.0004699302919050477
sVaddiction
p170
F0.0
sVbupropion
p171
F0.0
sVse
p172
F0.0007448218906224473
sVserotonergic
p173
F0.0
sVrestriction
p174
F0.0
sVhelp
p175
F0.00037082350534363645
sVblocker
p176
F0.001214752182527495
sVslouch
p177
F0.0
sVtyramine
p178
F0.0
sVmidnight
p179
F0.0007448218906224473
sVcourse
p180
F0.0002748915987173996
sVemsam
p181
F0.0
sVsuffer
p182
F0.0007448218906224473
sVchemical
p183
F0.00242950436505499
sVdifference
p184
F0.0007448218906224473
sVrapidly
p185
F0.0004699302919050477
sVantipsychotic
p186
F0.0
sVncbi
p187
F0.0
sVll
p188
F0.000988862680916364
sVactually
p189
F0.0001236078351145455
sVbetter
p190
F0.000247215670229091
sVresort
p191
F0.0
sVaurorix
p192
F0.0
sVchoose
p193
F0.0004699302919050477
sVfade
p194
F0.0014896437812448946
sVpersist
p195
F0.001214752182527495
sVamitriptyline
p196
F0.0
sVprecipitate
p197
F0.0
sVbout
p198
F0.001214752182527495
sVmain
p199
F0.0001236078351145455
sVmight
p200
F0.0008652548458018183
sVnon
p201
F0.000247215670229091
sVgood
p202
F0.0
sVcombination
p203
F0.0004699302919050477
sVfood
p204
F0.0008246747961521988
sVpropose
p205
F0.001214752182527495
sVsafe
p206
F0.0009398605838100954
sVinsomnia
p207
F0.0
sVprimary
p208
F0.0014896437812448946
sVbreak
p209
F0.0007448218906224473
sVmention
p210
F0.001409790875715143
sVadrenaline
p211
F0.0
sVtherapy
p212
F0.00242950436505499
sVday
p213
F0.0
sVsynaptic
p214
F0.0
sVsusceptibility
p215
F0.0
sVterm
p216
F0.0004699302919050477
sVseveral
p217
F0.0007448218906224473
sVindeed
p218
F0.0009398605838100954
sVedit
p219
F0.001214752182527495
sVfully
p220
F0.0005497831974347992
sVconcerta
p221
F0.0
sVexplode
p222
F0.0
sVlamictal
p223
F0.0
sVentirely
p224
F0.0002748915987173996
sVhigher
p225
F0.0002748915987173996
sVside
p226
F0.0001236078351145455
sVmean
p227
F0.0010995663948695983
sVsignificantly
p228
F0.0
sVweight
p229
F0.0010995663948695983
sVgeneration
p230
F0.0
sVhard
p231
F0.0002748915987173996
sVreduce
p232
F0.007448218906224473
sVneuroleptic
p233
F0.0
sVdeficiency
p234
F0.0
sVyear
p235
F0.0001236078351145455
sVhappen
p236
F0.0002748915987173996
sVsexual
p237
F0.006073760912637474
sVer
p238
F0.0004699302919050477
sVcategory
p239
F0.0007448218906224473
sVlarge
p240
F0.0
sVsince
p241
F0.000247215670229091
sVincrease
p242
F0.006703397015602026
sVmedicine
p243
F0.001214752182527495
sVgov
p244
F0.001214752182527495
sVcause
p245
F0.0014832940213745458
sVassociate
p246
F0.006703397015602026
sVhydroxyzine
p247
F0.0
sVmoclobemide
p248
F0.0
sVlittle
p249
F0.0
sVpossibility
p250
F0.0007448218906224473
sVquite
p251
F0.0001236078351145455
sVreason
p252
F0.0008246747961521988
sVbase
p253
F0.0005497831974347992
sVsurely
p254
F0.001214752182527495
sVstruggle
p255
F0.0007448218906224473
sVbiological
p256
F0.0
sVask
p257
F0.000247215670229091
sVescitralopram
p258
F0.0
sVinadequately
p259
F0.0
sVgenerate
p260
F0.001214752182527495
sVfret
p261
F0.0
sVinteraction
p262
F0.001214752182527495
sVcould
p263
F0.0
sVisn
p264
F0.000247215670229091
sVsignature
p265
F0.001214752182527495
sVstimulate
p266
F0.0
sVfrequent
p267
F0.00242950436505499
sVfirst
p268
F0.000494431340458182
sVmajor
p269
F0.0005497831974347992
sVprobability
p270
F0.0
sVfeel
p271
F0.000494431340458182
sVpowerful
p272
F0.001214752182527495
sVnumber
p273
F0.0004699302919050477
sVhey
p274
F0.0007448218906224473
sVdownside
p275
F0.0
sVanother
p276
F0.0006180391755727274
sVcarry
p277
F0.0001236078351145455
sVimpossible
p278
F0.0007448218906224473
sVtomorrow
p279
F0.001214752182527495
sVdysfunction
p280
F0.0
sVguess
p281
F0.0004699302919050477
sVbite
p282
F0.0008246747961521988
sVleast
p283
F0.0
sVpsychotic
p284
F0.001214752182527495
sVattack
p285
F0.0010995663948695983
sVassumption
p286
F0.003644256547582485
sVneurotransmitter
p287
F0.0
sVlol
p288
F0.001214752182527495
sVheadache
p289
F0.00485900873010998
sVway
p290
F0.000247215670229091
sVrelationship
p291
F0.0004699302919050477
sVexactly
p292
F0.0005497831974347992
sVlower
p293
F0.0002748915987173996
sVserotonin
p294
F0.0
sVenvironmental
p295
F0.0
sVpart
p296
F0.0010995663948695983
sVtrasodone
p297
F0.0
sVpulse
p298
F0.0
sVsymptom
p299
F0.0
sV10
p300
F0.00037082350534363645
sVanxiety
p301
F0.034013061110769856
sVcorrelate
p302
F0.0
sVconstipation
p303
F0.001214752182527495
sVlargely
p304
F0.0
sVschizophrenia
p305
F0.001214752182527495
sVsedate
p306
F0.0007448218906224473
sVdecompose
p307
F0.0
sVtofranil
p308
F0.0
sVmotivation
p309
F0.0
sVexert
p310
F0.0
sVcymbalta
p311
F0.0
sVmind
p312
F0.0004699302919050477
sVsay
p313
F0.000494431340458182
sVneed
p314
F0.0001236078351145455
sVseem
p315
F0.000988862680916364
sVunaffected
p316
F0.0
sVdepressive
p317
F0.0
sVafraid
p318
F0.0002748915987173996
sVrout
p319
F0.0
sVritalin
p320
F0.0
sVmechanism
p321
F0.0
sVnote
p322
F0.0010995663948695983
sVpotential
p323
F0.001214752182527495
sVtransmit
p324
F0.0
sVperformance
p325
F0.0004699302919050477
sVeffexor
p326
F0.0
sVeffectiveness
p327
F0.0
sVconvulsive
p328
F0.0
sVaggravate
p329
F0.0
sVbegin
p330
F0.0009398605838100954
sVsure
p331
F0.0008246747961521988
sVnormal
p332
F0.0009398605838100954
sVclonazepam
p333
F0.0
sVquote
p334
F0.0007448218906224473
sVmethylphenidate
p335
F0.0
sVreach
p336
F0.0004699302919050477
sVelectro
p337
F0.0
sVreact
p338
F0.0007448218906224473
sVbeta
p339
F0.001214752182527495
sVeight
p340
F0.0004699302919050477
sVsignificant
p341
F0.001214752182527495
sVpair
p342
F0.0007448218906224473
sVextremely
p343
F0.0014896437812448946
sVclass
p344
F0.0013744579935869978
sVaverage
p345
F0.0007448218906224473
sVatypical
p346
F0.003644256547582485
sVcover
p347
F0.0005497831974347992
sVdigress
p348
F0.0
sVtalk
p349
F0.0004699302919050477
sVmonotherapy
p350
F0.0
sVtypically
p351
F0.006073760912637474
sVfact
p352
F0.0004699302919050477
sVgaba
p353
F0.0
sVshow
p354
F0.0001236078351145455
sVrandom
p355
F0.0029792875624897893
sVcategorize
p356
F0.0
sVvistaril
p357
F0.0
sVelevate
p358
F0.0
sVtiredness
p359
F0.0
sVnlm
p360
F0.0
sVpostsynaptic
p361
F0.0
sVslow
p362
F0.0002748915987173996
sVnegligible
p363
F0.0
sVenzyme
p364
F0.0
sVfactor
p365
F0.00242950436505499
sV8
p366
F0.0001236078351145455
sVadequate
p367
F0.0
sVregularly
p368
F0.001214752182527495
sVinfo
p369
F0.001214752182527495
sVstop
p370
F0.000247215670229091
sVredditor
p371
F0.0
sVanxiolytic
p372
F0.0
sVnasty
p373
F0.0007448218906224473
sVtecas
p374
F0.0
sVresolve
p375
F0.0004699302919050477
sVbrain
p376
F0.002819581751430286
sVboost
p377
F0.0
sVpatch
p378
F0.0007448218906224473
sVbad
p379
F0.000247215670229091
sVcommon
p380
F0.001409790875715143
sVcontain
p381
F0.001214752182527495
sVrelease
p382
F0.0009398605838100954
sVkill
p383
F0.0002748915987173996
sVdizziness
p384
F0.006073760912637474
sVgabapentin
p385
F0.0
sVrespond
p386
F0.002234465671867342
sVset
p387
F0.0001236078351145455
sVtransdermal
p388
F0.0
sVdump
p389
F0.0007448218906224473
sVexpel
p390
F0.0
sVfloat
p391
F0.0007448218906224473
sVsensitivity
p392
F0.0
sVpotent
p393
F0.0
sVintensity
p394
F0.00242950436505499
sVindividual
p395
F0.0009398605838100954
sVresult
p396
F0.0014896437812448946
sVfail
p397
F0.0008246747961521988
sVsurgery
p398
F0.00242950436505499
sVbest
p399
F0.000247215670229091
sVsubject
p400
F0.003644256547582485
sVstill
p401
F0.0
sVinhibitory
p402
F0.0
sVarguably
p403
F0.0
sVhorribly
p404
F0.0
sVplease
p405
F0.0001236078351145455
sVimipramine
p406
F0.0
sVtend
p407
F0.006073760912637474
sVvarious
p408
F0.0004699302919050477
sVhorrible
p409
F0.0007448218906224473
sVprobably
p410
F0.0010995663948695983
sVneither
p411
F0.0007448218906224473
sVtolerance
p412
F0.001214752182527495
sVacross
p413
F0.0004699302919050477
sVavailable
p414
F0.0009398605838100954
sVcomparable
p415
F0.0
sVprior
p416
F0.001214752182527495
sVhowever
p417
F0.004468931343734684
sVhypothesis
p418
F0.001214752182527495
sVvenlafaxine
p419
F0.0
sVarticle
p420
F0.0009398605838100954
sVcome
p421
F0.00037082350534363645
sVcleave
p422
F0.0
sVlast
p423
F0.0001236078351145455
sVreverse
p424
F0.0004699302919050477
sVmany
p425
F0.0
sVvilazodone
p426
F0.0
sVpredispose
p427
F0.0
sVmildly
p428
F0.0
sVlogic
p429
F0.001214752182527495
sVargue
p430
F0.001214752182527495
sVinherant
p431
F0.0
sVpoint
p432
F0.0001236078351145455
sVwonder
p433
F0.0004699302919050477
sVseizure
p434
F0.0
sVlaugh
p435
F0.0004699302919050477
sVrespect
p436
F0.0004699302919050477
sVbasis
p437
F0.0005497831974347992
sVaddition
p438
F0.00728851309516497
sVoxidase
p439
F0.0
sVdue
p440
F0.0007448218906224473
sVreduction
p441
F0.001214752182527495
sVtreat
p442
F0.004699302919050476
sVssri
p443
F0.0
sVlife
p444
F0.0001236078351145455
sValongside
p445
F0.0007448218906224473
sVessentially
p446
F0.0
sVelse
p447
F0.00037082350534363645
sVcontroller
p448
F0.0
sVlift
p449
F0.0007448218906224473
sVgamble
p450
F0.001214752182527495
sVoverdose
p451
F0.003644256547582485
sVlamotrigine
p452
F0.0
sVcase
p453
F0.0016493495923043976
sVinhibit
p454
F0.0
sVlook
p455
F0.0001236078351145455
sVunlike
p456
F0.001409790875715143
sVvalue
p457
F0.0002748915987173996
sVsometimes
p458
F0.0002748915987173996
sVreceive
p459
F0.00242950436505499
sVnear
p460
F0.0001236078351145455
sVerror
p461
F0.001214752182527495
sVwild
p462
F0.0004699302919050477
sVsituation
p463
F0.0007448218906224473
sVprecede
p464
F0.0
sValmost
p465
F0.0001236078351145455
sVneuron
p466
F0.0
sVside_effect
p467
F0.0
sVconfound
p468
F0.0
sVcharacterize
p469
F0.0
sVexperience
p470
F0.0007448218906224473
sVactivity
p471
F0.003644256547582485
sVconcentration
p472
F0.0014896437812448946
sVdisappear
p473
F0.0014896437812448946
sVdifferent
p474
F0.0002748915987173996
sVparticipant
p475
F0.0
sVseverity
p476
F0.0
sVauthor
p477
F0.0014896437812448946
sVsuggest
p478
F0.00242950436505499
sVnardil
p479
F0.0
sVreport
p480
F0.0007448218906224473
sVpotentially
p481
F0.001214752182527495
sVsertraline
p482
F0.0
sVlithium
p483
F0.0
sVdifficult
p484
F0.0009398605838100954
sVdevelopment
p485
F0.0007448218906224473
sVnih
p486
F0.0
sVdrowsiness
p487
F0.0
sVtemporary
p488
F0.003644256547582485
sVsee
p489
F0.0006180391755727274
sVdisagree
p490
F0.0
sVeffect
p491
F0.0014832940213745458
sVflatulence
p492
F0.0
sVaction
p493
F0.0007448218906224473
sVfrequently
p494
F0.00242950436505499
sVantagonize
p495
F0.0
sVscarcely
p496
F0.0
sVabnormality
p497
F0.0
sVscenario
p498
F0.0
sVolder
p499
F0.0002748915987173996
sVantihistamine
p500
F0.0
sVwell
p501
F0.0
sVperson
p502
F0.0013744579935869978
sVsevere
p503
F0.0037241094531122363
sVwithout
p504
F0.0
sVreward
p505
F0.0007448218906224473
sVlatter
p506
F0.00242950436505499
sVexcessive
p507
F0.0004699302919050477
sVdose
p508
F0.00242950436505499
sVpsych
p509
F0.0
sVdopamine
p510
F0.0
sVdeath
p511
F0.0004699302919050477
sVimprovement
p512
F0.0014896437812448946
sVsource
p513
F0.0004699302919050477
sVgreatly
p514
F0.001214752182527495
sVcombine
p515
F0.002234465671867342
sVtreatment
p516
F0.003644256547582485
sVwin
p517
F0.0009398605838100954
sVelectrical
p518
F0.00242950436505499
sVaround
p519
F0.000247215670229091
sVloss
p520
F0.002234465671867342
sVbig
p521
F0.0001236078351145455
sVpossible
p522
F0.0002748915987173996
sVbuspirone
p523
F0.0
sVpossibly
p524
F0.0002748915987173996
sVelavil
p525
F0.0
sVknow
p526
F0.0017305096916036366
sVatrophy
p527
F0.0
sVlike
p528
F0.0
sVdesire
p529
F0.00242950436505499
sVacute
p530
F0.0
sVd
p531
F0.0
sVsignal
p532
F0.0014896437812448946
sVhonestly
p533
F0.0007448218906224473
sVmanifest
p534
F0.001214752182527495
sVspecific
p535
F0.0004699302919050477
sVzoloft
p536
F0.0
sVbuspar
p537
F0.0
sVbecome
p538
F0.0001236078351145455
sVpassionate
p539
F0.0004699302919050477
sVdisorder
p540
F0.00485900873010998
sVhealthy
p541
F0.0004699302919050477
sVtherapeutic
p542
F0.0
sVklonopin
p543
F0.0
sVright
p544
F0.000494431340458182
sVnamely
p545
F0.0
sVabsolutely
p546
F0.0002748915987173996
sVinteract
p547
F0.00242950436505499
sVback
p548
F0.0001236078351145455
sVpaxil
p549
F0.0
sVduration
p550
F0.0
sVlethargy
p551
F0.0
sVgradually
p552
F0.0
sVmood
p553
F0.0037241094531122363
sVlead
p554
F0.0005497831974347992
sVbenzodiazepine
p555
F0.0
sVavoid
p556
F0.0002748915987173996
sVbenefit
p557
F0.00485900873010998
sVper
p558
F0.0007448218906224473
sVcrisis
p559
F0.0
sVeverything
p560
F0.000247215670229091
sVcritical
p561
F0.0007448218906224473
sVpmc39458
p562
F0.0
sVmaoi
p563
F0.0
sVmoderate
p564
F0.001214752182527495
sVeither
p565
F0.00037082350534363645
sVpatient
p566
F0.00242950436505499
sVslight
p567
F0.0007448218906224473
sVmiscellaneous
p568
F0.001214752182527495
sVpressure
p569
F0.00242950436505499
sValthough
p570
F0.0016493495923043976
sVsixty
p571
F0.0
sVintense
p572
F0.0007448218906224473
sVcomorbid
p573
F0.0
sVlifestyle
p574
F0.001214752182527495
sVanything
p575
F0.0001236078351145455
sVnorepinephrine
p576
F0.0
sVdependency
p577
F0.00242950436505499
sVsnris
p578
F0.0
sVsweat
p579
F0.001214752182527495
sVmouth
p580
F0.0009398605838100954
sVslightly
p581
F0.0005497831974347992
sVblock
p582
F0.005213753234357131
sVduloxetine
p583
F0.0
sVpreviously
p584
F0.001214752182527495
sVwithin
p585
F0.0002748915987173996
sVmras
p586
F0.0
sVthree
p587
F0.0006180391755727274
sVappropriate
p588
F0.00242950436505499
sVreceptor
p589
F0.0
sVdetermine
p590
F0.001214752182527495
sVndri
p591
F0.0
sVprozac
p592
F0.0
sVaren
p593
F0.0001236078351145455
sVsupport
p594
F0.0014896437812448946
sVquestion
p595
F0.0008246747961521988
sVgenetic
p596
F0.0
sVlong
p597
F0.0
sVstart
p598
F0.0002748915987173996
sVlow
p599
F0.0005497831974347992
sVlot
p600
F0.0
sVbiggest
p601
F0.0007448218906224473
sVarousal
p602
F0.0
sVfunction
p603
F0.001214752182527495
sVoffer
p604
F0.0004699302919050477
sVlorazepam
p605
F0.0
sVvolume
p606
F0.006073760912637474
sVgain
p607
F0.0014896437812448946
sVphenelzineu
p608
F0.0
sVeat
p609
F0.0002748915987173996
sVcount
p610
F0.0007448218906224473
sVwhether
p611
F0.0001236078351145455
sVinside
p612
F0.0001236078351145455
sVmaximum
p613
F0.001214752182527495
sVrecord
p614
F0.0007448218906224473
sVtoday
p615
F0.0005497831974347992
sVproblem
p616
F0.0010995663948695983
sVparoxetine
p617
F0.0
sVhaloperidol
p618
F0.0
sVtricyclic
p619
F0.0
sVwhatever
p620
F0.0005497831974347992
sVcertain
p621
F0.00037082350534363645
sVunsafe
p622
F0.001214752182527495
sVdoesn
p623
F0.000247215670229091
sVevidence
p624
F0.0007448218906224473
sVcure
p625
F0.001214752182527495
sVexist
p626
F0.0007448218906224473
sVwithdrawal
p627
F0.0
sVphysical
p628
F0.0
sVtic
p629
F0.0
sVdiarrhea
p630
F0.00242950436505499
sVrole
p631
F0.001214752182527495
sVincredibly
p632
F0.0007448218906224473
sVstimulant
p633
F0.0
sVconclusion
p634
F0.002234465671867342
sVirritability
p635
F0.0
sVxanax
p636
F0.0
sVdrift
p637
F0.0
sVativan
p638
F0.0
sVhelpful
p639
F0.001214752182527495
sVchance
p640
F0.0005497831974347992
sVimportant
p641
F0.0007448218906224473
sVatarax
p642
F0.0
sVamphetamine
p643
F0.0
sVtricky
p644
F0.001214752182527495
sVunbind
p645
F0.0
sVhippocampal
p646
F0.0
sVassume
p647
F0.001214752182527495
sVdaily
p648
F0.00485900873010998
sVmimic
p649
F0.001214752182527495
sV2007
p650
F0.0
sVtime
p651
F0.0
sVserious
p652
F0.001409790875715143
s.