(dp0
Vantipsychotics
p1
F0.0
sVresults
p2
F0.0008931807224943982
sVmonth
p3
F0.0003296464293562312
sVfour
p4
F0.0001482289079625647
sVugh
p5
F0.0
sVantagonize
p6
F0.0
sVsuspected
p7
F0.0
sVgo
p8
F0.0
sVfollow
p9
F0.0003296464293562312
sVhate
p10
F0.00291343003126513
sVissues
p11
F0.0017863614449887964
sVlayers
p12
F0.00582686006253026
sVtv
p13
F0.001456715015632565
sVside_effects
p14
F0.0
sVtechnique
p15
F0.00291343003126513
sVsequestered
p16
F0.0
sVstable
p17
F0.01165372012506052
sVstabilizing
p18
F0.0
sVworth
p19
F0.0011270685862763339
sVcase
p20
F0.0006592928587124624
sVappointment
p21
F0.001456715015632565
sVrisk
p22
F0.0005635342931381669
sVfar
p23
F0.0002964578159251294
sVrise
p24
F0.0008931807224943982
sVnone
p25
F0.0005635342931381669
sVemergencies
p26
F0.001456715015632565
sVmanic
p27
F0.004370145046897695
sVmania
p28
F0.0
sVworst
p29
F0.0008931807224943982
sVaccuse
p30
F0.0
sVfall
p31
F0.0008931807224943982
sVtelling
p32
F0.0003296464293562312
sVnausea
p33
F0.0
sVtreating
p34
F0.001456715015632565
sVyikes
p35
F0.0
sVschool
p36
F0.001456715015632565
sVgrueling
p37
F0.0
sVexperiencing
p38
F0.0
sVaccidentally
p39
F0.0005635342931381669
sVtry
p40
F0.0005929156318502588
sVsettle
p41
F0.0005635342931381669
sVsmall
p42
F0.0001482289079625647
sVsleep
p43
F0.0028176714656908347
sVguy
p44
F0.0005635342931381669
sVenjoy
p45
F0.0005635342931381669
sVchew
p46
F0.001456715015632565
sVcap
p47
F0.001456715015632565
sVforce
p48
F0.0005635342931381669
sVphenibut
p49
F0.0
sVdealing
p50
F0.001456715015632565
sVd
p51
F0.0
sVlikely
p52
F0.001456715015632565
sVgummies
p53
F0.0
sVeating
p54
F0.0017863614449887964
sVkratom
p55
F0.0
sVhopefully
p56
F0.0
sVeven
p57
F0.0013340601716630824
sVsun
p58
F0.0003296464293562312
sVemotions
p59
F0.001456715015632565
sVfind
p60
F0.0
sVbipolar
p61
F0.00582686006253026
sVsuspect
p62
F0.0008931807224943982
sVnew
p63
F0.0
sVever
p64
F0.0002964578159251294
sVtold
p65
F0.0005635342931381669
sVbody
p66
F0.0002964578159251294
sVmed
p67
F0.0026795421674831944
sVfull
p68
F0.0
sVnever
p69
F0.0
sVmeh
p70
F0.0
sVhours
p71
F0.0006592928587124624
sVshouldn
p72
F0.0005635342931381669
sVlet
p73
F0.0002964578159251294
sVdownvote
p74
F0.0
sV100
p75
F0.0005635342931381669
sVwait
p76
F0.0003296464293562312
sVgreat
p77
F0.0
sVsubstance
p78
F0.0
sVthirty
p79
F0.0008931807224943982
sV32
p80
F0.0005635342931381669
sVstudy
p81
F0.0008931807224943982
sVstudied
p82
F0.001456715015632565
sVopiate
p83
F0.0
sVunipolar
p84
F0.0
sVdiagnosed
p85
F0.0
sVsmoke
p86
F0.0008931807224943982
sVusually
p87
F0.0022541371725526677
sVweird
p88
F0.0011270685862763339
sVtoxicity
p89
F0.0
sVmakes
p90
F0.0005929156318502588
sVfreelance
p91
F0.0
sVfantastic
p92
F0.0008931807224943982
sVlove
p93
F0.0003296464293562312
sVstray
p94
F0.0
sVquestioned
p95
F0.0
sVfeelings
p96
F0.0008931807224943982
sVbrought
p97
F0.0001482289079625647
sVseroquel
p98
F0.0
sVcontrols
p99
F0.0008931807224943982
sVuse
p100
F0.0001482289079625647
sVtakes
p101
F0.0006592928587124624
sVworking
p102
F0.0
sVsuper
p103
F0.0008931807224943982
sVhospital
p104
F0.0008931807224943982
sVvisit
p105
F0.0011270685862763339
sVnegative
p106
F0.0008931807224943982
sVintense
p107
F0.0008931807224943982
sVcall
p108
F0.0002964578159251294
sVcalm
p109
F0.00291343003126513
sVdepakote
p110
F0.0
sVtaken
p111
F0.0004446867238876941
sVindiana
p112
F0.0
sVtell
p113
F0.0006592928587124624
sVsort
p114
F0.0001482289079625647
sVflat
p115
F0.0003296464293562312
sVknows
p116
F0.0005635342931381669
sVstarted
p117
F0.0003296464293562312
sVhaha
p118
F0.00291343003126513
sVchocolate
p119
F0.0008931807224943982
sV99
p120
F0.0008931807224943982
sVglass
p121
F0.0001482289079625647
sVteaser
p122
F0.0
sVeverywhere
p123
F0.0005635342931381669
sVstick
p124
F0.0008931807224943982
sVparticular
p125
F0.0003296464293562312
sVknown
p126
F0.0006592928587124624
sVtolerate
p127
F0.0
sVhold
p128
F0.0003296464293562312
sVeasiest
p129
F0.0
sVasperger
p130
F0.0
sVmg
p131
F0.0
sVma
p132
F0.001456715015632565
sVwork
p133
F0.0
sVunfortunately
p134
F0.001456715015632565
sVstabilizer
p135
F0.0
sVresembles
p136
F0.0
sVmeet
p137
F0.0008931807224943982
sVroot
p138
F0.0008931807224943982
sVweaker
p139
F0.001456715015632565
sVantagonists
p140
F0.0
sVgive
p141
F0.0002964578159251294
sVawesome
p142
F0.001456715015632565
sVfuck
p143
F0.004370145046897695
sVaccept
p144
F0.0005635342931381669
sVterrible
p145
F0.0011270685862763339
sVhigh
p146
F0.0
sVheard
p147
F0.0003296464293562312
sVsomething
p148
F0.0004446867238876941
sVwant
p149
F0.0
sVsense
p150
F0.0001482289079625647
sV10mg
p151
F0.0
sVrescue
p152
F0.0008931807224943982
sVpaws
p153
F0.0
sVend
p154
F0.0002964578159251294
sVawkward
p155
F0.0005635342931381669
sVterribly
p156
F0.0008931807224943982
sV1
p157
F0.0001482289079625647
sVtill
p158
F0.0017863614449887964
sVamazing
p159
F0.003572722889977593
sVoccasionally
p160
F0.0005635342931381669
sVpure
p161
F0.0003296464293562312
sVtoxic
p162
F0.0
sVinstead
p163
F0.0005635342931381669
sVtoddler
p164
F0.001456715015632565
sVpanic
p165
F0.0
sVpizza
p166
F0.001456715015632565
sVbadly
p167
F0.0003296464293562312
sVproduct
p168
F0.0017863614449887964
sVcocktail
p169
F0.001456715015632565
sVmay
p170
F0.0001482289079625647
sVcranky
p171
F0.0
sVadvice
p172
F0.00291343003126513
sVearlier
p173
F0.0003296464293562312
sVlong
p174
F0.0
sVball
p175
F0.0005635342931381669
sVnormalcy
p176
F0.0
sVabuse
p177
F0.001456715015632565
sVcoming
p178
F0.0001482289079625647
sVdrastic
p179
F0.0
sVpleaded
p180
F0.0
sVwhenever
p181
F0.0008931807224943982
sVlight
p182
F0.0003296464293562312
sVcounter
p183
F0.0017863614449887964
sVcomplexity
p184
F0.001456715015632565
sVprogressively
p185
F0.0
sVkeeps
p186
F0.0005635342931381669
sVevery
p187
F0.0005929156318502588
sVdream
p188
F0.0017863614449887964
sVmake
p189
F0.0002964578159251294
sVtypical
p190
F0.0008931807224943982
sVlsd
p191
F0.0
sVinsight
p192
F0.001456715015632565
sVsoon
p193
F0.0002964578159251294
sVyears
p194
F0.0032964642935623123
sVmixing
p195
F0.001456715015632565
sVatypicals
p196
F0.0
sVincluding
p197
F0.0005635342931381669
sVshake
p198
F0.0008931807224943982
sVmentioned
p199
F0.001456715015632565
sVhell
p200
F0.0005635342931381669
sVstill
p201
F0.0
sVbunch
p202
F0.0005635342931381669
sV20
p203
F0.0004446867238876941
sVthank
p204
F0.0005635342931381669
sVfit
p205
F0.0003296464293562312
sVpersonal
p206
F0.0003296464293562312
sVll
p207
F0.0004446867238876941
sVrecreational
p208
F0.001456715015632565
sVactually
p209
F0.0005929156318502588
sVdestroyed
p210
F0.001456715015632565
sVpolicy
p211
F0.001456715015632565
sVmight
p212
F0.0001482289079625647
sVerowid
p213
F0.0
sVhappened
p214
F0.0003296464293562312
sVeventually
p215
F0.001456715015632565
sVgood
p216
F0.0
sVseeking
p217
F0.001456715015632565
sVfood
p218
F0.0003296464293562312
sVmaterial
p219
F0.0008931807224943982
sVinsomnia
p220
F0.0
sVbreak
p221
F0.0008931807224943982
sVhalf
p222
F0.0002964578159251294
sVson
p223
F0.0003296464293562312
sVkilled
p224
F0.0005635342931381669
sVsucked
p225
F0.001456715015632565
sVterm
p226
F0.0005635342931381669
sVlithium
p227
F0.0
sVedit
p228
F0.001456715015632565
sValways
p229
F0.0
sVdidn
p230
F0.0002964578159251294
sVconcerta
p231
F0.0
sVlamictal
p232
F0.0
sVturns
p233
F0.0003296464293562312
sVinstability
p234
F0.0
sVwent
p235
F0.0002964578159251294
sVreactions
p236
F0.0
sVlifted
p237
F0.001456715015632565
sVen
p238
F0.0008931807224943982
sVbueno
p239
F0.0
sVmental
p240
F0.001456715015632565
sVweight
p241
F0.0003296464293562312
sVfish
p242
F0.0006592928587124624
sVyeah
p243
F0.004465903612471992
sV40mg
p244
F0.0
sVextended
p245
F0.001456715015632565
sVyear
p246
F0.0001482289079625647
sVpills
p247
F0.004370145046897695
sVer
p248
F0.0022541371725526677
sVliving
p249
F0.0001482289079625647
sVcanvas
p250
F0.0008931807224943982
sVmedications
p251
F0.0
sVmissed
p252
F0.0008931807224943982
sVgod
p253
F0.0008931807224943982
sVsince
p254
F0.0004446867238876941
sVresearch
p255
F0.001456715015632565
sVacting
p256
F0.0008931807224943982
sVsane
p257
F0.001456715015632565
sVhealth
p258
F0.001456715015632565
sV7
p259
F0.0003296464293562312
sVmedicine
p260
F0.001456715015632565
sVgot
p261
F0.0005929156318502588
sVcause
p262
F0.0004446867238876941
sVinteractions
p263
F0.0
sVlittle
p264
F0.0
sVdrives
p265
F0.0005635342931381669
sVcompletely
p266
F0.0003296464293562312
sVbase
p267
F0.0003296464293562312
sVput
p268
F0.0002964578159251294
sVorg
p269
F0.004370145046897695
sVwanted
p270
F0.0008931807224943982
sVbeginning
p271
F0.0002964578159251294
sVcard
p272
F0.0008931807224943982
sVcare
p273
F0.0017863614449887964
sVcouldn
p274
F0.0003296464293562312
sVstarts
p275
F0.0003296464293562312
sVcould
p276
F0.0
sVomit
p277
F0.0
sVdays
p278
F0.0013185857174249247
sVtimes
p279
F0.0
sVthing
p280
F0.0004446867238876941
sVplace
p281
F0.0001482289079625647
sVisn
p282
F0.0001482289079625647
sVthink
p283
F0.001037602355737953
sVfirst
p284
F0.0001482289079625647
sVworse
p285
F0.0003296464293562312
sVseeming
p286
F0.001456715015632565
sVblown
p287
F0.001456715015632565
sVfeel
p288
F0.0007411445398128237
sVimprovements
p289
F0.001456715015632565
sVdone
p290
F0.0007411445398128237
sVripples
p291
F0.0
sVwasn
p292
F0.0001482289079625647
sVadderal
p293
F0.0
sVprecisely
p294
F0.0
sVkoi
p295
F0.0
sVpasses
p296
F0.0008931807224943982
sVguess
p297
F0.0005635342931381669
sVnecessarily
p298
F0.0008931807224943982
sVsadly
p299
F0.0
sVmonkey
p300
F0.0008931807224943982
sVintention
p301
F0.0
sVtop
p302
F0.0006592928587124624
sVslept
p303
F0.001456715015632565
sVleast
p304
F0.0
sVheights
p305
F0.001456715015632565
sVanyone
p306
F0.0009889392880686936
sVpaint
p307
F0.0016906028794145007
sVattack
p308
F0.0006592928587124624
sV2
p309
F0.0007411445398128237
sVtea
p310
F0.0005635342931381669
sVfriend
p311
F0.0001482289079625647
sVglucose
p312
F0.0
sVlot
p313
F0.0
sVrelationship
p314
F0.0005635342931381669
sVfasting
p315
F0.0
sVexactly
p316
F0.0003296464293562312
sVadrenergic
p317
F0.0
sVtook
p318
F0.0007411445398128237
sVpart
p319
F0.0006592928587124624
sVhaven
p320
F0.0003296464293562312
sVboyfriend
p321
F0.001456715015632565
sV13
p322
F0.0005635342931381669
sVgrew
p323
F0.001456715015632565
sV14
p324
F0.0005635342931381669
sVgotten
p325
F0.001456715015632565
sV10x
p326
F0.0
sVbed
p327
F0.0017863614449887964
sVproject
p328
F0.0005635342931381669
sVstressor
p329
F0.0
sVrisks
p330
F0.0
sVloves
p331
F0.0008931807224943982
sVmaybe
p332
F0.0
sVfeeling
p333
F0.0003296464293562312
sVpriority
p334
F0.0
sVbenztropine
p335
F0.0
sVlook
p336
F0.0007411445398128237
sVprn
p337
F0.0
sVturned
p338
F0.0001482289079625647
sVmarijuana
p339
F0.001456715015632565
sVsad
p340
F0.0011270685862763339
sVsay
p341
F0.0004446867238876941
sVbuy
p342
F0.0005635342931381669
sVpay
p343
F0.0001482289079625647
sVadhd
p344
F0.0
sVneed
p345
F0.0002964578159251294
sVconcentration
p346
F0.0008931807224943982
sVoccupied
p347
F0.0
sVrelatively
p348
F0.001456715015632565
sVscrew
p349
F0.0017863614449887964
sVantagonizes
p350
F0.0
sVnights
p351
F0.0008931807224943982
sVdepending
p352
F0.001456715015632565
sVdestabilizing
p353
F0.0
sVself
p354
F0.0001482289079625647
sVnote
p355
F0.0003296464293562312
sVrecommended
p356
F0.001456715015632565
sVpotential
p357
F0.001456715015632565
sVfrontline
p358
F0.0
sVsure
p359
F0.0003296464293562312
sVnormal
p360
F0.0005635342931381669
sVclonazepam
p361
F0.0
sVscrewing
p362
F0.0
sVknew
p363
F0.0011270685862763339
sVinsanity
p364
F0.0
sVregular
p365
F0.001456715015632565
sVexperiences
p366
F0.0017863614449887964
sVphase
p367
F0.001456715015632565
sVtired
p368
F0.0005635342931381669
sVclass
p369
F0.0003296464293562312
sVepisode
p370
F0.001456715015632565
sVgrams
p371
F0.0
sVbackordered
p372
F0.0
sVmedical
p373
F0.0005635342931381669
sVsometimes
p374
F0.0006592928587124624
sVdisease
p375
F0.0008931807224943982
sVface
p376
F0.0003296464293562312
sVlooked
p377
F0.0008931807224943982
sVdefinitely
p378
F0.0011270685862763339
sVexp
p379
F0.0
sVdystonic
p380
F0.0
sVpainting
p381
F0.0016906028794145007
sVfact
p382
F0.0005635342931381669
sV95501
p383
F0.0
sVplease
p384
F0.0001482289079625647
sVimpasto
p385
F0.0
sVcheap
p386
F0.0008931807224943982
sVvistaril
p387
F0.0
sVbring
p388
F0.0002964578159251294
sVpleased
p389
F0.0008931807224943982
sVdecade
p390
F0.0008931807224943982
sVspecifically
p391
F0.0
sVhadn
p392
F0.0005635342931381669
sV3
p393
F0.0009889392880686936
sVreceptors
p394
F0.001456715015632565
sVgoing
p395
F0.0
sVpretty
p396
F0.0011270685862763339
sVb
p397
F0.0003296464293562312
sVregularly
p398
F0.001456715015632565
sVcapsules
p399
F0.0
sVlistened
p400
F0.0
sVhorrible
p401
F0.0008931807224943982
sVstop
p402
F0.0007411445398128237
sVkind
p403
F0.0
sVcheaper
p404
F0.0008931807224943982
sVfeels
p405
F0.0008931807224943982
sVones
p406
F0.0005635342931381669
sVlegitimate
p407
F0.0
sVwords
p408
F0.0003296464293562312
sVreport
p409
F0.0008931807224943982
sVuntreated
p410
F0.0
sVnearly
p411
F0.0001482289079625647
sVareas
p412
F0.001456715015632565
sVbar
p413
F0.0005635342931381669
sVcourse
p414
F0.0003296464293562312
sVparasitic
p415
F0.0
sVmorning
p416
F0.0026795421674831944
sVbad
p417
F0.0005929156318502588
sVstuff
p418
F0.0016906028794145007
sVrelease
p419
F0.0005635342931381669
sVfinishing
p420
F0.001456715015632565
sV3d
p421
F0.0
sVwrote
p422
F0.0008931807224943982
sVwiki
p423
F0.0
sVmind
p424
F0.0005635342931381669
sVtesting
p425
F0.001456715015632565
sVnibble
p426
F0.0008931807224943982
sVpotent
p427
F0.0
sVsee
p428
F0.0007411445398128237
sVasleep
p429
F0.0017863614449887964
sVanyways
p430
F0.0008931807224943982
sVbest
p431
F0.0005929156318502588
sVpebbles
p432
F0.0
sVsaid
p433
F0.0002964578159251294
sVways
p434
F0.0003296464293562312
sVmovie
p435
F0.0017863614449887964
sVscrap
p436
F0.0
sVcurrently
p437
F0.0005635342931381669
sVwikipedia
p438
F0.0
sVlabel
p439
F0.0005635342931381669
sVenough
p440
F0.0
sVwon
p441
F0.0002964578159251294
sVroutine
p442
F0.0008931807224943982
sVuncaria
p443
F0.0
sVprobably
p444
F0.0016482321467811561
sVtolerance
p445
F0.001456715015632565
sVcreating
p446
F0.0005635342931381669
sVattention
p447
F0.0003296464293562312
sVhowever
p448
F0.0008931807224943982
sVcome
p449
F0.0001482289079625647
sVdrowsy
p450
F0.0
sVantipsychotic
p451
F0.0
sVwater
p452
F0.0011270685862763339
sVschizoaffective
p453
F0.0
sVlast
p454
F0.0002964578159251294
sVlimits
p455
F0.001456715015632565
sVmemorized
p456
F0.001456715015632565
sVmany
p457
F0.0
sVtaking
p458
F0.001037602355737953
sVsensitive
p459
F0.0003296464293562312
sVotherwise
p460
F0.0005635342931381669
sVpoint
p461
F0.0002964578159251294
sVrhynchophylline
p462
F0.0
sVwhatever
p463
F0.0003296464293562312
sVheight
p464
F0.0005635342931381669
sVdestabilizes
p465
F0.0
sVlikes
p466
F0.0005635342931381669
sVheadaches
p467
F0.0
sVsymptoms
p468
F0.0
sVraise
p469
F0.0005635342931381669
sVnaltrexone
p470
F0.0
sVcreativity
p471
F0.0
sVdue
p472
F0.0008931807224943982
sVdrank
p473
F0.0008931807224943982
sVslowly
p474
F0.0011270685862763339
sVtreat
p475
F0.0011270685862763339
sVwaste
p476
F0.0005635342931381669
sVimportant
p477
F0.0008931807224943982
sVtreatment
p478
F0.001456715015632565
sVwants
p479
F0.0
sVlife
p480
F0.001630517987588212
sVlived
p481
F0.0017863614449887964
sVreaction
p482
F0.0017863614449887964
sValkaloids
p483
F0.0
sVages
p484
F0.001456715015632565
sVsufficient
p485
F0.0
sVfinished
p486
F0.0005635342931381669
sVwake
p487
F0.0005635342931381669
sVsmoking
p488
F0.0008931807224943982
sVworked
p489
F0.0006592928587124624
sVcareful
p490
F0.0008931807224943982
sVbetag
p491
F0.0
sVakathisia
p492
F0.0
sVtopamax
p493
F0.0
sVharder
p494
F0.0008931807224943982
sVprofiles
p495
F0.001456715015632565
sVforgetting
p496
F0.001456715015632565
sVnear
p497
F0.0002964578159251294
sVfun
p498
F0.0013185857174249247
sVstupidest
p499
F0.001456715015632565
sVreal
p500
F0.0
sV30
p501
F0.0003296464293562312
sVwouldn
p502
F0.0003296464293562312
sValmost
p503
F0.0002964578159251294
sVfunded
p504
F0.0
sVinsanely
p505
F0.0
sVside_effect
p506
F0.0
sVsurface
p507
F0.0008931807224943982
sVsleeping
p508
F0.0008931807224943982
sVcluster
p509
F0.0
sVsomeone
p510
F0.0
sVcessastion
p511
F0.0
sVid
p512
F0.001456715015632565
sVdifferent
p513
F0.0009889392880686936
sVritalin
p514
F0.0
sVbaseline
p515
F0.001456715015632565
sVanymore
p516
F0.0005635342931381669
sVstrains
p517
F0.0
sVsuggest
p518
F0.001456715015632565
sVgranted
p519
F0.001456715015632565
sVcomplex
p520
F0.0005635342931381669
sVsuboxone
p521
F0.0
sVgets
p522
F0.0005635342931381669
sVambien
p523
F0.0
sVhigher
p524
F0.0013185857174249247
sVadequately
p525
F0.0
sVused
p526
F0.0009889392880686936
sVdrink
p527
F0.0001482289079625647
sVeffect
p528
F0.0001482289079625647
sVhand
p529
F0.0
sVaction
p530
F0.0008931807224943982
sVphp
p531
F0.001456715015632565
sVtotally
p532
F0.0006592928587124624
sVkeep
p533
F0.0004446867238876941
sVprescribed
p534
F0.001456715015632565
sVlower
p535
F0.0003296464293562312
sVolder
p536
F0.0003296464293562312
sVanxious
p537
F0.001456715015632565
sVmin
p538
F0.001456715015632565
sVwell
p539
F0.0
sVgiven
p540
F0.0001482289079625647
sVperson
p541
F0.0003296464293562312
sVprincechanchi
p542
F0.0
sVwithout
p543
F0.0
sVregulating
p544
F0.0
sVbottle
p545
F0.0005635342931381669
sVclaims
p546
F0.001456715015632565
sVsmoked
p547
F0.001456715015632565
sVthc
p548
F0.0
sVsummer
p549
F0.0016906028794145007
sVmoney
p550
F0.0008931807224943982
sVhands
p551
F0.0008931807224943982
sVrest
p552
F0.0001482289079625647
sVclinic
p553
F0.0
sVsummed
p554
F0.0
sVtapered
p555
F0.0
sVyes
p556
F0.0002964578159251294
sVyet
p557
F0.0007411445398128237
sVletting
p558
F0.001456715015632565
sVsettles
p559
F0.001456715015632565
sVfamily
p560
F0.0005635342931381669
sVfiancee
p561
F0.0
sVsupply
p562
F0.00291343003126513
sVvyvanse
p563
F0.0
sVday
p564
F0.0
sVsource
p565
F0.0005635342931381669
sV4
p566
F0.0001482289079625647
sVcrying
p567
F0.0008931807224943982
sVreason
p568
F0.0013185857174249247
sVkick
p569
F0.0005635342931381669
sVridiculously
p570
F0.001456715015632565
sVnoticeable
p571
F0.001456715015632565
sVaround
p572
F0.0001482289079625647
sVemergency
p573
F0.00291343003126513
sVread
p574
F0.0003296464293562312
sVcouple
p575
F0.0006592928587124624
sVpossible
p576
F0.0003296464293562312
sVshitty
p577
F0.00291343003126513
sVsuffering
p578
F0.0005635342931381669
sVknow
p579
F0.001037602355737953
sVlistening
p580
F0.0008931807224943982
sVworld
p581
F0.0003296464293562312
sVbit
p582
F0.0002964578159251294
sVoutcomes
p583
F0.0
sVapart
p584
F0.0005635342931381669
sVlike
p585
F0.0
sVpounds
p586
F0.0008931807224943982
sVcollective
p587
F0.001456715015632565
sVspecific
p588
F0.0005635342931381669
sVzoloft
p589
F0.0
sVcontinue
p590
F0.0003296464293562312
sVeither
p591
F0.0001482289079625647
sVnight
p592
F0.0004446867238876941
sVresolved
p593
F0.0008931807224943982
sVbecome
p594
F0.0001482289079625647
sVworks
p595
F0.0005635342931381669
sVopioid
p596
F0.0
sVwww
p597
F0.0008931807224943982
sVnauseous
p598
F0.0
sVfucking
p599
F0.004370145046897695
sVspring
p600
F0.0005635342931381669
sVback
p601
F0.0004446867238876941
sVdead
p602
F0.0006592928587124624
sVoh
p603
F0.0008931807224943982
sVadded
p604
F0.0008931807224943982
sVibuprofen
p605
F0.0
sVhome
p606
F0.0003296464293562312
sVsuuuper
p607
F0.0
sVhappens
p608
F0.0006592928587124624
sVmood
p609
F0.0017863614449887964
sVlead
p610
F0.0003296464293562312
sVsymbiotic
p611
F0.0
sVeverything
p612
F0.0001482289079625647
sVasking
p613
F0.0011270685862763339
sVthree
p614
F0.0001482289079625647
sVdispensary
p615
F0.0
sVmitraphylline
p616
F0.0
sVconventional
p617
F0.001456715015632565
sVstem
p618
F0.0
sVzombie
p619
F0.001456715015632565
sVlasts
p620
F0.0008931807224943982
sVgraduated
p621
F0.001456715015632565
sVpaste
p622
F0.001456715015632565
sVthrow
p623
F0.0008931807224943982
sVproceed
p624
F0.0005635342931381669
sVok
p625
F0.0005635342931381669
sVwould
p626
F0.0
sVanything
p627
F0.0004446867238876941
sVgetting
p628
F0.0005929156318502588
sVkratomonline
p629
F0.0
sVmonths
p630
F0.0016906028794145007
sVfavorite
p631
F0.0005635342931381669
sVcosts
p632
F0.001456715015632565
sVdinner
p633
F0.0005635342931381669
sVbenzos
p634
F0.0
sV75mg
p635
F0.0
sVstand
p636
F0.0003296464293562312
sVact
p637
F0.0003296464293562312
sVseeing
p638
F0.0005635342931381669
sVcurling
p639
F0.0
sVunmedicated
p640
F0.0
sVcorynantheidine
p641
F0.0
sVinformed
p642
F0.001456715015632565
sVwithin
p643
F0.0003296464293562312
sVwashington
p644
F0.0
sVklonopin
p645
F0.0
sVtwo
p646
F0.0
sVmushrooms
p647
F0.0008931807224943982
sVnothing
p648
F0.0001482289079625647
sVsquare
p649
F0.0006592928587124624
sVreceptor
p650
F0.0
sVdreaming
p651
F0.001456715015632565
sVbalanced
p652
F0.0005635342931381669
sVconsecutively
p653
F0.0
sVcanal
p654
F0.0
sVinitial
p655
F0.0005635342931381669
sVquestion
p656
F0.0003296464293562312
sVlol
p657
F0.00291343003126513
sVfight
p658
F0.0005635342931381669
sVstart
p659
F0.0013185857174249247
sVinner
p660
F0.0005635342931381669
sVway
p661
F0.0007411445398128237
sVbiggest
p662
F0.0017863614449887964
sVdamn
p663
F0.00291343003126513
sVheh
p664
F0.0005635342931381669
sVhappy
p665
F0.0006592928587124624
sVdispensaries
p666
F0.0
sVmedium
p667
F0.0022541371725526677
sVcomplete
p668
F0.0003296464293562312
sVform
p669
F0.0006592928587124624
sVended
p670
F0.0017863614449887964
sVgain
p671
F0.0008931807224943982
sVhelpful
p672
F0.00291343003126513
sV225
p673
F0.0
sVtrying
p674
F0.0003296464293562312
sVeat
p675
F0.0003296464293562312
sVespecially
p676
F0.0006592928587124624
sVinfo
p677
F0.001456715015632565
sVmade
p678
F0.0007411445398128237
sVcalls
p679
F0.0005635342931381669
sVwhether
p680
F0.0001482289079625647
sVpsychosis
p681
F0.0
sVproblem
p682
F0.0003296464293562312
sVpiece
p683
F0.0011270685862763339
sVcreeping
p684
F0.0
sVhaldol
p685
F0.0
sVgone
p686
F0.0001482289079625647
sVcbd
p687
F0.0
sVpencil
p688
F0.0008931807224943982
sVexhausted
p689
F0.001456715015632565
sVrecommendation
p690
F0.001456715015632565
sVdoesn
p691
F0.0004446867238876941
sVhungry
p692
F0.0008931807224943982
sVsingle
p693
F0.0001482289079625647
sVright
p694
F0.0004446867238876941
sVtogether
p695
F0.0
sVwatched
p696
F0.00291343003126513
sVawhile
p697
F0.001456715015632565
sVshit
p698
F0.004465903612471992
sVmutual
p699
F0.0008931807224943982
sVpeace
p700
F0.001456715015632565
sVgenerally
p701
F0.0011270685862763339
sVdetail
p702
F0.0008931807224943982
sV40
p703
F0.0005635342931381669
sVlately
p704
F0.0008931807224943982
sVinterested
p705
F0.0003296464293562312
sV5
p706
F0.0001482289079625647
sVbetter
p707
F0.0004446867238876941
sVtest
p708
F0.0005635342931381669
sVfelt
p709
F0.0016906028794145007
sVproblems
p710
F0.0006592928587124624
sVstay
p711
F0.0003296464293562312
sVreplace
p712
F0.0008931807224943982
sVchance
p713
F0.0003296464293562312
sVfell
p714
F0.0005635342931381669
sVneeded
p715
F0.0005635342931381669
sVvein
p716
F0.00582686006253026
sVago
p717
F0.0008931807224943982
sVlonger
p718
F0.0002964578159251294
sVusing
p719
F0.0006592928587124624
sVwife
p720
F0.0008931807224943982
sVconsumer
p721
F0.0
sVchanged
p722
F0.0005635342931381669
sVlasted
p723
F0.001456715015632565
sVdaily
p724
F0.00291343003126513
sVsafe
p725
F0.0005635342931381669
sVtime
p726
F0.0
sVfactually
p727
F0.0
sVbeers
p728
F0.0008931807224943982
sVstarting
p729
F0.0016906028794145007
sVavoid
p730
F0.0003296464293562312
s.