(dp0
Vchemistry
p1
F0.0
sVescitalopram
p2
F0.0
sVcurrently
p3
F0.0017415758305526264
sVsuicidal
p4
F0.004501908214140842
sVhelp
p5
F0.00045809436380390604
sVstay
p6
F0.001018756553035589
sVsertraline
p7
F0.0
sVchloropyridin
p8
F0.0
sVurine
p9
F0.004501908214140842
sVfocus
p10
F0.004501908214140842
sVimipramine
p11
F0.0
sVmoderator
p12
F0.0
sVsupplement
p13
F0.0
sVantagonize
p14
F0.0
sV4
p15
F0.0009161887276078121
sVtiredness
p16
F0.0
sVer
p17
F0.0017415758305526264
sVgo
p18
F0.0
sVfind
p19
F0.0
sVc17h17cln6o3
p20
F0.0
sVtca
p21
F0.0
sVthyroid
p22
F0.0
sV25
p23
F0.003483151661105253
sVcompose
p24
F0.004501908214140842
sVsystem
p25
F0.001018756553035589
sV22
p26
F0.0017415758305526264
sVnervous
p27
F0.0027603323835882158
sV3
p28
F0.005093782765177945
sVsend
p29
F0.001018756553035589
sVtripsit
p30
F0.0
sVenzyme
p31
F0.0
sVactivate
p32
F0.0055206647671764315
sVtreatment
p33
F0.009003816428281684
sVamitriptyline
p34
F0.0
sVcytochrome
p35
F0.0
sVkingdom
p36
F0.004501908214140842
sV50mg
p37
F0.0
sVapnea
p38
F0.0
sVrisk
p39
F0.0017415758305526264
sVpharmacology
p40
F0.0
sVfluoxetine
p41
F0.0
sVcitalopram
p42
F0.0
sVdbt
p43
F0.0
sVcyclopyrrolone
p44
F0.0
sVinduce
p45
F0.0
sVbuspirone
p46
F0.0
sVstate
p47
F0.003483151661105253
sVevery
p48
F0.00045809436380390604
sVknow
p49
F0.00045809436380390604
sVreceptor
p50
F0.0
sVmol
p51
F0.0
sVdose
p52
F0.018007632856563368
sVday
p53
F0.0
sVminute
p54
F0.0017415758305526264
sVlike
p55
F0.0
sVschool
p56
F0.004501908214140842
sVdisease
p57
F0.0027603323835882158
sVhour
p58
F0.0017415758305526264
sVmodulator
p59
F0.0
sVht2a
p60
F0.0
sVtransmission
p61
F0.0
sVsmell
p62
F0.0027603323835882158
sVobliterate
p63
F0.0
sV50
p64
F0.001018756553035589
sVoxcarbazepine
p65
F0.0
sVsummary
p66
F0.0
sVanxious
p67
F0.027011449284845047
sVgood
p68
F0.0
sVoxo
p69
F0.0
sVcommon
p70
F0.003483151661105253
sVsleep
p71
F0.005224727491657879
sVp450
p72
F0.0
sVside
p73
F0.00045809436380390604
sVtherapeutic
p74
F0.0
sVheavy
p75
F0.002037513106071178
sVallosteric
p76
F0.0
sVdidn
p77
F0.0009161887276078121
sVlethargy
p78
F0.0
sVweight
p79
F0.001018756553035589
sVhabit
p80
F0.0
sVagitate
p81
F0.0
sVthreshold
p82
F0.0
sVservice
p83
F0.0017415758305526264
sVbed
p84
F0.0027603323835882158
sVduration
p85
F0.0
sVhome
p86
F0.001018756553035589
sV80
p87
F0.0
sVcategory
p88
F0.0027603323835882158
sVbest
p89
F0.00045809436380390604
sVsubject
p90
F0.004501908214140842
sVeven
p91
F0.00045809436380390604
sVtry
p92
F0.0009161887276078121
sValcohol
p93
F0.0027603323835882158
sVbenzodiazepine
p94
F0.0
sVsun
p95
F0.001018756553035589
sVhorribly
p96
F0.0
sVplease
p97
F0.00045809436380390604
sVcaffeine
p98
F0.004501908214140842
sVlegal
p99
F0.009003816428281684
sV25mg
p100
F0.0
sVincrease
p101
F0.0027603323835882158
sVziprasidone
p102
F0.0
sVenough
p103
F0.0
sVvarious
p104
F0.0017415758305526264
sVrare
p105
F0.004501908214140842
sV7
p106
F0.005093782765177945
sVformula
p107
F0.0
sVemphysema
p108
F0.0
sVirc
p109
F0.004501908214140842
sVever
p110
F0.00045809436380390604
sVmethod
p111
F0.004501908214140842
sVerythromycin
p112
F0.0
sVreddit
p113
F0.0
sVsedate
p114
F0.0027603323835882158
sVschedule
p115
F0.004501908214140842
sVweak
p116
F0.004501908214140842
sVmethylpiperazine
p117
F0.0
sVlmao
p118
F0.0
sVg
p119
F0.0017415758305526264
sVconcentrate
p120
F0.004501908214140842
sVzopiclone
p121
F0.0
sV388
p122
F0.0
sVlatuda
p123
F0.0
sVstrong
p124
F0.0017415758305526264
sVeuphoric
p125
F0.0
sVdrowsy
p126
F0.0
sVboy
p127
F0.0017415758305526264
sVz
p128
F0.004501908214140842
sVprescription
p129
F0.0
sVrespiration
p130
F0.0
sVagonist
p131
F0.0
sVquestion
p132
F0.001018756553035589
sV30
p133
F0.001018756553035589
sVnonbenzodiazepine
p134
F0.0
sV10mg
p135
F0.0
sVdreamlike
p136
F0.0
sV75mg
p137
F0.0
sVbpd
p138
F0.0
sVfluvoxamine
p139
F0.0
sVgaba
p140
F0.0
sVweird
p141
F0.0017415758305526264
sVdepressant
p142
F0.0
sVthorazine
p143
F0.0
sVcomment
p144
F0.0055206647671764315
sVschema
p145
F0.0
sVstabilization
p146
F0.0
sVsri
p147
F0.0
sVfeel
p148
F0.003206660546627342
sVcarbonate
p149
F0.0
sVimovane
p150
F0.0
sVperiod
p151
F0.001018756553035589
sVcommunity
p152
F0.0
sVzimovane
p153
F0.0
sVchronic
p154
F0.004501908214140842
sVpom
p155
F0.004501908214140842
sVseroquel
p156
F0.0
sVhooo
p157
F0.0
sVwasn
p158
F0.001374283091411718
sVpyrrolo
p159
F0.0
sVmessage
p160
F0.006966303322210506
sVexpensive
p161
F0.0017415758305526264
sV2fr
p162
F0.0
sVuse
p163
F0.00045809436380390604
sVprozac
p164
F0.0
sVitraconazole
p165
F0.0
sVwould
p166
F0.0
sVpositive
p167
F0.0017415758305526264
sVdruggitor
p168
F0.0
sVvisit
p169
F0.0017415758305526264
sVfinally
p170
F0.0027603323835882158
sV2ftripsit
p171
F0.0
sVgravis
p172
F0.0
sVattack
p173
F0.001018756553035589
sV2
p174
F0.00045809436380390604
sVchange
p175
F0.0017415758305526264
sVautomate
p176
F0.004501908214140842
sVdepakote
p177
F0.0
sVneurotransmitter
p178
F0.0
sVmolecular
p179
F0.004501908214140842
sV20issue
p180
F0.0
sVmetabolism
p181
F0.004501908214140842
sV15mg
p182
F0.0
sV5h
p183
F0.0
sVinsomnia
p184
F0.0
sVphenytoin
p185
F0.0
sVonset
p186
F0.0
sVway
p187
F0.00045809436380390604
sVform
p188
F0.001018756553035589
sV900mg
p189
F0.0
sV6
p190
F0.0009161887276078121
sVcarbamazepine
p191
F0.0
sV250mg
p192
F0.0
sVlong
p193
F0.0
sVawake
p194
F0.004501908214140842
sVliver
p195
F0.0055206647671764315
sVpyrazin
p196
F0.0
sVcentral
p197
F0.0
sVmyasthenia
p198
F0.0
sVlamotrigine
p199
F0.0
sVrifampicin
p200
F0.0
sV10
p201
F0.00045809436380390604
sVmg
p202
F0.0
sVb
p203
F0.001018756553035589
sV15
p204
F0.0009161887276078121
sVlast
p205
F0.00045809436380390604
sVunlike
p206
F0.0017415758305526264
sVinterest
p207
F0.0027603323835882158
sVwork
p208
F0.0
sVvalue
p209
F0.001018756553035589
sV5mg
p210
F0.0
sVstabilizer
p211
F0.0
sVuk
p212
F0.004501908214140842
sVbind
p213
F0.0
sVadderall
p214
F0.0
sVfactsheet
p215
F0.0
sVproperty
p216
F0.001018756553035589
sVwake
p217
F0.003483151661105253
sVdihydro
p218
F0.0
sVmirtazapine
p219
F0.0
sVcontrol
p220
F0.0027603323835882158
sVheart
p221
F0.0017415758305526264
sVpound
p222
F0.0027603323835882158
sVchat
p223
F0.0017415758305526264
sVbronchitis
p224
F0.0
sVir
p225
F0.0
sVside_effect
p226
F0.0
sVfuck
p227
F0.004501908214140842
sVagent
p228
F0.0017415758305526264
sViv
p229
F0.0
sVgland
p230
F0.0
sVaustralia
p231
F0.0
sVcbt
p232
F0.0
sVpharmacokinetics
p233
F0.0
sVprotein
p234
F0.0
sVscar
p235
F0.004501908214140842
sVapparently
p236
F0.0017415758305526264
sVeveryday
p237
F0.004501908214140842
sVlexapro
p238
F0.0
sVyl
p239
F0.0
sVhypomanic
p240
F0.0
sVdiazepam
p241
F0.0
sVdifferent
p242
F0.001018756553035589
sVnefazodone
p243
F0.0
sVclomipramine
p244
F0.0
sV45
p245
F0.0017415758305526264
sVexcretion
p246
F0.0
sVunite
p247
F0.0
sVs4
p248
F0.0
sV1
p249
F0.00045809436380390604
sVnick
p250
F0.004501908214140842
sVwierd
p251
F0.004501908214140842
sVwithout
p252
F0.0
sV5
p253
F0.0036647549104312483
sVketoconazole
p254
F0.0
sV9
p255
F0.001018756553035589
sVplus
p256
F0.0017415758305526264
sVlithium
p257
F0.0
sVpanic
p258
F0.0
sVnice
p259
F0.0
sVcanada
p260
F0.0
sVnormal
p261
F0.0017415758305526264
sVclonazepam
p262
F0.0
sVstop
p263
F0.00045809436380390604
sVfelt
p264
F0.005224727491657879
sVhydroxyzine
p265
F0.0
sVeffect
p266
F0.001374283091411718
sVcontraindictions
p267
F0.0
sVtripsitbot
p268
F0.0
sVbrintellix
p269
F0.0
sVsulfaphenazole
p270
F0.0
sVkinda
p271
F0.004501908214140842
sVpossible
p272
F0.001018756553035589
sVextremely
p273
F0.0027603323835882158
sVcarboxylate
p274
F0.0
sVmood
p275
F0.0055206647671764315
sVparoxetine
p276
F0.0
sVabnormality
p277
F0.0
sVeffective
p278
F0.013505724642422523
sVanxiety
p279
F0.013505724642422523
sVlight
p280
F0.001018756553035589
sViupac
p281
F0.0
sVwell
p282
F0.0
sVeps
p283
F0.0
sVhypnotic
p284
F0.0
sVthink
p285
F0.00045809436380390604
sValias
p286
F0.004501908214140842
sVsevere
p287
F0.0027603323835882158
sV808
p288
F0.0
sVmass
p289
F0.004501908214140842
sVtime
p290
F0.0
sVtherapy
p291
F0.004501908214140842
sVolanzapine
p292
F0.0
sVolanzipene
p293
F0.0
sVorder
p294
F0.00045809436380390604
sVgain
p295
F0.0055206647671764315
s.