(dp0
Vconsider
p1
F0.0011169837688930148
sVblocker
p2
F0.01480792949775252
sVvary
p3
F0.003026480134071928
sVmonth
p4
F0.005584918844465075
sVsleep
p5
F0.0019094963651789126
sVgo
p6
F0.0
sV23andme
p7
F0.0
sVstill
p8
F0.0
sVfind
p9
F0.0
sVlisinopril
p10
F0.0
sVthyroid
p11
F0.0
sVnardil
p12
F0.0
sVcopy
p13
F0.0019094963651789126
sVdepend
p14
F0.00493597649925084
sVantipsychotic
p15
F0.0
sVfit
p16
F0.0011169837688930148
sVll
p17
F0.0010045264837132484
sVepileptic
p18
F0.0
sVeat
p19
F0.0011169837688930148
sVenzyme
p20
F0.0
sVtm
p21
F0.00493597649925084
sV4
p22
F0.0015067897255698728
sVstable
p23
F0.00493597649925084
sVpolicy
p24
F0.01974390599700336
sVworth
p25
F0.0019094963651789126
sVhope
p26
F0.0005022632418566242
sVsound
p27
F0.0011169837688930148
sVgood
p28
F0.0
sVaround
p29
F0.0005022632418566242
sVanticonvulsant
p30
F0.0
sVstop
p31
F0.0005022632418566242
sVschool
p32
F0.00493597649925084
sVevery
p33
F0.00351584269299637
sVknow
p34
F0.0010045264837132484
sVmom
p35
F0.00987195299850168
sVreport
p36
F0.003026480134071928
sVdose
p37
F0.00493597649925084
sVday
p38
F0.0
sVlike
p39
F0.0
sVterm
p40
F0.0019094963651789126
sVinvestigational
p41
F0.0
sVfibromyalgia
p42
F0.0
sVd
p43
F0.0
sV_____________________________________________________
p44
F0.0
sVobsessive
p45
F0.0
sVprophylaxis
p46
F0.0
sVcry
p47
F0.006052960268143856
sVlist
p48
F0.0019094963651789126
sVsolution
p49
F0.0
sVspecific
p50
F0.0019094963651789126
sVtwice
p51
F0.0019094963651789126
sVbad
p52
F0.0005022632418566242
sVstuff
p53
F0.005728489095536738
sVnight
p54
F0.0005022632418566242
sVround
p55
F0.0011169837688930148
sVgabapentin
p56
F0.0
sVheadache
p57
F0.02961585899550504
sVold
p58
F0.0
sVsequence
p59
F0.0
sVyeah
p60
F0.003026480134071928
sVcognitive
p61
F0.0
sVsee
p62
F0.0010045264837132484
sVmarplan
p63
F0.0
sVyear
p64
F0.0005022632418566242
sVfail
p65
F0.0022339675377860296
sVrecently
p66
F0.0011169837688930148
sVacid
p67
F0.003026480134071928
sVinsurance
p68
F0.00493597649925084
sVbest
p69
F0.0005022632418566242
sVeven
p70
F0.002511316209283121
sVtry
p71
F0.0010045264837132484
sVlanguage
p72
F0.0019094963651789126
sVcalcium
p73
F0.0
sVmiss
p74
F0.0005022632418566242
sVnortryptiline
p75
F0.0
sVsince
p76
F0.0010045264837132484
sVper
p77
F0.006052960268143856
sV25mg
p78
F0.0
sVeverything
p79
F0.0015067897255698728
sV3
p80
F0.0011169837688930148
sVdoxepin
p81
F0.0
sVatenolol
p82
F0.0
sVprovider
p83
F0.0
sVmedicine
p84
F0.00493597649925084
sVprobably
p85
F0.0011169837688930148
sVapproach
p86
F0.003026480134071928
sVfull
p87
F0.0
sVanticholinergic
p88
F0.0
sVdiltiazem
p89
F0.0
sVactivity
p90
F0.00493597649925084
sVvitamin
p91
F0.0
sVdiagnostic
p92
F0.0
sVqualify
p93
F0.0
sVect
p94
F0.0
sVtopiramate
p95
F0.0
sValthough
p96
F0.0011169837688930148
sVmeet
p97
F0.003026480134071928
sVask
p98
F0.0005022632418566242
sVpost
p99
F0.003026480134071928
sVdry
p100
F0.003026480134071928
sVscary
p101
F0.00493597649925084
sVconvert
p102
F0.00493597649925084
sVinhibitor
p103
F0.0
sVlast
p104
F0.0015067897255698728
sVcandidate
p105
F0.003026480134071928
sVg
p106
F0.009547481825894563
sVtopamax
p107
F0.0
sVjoke
p108
F0.003026480134071928
sVlabel
p109
F0.0019094963651789126
sVtrial
p110
F0.003026480134071928
sVdepressant
p111
F0.0
sVthink
p112
F0.0015067897255698728
sVexperimental
p113
F0.0
sVfirst
p114
F0.0005022632418566242
sVnerve
p115
F0.00493597649925084
sVtimolol
p116
F0.0
sVvalproic
p117
F0.0
sVgrade
p118
F0.00493597649925084
sVnortriptyline
p119
F0.0
sVtwo
p120
F0.0
sV60
p121
F0.006052960268143856
sVchronic
p122
F0.00493597649925084
sVreceptor
p123
F0.0
sVnext
p124
F0.0005022632418566242
sVpointless
p125
F0.00493597649925084
sVpropranolol
p126
F0.0
sVselect
p127
F0.00493597649925084
sVspeak
p128
F0.003026480134071928
sVlittle
p129
F0.0
sVtcas
p130
F0.0
sVwould
p131
F0.0
sVdue
p132
F0.003026480134071928
sVleast
p133
F0.0
sVlyme
p134
F0.0
sVclomipramine
p135
F0.0
sVstrict
p136
F0.00493597649925084
sV2
p137
F0.0005022632418566242
sVcall
p138
F0.0005022632418566242
sVlow
p139
F0.0022339675377860296
sVlot
p140
F0.0
sV6
p141
F0.0005022632418566242
sVlosartan
p142
F0.0
sVnimodipine
p143
F0.0
sVantifungal
p144
F0.0
sVlife
p145
F0.0005022632418566242
sVway
p146
F0.0005022632418566242
sVback
p147
F0.0005022632418566242
sVmoment
p148
F0.0005022632418566242
sVamitriptyline
p149
F0.0
sVhurt
p150
F0.00493597649925084
sVappendix
p151
F0.0
sVhear
p152
F0.0011169837688930148
sVadult
p153
F0.00493597649925084
sVcatch
p154
F0.003026480134071928
sVpatient
p155
F0.00493597649925084
sVbotox
p156
F0.0
sVhaven
p157
F0.0022339675377860296
sVcouldn
p158
F0.0022339675377860296
sVcase
p159
F0.0022339675377860296
sV14
p160
F0.0076379854607156504
sVhour
p161
F0.005728489095536738
sVzonegran
p162
F0.0
sVnadolol
p163
F0.0
sVwork
p164
F0.0
sVeasier
p165
F0.0019094963651789126
sVsometimes
p166
F0.0011169837688930148
sVmatter
p167
F0.0011169837688930148
sVthree
p168
F0.0005022632418566242
sVmetoprolol
p169
F0.0
sVallergic
p170
F0.00493597649925084
sVexample
p171
F0.0022339675377860296
sVmirtazapine
p172
F0.0
sVnifedipine
p173
F0.0
sVcrazy
p174
F0.003026480134071928
sVtricyclic
p175
F0.0
sVautoimmune
p176
F0.0
sVgive
p177
F0.0005022632418566242
sValmost
p178
F0.0005022632418566242
sVssri
p179
F0.0
sVdivalproex
p180
F0.0
sValongside
p181
F0.003026480134071928
sVside_effect
p182
F0.0
sVmine
p183
F0.0011169837688930148
sVii
p184
F0.0
sVduration
p185
F0.0
sVcure
p186
F0.00493597649925084
sVsomething
p187
F0.0005022632418566242
sVfile
p188
F0.00493597649925084
sVneed
p189
F0.0005022632418566242
sVseem
p190
F0.0010045264837132484
sVcheck
p191
F0.003026480134071928
sVhappy
p192
F0.0011169837688930148
sVend
p193
F0.0010045264837132484
sVanymore
p194
F0.0019094963651789126
sVvalsartan
p195
F0.0
sVmigraine
p196
F0.0
sVable
p197
F0.0011169837688930148
sVtreatment
p198
F0.00493597649925084
sVwrite
p199
F0.0011169837688930148
sVcriterion
p200
F0.0
sVtoxin
p201
F0.0
sVonline
p202
F0.003026480134071928
sVtest
p203
F0.0038189927303578252
sVinstead
p204
F0.0019094963651789126
sVrequire
p205
F0.00987195299850168
sVchannel
p206
F0.003026480134071928
sVprofile
p207
F0.003026480134071928
sVbegin
p208
F0.0019094963651789126
sVbotulinum
p209
F0.0
sVverapamil
p210
F0.0
sVuse
p211
F0.0010045264837132484
sVeffect
p212
F0.0005022632418566242
sVtalk
p213
F0.0019094963651789126
sVbeta
p214
F0.00493597649925084
sVmouth
p215
F0.0019094963651789126
sVplan
p216
F0.005728489095536738
sVsnp
p217
F0.0
sVantinflammatory
p218
F0.0
sVclass
p219
F0.0033509513066790446
sVunimaginably
p220
F0.0
sVvortioxetine
p221
F0.0
sVlower
p222
F0.0011169837688930148
sVgene
p223
F0.00493597649925084
sVe
p224
F0.002511316209283121
sVlonger
p225
F0.0005022632418566242
sVolder
p226
F0.0011169837688930148
sVmaybe
p227
F0.0
sVangiotensin
p228
F0.0
sVton
p229
F0.00493597649925084
sVminocycline
p230
F0.0
sVaetna
p231
F0.0
sVlook
p232
F0.002009052967426497
sVblock
p233
F0.003026480134071928
sVallow
p234
F0.00493597649925084
sVadd
p235
F0.0019094963651789126
sVpush
p236
F0.0038189927303578252
sVpreventive
p237
F0.0
sVprevention
p238
F0.0
s.