(dp0
Vlimited
p1
F0.0021381377914415933
sVpartial
p2
F0.0042762755828831866
sVantipsychotics
p3
F0.0
sVresults
p4
F0.0013109931845681501
sVmonth
p5
F0.00048384857769470695
sV______________
p6
F0.0
sVgpcrs
p7
F0.0
sVcomments
p8
F0.0021381377914415933
sVgo
p9
F0.0
sVmeditation
p10
F0.0
sVdecisions
p11
F0.0
sVconsider
p12
F0.00048384857769470695
sVcontent
p13
F0.0042762755828831866
sVfeeding
p14
F0.0013109931845681501
sVdepend
p15
F0.0021381377914415933
sVpenile
p16
F0.0
sVside_effects
p17
F0.0
sV0
p18
F0.0026219863691363003
sVhelps
p19
F0.0026219863691363003
sVworth
p20
F0.0008271446068734431
sVworse
p21
F0.00048384857769470695
sVbenzodiazepines
p22
F0.0
sVfar
p23
F0.00021756749020758305
sVtrouble
p24
F0.00021756749020758305
sVdifference
p25
F0.0013109931845681501
sVresponders
p26
F0.0
sVexclusives
p27
F0.0
sVdin
p28
F0.0
sVmagic
p29
F0.0013109931845681501
sVcompanies
p30
F0.0
sVtry
p31
F0.00021756749020758305
sVantagonize
p32
F0.0
sVregret
p33
F0.0013109931845681501
sVplexus
p34
F0.0
sVjapanese
p35
F0.006414413374324779
sVpregaba
p36
F0.0
sVorgasm
p37
F0.0042762755828831866
sVsecond
p38
F0.0004351349804151661
sVagonists
p39
F0.0
sVpatient
p40
F0.0021381377914415933
sVeven
p41
F0.0006527024706227491
sVappear
p42
F0.0013109931845681501
sVcaffeine
p43
F0.0021381377914415933
sV25mg
p44
F0.0
sVnew
p45
F0.0
sVnever
p46
F0.0
sVprescribe
p47
F0.0021381377914415933
sVht7
p48
F0.0
sVdesired
p49
F0.0
sVselective
p50
F0.0
sVht2
p51
F0.0
sVothers
p52
F0.00048384857769470695
sVstrong
p53
F0.0008271446068734431
sVinvolved
p54
F0.0013109931845681501
sVleaves
p55
F0.00048384857769470695
sVleaving
p56
F0.00048384857769470695
sVexams
p57
F0.0
sVsmoke
p58
F0.0013109931845681501
sVsocial
p59
F0.00048384857769470695
sVaction
p60
F0.0013109931845681501
sVoptions
p61
F0.0026219863691363003
sVinvolves
p62
F0.0
sVuseful
p63
F0.0021381377914415933
sVagomelatine
p64
F0.0
sVimpulsivity
p65
F0.0
sVpsychological
p66
F0.0021381377914415933
sVmicrodosing
p67
F0.0
sVmoran
p68
F0.0
sVcocaine
p69
F0.0021381377914415933
sVuse
p70
F0.00021756749020758305
sVwould
p71
F0.0
sVtwo
p72
F0.0
sVmediate
p73
F0.0
sVcalm
p74
F0.0042762755828831866
sVmemory
p75
F0.0008271446068734431
sVpregabalin
p76
F0.0
sVtype
p77
F0.0008271446068734431
sVneverending
p78
F0.0
sVentrance
p79
F0.0008271446068734431
sVtardive
p80
F0.0
sVbrings
p81
F0.0013109931845681501
sVopiates
p82
F0.0021381377914415933
sVmescaline
p83
F0.0
sVdosing
p84
F0.0
sVkeeping
p85
F0.0008271446068734431
sVwork
p86
F0.0
sVsucks
p87
F0.0013109931845681501
sVlongitude
p88
F0.0
sVobvious
p89
F0.0008271446068734431
sVstabilizer
p90
F0.0
sVdosage
p91
F0.0042762755828831866
sVmirtazapine
p92
F0.0
sVcontrol
p93
F0.0026219863691363003
sVantagonists
p94
F0.0
sVstated
p95
F0.0021381377914415933
sVorbit1
p96
F0.0
sVhigh
p97
F0.0
sVheard
p98
F0.00048384857769470695
sVminimum
p99
F0.0013109931845681501
sVnumbers
p100
F0.0013109931845681501
sVwant
p101
F0.0
sVsense
p102
F0.00021756749020758305
sVsharp
p103
F0.0021381377914415933
sVkeep
p104
F0.00021756749020758305
sVguarantee
p105
F0.0021381377914415933
sVdiscussion
p106
F0.0013109931845681501
sVnuts
p107
F0.0013109931845681501
sVmay
p108
F0.0004351349804151661
sVmax
p109
F0.0021381377914415933
sVwrong
p110
F0.00048384857769470695
sVplane
p111
F0.0042762755828831866
sVht1a
p112
F0.0
sVresponse
p113
F0.010690688957207964
sVreappeared
p114
F0.0021381377914415933
sVmorphine
p115
F0.006414413374324779
sVbind
p116
F0.0
sVtetracyclic
p117
F0.0
sVswitch
p118
F0.0026219863691363003
sVbeating_depression_w_memantine_and_lsd
p119
F0.0
sVpleasure
p120
F0.0016542892137468863
sVaddiction
p121
F0.0
sVfirst
p122
F0.0004351349804151661
sVtalk
p123
F0.0008271446068734431
sVrestriction
p124
F0.0
sVlsd
p125
F0.0
sVcourse
p126
F0.00048384857769470695
sVincluding
p127
F0.0008271446068734431
sVlooks
p128
F0.00021756749020758305
sVjapan
p129
F0.0
sVstill
p130
F0.0
sVinsted
p131
F0.0
sV25
p132
F0.0008271446068734431
sVantipsychotic
p133
F0.0
sVclashed
p134
F0.0
sVinteresting
p135
F0.0014515457330841208
sVll
p136
F0.00021756749020758305
sVbetter
p137
F0.0006527024706227491
sVabsence
p138
F0.0
sV2014
p139
F0.0
sVmain
p140
F0.00021756749020758305
sVmight
p141
F0.0004351349804151661
sVeasier
p142
F0.0008271446068734431
sV2013
p143
F0.0
sVwouldn
p144
F0.00048384857769470695
sVnon
p145
F0.0004351349804151661
sVgood
p146
F0.0
sV3
p147
F0.0019353943107788278
sVnod
p148
F0.0021381377914415933
sVpractice
p149
F0.0
sVtherapy
p150
F0.0021381377914415933
sVeffects
p151
F0.0026219863691363003
sVhalf
p152
F0.00021756749020758305
sVpossess
p153
F0.0021381377914415933
sVeasily
p154
F0.00048384857769470695
sVterm
p155
F0.0016542892137468863
sVerection
p156
F0.0021381377914415933
sVchronic
p157
F0.006414413374324779
sVedit
p158
F0.0042762755828831866
sVcognition
p159
F0.0021381377914415933
sVdidn
p160
F0.0008702699608303322
sVevade
p161
F0.0021381377914415933
sVstopped
p162
F0.0008271446068734431
sVuploads
p163
F0.0
sVreasonable
p164
F0.0013109931845681501
sVaddicted
p165
F0.006414413374324779
sVfound
p166
F0.0004351349804151661
sVwent
p167
F0.00021756749020758305
sVmean
p168
F0.00048384857769470695
sVnicotine
p169
F0.0
sVweight
p170
F0.00048384857769470695
sVidea
p171
F0.00021756749020758305
sVsober
p172
F0.0042762755828831866
sVyear
p173
F0.00021756749020758305
sVdisinhibition
p174
F0.0
sVhypeprolactinemia
p175
F0.0
sVhappen
p176
F0.00048384857769470695
sVsexual
p177
F0.0042762755828831866
sVagoraphobia
p178
F0.0
sVsince
p179
F0.0006527024706227491
sVincrease
p180
F0.0026219863691363003
sVgot
p181
F0.0004351349804151661
sVmechanisms
p182
F0.0
sVcommercially
p183
F0.0
sVunwanted
p184
F0.0021381377914415933
sVmusing
p185
F0.0
sVask
p186
F0.00021756749020758305
sVorg
p187
F0.008552551165766373
sVinteraction
p188
F0.0021381377914415933
sVcould
p189
F0.0
sVterrible
p190
F0.0016542892137468863
sVtimes
p191
F0.0
sVthing
p192
F0.0004351349804151661
sVisn
p193
F0.0004351349804151661
sVthink
p194
F0.0008702699608303322
sVbupropion
p195
F0.0
sVstaggered
p196
F0.0
sVcomparatives
p197
F0.0
sVfeel
p198
F0.0006527024706227491
sVspecifically
p199
F0.0
sVanother
p200
F0.00021756749020758305
sVbland
p201
F0.0
sVsounds
p202
F0.0013109931845681501
sVmiss
p203
F0.00021756749020758305
sV1p
p204
F0.0
sVguess
p205
F0.0033085784274937725
sVscript
p206
F0.0021381377914415933
sVleast
p207
F0.0
sVeuphoria
p208
F0.0
sVanyone
p209
F0.00048384857769470695
sV2
p210
F0.0004351349804151661
sVdownregulate
p211
F0.0
sVcondasending
p212
F0.0
sVmostly
p213
F0.0008271446068734431
sVbehind
p214
F0.00021756749020758305
sVtook
p215
F0.0004351349804151661
sVchemicals
p216
F0.0
sVpart
p217
F0.0009676971553894139
sVdoctors
p218
F0.0021381377914415933
sV11
p219
F0.00021756749020758305
sV10
p220
F0.0004351349804151661
sVkind
p221
F0.0
sVanxiety
p222
F0.017105102331532746
sV15
p223
F0.00021756749020758305
sVcounteract
p224
F0.0
sV5ht2a
p225
F0.0
sVbinds
p226
F0.0
sVsupposed
p227
F0.0008271446068734431
sVcountry
p228
F0.00048384857769470695
sVran
p229
F0.0008271446068734431
sVmind
p230
F0.0033085784274937725
sVssris
p231
F0.0
sVsay
p232
F0.00021756749020758305
sVlogitude
p233
F0.0
sVseen
p234
F0.00048384857769470695
sVaffinities
p235
F0.0
sVoccupied
p236
F0.0
sVoption
p237
F0.006414413374324779
sVgabaergics
p238
F0.0
sVstrength
p239
F0.0008271446068734431
sVangle
p240
F0.0021381377914415933
sVlatter
p241
F0.0021381377914415933
sVcitrulline
p242
F0.0
sV3mfw31
p243
F0.0
sVexperienced
p244
F0.0021381377914415933
sVunless
p245
F0.0008271446068734431
sVnormal
p246
F0.0008271446068734431
sVknew
p247
F0.0008271446068734431
sVclearer
p248
F0.0
sVsignificant
p249
F0.0042762755828831866
sVapproved
p250
F0.0
sVsub
p251
F0.0008271446068734431
sVequatorial
p252
F0.0
sVespecially
p253
F0.00048384857769470695
sVki
p254
F0.0
sVatypical
p255
F0.0042762755828831866
sVsporadically
p256
F0.0021381377914415933
sVworsens
p257
F0.0
sVshot
p258
F0.00048384857769470695
sVanyway
p259
F0.0016542892137468863
sVbring
p260
F0.00021756749020758305
sVsubtle
p261
F0.006414413374324779
sVfear
p262
F0.0008271446068734431
sVd2
p263
F0.0
sVd3
p264
F0.0
sVurouge
p265
F0.0
sVbased
p266
F0.0008271446068734431
sVless
p267
F0.0004351349804151661
sVocd
p268
F0.0
sVreceptors
p269
F0.010690688957207964
sVgoing
p270
F0.0
sVcombo
p271
F0.0021381377914415933
sVextracellular
p272
F0.0
sVhit
p273
F0.00048384857769470695
sVantagonism
p274
F0.0
sVstop
p275
F0.00021756749020758305
sV13
p276
F0.0008271446068734431
sVones
p277
F0.0016542892137468863
sVbromocriptine
p278
F0.0
sVantagonist
p279
F0.0
sVregarding
p280
F0.0013109931845681501
sVht2c
p281
F0.0
sVht2a
p282
F0.0
sVstupid
p283
F0.0008271446068734431
sVactivity
p284
F0.0042762755828831866
sVrelease
p285
F0.0033085784274937725
sVwrote
p286
F0.0013109931845681501
sVgabapentin
p287
F0.0
sVwiki
p288
F0.0
sVbtw
p289
F0.0
sVdecides
p290
F0.0021381377914415933
sVhabit
p291
F0.0
sVphysically
p292
F0.0021381377914415933
sVht2c_receptor
p293
F0.0
sVsubject
p294
F0.0021381377914415933
sVsaid
p295
F0.00021756749020758305
sV04
p296
F0.0026219863691363003
sVaway
p297
F0.0
sVwikipedia
p298
F0.0
sVlabel
p299
F0.0016542892137468863
sVstate
p300
F0.0008271446068734431
sVprobably
p301
F0.0009676971553894139
sVneither
p302
F0.0013109931845681501
sVdiscovery
p303
F0.0
sVavailable
p304
F0.0016542892137468863
sVdisthymia
p305
F0.0
sVreddit
p306
F0.0
sVloose
p307
F0.0008271446068734431
sVchoroid
p308
F0.0
sVhowever
p309
F0.0013109931845681501
sVselectively
p310
F0.0
sVwp
p311
F0.0
sVarticle
p312
F0.0008271446068734431
sVc
p313
F0.0013054049412454982
sVlast
p314
F0.0004351349804151661
sVagonist
p315
F0.0
sVmany
p316
F0.0
sVtaking
p317
F0.00021756749020758305
sVpiracetam
p318
F0.0
sVgames
p319
F0.0052439727382726006
sVupregulate
p320
F0.0
sVpdf
p321
F0.0042762755828831866
sVexpression
p322
F0.0016542892137468863
sVexperimental
p323
F0.0
sVagonism
p324
F0.0
sVamong
p325
F0.0013109931845681501
sVafaik
p326
F0.0
sVsky
p327
F0.0026219863691363003
sVregulated
p328
F0.0
sVlikes
p329
F0.0008271446068734431
sVthroughout
p330
F0.0008271446068734431
sVavc_datasending_2014_en
p331
F0.0
sVconsidering
p332
F0.0013109931845681501
sVps
p333
F0.0021381377914415933
sVlorcaserin
p334
F0.0
sVdecent
p335
F0.0008271446068734431
sVpc
p336
F0.0021381377914415933
sVinterest
p337
F0.0013109931845681501
sV4
p338
F0.0004351349804151661
sVlived
p339
F0.0013109931845681501
sVefficacy
p340
F0.0
sVformed
p341
F0.0013109931845681501
sVunderstand
p342
F0.00021756749020758305
sVcovered
p343
F0.00048384857769470695
sVcatch
p344
F0.0013109931845681501
sVworked
p345
F0.0019353943107788278
sVlamotrigine
p346
F0.0
sVhonest
p347
F0.0008271446068734431
sVcase
p348
F0.0014515457330841208
sVphysician
p349
F0.0
sVlook
p350
F0.00021756749020758305
sVtricyclics
p351
F0.0
sV2011
p352
F0.0
sVdepressionregimens
p353
F0.0
sVapplies
p354
F0.0
sVstudy
p355
F0.0013109931845681501
sVamisulpride
p356
F0.0
sVexclude
p357
F0.0021381377914415933
sValmost
p358
F0.0004351349804151661
sVbinding
p359
F0.0026219863691363003
sVsurface
p360
F0.0013109931845681501
sVhelped
p361
F0.0026219863691363003
sVanhedonia
p362
F0.0
sVritanserin
p363
F0.0
sVverticaly
p364
F0.0
sVdevelop
p365
F0.0013109931845681501
sVetc
p366
F0.00021756749020758305
sVmedia
p367
F0.0013109931845681501
sVmake
p368
F0.0006527024706227491
sVcheck
p369
F0.0013109931845681501
sVstrange
p370
F0.0014515457330841208
sVdownregulation
p371
F0.0
sVhigher
p372
F0.00048384857769470695
sVweek
p373
F0.0008271446068734431
sVused
p374
F0.0009676971553894139
sVeffect
p375
F0.0006527024706227491
sVmoment
p376
F0.00021756749020758305
sVkaido
p377
F0.0
sVfrequently
p378
F0.0042762755828831866
sVstack
p379
F0.0042762755828831866
sVkid
p380
F0.0042762755828831866
sVprescribed
p381
F0.0021381377914415933
sVlower
p382
F0.0009676971553894139
sVmemantine
p383
F0.0
sVstimuli
p384
F0.0
sVthought
p385
F0.00048384857769470695
sVcosts
p386
F0.0021381377914415933
sVotherwise
p387
F0.0008271446068734431
sVusual
p388
F0.0021381377914415933
sVopinions
p389
F0.0042762755828831866
sVbenzo
p390
F0.0
sVyea
p391
F0.0
sVdose
p392
F0.010690688957207964
sVdopamine
p393
F0.0
sVyes
p394
F0.0004351349804151661
sVadding
p395
F0.0042762755828831866
sVconsole
p396
F0.0021381377914415933
sVthinking
p397
F0.0008271446068734431
sVdopaminergic
p398
F0.0
sVpoint
p399
F0.0004351349804151661
sVseems
p400
F0.00021756749020758305
sVexcept
p401
F0.00048384857769470695
sVaffinity
p402
F0.0
sVtreatment
p403
F0.008552551165766373
sVgave
p404
F0.0013109931845681501
sVincreased
p405
F0.0021381377914415933
sVread
p406
F0.0014515457330841208
sVbig
p407
F0.00021756749020758305
sVpossible
p408
F0.0019353943107788278
sVshitty
p409
F0.0021381377914415933
sVincreases
p410
F0.0021381377914415933
sVinhibition
p411
F0.0
sVknow
p412
F0.0004351349804151661
sVbackground
p413
F0.00021756749020758305
sVusing
p414
F0.00048384857769470695
sVintersection
p415
F0.0
sVformal
p416
F0.0021381377914415933
sVlike
p417
F0.0
sVlost
p418
F0.0
sVreduces
p419
F0.0
sValways
p420
F0.0
sVbecome
p421
F0.00021756749020758305
sVtherapeutic
p422
F0.0
sVopioid
p423
F0.0
sVwww
p424
F0.003932979553704451
sVright
p425
F0.0004351349804151661
sVdeal
p426
F0.0009676971553894139
sVfucking
p427
F0.0021381377914415933
sVback
p428
F0.00021756749020758305
sVselectivity
p429
F0.0
sVpaxil
p430
F0.0
sVadded
p431
F0.0013109931845681501
sVcabergoline
p432
F0.0
sVpain
p433
F0.0008271446068734431
sVintact
p434
F0.0013109931845681501
sVmood
p435
F0.0013109931845681501
sVavoid
p436
F0.00048384857769470695
sVpsychologically
p437
F0.0
sVper
p438
F0.0013109931845681501
sVresponder
p439
F0.0
sVcannabis
p440
F0.0
sVasking
p441
F0.0016542892137468863
sVprovider
p442
F0.0
sVquitting
p443
F0.0
sVrun
p444
F0.00021756749020758305
sVschedule
p445
F0.0021381377914415933
sVnight
p446
F0.00021756749020758305
sVwithdrawals
p447
F0.0
sVblip
p448
F0.0
sV1snri
p449
F0.0
sVdyskensia
p450
F0.0
sVanything
p451
F0.0004351349804151661
sVgetting
p452
F0.00021756749020758305
sVisland
p453
F0.0026219863691363003
sVmonths
p454
F0.0008271446068734431
sVaco
p455
F0.0
sVreinforcing
p456
F0.0
sVcarries
p457
F0.00048384857769470695
sVbenzos
p458
F0.0
sVplus
p459
F0.0008271446068734431
sValliance
p460
F0.0
sVpresence
p461
F0.00048384857769470695
sVnortriptyline
p462
F0.0
sVmushrooms
p463
F0.0013109931845681501
sVd
p464
F0.0
sVoverkill
p465
F0.0
sVen
p466
F0.0026219863691363003
sVreceptor
p467
F0.0
sVrisk
p468
F0.0008271446068734431
sVlong
p469
F0.0
sVstrict
p470
F0.0021381377914415933
sVlow
p471
F0.0019353943107788278
sVway
p472
F0.0004351349804151661
sVmetabolism
p473
F0.0021381377914415933
sVrevamped
p474
F0.0
sVelsewhere
p475
F0.0021381377914415933
sVform
p476
F0.00048384857769470695
sVenough
p477
F0.0
sVsomething
p478
F0.00021756749020758305
sVrelaxed
p479
F0.0013109931845681501
sVrecommend
p480
F0.0021381377914415933
sVht
p481
F0.0
sVasending
p482
F0.0
sVgain
p483
F0.0013109931845681501
sVline
p484
F0.0009676971553894139
sVinverse
p485
F0.0021381377914415933
sVplaces
p486
F0.0013109931845681501
sVmalate
p487
F0.0
sVcool
p488
F0.0021381377914415933
sVpsychosis
p489
F0.0
sVoriginaly
p490
F0.0
sVplanet
p491
F0.0021381377914415933
sVetifoxine
p492
F0.0
sVdmt
p493
F0.0
sVnootropic
p494
F0.0
sVfaded
p495
F0.0021381377914415933
sVproblem
p496
F0.0009676971553894139
sVsimilar
p497
F0.0009676971553894139
sVclear
p498
F0.00021756749020758305
sVlongitude_of_the_ascending_node
p499
F0.0
sVlongjack
p500
F0.0
sVtricyclic
p501
F0.0
sVilegally
p502
F0.0
sVssri
p503
F0.0
sVdoses
p504
F0.0
sVdoesn
p505
F0.00021756749020758305
sVgeneral
p506
F0.0
sVfile
p507
F0.0021381377914415933
sVav
p508
F0.0
sVdealer
p509
F0.0021381377914415933
sVregime
p510
F0.0
sVus
p511
F0.00021756749020758305
sVimage
p512
F0.0013109931845681501
sVpeace
p513
F0.0021381377914415933
sV5
p514
F0.005439187255189576
sVsick
p515
F0.0021381377914415933
sVbecomes
p516
F0.0008271446068734431
sVinclined
p517
F0.0
sVnode
p518
F0.0
sVdependence
p519
F0.0
sVwelcome
p520
F0.00021756749020758305
sVproblems
p521
F0.0009676971553894139
sVamphetamine
p522
F0.0
sVago
p523
F0.0013109931845681501
sVpractically
p524
F0.0021381377914415933
sVsvg
p525
F0.0
sVlot
p526
F0.0
sVorbit
p527
F0.0
sVdaily
p528
F0.0042762755828831866
sVtime
p529
F0.0
sVserious
p530
F0.0008271446068734431
sV12
p531
F0.00021756749020758305
sVrefused
p532
F0.0021381377914415933
s.