(dp0
Vsecondly
p1
F0.0
sVsuicidal
p2
F0.000643661123406996
sVsimilarity
p3
F0.0
sVsaver
p4
F0.0
sVchild
p5
F4.3697069523457736e-05
sVdesirable
p6
F0.0
sVfoul
p7
F7.89318021818522e-05
sVnarcotic
p8
F0.0
sVfour
p9
F5.2396898169760996e-05
sVtmd
p10
F0.0
sVsleep
p11
F0.00418323548996195
sVmshc
p12
F0.0
sVcontroversial
p13
F6.436611234069961e-05
sVpreface
p14
F0.0
sV6pm
p15
F0.0
sVacetylserotonin
p16
F0.0
sVhate
p17
F0.0005792950110662965
sVforget
p18
F0.00034860295749682916
sVwhose
p19
F1.456568984115258e-05
sVcalculate
p20
F6.436611234069961e-05
sVswab
p21
F0.0
sVphysiological
p22
F0.0
sVheighten
p23
F0.0
sV30min
p24
F0.0
sVreferal
p25
F0.0
sVwizardry
p26
F0.0
sVdisfit
p27
F0.0
sVbike
p28
F3.94659010909261e-05
sVteaspoon
p29
F0.0
sVwhatsoever
p30
F3.94659010909261e-05
sVsorry
p31
F0.0003641422460288145
sVdependency
p32
F0.0004505627863848972
sVrestock
p33
F0.0
sVworth
p34
F0.0005229044362452437
sVplasma
p35
F0.00012873222468139922
sVsoftener
p36
F0.0
sVconjecture
p37
F0.0
sVhormone
p38
F0.0
sVrescue
p39
F3.94659010909261e-05
sVphysician
p40
F0.0
sVhypertensive
p41
F0.0
sVdispense
p42
F0.0
sVblanket
p43
F7.89318021818522e-05
sVregional
p44
F6.436611234069961e-05
sVglimepiride
p45
F0.0
sVrelatively
p46
F0.00025746444936279844
sVphenelzineu
p47
F0.0
sVreplication
p48
F0.0
sVmania
p49
F0.0
sVevery
p50
F0.00041917518535808797
sVcbt
p51
F0.0
sVkick
p52
F0.0001992016899981881
sVaffect
p53
F0.0015447866961767905
sVcipralex
p54
F0.0
sVvast
p55
F0.0
sVstiffness
p56
F0.0
sVtheanine
p57
F0.0
sVmedline
p58
F0.0
sVscholar
p59
F0.0001578636043637044
sVprobiotic
p60
F0.0
sVpause
p61
F1.456568984115258e-05
sVloneliness
p62
F0.0
sVaffirm
p63
F0.0
sVsolution
p64
F0.0
sVviable
p65
F0.0
sVhr
p66
F6.436611234069961e-05
sVunrelated
p67
F0.00019309833702209881
sVgehry
p68
F0.0
sVred
p69
F1.3099224542440249e-05
sVprotriptyline
p70
F0.0
sVcholesterol
p71
F6.436611234069961e-05
sVenhance
p72
F7.470063374932053e-05
sVscattershot
p73
F0.0
sVstraight
p74
F5.2396898169760996e-05
sV9pm
p75
F0.0
sVenjoy
p76
F9.960084499909405e-05
sV10k
p77
F0.0
sVoverdo
p78
F0.0
sVforce
p79
F0.00032370274624705567
sVspecially
p80
F6.436611234069961e-05
sVawake
p81
F6.436611234069961e-05
sVcracker
p82
F6.436611234069961e-05
sVconsistent
p83
F6.436611234069961e-05
sVsomewhere
p84
F4.3697069523457736e-05
sVlavender
p85
F0.0
sVpulse
p86
F0.0
sVnail
p87
F7.89318021818522e-05
sVmansion
p88
F0.0
sVsecond
p89
F0.00011789302088196223
sVstreet
p90
F0.00012873222468139922
sV49
p91
F6.436611234069961e-05
sV278
p92
F0.0
sVair
p93
F4.3697069523457736e-05
sVcolourful
p94
F0.0
sVprogestagen
p95
F0.0
sVyoutube
p96
F0.0
sVeven
p97
F0.0006549612271220124
sVlesser
p98
F6.436611234069961e-05
sVdisk
p99
F0.00012873222468139922
sVflurazepam
p100
F0.0
sVfaecal
p101
F0.0
sVworsen
p102
F0.0
sVthunder
p103
F3.94659010909261e-05
sVcefalexin
p104
F0.0
sVweren
p105
F0.00014940126749864106
sVvicodin
p106
F0.0
sVbipolar
p107
F0.0004505627863848972
sVconduct
p108
F0.0
sVnew
p109
F0.0
sVnet
p110
F3.94659010909261e-05
sVpoorly
p111
F6.436611234069961e-05
sVever
p112
F0.0003012821644761257
sVendometriosis
p113
F0.0
sVhobby
p114
F0.00012873222468139922
sVspecialist
p115
F0.0
sVniche
p116
F0.0
sVsimultaneously
p117
F6.436611234069961e-05
sVpresynaptic
p118
F0.0
sVherb
p119
F0.0
sVnever
p120
F0.0
sVjasmine
p121
F0.0
sVmeh
p122
F0.0
sVnonnbreathing
p123
F0.0
sVsinusitis
p124
F0.0
sVstudio
p125
F6.436611234069961e-05
sVq10
p126
F0.0
sVaid
p127
F0.0
sVactive
p128
F0.00017430147874841458
sVpath
p129
F2.913137968230516e-05
sV100
p130
F0.00034860295749682916
sVquite
p131
F0.00012444263315318236
sVdesipramine
p132
F0.0
sVbuddy
p133
F6.436611234069961e-05
sVdry
p134
F0.0005525226152729653
sVremotely
p135
F3.94659010909261e-05
sVcyclical
p136
F0.0
sVsubstance
p137
F0.0
sVdaughter
p138
F1.456568984115258e-05
sVforum
p139
F6.436611234069961e-05
sVtaper
p140
F0.0
sVphenelzine
p141
F0.0
sVk
p142
F3.94659010909261e-05
sVjaipur
p143
F0.0
sVoasis
p144
F0.0
sVlibrium
p145
F0.0
sVcontroversy
p146
F6.436611234069961e-05
sVcredit
p147
F1.456568984115258e-05
sVcrap
p148
F0.00011839770327277828
sVlibrary
p149
F7.89318021818522e-05
sVsmoke
p150
F0.00023679540654555656
sVneurologist
p151
F0.0
sVmilitary
p152
F6.436611234069961e-05
sVaka
p153
F0.0
sVsuitable
p154
F0.0
sVintrigue
p155
F0.0
sVyuri
p156
F0.0
sVclonidine
p157
F0.0
sVappropriately
p158
F0.0
sVterm
p159
F0.0007221061262434319
sVdivide
p160
F6.436611234069961e-05
sVmagically
p161
F6.436611234069961e-05
sVstraw
p162
F3.94659010909261e-05
sViproniazid
p163
F0.0
sVangrily
p164
F6.436611234069961e-05
sVreplace
p165
F3.94659010909261e-05
sVpsychological
p166
F0.00012873222468139922
sVvisible
p167
F7.89318021818522e-05
sVvivid
p168
F0.0
sVgeinoh
p169
F0.0
sVescitralopram
p170
F0.0
sVidiosyncratic
p171
F0.0
sVmedium
p172
F2.4900211249773512e-05
sVcocaine
p173
F6.436611234069961e-05
sV4ddkx7j9fps0
p174
F0.0
sVunit
p175
F0.0
sVtrazodone
p176
F0.0
sVcharge
p177
F7.89318021818522e-05
sVdna
p178
F0.0
sVrapidly
p179
F4.9800422499547024e-05
sVwould
p180
F0.0
sVabnormality
p181
F0.0
sVsnri
p182
F0.0
sVinsecurity
p183
F0.0
sVhospital
p184
F0.0003551931098183349
sVhungry
p185
F7.89318021818522e-05
sVdysfunction
p186
F0.0
sVnegative
p187
F0.0004341249120001871
sVlitre
p188
F0.0
sVprogram
p189
F7.89318021818522e-05
sVcall
p190
F0.0002488852663063647
sVcalm
p191
F0.0005149288987255969
sVtypo
p192
F6.436611234069961e-05
sVrecommend
p193
F0.0016091528085174901
sVleaky
p194
F6.436611234069961e-05
sVtype
p195
F0.000871507393742073
sVtell
p196
F0.0008593757006280023
sVswap
p197
F3.94659010909261e-05
sVnyquil
p198
F0.0
sVincredibly
p199
F0.0004341249120001871
sVmodification
p200
F0.0
sVpaperwork
p201
F0.0
sVcomorbid
p202
F0.0
sVholy
p203
F2.4900211249773512e-05
sVrelax
p204
F0.00023679540654555656
sVsuccessful
p205
F2.4900211249773512e-05
sVhaha
p206
F0.00025746444936279844
sVwarp
p207
F0.0
sVhurt
p208
F0.000643661123406996
sVwarn
p209
F9.960084499909405e-05
sV98
p210
F4.9800422499547024e-05
sVwarm
p211
F2.913137968230516e-05
sVtransiently
p212
F0.0
sVadult
p213
F0.000321830561703498
sVc5
p214
F0.0
sVexcellent
p215
F0.00012873222468139922
sV91
p216
F3.94659010909261e-05
sV90
p217
F0.0003551931098183349
sVward
p218
F6.436611234069961e-05
sVadnan
p219
F0.0
sV95
p220
F4.3697069523457736e-05
sVbruxella
p221
F0.0
sV97
p222
F3.94659010909261e-05
sV96
p223
F6.436611234069961e-05
sVshoot
p224
F0.0003157272087274088
sVmd
p225
F0.0
sVmg
p226
F0.0
sVword
p227
F7.204573498342137e-05
sVroom
p228
F0.00016022258825267838
sVflexeril
p229
F0.0
sVshame
p230
F3.94659010909261e-05
sVpursue
p231
F0.0
sVml
p232
F0.0
sVwork
p233
F0.0
sVroof
p234
F7.89318021818522e-05
sVmj
p235
F0.0
sVmu
p236
F0.0
sVs0379
p237
F0.0
sVoxide
p238
F0.0
sVcuddle
p239
F6.436611234069961e-05
sVreabsorb
p240
F0.0
sVmp
p241
F0.0
sV2c24
p242
F0.0
sVguise
p243
F6.436611234069961e-05
sV3818135
p244
F0.0
sVroot
p245
F0.0001578636043637044
sVexample
p246
F0.00048066776475803516
sVaddictive
p247
F0.0
sVdetach
p248
F0.0
sVvodka
p249
F6.436611234069961e-05
sVacetylcholine
p250
F0.0
sVmileage
p251
F0.0
sVdaptomycin
p252
F0.0
sVgive
p253
F0.0005960147166810313
sVflorida
p254
F0.0
sVdisprders
p255
F0.0
sVreach
p256
F0.00012450105624886755
sVhusband
p257
F0.0001578636043637044
sVgastroenterologist
p258
F0.0
sVdecompression
p259
F0.0
sVinvolve
p260
F0.0
sVchaudry
p261
F0.0
sVquetiapine
p262
F0.0
sVdiscography
p263
F0.0
sVtriptin
p264
F0.0
sVdegenerate
p265
F0.0
sVjumble
p266
F0.0
sVdhhs
p267
F0.0
sVmuseedelavilledebruxelles
p268
F0.0
sVlexapro
p269
F0.0
sVabsolute
p270
F0.00011839770327277828
sVend
p271
F0.00018993875586538359
sVrecovery
p272
F0.00011839770327277828
sVturn
p273
F0.00018935396793498354
sVprovide
p274
F0.0007080272357476957
sVagony
p275
F0.0
sVtravel
p276
F2.913137968230516e-05
sVfeature
p277
F7.89318021818522e-05
sVmachine
p278
F0.00011839770327277828
sVcitalopram
p279
F0.0
sVhot
p280
F4.9800422499547024e-05
sVxifaxin
p281
F0.0
sVtoxin
p282
F0.0
sVhop
p283
F0.0005149288987255969
sVbarbruteral
p284
F0.0
sVanswer
p285
F0.00026218241714074644
sVdisappoint
p286
F6.436611234069961e-05
sVordinary
p287
F1.456568984115258e-05
sVchase
p288
F6.436611234069961e-05
sVmemorization
p289
F6.436611234069961e-05
sVclassify
p290
F0.0
sVmassive
p291
F0.0
sVcredential
p292
F0.0
sVfever
p293
F0.0
sVx
p294
F0.0004505627863848972
sVmess
p295
F0.0003551931098183349
sVarthritis
p296
F0.0
sVvicious
p297
F7.89318021818522e-05
sVlab
p298
F0.0
sVdiagram
p299
F0.0
sVwrong
p300
F8.739413904691547e-05
sVpreconception
p301
F0.0
sVtenormin
p302
F0.0
sVcuriosity
p303
F3.94659010909261e-05
sVready
p304
F3.929767362732074e-05
sVgravol
p305
F0.0
sVsummarize
p306
F0.0
sVlaw
p307
F0.00012873222468139922
sVlap
p308
F0.00012873222468139922
sVlesbian
p309
F6.436611234069961e-05
sVbaseline
p310
F0.00019309833702209881
sVattempt
p311
F4.3697069523457736e-05
sVeffective
p312
F0.0019309833702209882
sVdepressents
p313
F0.0
sVrecieved
p314
F0.0
sVrevolt
p315
F0.0
sVaaaaaannnnnyway
p316
F0.0
sVfictional
p317
F0.0
sVscare
p318
F6.436611234069961e-05
sVmaintain
p319
F0.00011839770327277828
sVgreen
p320
F6.5496122712201245e-06
sVenter
p321
F4.3697069523457736e-05
sVuninsured
p322
F0.0
sVworst
p323
F0.0005919885163638914
sVpreventive
p324
F0.0
sVoperate
p325
F6.436611234069961e-05
sVorder
p326
F8.514495952586161e-05
sVwind
p327
F4.9800422499547024e-05
sVwine
p328
F2.913137968230516e-05
sVrestriction
p329
F0.0
sVoffice
p330
F0.00017430147874841458
sVconsent
p331
F0.00019309833702209881
sVtyramine
p332
F0.0
sVvary
p333
F0.00027626130763648267
sVmurray
p334
F0.0
sVrxconnect
p335
F0.0
sVjacuzzi
p336
F0.0
sVlondon
p337
F0.0
sVreflux
p338
F0.0
sVkeyboard
p339
F3.94659010909261e-05
sVchronically
p340
F0.0
sV10lbs
p341
F0.0
sVlevofloxican
p342
F0.0
sVforehead
p343
F6.436611234069961e-05
sVmanageable
p344
F0.0
sVlovingly
p345
F0.0
sVdecompose
p346
F0.0
sVfit
p347
F0.00010195982888806805
sVpersonal
p348
F0.00010195982888806805
sVfix
p349
F0.00039465901090926097
sVrecreational
p350
F6.436611234069961e-05
sVkidney
p351
F0.00019309833702209881
sV_r
p352
F0.0
sVcomprehend
p353
F0.0
sVfib
p354
F0.0
sV60lbs
p355
F0.0
sVproduction
p356
F0.000321830561703498
sVdifferently
p357
F0.00019732950545463048
sVfade
p358
F0.0001578636043637044
sVpersist
p359
F0.00012873222468139922
sVacupuncture
p360
F0.0
sVprecipitate
p361
F0.0
sVlimbitrlol
p362
F0.0
sVfin
p363
F6.436611234069961e-05
sVeasier
p364
F0.00029880253499728213
sVpropanalol
p365
F0.0
sVanidepressants
p366
F0.0
sVeventually
p367
F0.0004505627863848972
sVcoffee
p368
F3.94659010909261e-05
sVcombination
p369
F0.00029880253499728213
sVweakness
p370
F0.0
sVworkout
p371
F0.0
sVdrowsiness
p372
F0.0
sVschool
p373
F0.0010942239097918934
sVfinish
p374
F9.960084499909405e-05
sVbreak
p375
F0.0004341249120001871
sVband
p376
F7.89318021818522e-05
sVbang
p377
F0.00011839770327277828
sVtherapy
p378
F0.0028964750553314824
sVultravision
p379
F0.0
sVvaping
p380
F0.0
sVhypomanic
p381
F0.0
sVsilver
p382
F3.94659010909261e-05
sVbank
p383
F7.89318021818522e-05
sVlithium
p384
F0.0
sValex
p385
F0.0
sVmeat
p386
F3.94659010909261e-05
sVoxygen
p387
F0.0004505627863848972
sVcvogfsd
p388
F0.0
sVusage
p389
F3.94659010909261e-05
sVreasonably
p390
F6.436611234069961e-05
sVdebut
p391
F0.0
sVl
p392
F2.4900211249773512e-05
sVlosartan
p393
F0.0
sVs40
p394
F0.0
sVreasonable
p395
F0.0001578636043637044
sVfitness
p396
F6.436611234069961e-05
sVhigher
p397
F0.00011652551872922064
sV375
p398
F0.0
sVside
p399
F9.169457179708174e-05
sVbone
p400
F7.470063374932053e-05
sVmean
p401
F0.0004952334545991878
sVwhim
p402
F0.0
sVcetirizine
p403
F0.0
sVconstipation
p404
F0.00019309833702209881
sVfairly
p405
F0.00027626130763648267
sVseries
p406
F0.00025746444936279844
sVoverflow
p407
F6.436611234069961e-05
sVstronger
p408
F0.00019309833702209881
sVepidural
p409
F0.0
sVaide
p410
F0.0
sVvote
p411
F6.436611234069961e-05
sVmember
p412
F0.00019309833702209881
sVimpossible
p413
F0.0001578636043637044
sVunexplained
p414
F6.436611234069961e-05
sVextract
p415
F0.00012873222468139922
sVsaturday
p416
F0.0
sVdepress
p417
F6.436611234069961e-05
sVdecree
p418
F0.0
sVnetwork
p419
F6.436611234069961e-05
sVcymbta
p420
F0.0
sVgod
p421
F7.89318021818522e-05
sVuseless
p422
F6.436611234069961e-05
sVstanford
p423
F0.0
sVrx
p424
F0.0
sVintegrative
p425
F0.0
sVcvomlru
p426
F0.0
sVcontent
p427
F0.00038619667404419763
sVadhesion
p428
F0.0
sVencourage
p429
F0.00012873222468139922
sVdsm
p430
F0.0
sVadapt
p431
F0.0
sVreader
p432
F6.436611234069961e-05
sVmedicine
p433
F0.0022528139319244866
sVsurprise
p434
F0.00012450105624886755
sVrn
p435
F0.0
sVgov
p436
F0.0007723933480883953
sVsluggish
p437
F6.436611234069961e-05
sVduct
p438
F0.0
sVfoundation
p439
F0.0
sVperception
p440
F6.436611234069961e-05
sVschizophrenia
p441
F0.00012873222468139922
sVassociate
p442
F0.0011050452305459307
sVhang
p443
F0.00010195982888806805
sVmetamucil
p444
F0.0
sVrecoving
p445
F0.0
sVfree
p446
F0.00016022258825267838
sVstandard
p447
F2.4900211249773512e-05
sVsensory
p448
F0.00012873222468139922
sVdensity
p449
F3.94659010909261e-05
sVramos
p450
F0.0
sVawful
p451
F0.00017430147874841458
sVstruggle
p452
F0.0005130567141820393
sVnmda
p453
F0.0
sVbiological
p454
F0.0
sVinadequately
p455
F0.0
sVhand
p456
F0.0
sVnytimes
p457
F0.0
sVfret
p458
F0.0
sVdammit
p459
F6.436611234069961e-05
sVate
p460
F3.94659010909261e-05
sVatm
p461
F0.0
sVmetaxalone
p462
F0.0
sVtolerant
p463
F0.0
sVfilter
p464
F3.94659010909261e-05
sVheck
p465
F0.00012873222468139922
sVisn
p466
F0.00026198449084880495
sVsoda
p467
F6.436611234069961e-05
sVmurine
p468
F0.0
sVtransaction
p469
F3.94659010909261e-05
sVloud
p470
F7.89318021818522e-05
sVhire
p471
F6.436611234069961e-05
sVcyclo
p472
F0.0
sVlaggy
p473
F0.0
sValready
p474
F0.00013754185769562262
sVsubtletv
p475
F0.0
sVcarryover
p476
F0.0
sVgrade
p477
F6.436611234069961e-05
sVurogynecologist
p478
F0.0
sVvitro
p479
F0.0
sVrestrict
p480
F0.0
sVwash
p481
F6.436611234069961e-05
sVinstruct
p482
F0.0
sVkurzgesagt
p483
F0.0
sVdristan
p484
F0.0
sVdownside
p485
F0.0
sVanother
p486
F0.00028163332766246535
sVwasn
p487
F0.00023578604176392447
sVsober
p488
F6.436611234069961e-05
sVcategorize
p489
F0.0
sVimmensely
p490
F0.0
sVditch
p491
F0.0
sVsutherland
p492
F0.0
sVcatheter
p493
F6.436611234069961e-05
sVsarotex
p494
F0.0
sVanyone
p495
F0.00023305103745844129
sVpulmonary
p496
F0.0
sVleafly
p497
F0.0
sVinjection
p498
F0.0
sVservice
p499
F0.00012450105624886755
sVindicate
p500
F0.00019309833702209881
sVfluvoxamine
p501
F0.0
sVconcussion
p502
F0.0
sVeuphoric
p503
F0.0
sVapproximately
p504
F0.0
sVfiction
p505
F6.436611234069961e-05
sVeldepryl
p506
F0.0
sVkinder
p507
F0.0
sVton
p508
F0.0008367594604290949
sVmotility
p509
F0.0
sVglucocorticoid
p510
F0.0
sVunderlie
p511
F0.0
sVdwell
p512
F0.0
sVpurposefully
p513
F6.436611234069961e-05
sVjohn
p514
F0.0
sVrecreationally
p515
F0.0
sVduress
p516
F0.0
sVlisten
p517
F0.00034860295749682916
sVent
p518
F0.0
sVmurder
p519
F0.0005149288987255969
sVantihypertensive
p520
F0.0
sVradiation
p521
F6.436611234069961e-05
sVgyn
p522
F0.0
sVtool
p523
F0.00038619667404419763
sV2am
p524
F0.0
sVserve
p525
F3.94659010909261e-05
sVlower
p526
F0.00027674810698189903
sVwaster
p527
F0.0
sVwisdom
p528
F0.0
sViyengar
p529
F0.0
sVtask
p530
F4.9800422499547024e-05
sVpredictable
p531
F0.0
sVsomewhat
p532
F0.000643661123406996
sVcrawl
p533
F7.470063374932053e-05
sVpeculiar
p534
F0.0
sVsymptom
p535
F0.0
sVrls
p536
F0.0
sVanxiety
p537
F0.0063722451217292616
sVcommunicate
p538
F0.00025746444936279844
sVtarget
p539
F0.00019309833702209881
sVhike
p540
F0.0
sVoutlaw
p541
F0.0
sVmirtazipine
p542
F0.0
sVcrave
p543
F0.0
sVmethocarbamol
p544
F0.0
sVpreparation
p545
F6.436611234069961e-05
sVmatter
p546
F0.00018935396793498354
sV5mg
p547
F0.0
sVmodulators
p548
F0.0
sV1600
p549
F0.0
sVhallucination
p550
F0.0
sVsolely
p551
F0.00012873222468139922
sVminus
p552
F6.436611234069961e-05
sVdesperate
p553
F0.00012873222468139922
sVsupplement
p554
F0.0
sVhnpb7fr2780
p555
F0.0
sVcalpol
p556
F0.0
sVnavigate
p557
F6.436611234069961e-05
sVmodern
p558
F1.456568984115258e-05
sVmind
p559
F0.00032370274624705567
sVmine
p560
F0.00023305103745844129
sVginger
p561
F3.94659010909261e-05
sVeps
p562
F0.0
sVrat
p563
F0.00023679540654555656
sVmonoamine
p564
F0.0
sVmanner
p565
F2.4900211249773512e-05
sVrap
p566
F0.00012873222468139922
sVadhd
p567
F0.0
sVarousal
p568
F0.0
sVsolostar
p569
F0.0
sVseem
p570
F0.0004388240221717483
sVregulate
p571
F0.0
sVseek
p572
F5.826275936461032e-05
sVdozen
p573
F0.0001578636043637044
sVlatency
p574
F0.0
sVstrength
p575
F7.470063374932053e-05
sVrealm
p576
F3.94659010909261e-05
sVfaab
p577
F0.0
sVconcrete
p578
F0.0
sV1964
p579
F0.0
sVkittin
p580
F0.0
sVlatter
p581
F0.0004505627863848972
sVresponsible
p582
F7.89318021818522e-05
sV1960
p583
F0.0
sV1961
p584
F0.0
sVfailboat
p585
F0.0
sVchest
p586
F7.470063374932053e-05
sVtoxnet
p587
F0.0
sVluxury
p588
F0.0
sVshelf
p589
F0.0
sVtransmit
p590
F0.0
sVarguably
p591
F0.0
sVeffectiveness
p592
F0.0
sVexactly
p593
F0.00018935396793498354
sVincapable
p594
F6.436611234069961e-05
sVpsychologically
p595
F0.0
sVclonazepam
p596
F0.0
sVhuh
p597
F3.94659010909261e-05
sVmethylphenidate
p598
F0.0
sVmother
p599
F5.2396898169760996e-05
sVsimplify
p600
F0.0
sVnorepinephrine
p601
F0.0
sVregular
p602
F0.0009011255727697944
sVmouth
p603
F0.00034860295749682916
sVaddict
p604
F0.00025746444936279844
sVletter
p605
F7.470063374932053e-05
sVentry
p606
F7.89318021818522e-05
sVphase
p607
F0.0004505627863848972
sVabd
p608
F0.0
sVcontain
p609
F0.00012873222468139922
sVautopsy
p610
F6.436611234069961e-05
sVdoi
p611
F0.0
sVepisode
p612
F0.0007080272357476957
sVabuseof
p613
F0.0
sVaccord
p614
F0.0
sVdoc
p615
F0.0013418406370914874
sVmedical
p616
F0.0007470063374932054
sVcamp
p617
F6.436611234069961e-05
sVflow
p618
F0.00025746444936279844
sVdog
p619
F7.470063374932053e-05
sVjudgmental
p620
F6.436611234069961e-05
sVdigress
p621
F0.0
sVdefinitely
p622
F0.0004731040137456967
sVtech
p623
F0.0013516883591546916
sVcelebrex
p624
F0.0
sVconstrict
p625
F0.0
sVcamg
p626
F0.0
sVscream
p627
F6.436611234069961e-05
sVurgency
p628
F0.0
sVreserve
p629
F6.436611234069961e-05
sVfreak
p630
F0.00019309833702209881
sVphenergran
p631
F0.0
sVprim
p632
F0.0
sVtriptylines
p633
F0.0
sVcoudenberg
p634
F0.0
sVbarbiturate
p635
F0.0
sVreorganize
p636
F0.0
sVprobe
p637
F0.0
sVdetermine
p638
F0.00019309833702209881
sVlyrica
p639
F0.0
sV500
p640
F6.436611234069961e-05
sVulcer
p641
F0.0
sVquad
p642
F0.0
sVlethal
p643
F0.0
sVpmdd
p644
F0.0
sVaustralian
p645
F0.0
sVrandomize
p646
F0.0
sVhypothyroidism
p647
F0.0
sVdepth
p648
F2.4900211249773512e-05
sVbusy
p649
F2.913137968230516e-05
sVchamomile
p650
F0.0
sVbucket
p651
F0.0
sVexplain
p652
F0.0003984033799963762
sVkinase
p653
F0.0
sVsugar
p654
F0.0003551931098183349
sVseethe
p655
F0.0
sVtheme
p656
F0.00012873222468139922
sVpng
p657
F6.436611234069961e-05
sVadequate
p658
F0.0
sVinventor
p659
F0.0
sVsudafed
p660
F0.0
sVpersonality
p661
F7.89318021818522e-05
sVklonapin
p662
F0.0
sVclaritin
p663
F0.0
sVpriadel
p664
F0.0
sVneuropathy
p665
F0.0
sVobjective
p666
F0.0
sVbruise
p667
F0.0
sVde
p668
F2.6198449084880498e-05
sVstop
p669
F0.00037332789945954706
sVperceive
p670
F0.0
sVpsychiatric
p671
F0.0
sVcoast
p672
F0.00011839770327277828
sVredditor
p673
F0.0
sVslanderous
p674
F0.0
sValtogether
p675
F7.89318021818522e-05
sVanxiolytic
p676
F0.0
sVnasty
p677
F0.00023679540654555656
sVdr
p678
F0.0005792950110662965
sVunfortunately
p679
F0.0010298577974511937
sVinfrequent
p680
F0.0
sVbar
p681
F4.9800422499547024e-05
sVsti
p682
F0.0
sVofficially
p683
F0.0
sVhospitalize
p684
F0.0
sVamputation
p685
F6.436611234069961e-05
sVidiotic
p686
F0.0
sVpatch
p687
F0.0003157272087274088
sVbag
p688
F0.0001578636043637044
sVbad
p689
F0.0003471294503746666
sVb6eec4hcam
p690
F0.0
sVrelease
p691
F0.00027390232374750864
sVpsych
p692
F0.0
sVhippocratical
p693
F0.0
sVfertility
p694
F0.00019309833702209881
sVsteal
p695
F2.4900211249773512e-05
sVxrays
p696
F0.0
sVcataplexy
p697
F0.0
sVrespond
p698
F0.0004735908130911131
sVethical
p699
F6.436611234069961e-05
sVnortryptaline
p700
F0.0
sVfuel
p701
F0.0
sVmandatory
p702
F0.0
sVvictim
p703
F6.436611234069961e-05
sVreference
p704
F0.00011839770327277828
sVhabit
p705
F0.0
sVsensitivity
p706
F0.0
sVdopamine
p707
F0.0
sVmyofascial
p708
F0.0
sVemergent
p709
F0.0
sV1960s
p710
F0.0
sVvalsartan
p711
F0.0
sVrecieve
p712
F0.0
sVambien
p713
F0.0
sVresult
p714
F0.0007103862196366698
sVetiz
p715
F0.0
sVhorrendous
p716
F6.436611234069961e-05
sVfail
p717
F0.00013109120857037322
sVmiserable
p718
F0.00011839770327277828
sVdepressive
p719
F0.0
sVhammer
p720
F0.0
sVbest
p721
F0.00030783177674734586
sVsubject
p722
F6.436611234069961e-05
sV02
p723
F0.00012873222468139922
sVinstance
p724
F0.00017430147874841458
sV01
p725
F6.436611234069961e-05
sVcapacity
p726
F0.0
sVduff
p727
F6.436611234069961e-05
sV04
p728
F3.94659010909261e-05
sValtmed
p729
F0.0
sVsorta
p730
F0.00012873222468139922
sVrare
p731
F0.0005149288987255969
sVaway
p732
F0.0
sVwoozy
p733
F0.0
sVwikipedia
p734
F0.0
sVimipramine
p735
F0.0
sVartificial
p736
F0.00012873222468139922
sVmodulate
p737
F0.0
sVgrandmother
p738
F6.436611234069961e-05
sVminimal
p739
F0.0
sVunable
p740
F0.00011839770327277828
sVfinger
p741
F7.470063374932053e-05
sVomeprazole
p742
F0.0
sVhopefully
p743
F0.0
sV22118833
p744
F0.0
sVoccupational
p745
F0.0
sVbaboon
p746
F0.0
sVtolerance
p747
F0.0007080272357476957
sVdiscovery
p748
F0.0
sVreddit
p749
F0.0
sVrelatable
p750
F0.0
sVdeltasone
p751
F0.0
sVnature
p752
F2.6198449084880498e-05
sVwean
p753
F0.0
sVresentful
p754
F0.0
sVweak
p755
F0.00012873222468139922
sVvitamin
p756
F0.0
sVresidual
p757
F6.436611234069961e-05
sVwithdrawl
p758
F0.0
sVwear
p759
F0.0003551931098183349
sVextent
p760
F0.00019309833702209881
sVwp
p761
F0.0
sVcousin
p762
F0.00012873222468139922
sVoxidase
p763
F0.0
sVdrowsy
p764
F0.0
sVptttfysqja4
p765
F0.0
sVrtgqkzkodaa
p766
F0.0
sVmiconazole
p767
F0.0
sVhyoscyamine
p768
F0.0
sVoceanographer
p769
F0.0
sVagonist
p770
F0.0
sVresistant
p771
F0.0
sVcountry
p772
F7.28284492057629e-05
sVill
p773
F4.9800422499547024e-05
sVbrusselsmuseumsnocturnes
p774
F0.0
sVthrob
p775
F0.00019309833702209881
sVincense
p776
F6.436611234069961e-05
sVventricular
p777
F0.0
sVfiancee
p778
F0.0
sVelse
p779
F0.00020958759267904398
sVcod
p780
F6.436611234069961e-05
sVlookin
p781
F3.94659010909261e-05
sVspeciality
p782
F0.0
sVargue
p783
F0.00012873222468139922
sV1_meetingabstracts
p784
F0.0
sVschmooze
p785
F0.0
sVcon
p786
F0.0
sVrph
p787
F0.0
sVdynahist
p788
F0.0
sVtough
p789
F4.9800422499547024e-05
sVpose
p790
F0.0
sVphysiotherapist
p791
F0.0
sVtoni
p792
F0.0
sVcharacter
p793
F4.9800422499547024e-05
sVvain
p794
F3.94659010909261e-05
sVwaaay
p795
F0.0
sV2nd
p796
F7.89318021818522e-05
sVinactivate
p797
F0.0
sVwebmd
p798
F0.0
sVpregnancy
p799
F0.000321830561703498
sVnews
p800
F7.470063374932053e-05
sVmc5
p801
F0.0
sVtrust
p802
F0.0001578636043637044
sVexcedrine
p803
F0.0
sVpanel
p804
F3.94659010909261e-05
sVspeak
p805
F0.00027626130763648267
sVparalyze
p806
F0.0
sVcontraindication
p807
F0.0
sVbathroom
p808
F0.00012873222468139922
sVstrong
p809
F0.00034860295749682916
sVabdominal
p810
F0.0
sVrecur
p811
F0.0
sVbasis
p812
F8.739413904691547e-05
sVchrome
p813
F0.00012873222468139922
sVbinge
p814
F0.0
sVthree
p815
F0.00017028991905172322
sVtiny
p816
F5.826275936461032e-05
sVquickly
p817
F0.00016022258825267838
sVbeer
p818
F0.00019309833702209881
sVtrigger
p819
F0.0012229561344732924
sVinterest
p820
F0.0004341249120001871
sVbasic
p821
F0.0001992016899981881
sVnorvasc
p822
F0.0
sVacuity
p823
F0.0
sVteenager
p824
F6.436611234069961e-05
sVwebsite
p825
F0.00019732950545463048
sVphenytoin
p826
F0.0
sVlife
p827
F0.0004388240221717483
sVdeeper
p828
F6.436611234069961e-05
sVefficacy
p829
F0.0
sV900mg
p830
F0.0
sVsuppress
p831
F0.0
sVsunshine
p832
F6.436611234069961e-05
sVsooooo
p833
F6.436611234069961e-05
sVmelancholia
p834
F0.0
sVuncommon
p835
F0.0001578636043637044
sVargument
p836
F7.89318021818522e-05
sVsprintec
p837
F0.0
sVdota
p838
F0.0
sVlift
p839
F0.00011839770327277828
sVslap
p840
F6.436611234069961e-05
sVpersonally
p841
F4.3697069523457736e-05
sVcatch
p842
F3.94659010909261e-05
sVdeepen
p843
F0.0
sVbuprenorphine
p844
F0.0
sVsad
p845
F9.960084499909405e-05
sVspin
p846
F0.0
sV129
p847
F0.0
sVchill
p848
F0.000321830561703498
sVunpopular
p849
F0.0
sVexception
p850
F7.89318021818522e-05
sVtank
p851
F0.00012873222468139922
sVvendetta
p852
F0.0
sV5a
p853
F0.0
sVamiloride
p854
F0.0
sVlessen
p855
F0.0
sVbuproprion
p856
F0.0
sVspontaneously
p857
F6.436611234069961e-05
sVaim
p858
F3.94659010909261e-05
sVcalcium
p859
F0.0
sVnear
p860
F1.3099224542440249e-05
sVconspiracy
p861
F0.0
sVsuppose
p862
F0.0004341249120001871
sVnytron
p863
F0.0
sVsle
p864
F0.0
sVbalance
p865
F0.000643661123406996
sVstudy
p866
F0.0014207724392733395
sVprocedure
p867
F0.00019309833702209881
sVmistake
p868
F4.3697069523457736e-05
sVseven
p869
F3.94659010909261e-05
sVvasodilation
p870
F0.0
sVir
p871
F0.0
sVclonazolam
p872
F0.0
sViv
p873
F0.0
sVii
p874
F0.0
sVcharacterize
p875
F0.0
sVdizzy
p876
F0.0
sVanhedonia
p877
F0.0
sVbrutal
p878
F0.0
sVexterior
p879
F0.0
sVmisspoke
p880
F0.0
sVinsensitive
p881
F3.94659010909261e-05
sVic
p882
F0.0
sVtremendously
p883
F0.0
sVmouse
p884
F0.00011839770327277828
sVid
p885
F0.00012873222468139922
sVdisappear
p886
F0.00019732950545463048
sVrythm
p887
F0.0
sVtheconversation
p888
F0.0
sVseverity
p889
F0.0
sV2910
p890
F0.0
sVperform
p891
F4.9800422499547024e-05
sVsuggest
p892
F0.0016091528085174901
sVdhe
p893
F0.0
sVrecurrent
p894
F0.0
sV10yrs
p895
F0.0
sVhealthier
p896
F0.0
sVpotentially
p897
F0.0005149288987255969
sVdeteriorate
p898
F0.0
sVincorrectly
p899
F6.436611234069961e-05
sVvag
p900
F6.436611234069961e-05
sVseveral
p901
F0.0007498521207275959
sVcouple
p902
F0.0002476167272995939
sVwheel
p903
F2.4900211249773512e-05
sVevolve
p904
F3.94659010909261e-05
sVnih
p905
F0.0
sVadvocate
p906
F0.0
sVmusically
p907
F0.0
sVscrew
p908
F0.0001578636043637044
sVverapamil
p909
F0.0
sVvulture
p910
F0.0
sVswell
p911
F0.0
sVpick
p912
F0.0001992016899981881
sV8cwybywmqwc
p913
F0.0
sVkit
p914
F7.89318021818522e-05
sVcessation
p915
F0.0
sVafraid
p916
F0.00011652551872922064
sVboiler
p917
F0.0
sVj
p918
F0.00011839770327277828
sVtyson
p919
F0.0
sVovert
p920
F6.436611234069961e-05
sVgeneralize
p921
F0.0
sVkid
p922
F0.00012873222468139922
sVtoxicity
p923
F0.0
sVshortly
p924
F6.436611234069961e-05
sVwebstore
p925
F0.0
sVmushroom
p926
F6.436611234069961e-05
sVshitty
p927
F0.000321830561703498
sVprioritize
p928
F6.436611234069961e-05
sVyoure
p929
F0.0
sVsmoker
p930
F3.94659010909261e-05
sVchanger
p931
F0.0
sVacademic
p932
F6.436611234069961e-05
sVcontact
p933
F7.470063374932053e-05
sVmadvoice
p934
F0.0
sVgreatest
p935
F3.94659010909261e-05
sVnorco
p936
F0.0
sVprescriber
p937
F0.0
sVpicc
p938
F0.0
sVthc
p939
F0.0
sVrout
p940
F0.0
sVbetablocker
p941
F0.0
sV1hr
p942
F0.0
sVantidepressent
p943
F0.0
sVbirth
p944
F0.000321830561703498
sVsentence
p945
F6.436611234069961e-05
sVexcel
p946
F0.0
sVtelework
p947
F0.0
sVsleepy
p948
F0.0005792950110662965
sVacknowledge
p949
F0.0
sVappetite
p950
F0.0010298577974511937
sVfinancially
p951
F0.00012873222468139922
sVidentify
p952
F7.89318021818522e-05
sVinflammatories
p953
F0.0
sVhuman
p954
F4.9800422499547024e-05
sVanders
p955
F0.0
sVyes
p956
F6.549612271220124e-05
sVyet
p957
F0.00011789302088196223
sVsleepiness
p958
F0.0
sVprevious
p959
F2.6198449084880498e-05
sVthyroid
p960
F0.0
sVbagel
p961
F6.436611234069961e-05
sVheadedness
p962
F0.0
sVcandidate
p963
F7.89318021818522e-05
sVyamaha
p964
F0.0
sVmodify
p965
F6.436611234069961e-05
sVease
p966
F7.89318021818522e-05
sVboot
p967
F6.436611234069961e-05
sVroyal
p968
F0.0
sVsubutex
p969
F0.0
sVxr
p970
F0.0
sVopi
p971
F0.0
sVbp1
p972
F0.0
sVtopical
p973
F0.00019309833702209881
sVhydroxozine
p974
F0.0
sVspread
p975
F0.00012873222468139922
sVunwanted
p976
F0.00019309833702209881
sVboard
p977
F4.9800422499547024e-05
sVeasy
p978
F0.0
sVcomplainer
p979
F0.0
sVsave
p980
F0.0001992016899981881
sVhat
p981
F7.470063374932053e-05
sVtolerable
p982
F0.0
sVemphasis
p983
F0.0
sVdesire
p984
F0.00019309833702209881
sVthankfully
p985
F0.0
sV1301571a
p986
F0.0
sVelevation
p987
F0.0
sV36hrs
p988
F0.0
sVcspine
p989
F0.0
sVmayo
p990
F0.0
sVhypersensitive
p991
F0.0
sVpossible
p992
F0.0002913137968230516
sVcosmetic
p993
F6.436611234069961e-05
sVpossibly
p994
F0.00010195982888806805
sVfusion
p995
F0.0
sV2807
p996
F0.0
sV3pm
p997
F0.0
sVbackground
p998
F1.964883681366037e-05
sVperformance
p999
F4.9800422499547024e-05
sVjudge
p1000
F3.94659010909261e-05
sVunique
p1001
F3.94659010909261e-05
sVclonaz
p1002
F0.0
sVrizatriptan
p1003
F0.0
sVshoulder
p1004
F9.960084499909405e-05
sVlidocaine
p1005
F0.0
sVfioricet
p1006
F0.0
sVspecie
p1007
F0.0
sVgift
p1008
F6.436611234069961e-05
sVpatience
p1009
F6.436611234069961e-05
sV55
p1010
F6.436611234069961e-05
sVblunt
p1011
F6.436611234069961e-05
sVunnecessary
p1012
F0.00019309833702209881
sV52
p1013
F7.89318021818522e-05
sVspecific
p1014
F0.0003984033799963762
sVremind
p1015
F3.94659010909261e-05
sVfastest
p1016
F6.436611234069961e-05
sVsparse
p1017
F0.0
sVnight
p1018
F0.00036677828718832694
sVnotorious
p1019
F6.436611234069961e-05
sVsecurity
p1020
F4.9800422499547024e-05
sValdosterone
p1021
F0.0
sVwhomever
p1022
F0.0
sVrhematologist
p1023
F0.0
sVpostsynaptic
p1024
F0.0
sVbeneficial
p1025
F0.00025746444936279844
sVright
p1026
F0.0003274806135610062
sVold
p1027
F0.0
sVdeal
p1028
F0.00027674810698189903
sVoxia
p1029
F0.0
sVtouch
p1030
F0.00011652551872922064
sVdepakene
p1031
F0.0
sVexcerpt
p1032
F0.0
sVsomehow
p1033
F2.4900211249773512e-05
sVelderly
p1034
F0.00019309833702209881
sV50
p1035
F0.00018935396793498354
sVselectivity
p1036
F0.0
sVsure
p1037
F0.0006117589733284083
sVescape
p1038
F4.3697069523457736e-05
sVmultiple
p1039
F0.0003551931098183349
sVbore
p1040
F0.00012873222468139922
sVcreep
p1041
F0.00019309833702209881
sVelmiron
p1042
F0.0
sVtotal
p1043
F9.960084499909405e-05
sVnortriptylene
p1044
F0.0
sVcombat
p1045
F0.0
sVbottom
p1046
F5.2396898169760996e-05
sVear
p1047
F0.00019309833702209881
sVnormal
p1048
F0.0006225052812443378
sVmicrowave
p1049
F6.436611234069961e-05
sVnearsightedness
p1050
F0.0
sVeverything
p1051
F0.00013754185769562262
sVicy
p1052
F7.89318021818522e-05
sVfog
p1053
F0.0
sVshakespeare
p1054
F0.0
sVatenolol
p1055
F0.0
sVumm
p1056
F0.0
sVconfusion
p1057
F6.436611234069961e-05
sVexperimentation
p1058
F0.0
sV424
p1059
F0.0
sVicu
p1060
F0.0
sVcord
p1061
F0.0
sVcore
p1062
F4.9800422499547024e-05
sVslouch
p1063
F0.0
sVpeel
p1064
F6.436611234069961e-05
sVdiltiazem
p1065
F0.0
sVdental
p1066
F0.00019309833702209881
sVburn
p1067
F0.00011839770327277828
sVrhtdcvahy5k
p1068
F0.0
sVpopular
p1069
F0.00019309833702209881
sVprotagonist
p1070
F0.0
sVconfrontation
p1071
F0.0
sVmenopause
p1072
F0.0
sVpeer
p1073
F3.94659010909261e-05
sVoverheat
p1074
F0.0
sVpost
p1075
F0.0004341249120001871
sVsuper
p1076
F0.0004735908130911131
sVvalium
p1077
F0.0
sVheparin
p1078
F0.0
sVpromise
p1079
F0.00011839770327277828
sVcn5
p1080
F0.0
sVrheumatoid
p1081
F0.0
sVinderal
p1082
F0.0
sVinjure
p1083
F0.0
sVv
p1084
F0.0030252072800128816
sVdonation
p1085
F6.436611234069961e-05
sVo
p1086
F1.3099224542440249e-05
sVsnris
p1087
F0.0
sVdespair
p1088
F0.0
sVplus
p1089
F0.0003984033799963762
sVafternoon
p1090
F0.00012873222468139922
sVhorizon
p1091
F6.436611234069961e-05
sVvaginal
p1092
F6.436611234069961e-05
sVincur
p1093
F0.0
sVcommit
p1094
F7.89318021818522e-05
sVtwitch
p1095
F0.00019309833702209881
sVslightly
p1096
F0.00016022258825267838
sVas_sdtp
p1097
F0.0
sVautomatically
p1098
F0.00011839770327277828
sVstimulation
p1099
F0.00012873222468139922
sVreleaser
p1100
F0.0
sVnerve
p1101
F0.002574644493627984
sVmotivate
p1102
F0.0
sVwhats
p1103
F0.0
sVlatent
p1104
F0.0
sVformerly
p1105
F0.0
sVfacility
p1106
F0.0
sVtranquilize
p1107
F0.0
sVpuzzle
p1108
F6.436611234069961e-05
sVfloat
p1109
F3.94659010909261e-05
sVbath
p1110
F6.436611234069961e-05
sVmoremwrong
p1111
F0.0
sVrant
p1112
F0.0
sVstumble
p1113
F0.0
sVstrangely
p1114
F6.436611234069961e-05
sVfamiliarize
p1115
F0.0
sVmhtt
p1116
F0.0
sVdozy
p1117
F0.0
sVurine
p1118
F6.436611234069961e-05
sVadvair
p1119
F0.0
sVamazingly
p1120
F6.436611234069961e-05
sVsupport
p1121
F0.00019732950545463048
sVinitial
p1122
F9.960084499909405e-05
sVnova
p1123
F0.0
sVfight
p1124
F0.00014940126749864106
sVvirgin
p1125
F4.9800422499547024e-05
sVfulminant
p1126
F0.0
sVhumalog
p1127
F0.0
sVway
p1128
F0.00041917518535808797
sVimmune
p1129
F0.00025746444936279844
sVoverhead
p1130
F3.94659010909261e-05
sVangina
p1131
F0.0
sVnortripyline
p1132
F0.0
sVmetabolism
p1133
F6.436611234069961e-05
sVtherefore
p1134
F0.00025746444936279844
sVfork
p1135
F2.4900211249773512e-05
sVpamelor
p1136
F0.0
sVhead
p1137
F0.00013754185769562262
sVsuccessfully
p1138
F0.00012873222468139922
sVform
p1139
F0.00018935396793498354
sVoffer
p1140
F0.0001992016899981881
sVhappen
p1141
F0.00039327362571111966
sVlorazepam
p1142
F0.0
sVdepakote
p1143
F0.0
sVforever
p1144
F0.0001578636043637044
sVacute
p1145
F0.0
sVfailure
p1146
F7.89318021818522e-05
sVheat
p1147
F0.00023679540654555656
sVhear
p1148
F0.00046610207491688257
sVneuro
p1149
F0.0
sVanaesthetic
p1150
F0.0
sVtrue
p1151
F0.00013109120857037322
sVzanaflex
p1152
F0.0
sVreset
p1153
F0.00012873222468139922
sVabsent
p1154
F2.4900211249773512e-05
sVcounsel
p1155
F0.0
sVinjury
p1156
F0.0005792950110662965
sVreproductive
p1157
F0.0
sVurgent
p1158
F0.0
sVassessment
p1159
F0.00012873222468139922
sVinside
p1160
F2.6198449084880498e-05
sVmyopia
p1161
F0.0
sVb6
p1162
F0.0
sVhmm
p1163
F2.4900211249773512e-05
sVmscontin
p1164
F0.0
sVacetabular
p1165
F0.0
sVminor
p1166
F7.470063374932053e-05
sVadenosine
p1167
F0.0
sVemotional
p1168
F0.00019309833702209881
sVdelete
p1169
F7.89318021818522e-05
sVdiagnose
p1170
F0.0017378850331988894
sV150
p1171
F0.0
sVjuvenile
p1172
F0.0
sVlater
p1173
F0.00042330359124614973
sV28th
p1174
F0.0
sVclassic
p1175
F7.89318021818522e-05
sVtoss
p1176
F6.436611234069961e-05
sVabstract
p1177
F0.00012873222468139922
sVmuscular
p1178
F0.0001578636043637044
sVsticky
p1179
F3.94659010909261e-05
sVgland
p1180
F0.0
sVsometime
p1181
F4.9800422499547024e-05
sVexist
p1182
F7.89318021818522e-05
sVcandle
p1183
F0.00019309833702209881
sVtca
p1184
F0.0
sVyuck
p1185
F0.0
sVawhile
p1186
F0.00012873222468139922
sVtooth
p1187
F0.00025746444936279844
sVsedative
p1188
F0.0
sVcheck
p1189
F0.000828783922909448
sVshit
p1190
F0.0007103862196366698
sVconstriction
p1191
F0.0
sVnh
p1192
F0.0
sVrockstead
p1193
F0.0
sVoversimplification
p1194
F0.0
sVfloor
p1195
F0.00027626130763648267
sVna
p1196
F0.0
sVwhereas
p1197
F0.00025746444936279844
sVanesthesiologist
p1198
F0.0
sVgenerally
p1199
F0.0004731040137456967
sVdesvenflaxine
p1200
F0.0
sVactos
p1201
F0.0
sVtil
p1202
F2.4900211249773512e-05
sVibs
p1203
F0.0
sVrole
p1204
F6.436611234069961e-05
sVtutorial
p1205
F6.436611234069961e-05
sVconstruits
p1206
F0.0
sVacetaminophen
p1207
F0.0
sVtest
p1208
F0.0006225052812443378
sVtie
p1209
F3.94659010909261e-05
sVimplant
p1210
F0.0
sVsmell
p1211
F7.89318021818522e-05
sVdizziness
p1212
F0.0005792950110662965
sVtic
p1213
F0.0
sVnode
p1214
F0.0
sVpicture
p1215
F7.470063374932053e-05
sVintend
p1216
F0.00019309833702209881
sVcanto
p1217
F0.0
sVointment
p1218
F0.0
sVfelt
p1219
F0.0006474054924941113
sVmiscellaneous
p1220
F6.436611234069961e-05
sVdiet
p1221
F0.0009011255727697944
sVinterrelate
p1222
F0.0
sVroutinely
p1223
F0.0
sVjourney
p1224
F0.0
sVaware
p1225
F0.0
sVgerd
p1226
F0.0
sVfiimkmdalmgffhibfdjnhljpnigcmohf
p1227
F0.0
sVnxt
p1228
F0.0
sVim
p1229
F0.00012873222468139922
sVlonger
p1230
F9.824418406830186e-05
sVbullet
p1231
F3.94659010909261e-05
sVglass
p1232
F1.3099224542440249e-05
sVassume
p1233
F0.0007080272357476957
sVpethedine
p1234
F0.0
sVinterval
p1235
F0.0
sVdaily
p1236
F0.002574644493627984
sVdiminish
p1237
F0.0
sVtrycyclic
p1238
F0.0
sVfst
p1239
F0.0
sVteeth
p1240
F0.00023679540654555656
sVpush
p1241
F0.00027390232374750864
sVserious
p1242
F0.00022410190124796164
sVsharpen
p1243
F0.0
sVmasturbation
p1244
F6.436611234069961e-05
sVchikane
p1245
F0.0
sVbasically
p1246
F0.0012229561344732924
sVbeckers
p1247
F0.0
sVurinary
p1248
F0.0
sVcoach
p1249
F0.00012873222468139922
sVchain
p1250
F0.00023679540654555656
sVdance
p1251
F2.4900211249773512e-05
sVskip
p1252
F7.89318021818522e-05
sVrelieve
p1253
F0.0
sVost
p1254
F0.0
sVinvent
p1255
F0.00012873222468139922
sVcephedrine
p1256
F0.0
sVpudendal
p1257
F0.0
sVmild
p1258
F0.0
sVmile
p1259
F7.89318021818522e-05
sVasymptomatic
p1260
F0.0
sVgrateful
p1261
F0.0
sVskin
p1262
F1.3099224542440249e-05
sVremarkably
p1263
F0.0
sVmilk
p1264
F6.436611234069961e-05
sVspike
p1265
F6.436611234069961e-05
sVretention
p1266
F0.00012873222468139922
sVvet
p1267
F0.00025746444936279844
sVsuicide
p1268
F0.0004505627863848972
sVdepend
p1269
F0.0004505627863848972
sVn171
p1270
F0.0
sVzone
p1271
F7.470063374932053e-05
sVq4spks8b62q
p1272
F0.0
sVcalorie
p1273
F0.00019309833702209881
sVtechnique
p1274
F0.00025746444936279844
sVsufferer
p1275
F0.0
sVposture
p1276
F0.0
sVenvironment
p1277
F3.94659010909261e-05
sV0
p1278
F0.00039465901090926097
sVfinally
p1279
F0.000828783922909448
sVunpleasant
p1280
F0.00019309833702209881
sVpermanently
p1281
F6.436611234069961e-05
sVrhythm
p1282
F0.00012873222468139922
sVterror
p1283
F0.0
sVexplode
p1284
F0.0
sVmust
p1285
F0.0
sVaspx
p1286
F6.436611234069961e-05
sVimodium
p1287
F0.0
sVirritability
p1288
F0.0
sVrifampicin
p1289
F0.0
sVprotective
p1290
F6.436611234069961e-05
sVadvantage
p1291
F7.89318021818522e-05
sVyeast
p1292
F0.00011839770327277828
sVfsijournal
p1293
F0.0
sVintake
p1294
F0.0
sVvegan
p1295
F0.00012873222468139922
sVchoice
p1296
F0.00022410190124796164
sVnitrate
p1297
F0.0
sVfodmap
p1298
F0.0
sVmourn
p1299
F0.0
sVmasturbate
p1300
F6.436611234069961e-05
sVcook
p1301
F3.94659010909261e-05
sVclonazapam
p1302
F0.0
sVtrouble
p1303
F3.274806135610062e-05
sVdaytime
p1304
F0.00012873222468139922
sVexact
p1305
F0.00017430147874841458
sVsont
p1306
F0.0
sVminute
p1307
F0.0005229044362452437
sVcool
p1308
F6.436611234069961e-05
sVsymbicort
p1309
F0.0
sVlapse
p1310
F0.0
sVrespiratory
p1311
F0.0
sVseratonin
p1312
F0.0
sVprophylactic
p1313
F0.0
sVlevel
p1314
F6.549612271220124e-05
sVtear
p1315
F2.913137968230516e-05
sVdie
p1316
F8.739413904691547e-05
sVdig
p1317
F0.00025746444936279844
sVacetazolomide
p1318
F0.0
sVaccidentally
p1319
F4.9800422499547024e-05
sVmorningtrixie
p1320
F0.0
sVphenergen
p1321
F0.0
sVzonegran
p1322
F0.0
sVitem
p1323
F2.4900211249773512e-05
sVsettle
p1324
F9.960084499909405e-05
sVsubway
p1325
F6.436611234069961e-05
sVpropranalol
p1326
F0.0
sVquick
p1327
F1.3099224542440249e-05
sVguy
p1328
F0.00017430147874841458
sVround
p1329
F4.3697069523457736e-05
sVwellbutrin
p1330
F0.0
sVsurgically
p1331
F0.0
sVanesthetic
p1332
F0.0
sVprevent
p1333
F0.0004341249120001871
sVexcite
p1334
F3.94659010909261e-05
sVaccomplishment
p1335
F0.0
sVslower
p1336
F0.00011839770327277828
sVregret
p1337
F0.00011839770327277828
sVmoloxicam
p1338
F0.0
sVhtm
p1339
F0.00012873222468139922
sVubiquitous
p1340
F0.0
sVdiscover
p1341
F3.94659010909261e-05
sVagitate
p1342
F0.0
sVsign
p1343
F0.00012444263315318236
sVvenlafaxin
p1344
F0.0
sVcost
p1345
F0.0002490021124977351
sV70mg
p1346
F0.0
sVetizolam
p1347
F0.0
sVbacteria
p1348
F0.00012873222468139922
sVcheezit
p1349
F0.0
sVba
p1350
F0.0
sV25ml
p1351
F0.0
sVappear
p1352
F0.00019732950545463048
sVpsychotropic
p1353
F0.0
sVfiller
p1354
F0.0
sVfeat
p1355
F0.0
sVcrackpot
p1356
F0.0
sV25mg
p1357
F0.0
sVcurrent
p1358
F0.00014940126749864106
sVrub
p1359
F0.00025746444936279844
sVhealth
p1360
F0.0012229561344732924
sVsuspect
p1361
F0.00023679540654555656
sVsbtl
p1362
F0.0
sVinternational
p1363
F3.94659010909261e-05
sVelectronically
p1364
F0.0
sVboost
p1365
F0.0
sVreoccur
p1366
F0.0
sValertness
p1367
F0.0
sV8516
p1368
F0.0
sVcreepiest
p1369
F0.0
sVbarcode
p1370
F0.0
sVneurotransmitter
p1371
F0.0
sVabrupt
p1372
F0.0
sVclerk
p1373
F0.00012873222468139922
sVmr
p1374
F0.0
sVlange
p1375
F0.0
sVwater
p1376
F0.00032370274624705567
sVcontemplate
p1377
F3.94659010909261e-05
sVnonbinary
p1378
F0.0
sVfeverfew
p1379
F0.0
sVfractious
p1380
F0.0
sVaddress
p1381
F0.00023679540654555656
sVdangeous
p1382
F0.0
sValong
p1383
F6.549612271220124e-05
sVteacher
p1384
F6.436611234069961e-05
sVchange
p1385
F0.0008217069712425259
sVwait
p1386
F0.00023305103745844129
sVbox
p1387
F5.826275936461032e-05
sVboy
p1388
F7.470063374932053e-05
sVcranial
p1389
F0.0
sVtheorize
p1390
F0.0
sVthirty
p1391
F3.94659010909261e-05
sVekg
p1392
F0.0
sVshift
p1393
F6.436611234069961e-05
sVbot
p1394
F0.0
sVvaginismus
p1395
F0.0
sVsomatic
p1396
F0.0
sVqueue
p1397
F0.0
sVtrial
p1398
F0.0007893180218185219
sVreleif
p1399
F0.0
sVsuggestion
p1400
F0.0003551931098183349
sVjaw
p1401
F0.00011839770327277828
sVusually
p1402
F0.0011454097174895816
sVdecouple
p1403
F0.0
sVweird
p1404
F0.00042330359124614973
sVmirtazapine
p1405
F0.0
sVmassage
p1406
F0.0007080272357476957
sVgenuinely
p1407
F0.00025746444936279844
sVorient
p1408
F0.0
sVpepto
p1409
F0.0
sVteenage
p1410
F6.436611234069961e-05
sVdick
p1411
F0.00012873222468139922
sVuseful
p1412
F0.0005149288987255969
sVctth
p1413
F0.0
sVextra
p1414
F7.470063374932053e-05
sVtrimethoprim
p1415
F0.0
sVmerely
p1416
F0.0
sVprefer
p1417
F0.00022410190124796164
sVloosen
p1418
F0.0
sVlogical
p1419
F0.0
sVsincerely
p1420
F0.0
sVfowlkes
p1421
F0.0
sVmobic
p1422
F0.0
sV89
p1423
F6.436611234069961e-05
sVfake
p1424
F0.00019309833702209881
sVrarely
p1425
F0.0
sVcrisis
p1426
F0.0
sVmarket
p1427
F0.00019732950545463048
sVfranck
p1428
F0.0
sVexcept
p1429
F0.00017478827809383094
sVdiscus
p1430
F0.0
sVprove
p1431
F0.0
sVpositive
p1432
F0.00027390232374750864
sVbedtime
p1433
F0.0
sVvisit
p1434
F0.00017430147874841458
sVfrance
p1435
F0.0
sVlive
p1436
F0.00017028991905172322
sVmemory
p1437
F0.00012450105624886755
sVscope
p1438
F6.436611234069961e-05
sVtachycardia
p1439
F0.0
sVthru
p1440
F6.436611234069961e-05
sVtoday
p1441
F0.0002476167272995939
sVwicked
p1442
F3.94659010909261e-05
sVchapter
p1443
F6.436611234069961e-05
sVtompamax
p1444
F0.0
sVafford
p1445
F0.00019309833702209881
sVcrackazat
p1446
F0.0
sVatarax
p1447
F0.0
sVemployee
p1448
F6.436611234069961e-05
sVtandem
p1449
F0.0
sVeverywhere
p1450
F7.470063374932053e-05
sVdegrade
p1451
F0.0
sVsulfur
p1452
F6.436611234069961e-05
sVeasiest
p1453
F0.0
sVbehalf
p1454
F6.436611234069961e-05
sVfly
p1455
F7.470063374932053e-05
sVhoney
p1456
F3.94659010909261e-05
sVopioids
p1457
F0.0
sV20708057
p1458
F0.0
sVcar
p1459
F0.00012450105624886755
sVoriginally
p1460
F0.00023679540654555656
sVpretend
p1461
F6.436611234069961e-05
sVflu
p1462
F0.00025746444936279844
sVmunchausen
p1463
F0.0
sVbeliever
p1464
F0.0
sVcat
p1465
F0.0001578636043637044
sVhardest
p1466
F6.436611234069961e-05
sVachieve
p1467
F0.00019309833702209881
sVaripiprazole
p1468
F0.0
sVmetoprolol
p1469
F0.0
sVsubjective
p1470
F0.0
sVarrive
p1471
F7.470063374932053e-05
sVdosage
p1472
F0.0019309833702209882
sVsocial
p1473
F4.3697069523457736e-05
sVclaim
p1474
F9.960084499909405e-05
sVcrazy
p1475
F0.00039465901090926097
sVdropper
p1476
F0.0
sVwant
p1477
F0.0
sVfigure
p1478
F0.0005525226152729653
sVamaryl
p1479
F0.0
sVdecember
p1480
F0.0
sVawesome
p1481
F0.00019309833702209881
sVcimetidine
p1482
F0.0
sVfuck
p1483
F0.0009011255727697944
sVagent
p1484
F0.0001992016899981881
sVtopic
p1485
F7.89318021818522e-05
sVstroke
p1486
F6.436611234069961e-05
sVabort
p1487
F6.436611234069961e-05
sVsurround
p1488
F0.0
sVexclude
p1489
F6.436611234069961e-05
sVbelsomra
p1490
F0.0
sVserum
p1491
F0.0
sVpurr
p1492
F0.0
sVredundancy
p1493
F0.0
sVwinter
p1494
F7.89318021818522e-05
sVcivilise
p1495
F0.0
sVnonchalant
p1496
F0.0
sVs2
p1497
F0.0
sVwarfarin
p1498
F0.0
sVdinner
p1499
F4.9800422499547024e-05
sValzheimers
p1500
F0.0
sVchemical
p1501
F0.00038619667404419763
sVtill
p1502
F7.89318021818522e-05
sVvital
p1503
F6.436611234069961e-05
sVcriterion
p1504
F0.0
sVcalve
p1505
F0.0
sVpure
p1506
F1.456568984115258e-05
sVensure
p1507
F0.000321830561703498
sVguarantee
p1508
F0.00019309833702209881
sVpregabaline
p1509
F0.0
sVnonstop
p1510
F0.00019309833702209881
sVanime
p1511
F0.0
sVproduct
p1512
F0.0003157272087274088
sVinflamation
p1513
F0.0
sVmat
p1514
F0.0
sVcocktail
p1515
F6.436611234069961e-05
sVinformation
p1516
F0.00023679540654555656
sVmay
p1517
F0.0007073581252917734
sVmax
p1518
F0.00019309833702209881
sVwonderful
p1519
F7.470063374932053e-05
sVspot
p1520
F2.4900211249773512e-05
sVelusive
p1521
F6.436611234069961e-05
sVdiva
p1522
F0.0
sVlaxative
p1523
F0.0
sVosborne
p1524
F0.0
sVmad
p1525
F2.913137968230516e-05
sVdate
p1526
F0.00027626130763648267
sVsuck
p1527
F0.0004341249120001871
sVmisdiagnosed
p1528
F0.0
sVdata
p1529
F0.00038619667404419763
sVgrow
p1530
F7.89318021818522e-05
sVhopeful
p1531
F0.0
sVman
p1532
F1.964883681366037e-05
sV120
p1533
F0.0
sVstress
p1534
F0.0009077157250913003
sVacid
p1535
F0.00023679540654555656
sVnatural
p1536
F0.00027626130763648267
sVwaist
p1537
F3.94659010909261e-05
sVliquid
p1538
F0.00019309833702209881
sVchiropractic
p1539
F0.0
sVwhenever
p1540
F7.89318021818522e-05
sVmaybe
p1541
F0.0
sVsp
p1542
F6.436611234069961e-05
sVradiator
p1543
F0.0
sVq
p1544
F0.0
sVinform
p1545
F0.00025746444936279844
sVswitch
p1546
F0.0006314544174548176
sVtailor
p1547
F0.0
sVgamma
p1548
F0.0
sVverify
p1549
F0.000321830561703498
sVbasket
p1550
F0.00012873222468139922
sVsa
p1551
F0.00019309833702209881
sV1ohm
p1552
F0.0
sVtalk
p1553
F0.0009960084499909404
sVnearly
p1554
F5.894651044098112e-05
sVexclusive
p1555
F6.436611234069961e-05
sVlsd
p1556
F0.0
sVthieve
p1557
F0.0
sVsciencedirect
p1558
F0.0
sVendep
p1559
F0.0
sVindeed
p1560
F4.9800422499547024e-05
sVepilepsy
p1561
F0.0
sVmainly
p1562
F0.0001578636043637044
sVdamage
p1563
F0.0004341249120001871
sVcourse
p1564
F0.00023305103745844129
sVlarger
p1565
F4.9800422499547024e-05
sVnbsp
p1566
F0.00019309833702209881
sVshake
p1567
F0.00019732950545463048
sVttc
p1568
F0.0
sVcold
p1569
F0.00032370274624705567
sVstill
p1570
F0.0
sVskeleton
p1571
F2.4900211249773512e-05
sVpromote
p1572
F0.00019309833702209881
sVtendency
p1573
F0.00019309833702209881
sVdisconnect
p1574
F6.436611234069961e-05
sVmonitor
p1575
F0.00019309833702209881
sVquivver
p1576
F0.0
sVcomplication
p1577
F0.0
sVreactine
p1578
F0.0
sVsysmptoms
p1579
F0.0
sVpresence
p1580
F2.913137968230516e-05
sVtirzah
p1581
F0.0
sVmidazolam
p1582
F0.0
sVfaves
p1583
F0.0
sVideation
p1584
F0.0
sVhyoscine
p1585
F0.0
sVwindow
p1586
F5.826275936461032e-05
sVapproriate
p1587
F0.0
sV46222
p1588
F0.0
sVpolicy
p1589
F0.000321830561703498
sVmail
p1590
F3.94659010909261e-05
sVmain
p1591
F5.2396898169760996e-05
sV82q
p1592
F0.0
sVwubipdb7xjy
p1593
F0.0
sVndris
p1594
F0.0
sVnon
p1595
F7.859534725464148e-05
sVlonely
p1596
F7.89318021818522e-05
sVopiods
p1597
F0.0
sVlightheadedness
p1598
F0.0
sVhurtiness
p1599
F0.0
sVkiller
p1600
F0.00017430147874841458
sVinsomnia
p1601
F0.0
sVintroduce
p1602
F0.00012873222468139922
sVpolice
p1603
F3.94659010909261e-05
sVunderneath
p1604
F1.456568984115258e-05
sVinterview
p1605
F0.00019309833702209881
sVadrenaline
p1606
F0.0
sVnox
p1607
F0.0
sVmotor
p1608
F0.00012873222468139922
sVbase
p1609
F0.00018935396793498354
sVhalf
p1610
F0.00014409146996684273
sVrecap
p1611
F6.436611234069961e-05
sVdkmntl027
p1612
F0.0
sVbullshit
p1613
F6.436611234069961e-05
sVhalo
p1614
F0.0
sVoutweigh
p1615
F0.0
sVsusceptibility
p1616
F0.0
sVheache
p1617
F0.0
sVhnbk00yzije
p1618
F0.0
sVpolish
p1619
F3.94659010909261e-05
sVranitidine
p1620
F0.0
sV_____________________________________________________
p1621
F0.0
sVthankful
p1622
F0.0
sVtruthful
p1623
F0.0
sVprophylaxis
p1624
F0.0
sVdidn
p1625
F0.00047157208352784893
sVlithobid
p1626
F0.0
sVdoxy
p1627
F0.0
sVconcerta
p1628
F0.0
sVdysphoria
p1629
F0.0
sVgamble
p1630
F6.436611234069961e-05
sVrealise
p1631
F0.0
sVrock
p1632
F2.4900211249773512e-05
sVinstability
p1633
F0.0
sVentirely
p1634
F5.826275936461032e-05
sVquarter
p1635
F0.0001578636043637044
sVvogue
p1636
F0.0
sVgabaergic
p1637
F0.0
sVen
p1638
F0.0005130567141820393
sVeyelid
p1639
F0.0
sVsignificantly
p1640
F0.0
sVbadly
p1641
F5.826275936461032e-05
sVed
p1642
F7.89318021818522e-05
sVeg
p1643
F0.00019309833702209881
sVnassa
p1644
F0.0
sVabnormal
p1645
F3.94659010909261e-05
sV1993
p1646
F0.0
sVbreakthrough
p1647
F0.0
sV2710
p1648
F0.0
sV1200mg
p1649
F0.0
sVzebra
p1650
F0.0
sVsexually
p1651
F0.00012873222468139922
sVvasovagal
p1652
F0.0
sVassumption
p1653
F6.436611234069961e-05
sVgirl
p1654
F0.00011652551872922064
sVfriday
p1655
F0.0
sVep
p1656
F0.0
sVer
p1657
F0.00022410190124796164
sVcanada
p1658
F0.0
sVultimately
p1659
F6.436611234069961e-05
sVcontainer
p1660
F6.436611234069961e-05
sV3rd
p1661
F3.94659010909261e-05
sVspace
p1662
F0.00019732950545463048
sVprofit
p1663
F6.436611234069961e-05
sVirony
p1664
F3.94659010909261e-05
sVsitagliptin
p1665
F0.0
sVinadequacy
p1666
F0.0
sVincrease
p1667
F0.0017364996480007484
sVseriously
p1668
F0.00022410190124796164
sVpriest
p1669
F6.436611234069961e-05
sVtrauma
p1670
F0.0
sVinternet
p1671
F0.0001578636043637044
sVcorrect
p1672
F0.00019732950545463048
sVhcl
p1673
F0.0
sVchemically
p1674
F0.0
sVearlier
p1675
F5.826275936461032e-05
sVtheory
p1676
F0.00025746444936279844
sVolder
p1677
F0.00016022258825267838
sVvariant
p1678
F0.0
sVmillion
p1679
F0.00019309833702209881
sVrely
p1680
F3.94659010909261e-05
sVpossibility
p1681
F0.00027626130763648267
sVneurotrophin
p1682
F0.0
sVspiel
p1683
F0.0
sVdruginfo
p1684
F0.0
sVcalifornia
p1685
F0.0
sVvalporate
p1686
F0.0
sVbesides
p1687
F0.00019732950545463048
sVclozaril
p1688
F0.0
sVorg
p1689
F0.0009654916851104941
sVinhaler
p1690
F0.0
sVcough
p1691
F9.960084499909405e-05
sVremainder
p1692
F6.436611234069961e-05
sVcard
p1693
F0.00019732950545463048
sVcare
p1694
F0.0009866475272731524
sV2014
p1695
F0.0
sVcouldn
p1696
F0.00027674810698189903
sVlanguage
p1697
F2.4900211249773512e-05
sVwaiter
p1698
F0.00012873222468139922
sVdunno
p1699
F0.0001578636043637044
sVdeprivation
p1700
F0.0
sVtransition
p1701
F3.94659010909261e-05
sVowe
p1702
F7.89318021818522e-05
sVhonest
p1703
F9.960084499909405e-05
sVmotion
p1704
F7.89318021818522e-05
sVthing
p1705
F0.00036022867491710683
sVdisable
p1706
F0.00019309833702209881
sVplace
p1707
F0.00013099224542440248
sVundesirable
p1708
F0.0
sVbargain
p1709
F6.436611234069961e-05
sVpromotion
p1710
F6.436611234069961e-05
sVview
p1711
F4.3697069523457736e-05
sVthink
p1712
F0.0008056023093600753
sVfrequent
p1713
F0.000321830561703498
sVfirst
p1714
F0.0005632666553249307
sVexotic
p1715
F6.436611234069961e-05
sVanthing
p1716
F0.0
sVconstantly
p1717
F0.00012450105624886755
sVquestion
p1718
F0.0003495765561876619
sVglucagon
p1719
F0.0
sVsafety
p1720
F0.0001578636043637044
sVparkinson
p1721
F0.0
sVxx
p1722
F0.0
sVspecifically
p1723
F0.0
sVdirectly
p1724
F4.9800422499547024e-05
sVgasp
p1725
F0.0
sVcarry
p1726
F5.894651044098112e-05
sVtransdermal
p1727
F0.0
sVmessage
p1728
F4.9800422499547024e-05
sVopen
p1729
F0.0
sVcheesy
p1730
F6.436611234069961e-05
sVzap
p1731
F0.00012873222468139922
sVsize
p1732
F1.456568984115258e-05
sVfmri
p1733
F0.0
sVcity
p1734
F7.470063374932053e-05
sVlittle
p1735
F0.0
sVnecessarily
p1736
F0.0001578636043637044
sVsheet
p1737
F0.00014940126749864106
sVsilent
p1738
F7.89318021818522e-05
sVquality
p1739
F0.0001992016899981881
sVthirdly
p1740
F0.0
sVbite
p1741
F0.00045153638507573
sVhepatic
p1742
F0.0
sVcarbonate
p1743
F0.0
sVoids
p1744
F0.0
sV1a
p1745
F0.0
sVpsychotic
p1746
F0.00012873222468139922
sVfml
p1747
F0.0
sV2
p1748
F0.00041262557308686785
sVesomeprazole
p1749
F0.0
sVcentenarian
p1750
F0.0
sVmilage
p1751
F0.0
sV1k
p1752
F0.0
sVcite
p1753
F0.0
sVfriend
p1754
F0.00010479379633952199
sV3
p1755
F0.0010632953584041383
sVfexofenadine
p1756
F0.0
sVmethylprednisolone
p1757
F0.0
sVallegedly
p1758
F0.0
sVcope
p1759
F0.00019309833702209881
sVdnz4gdmjgg
p1760
F0.0
sVseason
p1761
F6.436611234069961e-05
sVkenny
p1762
F0.0
sVadrenergic
p1763
F0.0
sVaccurately
p1764
F3.94659010909261e-05
sVprescribers
p1765
F0.0
sVbuts
p1766
F6.436611234069961e-05
sVerectile
p1767
F0.0
sVoutcome
p1768
F0.0
sVridiculous
p1769
F6.436611234069961e-05
sVannoy
p1770
F0.00038619667404419763
sVosteopath
p1771
F0.0
sVbutt
p1772
F6.436611234069961e-05
sVx2
p1773
F0.0
sVoccurence
p1774
F0.0
sV10mg
p1775
F0.0
sVcopy
p1776
F4.9800422499547024e-05
sVspecify
p1777
F0.00012873222468139922
sVboyfriend
p1778
F0.00025746444936279844
sV11
p1779
F1.3099224542440249e-05
sV10
p1780
F0.0001637403067805031
sV13
p1781
F2.4900211249773512e-05
sV12
p1782
F5.2396898169760996e-05
sV15
p1783
F6.549612271220124e-05
sV14
p1784
F0.00027390232374750864
sV17
p1785
F7.470063374932053e-05
sV16
p1786
F7.470063374932053e-05
sV19
p1787
F2.4900211249773512e-05
sV18
p1788
F0.00014940126749864106
sVgotta
p1789
F0.00019732950545463048
sVwar
p1790
F0.00011839770327277828
sVrehab
p1791
F6.436611234069961e-05
sVmutilation
p1792
F0.0
sVfuture
p1793
F2.913137968230516e-05
sVnewtoxnet
p1794
F0.0
sVcopay
p1795
F0.0
sVcollege
p1796
F0.000321830561703498
sVcounselor
p1797
F6.436611234069961e-05
sVoath
p1798
F6.436611234069961e-05
sVproactive
p1799
F0.0
sVpowder
p1800
F7.89318021818522e-05
sVpre
p1801
F7.89318021818522e-05
sVnifedipine
p1802
F0.0
sVcoconut
p1803
F2.913137968230516e-05
sVillness
p1804
F0.0
sVpiece
p1805
F7.470063374932053e-05
sVana
p1806
F6.436611234069961e-05
sVnicer
p1807
F3.94659010909261e-05
sVmindfulness
p1808
F0.0
sV20x
p1809
F0.0
sVpro
p1810
F0.0
sVcymbalta
p1811
F0.0
sVimpingement
p1812
F0.0
sVmarijuana
p1813
F0.000321830561703498
sVphenobarbital
p1814
F0.0
sVdiabeta
p1815
F0.0
sVwoah
p1816
F6.436611234069961e-05
sVsay
p1817
F0.0007139077375629936
sVpubmed
p1818
F0.0
sVtetracyclic
p1819
F0.0
sV20g
p1820
F0.0
sVtylenol
p1821
F0.0
sVportion
p1822
F6.436611234069961e-05
sVbreakfast
p1823
F3.94659010909261e-05
sVrecover
p1824
F2.4900211249773512e-05
sVsaw
p1825
F0.0003984033799963762
sVpebble
p1826
F0.0
sVvasodilator
p1827
F0.0
sVpod
p1828
F0.0
sV_r3ni1nd
p1829
F0.0
sVgambapintine
p1830
F0.0
sVconversion
p1831
F6.436611234069961e-05
sVsumatriptan
p1832
F0.0
sVexploratory
p1833
F0.0
sVefficient
p1834
F0.0
sVadvil
p1835
F0.0
sVbtng
p1836
F0.0
sVisolate
p1837
F0.0
sVaside
p1838
F0.00012450105624886755
sVnote
p1839
F0.00018935396793498354
sVequipment
p1840
F0.0
sVideal
p1841
F7.89318021818522e-05
sVpotential
p1842
F0.000643661123406996
sVonline
p1843
F0.00019732950545463048
sVinterior
p1844
F6.436611234069961e-05
sVdestroy
p1845
F0.00012873222468139922
sVconcern
p1846
F0.0007080272357476957
sVimpair
p1847
F0.0
sVluvox
p1848
F0.0
sVchannel
p1849
F0.0001578636043637044
sV200
p1850
F0.00019309833702209881
sVbegin
p1851
F0.00034860295749682916
sVprinter
p1852
F6.436611234069961e-05
sVpain
p1853
F0.00694715893868681
sVbotulinum
p1854
F0.0
sVopposite
p1855
F7.89318021818522e-05
sVtrack
p1856
F0.00019732950545463048
sVprice
p1857
F7.470063374932053e-05
sVambulance
p1858
F0.0
sVmolecule
p1859
F0.0
sVupregulating
p1860
F0.0
sVbeta
p1861
F0.0013516883591546916
sVimportantly
p1862
F0.0
sVattack
p1863
F0.0003641422460288145
sVtract
p1864
F0.0
sVcvoj5a9
p1865
F0.0
sVknee
p1866
F0.0
sVamerica
p1867
F0.0
sVswing
p1868
F0.00025746444936279844
sVtendon
p1869
F0.0
sVnaturopath
p1870
F0.0
sVespecially
p1871
F0.00026218241714074644
sVlistful
p1872
F0.0
sVthalidomide
p1873
F0.0
sVfoot
p1874
F9.960084499909405e-05
sVaverage
p1875
F7.89318021818522e-05
sVproud
p1876
F3.94659010909261e-05
sVdrive
p1877
F0.0003551931098183349
sVgracefully
p1878
F2.4900211249773512e-05
sVvulvodynia
p1879
F0.0
sVcomorbidity
p1880
F0.0
sVproperly
p1881
F4.3697069523457736e-05
sVpdoc
p1882
F0.0
sVpattern
p1883
F0.0
sVjittery
p1884
F0.0
sVprofessional
p1885
F0.00019732950545463048
sVtypically
p1886
F0.0007723933480883953
sVmoon
p1887
F7.89318021818522e-05
sVquantity
p1888
F0.0
sVshop
p1889
F0.00012873222468139922
sVholistic
p1890
F6.436611234069961e-05
sVstimulator
p1891
F0.0
sVdrastically
p1892
F0.0
sVshot
p1893
F4.3697069523457736e-05
sVshow
p1894
F0.0001113434086107421
sVoiploids
p1895
F0.0
sVcheap
p1896
F7.89318021818522e-05
sVtizanidine
p1897
F0.0
sVelevate
p1898
F0.0
sVbright
p1899
F7.470063374932053e-05
sVtherapist
p1900
F0.0010942239097918934
sVimplanon
p1901
F0.0
sVinconsistent
p1902
F7.89318021818522e-05
sVtiredness
p1903
F0.0
sVhack
p1904
F6.436611234069961e-05
sVamytryptyline
p1905
F0.0
sVscarce
p1906
F0.0
sVaggressive
p1907
F0.0
sVsuperb
p1908
F0.0
sVnlm
p1909
F0.0
sVadhere
p1910
F0.0
sV120mg
p1911
F0.0
sVhelp
p1912
F0.0015588077205503895
sVfibre
p1913
F0.0
sVslow
p1914
F0.00023305103745844129
sVdice
p1915
F6.436611234069961e-05
sVglucotrol
p1916
F0.0
sVtitle
p1917
F3.94659010909261e-05
sVconduction
p1918
F0.0
sVfibro
p1919
F0.0
sV500mg
p1920
F0.0
sVenough
p1921
F0.0
sVfluid
p1922
F0.00019309833702209881
sVharangue
p1923
F0.0
sVseptember
p1924
F0.0
sVblack
p1925
F2.913137968230516e-05
sVladybit
p1926
F0.0
sVpartake
p1927
F6.436611234069961e-05
sVsnip
p1928
F6.436611234069961e-05
sVimprove
p1929
F0.00039465901090926097
sVextracellular
p1930
F0.0
sVawareness
p1931
F0.0
sVaderall
p1932
F0.0
sVfda
p1933
F0.0
sVbackup
p1934
F0.00012873222468139922
sVnootropics
p1935
F0.0
sVtinnitus
p1936
F0.0
sVffs
p1937
F0.0
sVatypical
p1938
F0.0004505627863848972
sVhorrible
p1939
F0.0007103862196366698
sVmtx
p1940
F0.0
sVtruly
p1941
F7.89318021818522e-05
sVtl
p1942
F0.0
sVcannot
p1943
F0.00016022258825267838
sVssi
p1944
F0.0
sV2mg
p1945
F0.0
sVsciatic
p1946
F0.0
sVdiscontinuation
p1947
F0.0
sVconjunction
p1948
F0.0
sVhyphenate
p1949
F0.0
sVgel
p1950
F0.00025746444936279844
sVinpatient
p1951
F0.0
sVblind
p1952
F0.00023679540654555656
sVresource
p1953
F0.00012873222468139922
sVclotrimazole
p1954
F0.0
sVsharpest
p1955
F0.0
sVendorphin
p1956
F0.0
sVseldom
p1957
F6.436611234069961e-05
sVobliterate
p1958
F0.0
sVdisagree
p1959
F0.0
sVisnt
p1960
F6.436611234069961e-05
sVmedial
p1961
F0.0
sVmorning
p1962
F0.0014207724392733395
sVkegals
p1963
F0.0
sVbarbaric
p1964
F0.0
sVstupid
p1965
F4.9800422499547024e-05
sVesophageal
p1966
F0.0
sVvision
p1967
F0.0
sVwiki
p1968
F0.0
sVconcers
p1969
F0.0
sVuti
p1970
F0.0
sVlethargy
p1971
F0.0
sVbuuuuut
p1972
F0.0
sVburst
p1973
F3.94659010909261e-05
sVphysically
p1974
F0.00019309833702209881
sVmalate
p1975
F0.0
sValcoholism
p1976
F0.00025746444936279844
sVseat
p1977
F6.436611234069961e-05
sVrelative
p1978
F6.436611234069961e-05
sVtrick
p1979
F9.960084499909405e-05
sVnamely
p1980
F0.0
sVasleep
p1981
F0.0003551931098183349
sVanyways
p1982
F3.94659010909261e-05
sVhell
p1983
F0.0002490021124977351
sVversus
p1984
F3.94659010909261e-05
sVstigma
p1985
F0.0
sVsurgery
p1986
F0.0012229561344732924
sVsport
p1987
F3.94659010909261e-05
sVrepercussion
p1988
F0.0
sVwonder
p1989
F0.00034860295749682916
sVmultivitamin
p1990
F0.0
sVdetect
p1991
F0.00012873222468139922
sVinhibitory
p1992
F0.0
sVglipizide
p1993
F0.0
sVharvey
p1994
F0.0
sVreview
p1995
F0.0
sVskelaxin
p1996
F0.0
sVdefinite
p1997
F6.436611234069961e-05
sVheavy
p1998
F4.3697069523457736e-05
sVlabel
p1999
F0.0006474054924941113
sVwhereabouts
p2000
F6.436611234069961e-05
sVdws
p2001
F0.0
sVbehind
p2002
F1.964883681366037e-05
sVlandline
p2003
F6.436611234069961e-05
sV10mins
p2004
F0.0
sVherbal
p2005
F0.0004505627863848972
sVyesterday
p2006
F6.436611234069961e-05
sVlisinopril
p2007
F0.0
sVlycan
p2008
F0.0
sVacross
p2009
F0.00014940126749864106
sVverification
p2010
F0.00038619667404419763
sVnotice
p2011
F0.00023305103745844129
sVparent
p2012
F0.00011839770327277828
sV22842584
p2013
F0.0
sVcomp
p2014
F6.436611234069961e-05
sVscreen
p2015
F0.0003157272087274088
sVwednesday
p2016
F0.0
sVblame
p2017
F2.4900211249773512e-05
sVadept
p2018
F0.0
sVsteroid
p2019
F0.0
sVspare
p2020
F7.89318021818522e-05
sVtum
p2021
F0.0
sVheal
p2022
F0.0
sVjk
p2023
F0.0
sVvenlafaxine
p2024
F0.0
sVarticle
p2025
F0.00022410190124796164
sVspark
p2026
F0.0
sVinterfere
p2027
F6.436611234069961e-05
sVcome
p2028
F0.0004650224712566288
sVhurty
p2029
F0.0
sVquack
p2030
F0.00012873222468139922
sVreaction
p2031
F0.00039465901090926097
sVcircumference
p2032
F0.0
sVphilosophically
p2033
F0.0
sVcyclophosphamide
p2034
F0.0
sVtopamax
p2035
F0.0
sVmany
p2036
F0.0
sVregion
p2037
F3.94659010909261e-05
sVsodium
p2038
F0.0
sVdedicate
p2039
F0.0
sVcontract
p2040
F3.94659010909261e-05
sVrestroom
p2041
F6.436611234069961e-05
sVndri
p2042
F0.0
sVvilazodone
p2043
F0.0
sVconcentrate
p2044
F0.00019309833702209881
sVpurely
p2045
F3.94659010909261e-05
sVaura
p2046
F0.0004505627863848972
sV550mg
p2047
F0.0
sVsapolsky
p2048
F0.0
sVdelirium
p2049
F0.0
sVlatuda
p2050
F0.0
sVbackpack
p2051
F6.436611234069961e-05
sVnearby
p2052
F3.94659010909261e-05
sVduty
p2053
F7.89318021818522e-05
sVamong
p2054
F0.00011839770327277828
sVlumieresdelaville
p2055
F0.0
sVafterwards
p2056
F0.00012450105624886755
sVcancer
p2057
F0.000321830561703498
sVtonne
p2058
F0.0
sVcolor
p2059
F4.9800422499547024e-05
sVepileptic
p2060
F0.0
sVpot
p2061
F0.00011839770327277828
sVperiod
p2062
F0.00030587948666420416
sVpop
p2063
F0.0003157272087274088
sVadjudication
p2064
F0.0
sV60
p2065
F0.00023679540654555656
sV99
p2066
F3.94659010909261e-05
sVpole
p2067
F3.94659010909261e-05
sVtricyclic
p2068
F0.0
sVdiffer
p2069
F0.00012873222468139922
sV66
p2070
F6.436611234069961e-05
sVstablon
p2071
F0.0
sV69
p2072
F0.0
sVbizarre
p2073
F6.436611234069961e-05
sVprogablin
p2074
F0.0
sVprocedural
p2075
F0.0
sVhydrate
p2076
F0.0
sVboat
p2077
F0.00012873222468139922
sVworthwhile
p2078
F6.436611234069961e-05
sVturkey
p2079
F0.0004505627863848972
sVbetter
p2080
F0.0004912209203415093
sVcholestatic
p2081
F0.0
sVcompanionship
p2082
F6.436611234069961e-05
sV18mg
p2083
F0.0
sVstretch
p2084
F0.0003157272087274088
sVwest
p2085
F0.00012873222468139922
sVinvert
p2086
F0.0
sVlocally
p2087
F6.436611234069961e-05
sVurge
p2088
F0.0
sVvacation
p2089
F6.436611234069961e-05
sVmark
p2090
F4.9800422499547024e-05
sVbreath
p2091
F4.3697069523457736e-05
sVpulsatile
p2092
F0.0
sVtriptons
p2093
F0.0
sV15ml
p2094
F0.0
sVpeaceful
p2095
F6.436611234069961e-05
sVcardiovascular
p2096
F0.0
sVhelicopter
p2097
F0.0
sVreflex
p2098
F0.0
sV15mg
p2099
F0.0
sV6a
p2100
F0.0
sVdirection
p2101
F2.6198449084880498e-05
sVmpd
p2102
F0.0
sVpioglitazone
p2103
F0.0
sVexasperate
p2104
F0.0
sVinfluence
p2105
F4.9800422499547024e-05
sVthousand
p2106
F9.960084499909405e-05
sVbmi
p2107
F0.0
sVcleave
p2108
F0.0
sVintricacy
p2109
F0.0
sVissue
p2110
F0.0015936135199855048
sVcystitis
p2111
F0.0
sVobserve
p2112
F3.94659010909261e-05
sVwake
p2113
F0.0007221061262434319
sVminister
p2114
F6.436611234069961e-05
sVtreatment
p2115
F0.004248163414486174
sVoverdose
p2116
F0.0007080272357476957
sVpsychotherapy
p2117
F0.0
sVevidence
p2118
F0.00027626130763648267
sVirrelevant
p2119
F6.436611234069961e-05
sVformer
p2120
F1.456568984115258e-05
sVdhea
p2121
F0.0
sVsound
p2122
F0.0005243648342814929
sVconsultant
p2123
F0.00012873222468139922
sV8388533_f520
p2124
F0.0
sVcash
p2125
F3.94659010909261e-05
sVpsychologytoday
p2126
F0.0
sVparagard
p2127
F0.0
sVvoltaren
p2128
F0.0
sVnotoriety
p2129
F0.0
sVignition
p2130
F0.0
sVeditorial
p2131
F0.0
sVreport
p2132
F0.0005525226152729653
sVsituation
p2133
F0.0004735908130911131
sVtemperature
p2134
F3.94659010909261e-05
sVzonked
p2135
F0.0
sVivf
p2136
F0.0
sVviagra
p2137
F0.00012873222468139922
sValcoholic
p2138
F6.436611234069961e-05
sVmucus
p2139
F0.0
sVsecondary
p2140
F7.470063374932053e-05
sVprayer
p2141
F0.0
sVside_effect
p2142
F0.0
sVdubious
p2143
F0.0
sVquiet
p2144
F2.913137968230516e-05
sVstrain
p2145
F0.0
sVsudden
p2146
F7.470063374932053e-05
sVdangerously
p2147
F6.436611234069961e-05
sVyr
p2148
F6.436611234069961e-05
sVimitrex
p2149
F0.0
sVprotein
p2150
F0.0
sVproperty
p2151
F7.28284492057629e-05
sVeveryday
p2152
F0.00025746444936279844
sVworry
p2153
F0.00026218241714074644
sVbinary
p2154
F6.436611234069961e-05
sVdifferent
p2155
F0.000728284492057629
sVpas
p2156
F0.00023679540654555656
sVritalin
p2157
F0.0
sVremission
p2158
F0.0
sVpaw
p2159
F0.0
sVinquire
p2160
F6.436611234069961e-05
sVpay
p2161
F5.2396898169760996e-05
sVattribute
p2162
F0.00011839770327277828
sVrelaxant
p2163
F0.0
sVtrip
p2164
F0.00019732950545463048
sVbatiments
p2165
F0.0
sVfood
p2166
F0.00018935396793498354
sVfatima
p2167
F0.0
sVhtml
p2168
F0.00019309833702209881
sVpad
p2169
F0.00011839770327277828
sVunderestimate
p2170
F6.436611234069961e-05
sVextraintestinal
p2171
F0.0
sVdocument
p2172
F0.00019732950545463048
sVintermediary
p2173
F0.0
sVbreakdown
p2174
F6.436611234069961e-05
sVexhaust
p2175
F0.0
sVoil
p2176
F0.0003551931098183349
sVween
p2177
F0.0
sVsickness
p2178
F6.436611234069961e-05
sVnest
p2179
F3.94659010909261e-05
sVassist
p2180
F6.436611234069961e-05
sVdriver
p2181
F3.94659010909261e-05
sVrequire
p2182
F0.0007080272357476957
sVdiflucan
p2183
F0.0
sVweed
p2184
F0.000321830561703498
sVscientist
p2185
F0.0
sVdecently
p2186
F6.436611234069961e-05
sVvestibular
p2187
F0.0
sVanecdotal
p2188
F0.0
sVrelapse
p2189
F0.0
sVmacrolides
p2190
F0.0
sVtotally
p2191
F0.0002184853476172887
sVsix
p2192
F7.89318021818522e-05
sVfoggy
p2193
F0.00012873222468139922
sVweave
p2194
F6.436611234069961e-05
sVdrain
p2195
F6.436611234069961e-05
sVinsomniac
p2196
F0.0
sVintermittent
p2197
F0.0
sVminimize
p2198
F6.436611234069961e-05
sVantihistamine
p2199
F0.0
sVranch
p2200
F6.436611234069961e-05
sVlady
p2201
F2.913137968230516e-05
sVroughly
p2202
F0.0
sVsyed
p2203
F0.0
sVaccountable
p2204
F0.0
sVwithout
p2205
F0.0
sVrelief
p2206
F0.0
sVbottle
p2207
F0.00032370274624705567
sV92o5yaigmqe
p2208
F0.0
sVmodel
p2209
F4.9800422499547024e-05
sVreward
p2210
F3.94659010909261e-05
sVinstillation
p2211
F0.0
sVnah
p2212
F6.436611234069961e-05
sVjustify
p2213
F0.0
sVsummer
p2214
F7.470063374932053e-05
sVremember
p2215
F0.00011789302088196223
sVnc
p2216
F6.436611234069961e-05
sVbenzo
p2217
F0.0
sVreaaaally
p2218
F0.0
sVmoney
p2219
F0.00011839770327277828
sV100mgs
p2220
F0.0
sVergot
p2221
F0.0
sVrest
p2222
F9.169457179708174e-05
sVrisk
p2223
F0.0005229044362452437
sVaccumulate
p2224
F0.0
sVdehydration
p2225
F0.0
sVreputable
p2226
F0.0
sVkill
p2227
F0.00013109120857037322
sVaspect
p2228
F7.89318021818522e-05
sVnoize
p2229
F0.0
sVn
p2230
F1.3099224542440249e-05
sVreality
p2231
F0.00012873222468139922
sVspeed
p2232
F1.3099224542440249e-05
sVtrimipramine
p2233
F0.0
sVplateau
p2234
F0.0
sVweekly
p2235
F0.00025746444936279844
sVketamine
p2236
F0.0
sVdeath
p2237
F0.0003735031687466027
sVclueless
p2238
F0.0
sVhepatotoxicity
p2239
F0.0
sVangiotensin
p2240
F0.0
sVapplication
p2241
F0.00011839770327277828
sVpreventatively
p2242
F0.0
sVconclude
p2243
F0.0
sVsenseless
p2244
F6.436611234069961e-05
sViphones
p2245
F0.0
sVcrohn
p2246
F0.0
sVblog
p2247
F7.89318021818522e-05
sVwall
p2248
F0.00011839770327277828
sVahhhh
p2249
F0.0
sV4
p2250
F0.00022923642949270435
sVoverview
p2251
F0.0
sVpiriton
p2252
F0.0
sVfunctionality
p2253
F6.436611234069961e-05
sVglyburide
p2254
F0.0
sVdisrupt
p2255
F0.0
sVpill
p2256
F0.0017378850331988894
sVmomentum
p2257
F6.436611234069961e-05
sV0300
p2258
F0.0
sVami
p2259
F0.0
sVaround
p2260
F0.00028818293993368546
sVohai
p2261
F0.0
sVread
p2262
F0.0004224050053934248
sVdiphenhydramine
p2263
F0.0
sVmop
p2264
F0.0
sVdiscontinue
p2265
F0.0
sVgonna
p2266
F7.470063374932053e-05
sVriperdol
p2267
F0.0
sVdark
p2268
F0.0
sVnp
p2269
F0.0
sVinhibition
p2270
F0.0
sVtingle
p2271
F0.0
sVmom
p2272
F0.0005792950110662965
sVfrusemide
p2273
F0.0
sVworld
p2274
F7.28284492057629e-05
sVlignocaine
p2275
F0.0
sVrebecca
p2276
F0.0
sVvague
p2277
F0.0
sVmod
p2278
F6.436611234069961e-05
sVtegretol
p2279
F0.0
sVthiazolidinediones
p2280
F0.0
sVfibromyalgia
p2281
F0.0
sVstranger
p2282
F6.436611234069961e-05
sVpoo
p2283
F6.436611234069961e-05
sVssnri
p2284
F0.0
sVeverytime
p2285
F6.436611234069961e-05
sVmiracle
p2286
F0.0
sVsanity
p2287
F0.0
sVhepatotoxic
p2288
F0.0
sVphysiotherapy
p2289
F0.0
sVeither
p2290
F0.00015719069450928296
sVdrainage
p2291
F0.0
sVoutput
p2292
F6.436611234069961e-05
sVglycol
p2293
F0.0
sVpassionate
p2294
F4.9800422499547024e-05
sVstationary
p2295
F0.0
sVwuling
p2296
F0.0
sVclap
p2297
F3.94659010909261e-05
sVobstruct
p2298
F0.0
sVvicoprofen
p2299
F0.0
sVintervene
p2300
F0.0
sVdoll
p2301
F0.00012873222468139922
sVdebilitate
p2302
F0.0
sVcompetition
p2303
F7.89318021818522e-05
sVchuck
p2304
F0.0
sVcancel
p2305
F0.00012873222468139922
sVeddie
p2306
F0.0
sVerase
p2307
F6.436611234069961e-05
sVunsustainable
p2308
F0.0
sVibuprofen
p2309
F0.0
sVduration
p2310
F0.0
sV72
p2311
F6.436611234069961e-05
sVdivine
p2312
F6.436611234069961e-05
sVbigger
p2313
F4.9800422499547024e-05
sVguesstimate
p2314
F0.0
sVspasm
p2315
F0.0
sVnonzero
p2316
F0.0
sVgross
p2317
F6.436611234069961e-05
sVmood
p2318
F0.0012629088349096352
sVbenzodiazepine
p2319
F0.0
sVcavity
p2320
F0.0
sVhighest
p2321
F0.00019309833702209881
sVlegal
p2322
F0.00012873222468139922
sVconservative
p2323
F3.94659010909261e-05
sVbiest
p2324
F0.0
sVcannabis
p2325
F0.0
sVcritical
p2326
F3.94659010909261e-05
sVexit
p2327
F2.4900211249773512e-05
sVinject
p2328
F0.00019309833702209881
sVpropylthiouracil
p2329
F0.0
sVprovider
p2330
F0.0
sVwelp
p2331
F0.0
sVmaoi
p2332
F0.0
sVmoderate
p2333
F0.00025746444936279844
sVsituate
p2334
F0.0
sVknife
p2335
F2.4900211249773512e-05
sVrefer
p2336
F0.0005792950110662965
sVsibo
p2337
F0.0
sVprocess
p2338
F0.0005525226152729653
sVsmiley
p2339
F0.0
sVtomorrow
p2340
F0.00012873222468139922
sVscientific
p2341
F6.436611234069961e-05
sVpower
p2342
F2.913137968230516e-05
sVuterine
p2343
F0.0
sVtropicamide
p2344
F0.0
sVunmask
p2345
F0.0
sVnotable
p2346
F6.436611234069961e-05
sVianad
p2347
F0.0
sVmechanism_of_action
p2348
F0.0
sVforgetfulness
p2349
F0.0
sVhorizonal
p2350
F0.0
sVcalmer
p2351
F0.0
sVsixty
p2352
F0.0
sVsadder
p2353
F0.0
sVthrow
p2354
F0.0004341249120001871
sVmanufacturer
p2355
F0.0
sVjournaling
p2356
F0.0
sVstone
p2357
F2.4900211249773512e-05
sVx31
p2358
F0.0
sVok
p2359
F0.0001992016899981881
sVpackage
p2360
F4.9800422499547024e-05
sVjeep
p2361
F0.0
sVketoprofen
p2362
F0.0
sVindustry
p2363
F0.00019309833702209881
sVparalysis
p2364
F0.0
sVfavorite
p2365
F2.4900211249773512e-05
sVob
p2366
F0.0
sVmeal
p2367
F7.470063374932053e-05
sVtumor
p2368
F0.0
sVepitalon
p2369
F0.0
sVlocalise
p2370
F0.0
sVbenzos
p2371
F0.0
sV75mg
p2372
F0.0
sVsolidify
p2373
F0.0
sVneighbor
p2374
F7.89318021818522e-05
sVact
p2375
F0.00013109120857037322
sVluck
p2376
F0.0006474054924941113
sVantibody
p2377
F0.0
sVianal
p2378
F0.0
sVroad
p2379
F0.00011839770327277828
sVop
p2380
F0.0007080272357476957
sVamber
p2381
F0.000321830561703498
sVa682388
p2382
F0.0
sVquietly
p2383
F3.94659010909261e-05
sVdesyrel
p2384
F0.0
sVlantus
p2385
F0.0
sVbraggart
p2386
F0.0
sVclenazopam
p2387
F0.0
sVcommunication
p2388
F0.0
sVimage
p2389
F0.0001578636043637044
sVamitriptalyne
p2390
F0.0
sVsplint
p2391
F0.0
sVgeib
p2392
F0.0
sVspinal
p2393
F0.0
sV240
p2394
F0.0
sVnicotine
p2395
F0.0
sVinbox
p2396
F0.0
sVhomeless
p2397
F6.436611234069961e-05
sVapologize
p2398
F0.00012873222468139922
sVactually
p2399
F0.00022923642949270435
sVamitryline
p2400
F0.0
sVhatha
p2401
F0.0
sVempathetic
p2402
F0.0
sVtechnically
p2403
F7.89318021818522e-05
sVpharmaceutical
p2404
F0.0
sVfast
p2405
F5.826275936461032e-05
sVprazosin
p2406
F0.0
sVlog
p2407
F0.0004505627863848972
sVconcussive
p2408
F0.0
sVnline
p2409
F0.0
sVaren
p2410
F0.0001113434086107421
sVwaffer
p2411
F0.0
sVstrictly
p2412
F3.94659010909261e-05
sVfuriex
p2413
F0.0
sVlol
p2414
F0.0004505627863848972
sVpolyphony
p2415
F0.0
sVstart
p2416
F0.0005826275936461033
sVadverse
p2417
F0.0
sVparoxtine
p2418
F0.0
sVdayquil
p2419
F0.0
sVlow
p2420
F0.0008156786311045444
sVseasonal
p2421
F0.0
sVnitric
p2422
F6.436611234069961e-05
sVzolpidem
p2423
F0.0
sVmoclobemide
p2424
F0.0
sVbubble
p2425
F6.436611234069961e-05
sVenergy
p2426
F0.000643661123406996
sVallergic
p2427
F0.00019309833702209881
sVshower
p2428
F6.436611234069961e-05
sVspicy
p2429
F3.94659010909261e-05
sVcomplete
p2430
F1.456568984115258e-05
sVfluphenazine
p2431
F0.0
sVbuggy
p2432
F6.436611234069961e-05
sVremix
p2433
F0.00038619667404419763
sVamongst
p2434
F2.4900211249773512e-05
sVcabinet
p2435
F0.00012873222468139922
sVbookstore
p2436
F6.436611234069961e-05
sVbrain
p2437
F0.001120509506239808
sVmdd
p2438
F0.0
sVcycle
p2439
F0.0003157272087274088
sVlymph
p2440
F0.0
sVe
p2441
F9.169457179708174e-05
sVflatulence
p2442
F0.0
sVorthostatic
p2443
F0.0
sVamplify
p2444
F0.0
sVpull
p2445
F4.3697069523457736e-05
sVregimen
p2446
F0.0
sVoctober
p2447
F0.0
sVromantic
p2448
F6.436611234069961e-05
sVcirculation
p2449
F0.0
sVrage
p2450
F0.00012873222468139922
sVdefault
p2451
F6.436611234069961e-05
sVhardly
p2452
F0.00011839770327277828
sVnadolol
p2453
F0.0
sVanyway
p2454
F0.00029880253499728213
sVexcruciate
p2455
F0.0
sVvomit
p2456
F0.000643661123406996
sVbiomesh
p2457
F0.0
sVmedrol
p2458
F0.0
sVaneurysm
p2459
F0.0
sVdirty
p2460
F3.94659010909261e-05
sVtrigeminal
p2461
F0.0
sVagree
p2462
F0.00016022258825267838
sVexpect
p2463
F7.204573498342137e-05
sVaa
p2464
F0.0
sVmaxalt
p2465
F0.0
sVhaloperidol
p2466
F0.0
sVab
p2467
F0.0
sVautoimmune
p2468
F0.0
sVad
p2469
F0.00011839770327277828
sVcbd
p2470
F0.0
sVtaste
p2471
F9.960084499909405e-05
sVcertain
p2472
F0.0001113434086107421
sVdivalproex
p2473
F0.0
sVdescribe
p2474
F0.0004735908130911131
sVdeep
p2475
F2.913137968230516e-05
sVgeneral
p2476
F0.0
sVexamine
p2477
F7.89318021818522e-05
sVhypertension
p2478
F0.0
sVtogether
p2479
F0.0
sVfile
p2480
F0.00012873222468139922
sVav
p2481
F0.0
sVgirlfriend
p2482
F0.00012873222468139922
sVmelatonin
p2483
F0.0
sVcrappiness
p2484
F0.0
sVhappy
p2485
F0.0001456568984115258
sVcream
p2486
F0.00027626130763648267
sVtedious
p2487
F0.0
sVhasnt
p2488
F0.0
sVyoga
p2489
F0.0008367594604290949
sVbrighter
p2490
F6.436611234069961e-05
sVhydralazine
p2491
F0.0
sV325mg
p2492
F0.0
sVbackstroke
p2493
F0.0
sVdiarrhea
p2494
F0.000321830561703498
sV19344297
p2495
F0.0
sVwu4nqcpv9yc
p2496
F0.0
sVol
p2497
F3.94659010909261e-05
sVintrospection
p2498
F0.0
sVtight
p2499
F9.960084499909405e-05
sV5
p2500
F0.00022923642949270435
sVactifed
p2501
F0.0
sVdoxylamine
p2502
F0.0
sVinstantly
p2503
F0.00012873222468139922
sVredd
p2504
F0.0
sVpoor
p2505
F4.584728589854087e-05
sVbriefly
p2506
F0.00012873222468139922
sVnarco
p2507
F0.0
sVxanax
p2508
F0.0
sVnaproxen
p2509
F0.0
sVtime
p2510
F0.0
sVdrift
p2511
F0.0
sVcatastrophize
p2512
F0.0
sVa1
p2513
F0.0
sVui0
p2514
F0.0
sVimportant
p2515
F0.0004735908130911131
sVcoverage
p2516
F0.0
sVn1
p2517
F0.0
sVtackle
p2518
F2.4900211249773512e-05
sVrevolve
p2519
F0.0
sVintimacy
p2520
F0.0
sVnoticeable
p2521
F6.436611234069961e-05
sVtricky
p2522
F6.436611234069961e-05
sVinsurance
p2523
F0.0007723933480883953
sVunbind
p2524
F0.0
sVclinically
p2525
F0.0
sVbilateral
p2526
F0.0
sVarrousal
p2527
F0.0
sVmask
p2528
F6.436611234069961e-05
sVtitration
p2529
F0.0
sVmimic
p2530
F6.436611234069961e-05
sVweek
p2531
F0.0013695116187375433
sVbehavioral
p2532
F0.0
sValright
p2533
F0.00011839770327277828
sVhusky
p2534
F6.436611234069961e-05
sVcps
p2535
F0.0
sVoral
p2536
F0.0007080272357476957
sVoriginal
p2537
F4.3697069523457736e-05
sVcatapres
p2538
F0.0
sVcorticosteroid
p2539
F0.0
sVconsider
p2540
F0.00039327362571111966
sVmaximum
p2541
F0.00025746444936279844
sVroman
p2542
F0.0
sVhydrobromide
p2543
F0.0
sVallergy
p2544
F0.0005792950110662965
sVdollar
p2545
F6.436611234069961e-05
sVmonth
p2546
F0.0014420032942741056
sVsulfonylurea
p2547
F0.0
sVsurgical
p2548
F0.0
sVcommute
p2549
F6.436611234069961e-05
sVnitroglycerin
p2550
F0.0
sVoxycodone
p2551
F0.0
sVpicturebook
p2552
F0.0
sVdahlia
p2553
F0.0
sVfollow
p2554
F0.00018935396793498354
sVmeditation
p2555
F0.0
sVcatheterize
p2556
F6.436611234069961e-05
sVhardcore
p2557
F0.00019309833702209881
sVreluctant
p2558
F0.0
sVsynthetic
p2559
F6.436611234069961e-05
sVresponsiveness
p2560
F0.0
sVcareful
p2561
F0.00027626130763648267
sVtopiramate
p2562
F0.0
sVcatastrophe
p2563
F0.0
sVtv
p2564
F0.00025746444936279844
sVgyns
p2565
F0.0
sVwatch
p2566
F0.0
sVwhite
p2567
F4.3697069523457736e-05
sVthursday
p2568
F0.0
sVspirit
p2569
F2.4900211249773512e-05
sVtn
p2570
F0.0
sVcommonly
p2571
F0.0
sVinvestigational
p2572
F0.0
sVtm
p2573
F6.436611234069961e-05
sVdairy
p2574
F0.0
sV1mg
p2575
F0.0
sVti
p2576
F0.0
sVlin
p2577
F0.0
sVsmile
p2578
F3.94659010909261e-05
sVpresentation
p2579
F0.00019309833702209881
sVendogenous
p2580
F0.0
sVcase
p2581
F0.00045153638507573
sVfax
p2582
F0.0
sVwoman
p2583
F0.00017478827809383094
sVappointment
p2584
F0.0010298577974511937
sVworse
p2585
F0.0005826275936461033
sVstraightforward
p2586
F0.0
sVsong
p2587
F7.28284492057629e-05
sVfar
p2588
F0.0002226868172214842
sVapoptosis
p2589
F0.0
sVrambunctious
p2590
F0.0
sViud
p2591
F0.0
sVfat
p2592
F0.00011839770327277828
sVfocus
p2593
F0.0007080272357476957
sVpsychologist
p2594
F0.0
sVcandid
p2595
F0.0
sVfan
p2596
F2.4900211249773512e-05
sVdecide
p2597
F0.0005919885163638914
sVfall
p2598
F0.0004341249120001871
sVfloater
p2599
F0.0
sVcandida
p2600
F0.0
sVdifference
p2601
F0.0004341249120001871
sVnewly
p2602
F6.436611234069961e-05
sVcondition
p2603
F0.0005478046474950173
sVsplitter
p2604
F6.436611234069961e-05
sVneurological
p2605
F0.0
sVheaven
p2606
F3.94659010909261e-05
sVpotentiation
p2607
F0.0
sVsans
p2608
F0.0
sVheadache
p2609
F0.007595201256202554
sVgiddings
p2610
F0.0
sVachy
p2611
F0.0
sVoverprotective
p2612
F0.0
sVlist
p2613
F0.00042330359124614973
sVprogesterone
p2614
F0.0
sVclozapine
p2615
F0.0
sVasexual
p2616
F0.00012873222468139922
sVsane
p2617
F0.00012873222468139922
sVsedation
p2618
F0.0
sVsmall
p2619
F0.00010479379633952199
sVinjectable
p2620
F0.0
sVshed
p2621
F0.0
sVvicoden
p2622
F0.0
sVtoradol
p2623
F0.0
sVquicker
p2624
F6.436611234069961e-05
sVantibiotic
p2625
F0.0
sVremeron
p2626
F0.0
sVten
p2627
F7.28284492057629e-05
sVtea
p2628
F7.470063374932053e-05
sVpaso
p2629
F0.0
sVpriority
p2630
F0.0
sVjib
p2631
F0.0
sVpast
p2632
F0.00013109120857037322
sVorgasm
p2633
F0.00038619667404419763
sVzero
p2634
F0.00019732950545463048
sVprogress
p2635
F1.456568984115258e-05
sVlawyer
p2636
F0.00019309833702209881
sVwife
p2637
F0.00027626130763648267
sVwyeth
p2638
F0.0
sVtemporal
p2639
F0.0
sVpsycho
p2640
F6.436611234069961e-05
sVtoilet
p2641
F0.00012873222468139922
sVintimately
p2642
F0.0
sVaminophylline
p2643
F0.0
sVhormonal
p2644
F6.436611234069961e-05
sVsub
p2645
F0.00014940126749864106
sVimprovement
p2646
F0.0003551931098183349
sVclock
p2647
F0.00011839770327277828
sVjanuvia
p2648
F0.0
sVpsychosomatic
p2649
F0.0
sVsection
p2650
F0.00011839770327277828
sVmetoclopramide
p2651
F0.0
sVstool
p2652
F0.00012873222468139922
sVcaffeine
p2653
F0.0005149288987255969
sVoverload
p2654
F0.0
sVpublic
p2655
F4.9800422499547024e-05
sVversion
p2656
F0.00027626130763648267
sVrun
p2657
F0.00014409146996684273
sVpalemor
p2658
F0.0
sVnightguards
p2659
F0.0
sVnurse
p2660
F0.00019309833702209881
sVmum
p2661
F3.94659010909261e-05
sVmethod
p2662
F0.000321830561703498
sVmovement
p2663
F7.470063374932053e-05
sVhasn
p2664
F0.00011652551872922064
sVfull
p2665
F0.0
sVmull
p2666
F0.0
sVfugue
p2667
F0.0
sVunprofessional
p2668
F6.436611234069961e-05
sVloose
p2669
F4.9800422499547024e-05
sVcomponent
p2670
F7.89318021818522e-05
sVcertainly
p2671
F5.826275936461032e-05
sVoveractive
p2672
F0.0
sVlack
p2673
F0.00010195982888806805
sVshouldn
p2674
F9.960084499909405e-05
sVselective
p2675
F0.0
sVoldie
p2676
F0.0
sVaffectionately
p2677
F0.0
sVrelaxation
p2678
F0.0
sV25505248
p2679
F0.0
sVignore
p2680
F7.470063374932053e-05
sVnovember
p2681
F0.0
sVcirrhosis
p2682
F0.0
sVsert
p2683
F0.0
sVnti
p2684
F0.0
sVsearch
p2685
F0.00017430147874841458
sVreadyfill
p2686
F0.0
sVahead
p2687
F4.9800422499547024e-05
sVreuptaken
p2688
F0.0
sVmdma
p2689
F0.0
sVcompliance
p2690
F0.0
sVdysorgasmia
p2691
F0.0
sVexperience
p2692
F0.0019338291534553788
sVprior
p2693
F0.00012873222468139922
sVamount
p2694
F0.00032370274624705567
sVtemazepam
p2695
F0.0
sV1000mg
p2696
F0.0
sV_all_
p2697
F6.436611234069961e-05
sVmisery
p2698
F6.436611234069961e-05
sVaction
p2699
F0.00023679540654555656
sVdismiss
p2700
F6.436611234069961e-05
sVnarrow
p2701
F3.94659010909261e-05
sVhump
p2702
F0.00012873222468139922
sVacamar
p2703
F0.0
sVtimeline
p2704
F0.0
sVvia
p2705
F0.00019309833702209881
sVfamily
p2706
F0.0003735031687466027
sVsuddenly
p2707
F5.826275936461032e-05
sVagomelatine
p2708
F0.0
sVteeny
p2709
F0.0
sVqzz7fkc1uny
p2710
F0.0
sVask
p2711
F0.0003143813890185659
sVchunky
p2712
F6.436611234069961e-05
sVmutant
p2713
F6.436611234069961e-05
sVseroquel
p2714
F0.0
sVvit
p2715
F0.0
sVmagnesium
p2716
F0.0
sVestablish
p2717
F6.436611234069961e-05
sVselect
p2718
F0.00012873222468139922
sVergotamine
p2719
F0.0
sVsoundly
p2720
F0.0
sVeye
p2721
F0.0003157272087274088
sVdpdr
p2722
F0.0
sVamaze
p2723
F0.0
sVtexting
p2724
F6.436611234069961e-05
sVtwo
p2725
F0.0
sVirritate
p2726
F0.0
sVgenerate
p2727
F6.436611234069961e-05
sVpiggyback
p2728
F6.436611234069961e-05
sVanger
p2729
F7.89318021818522e-05
sVcompensate
p2730
F0.0
sVextraneous
p2731
F6.436611234069961e-05
sVautomate
p2732
F6.436611234069961e-05
sV6
p2733
F0.00017028991905172322
sVfourtracker
p2734
F0.0
sVmetformin
p2735
F0.0
sVballad
p2736
F0.0
sVteen
p2737
F3.94659010909261e-05
sVmm
p2738
F3.94659010909261e-05
sVflaw
p2739
F0.0
sVscotia
p2740
F0.0
sVdoor
p2741
F5.826275936461032e-05
sVdepartment
p2742
F0.00012873222468139922
sVrelevant
p2743
F0.0
sVcompany
p2744
F2.6198449084880498e-05
sVoutpatient
p2745
F0.0
sVsurprisingly
p2746
F6.436611234069961e-05
sVexcuse
p2747
F4.9800422499547024e-05
sVflag
p2748
F4.9800422499547024e-05
sVstick
p2749
F0.00027626130763648267
sVparticular
p2750
F8.739413904691547e-05
sVmellow
p2751
F6.436611234069961e-05
sVhurry
p2752
F1.456568984115258e-05
sVpercoset
p2753
F0.0
sVglad
p2754
F8.739413904691547e-05
sVtown
p2755
F2.4900211249773512e-05
sV8hrs
p2756
F0.0
sVnone
p2757
F0.0001992016899981881
sVinclude
p2758
F0.0013813065381824135
sVhour
p2759
F0.0008217069712425259
sVcluster
p2760
F0.0
sVrecall
p2761
F0.00019309833702209881
sVnovolog
p2762
F0.0
sVperiphery
p2763
F0.0
sVremain
p2764
F3.94659010909261e-05
sVnod
p2765
F0.00019309833702209881
sVnine
p2766
F1.456568984115258e-05
sVedit
p2767
F0.0012229561344732924
sVmorgan
p2768
F0.0
sVlearn
p2769
F0.001480420583836091
sVmale
p2770
F7.470063374932053e-05
sVobtain
p2771
F0.0
sVmarble
p2772
F0.0
sVhistory
p2773
F0.0001992016899981881
sVallegra
p2774
F0.0
sVcompare
p2775
F0.0004341249120001871
sVinexpensive
p2776
F0.0
sVatrocious
p2777
F0.00012873222468139922
sVscan
p2778
F0.0006314544174548176
sVshare
p2779
F7.28284492057629e-05
sVaccept
p2780
F7.470063374932053e-05
sVterrible
p2781
F0.00034860295749682916
sVpharmacokinetics
p2782
F0.0
sVminimum
p2783
F3.94659010909261e-05
sVcvotcn1
p2784
F0.0
sV7173
p2785
F0.0
sVsense
p2786
F3.929767362732074e-05
sVsharp
p2787
F6.436611234069961e-05
sVscar
p2788
F0.000643661123406996
sVdress
p2789
F7.470063374932053e-05
sVhuge
p2790
F9.169457179708174e-05
sVrespective
p2791
F0.0
sVcourt
p2792
F7.89318021818522e-05
sVgoal
p2793
F0.00019309833702209881
sVzantac
p2794
F0.0
sVrather
p2795
F0.0002039196577761361
sVcomfort
p2796
F0.0
sVformulate
p2797
F0.0
sVfame
p2798
F6.436611234069961e-05
sVoccasionally
p2799
F4.9800422499547024e-05
sVcommercial
p2800
F6.436611234069961e-05
sVpleae
p2801
F0.0
sVreject
p2802
F0.0004505627863848972
sVoccur
p2803
F0.0007723933480883953
sVulnar
p2804
F0.0
sVimpend
p2805
F0.0
sVhopeless
p2806
F0.00025746444936279844
sVupto
p2807
F0.0
sVsimplicity
p2808
F0.0
sVhypersomnia
p2809
F0.0
sVpleasure
p2810
F2.4900211249773512e-05
sVokay
p2811
F0.0005919885163638914
sVamitrip
p2812
F0.0
sVadvice
p2813
F0.000643661123406996
sVwiley
p2814
F0.0
sVsympathize
p2815
F0.0
sVreuptake
p2816
F0.0
sVupload
p2817
F0.00012873222468139922
sVsoundtrack
p2818
F0.0
sVbrintellix
p2819
F0.0
sVplane
p2820
F6.436611234069961e-05
sVwhilst
p2821
F7.89318021818522e-05
sVblood
p2822
F0.0014442122524868637
sVnumb
p2823
F0.0
sVfi
p2824
F6.436611234069961e-05
sVb12
p2825
F0.0
sVresponse
p2826
F0.0007723933480883953
sVrefuse
p2827
F9.960084499909405e-05
sVshort
p2828
F0.0001113434086107421
sVmorphine
p2829
F0.00025746444936279844
sVonto
p2830
F2.4900211249773512e-05
sVovernight
p2831
F0.00019309833702209881
sVanytime
p2832
F0.00025746444936279844
sVassign
p2833
F0.0
sVchildbearing
p2834
F0.0
sVperhaps
p2835
F0.0001578636043637044
sVvulvonologist
p2836
F0.0
sVolanzipine
p2837
F0.0
sVnegligible
p2838
F0.0
sVmethadone
p2839
F0.0
sVrheumatologist
p2840
F0.0
sVmorten
p2841
F0.0
sVretroorbital
p2842
F0.0
sVdream
p2843
F0.0003157272087274088
sVturmeric
p2844
F0.0
sVfeed
p2845
F7.89318021818522e-05
sVtallahassee
p2846
F0.0
sVanonymous
p2847
F3.94659010909261e-05
sVpant
p2848
F6.436611234069961e-05
sVincessantly
p2849
F6.436611234069961e-05
sVsertraline
p2850
F0.0
sVaromatherapy
p2851
F0.0
sVmayoclinic
p2852
F0.0
sVsoon
p2853
F0.00011789302088196223
sVtramadol
p2854
F0.0
sVtrade
p2855
F4.9800422499547024e-05
sVtop
p2856
F0.0002039196577761361
sVbearable
p2857
F6.436611234069961e-05
sVattitude
p2858
F6.436611234069961e-05
sVpaper
p2859
F0.00012450105624886755
sVrxlist
p2860
F0.0
sVdestruction
p2861
F0.0
sVmilwaukee
p2862
F0.0
sVsuffer
p2863
F0.0007498521207275959
sVtrkb
p2864
F0.0
sV24
p2865
F0.00022410190124796164
sV25
p2866
F0.0002490021124977351
sVosteo
p2867
F0.0
sVblast
p2868
F7.89318021818522e-05
sV20
p2869
F7.859534725464148e-05
sV21
p2870
F7.470063374932053e-05
sV22
p2871
F4.9800422499547024e-05
sV23
p2872
F4.9800422499547024e-05
sVpray
p2873
F2.4900211249773512e-05
sVpcp
p2874
F0.0
sVgreatly
p2875
F6.436611234069961e-05
sV28
p2876
F3.94659010909261e-05
sVcomplex
p2877
F0.00014940126749864106
sVbuspar
p2878
F0.0
sVlate
p2879
F0.00011652551872922064
sVresearcher
p2880
F0.0
sVneuron
p2881
F0.0
sVreuters
p2882
F0.0
sVoxalate
p2883
F0.0
sVrelate
p2884
F0.0
sVbout
p2885
F6.436611234069961e-05
sVteam
p2886
F6.436611234069961e-05
sVmethylfolate
p2887
F0.0
sVpolypharmacy
p2888
F0.0
sVwacky
p2889
F0.0
sVsuboxone
p2890
F0.0
sVwouldn
p2891
F0.00016022258825267838
sVgood
p2892
F0.0
sVreturn
p2893
F8.739413904691547e-05
sVevaluate
p2894
F0.0
sVseverely
p2895
F0.00012873222468139922
sVsecondarily
p2896
F0.0
sVpropose
p2897
F6.436611234069961e-05
sVlibido
p2898
F0.0
sVuracil
p2899
F0.0
sVslight
p2900
F0.00019732950545463048
sVprimary
p2901
F0.0003551931098183349
sVaphasia
p2902
F0.0
sVshitless
p2903
F0.0
sVdosulepin
p2904
F0.0
sVcompound
p2905
F0.0
sVmisuse
p2906
F0.0
sVninja
p2907
F6.436611234069961e-05
sVspeculate
p2908
F0.0
sVcomplain
p2909
F0.00011839770327277828
sVassociation
p2910
F0.00012873222468139922
sVimpressive
p2911
F6.436611234069961e-05
sVmystery
p2912
F0.0
sVeasily
p2913
F2.913137968230516e-05
sV8months
p2914
F0.0
sVturkpsikiyatri
p2915
F0.0
sVlabrel
p2916
F0.0
sVhook
p2917
F7.470063374932053e-05
sValways
p2918
F0.0
sVnauseous
p2919
F0.0
sVsole
p2920
F0.0
sVrefresh
p2921
F6.436611234069961e-05
sVantihistaminergic
p2922
F0.0
sVsomeone
p2923
F0.0
sVgoofy
p2924
F0.0
sV2a
p2925
F6.436611234069961e-05
sVdeplete
p2926
F0.0
sVdifficult
p2927
F0.00032370274624705567
sVintolerable
p2928
F0.0
sVtestost
p2929
F0.0
sVsenekot
p2930
F0.0
sVstatus
p2931
F2.4900211249773512e-05
sVharm
p2932
F0.0
sVeveryone
p2933
F0.0002490021124977351
sVengland
p2934
F0.0
sVmental
p2935
F0.0009654916851104941
sV300mg
p2936
F0.0
sVp
p2937
F7.470063374932053e-05
sVgeneration
p2938
F0.0
sVhouse
p2939
F0.00017478827809383094
sVfish
p2940
F5.826275936461032e-05
sVhard
p2941
F0.0006408903530107135
sVreduce
p2942
F0.0012629088349096352
sVidea
p2943
F0.00014409146996684273
sVgrossan
p2944
F0.0
sVgun
p2945
F3.94659010909261e-05
sVneurology
p2946
F0.0
sVconnect
p2947
F6.436611234069961e-05
sVheartburn
p2948
F6.436611234069961e-05
sVtodd
p2949
F0.0
sVoperation
p2950
F6.436611234069961e-05
sVbeyond
p2951
F1.964883681366037e-05
sVpenicillin
p2952
F0.0
sVterrify
p2953
F0.0
sVpregablin
p2954
F0.0
sVprotolith
p2955
F0.0
sVanxious
p2956
F0.000643661123406996
sVtryciclic
p2957
F0.0
sVprolly
p2958
F0.0
sValcohol
p2959
F0.0011050452305459307
sVjoin
p2960
F1.456568984115258e-05
sVritual
p2961
F6.436611234069961e-05
sVelectronic
p2962
F0.0
sVchildish
p2963
F0.0
sVsince
p2964
F0.0004060759608156477
sVpublish
p2965
F0.0
sVresearch
p2966
F0.001158590022132593
sVlaproscopy
p2967
F0.0
sVexhaustion
p2968
F6.436611234069961e-05
sVsustain
p2969
F0.0
sV7
p2970
F0.0001456568984115258
sVparadise
p2971
F0.0
sVprint
p2972
F0.00011839770327277828
sVpristiq
p2973
F0.0
sVevaluation
p2974
F0.0
sVass
p2975
F3.94659010909261e-05
sVcholestyramine
p2976
F0.0
sVfiber
p2977
F0.0
sVcircumstance
p2978
F6.436611234069961e-05
sVupon
p2979
F7.28284492057629e-05
sVgut
p2980
F0.00038619667404419763
sVribose
p2981
F0.0
sVtricylic
p2982
F0.0
sVtbh
p2983
F0.0
sVpleasant
p2984
F0.00019309833702209881
sVdifficulty
p2985
F0.000321830561703498
sVqualify
p2986
F0.0
sVheroin
p2987
F6.436611234069961e-05
sVproxy
p2988
F6.436611234069961e-05
sVimagine
p2989
F0.00012450105624886755
sVvigorous
p2990
F0.0
sVsauna
p2991
F0.0
sVhavent
p2992
F0.0
sVbazillion
p2993
F0.0
sVbeast
p2994
F2.4900211249773512e-05
sVthread
p2995
F0.000321830561703498
sVecg
p2996
F0.0
sVkannazuki
p2997
F0.0
sVlingual
p2998
F0.0
sVterribly
p2999
F3.94659010909261e-05
sVamerican
p3000
F0.0
sVtrka
p3001
F0.0
sVprejudice
p3002
F0.0
sVcircuit
p3003
F0.0
sVanecdote
p3004
F0.0
sVconsequence
p3005
F0.0
sVzyprexa
p3006
F0.0
sVantispasmodic
p3007
F0.0
sVbupropion
p3008
F0.0
sVding
p3009
F0.0
sVviepax
p3010
F0.0
sVmajor
p3011
F0.00023305103745844129
sVdont
p3012
F0.00019732950545463048
sVprobability
p3013
F0.0
sVpurport
p3014
F0.0
sVfeel
p3015
F0.0008056023093600753
sVmistakenly
p3016
F6.436611234069961e-05
sVthereafter
p3017
F0.0
sVnumber
p3018
F0.00042330359124614973
sVsubmission
p3019
F6.436611234069961e-05
sVsympathy
p3020
F6.436611234069961e-05
sVurologist
p3021
F0.0
sVvibrate
p3022
F0.0
sVisnot
p3023
F0.0
sV600
p3024
F3.94659010909261e-05
sVmiss
p3025
F0.00013099224542440248
sVpropranolol
p3026
F0.0
sVerythromycin
p3027
F0.0
sVguess
p3028
F0.00042330359124614973
sVfuller
p3029
F0.0
sVpeds
p3030
F0.0
sVscript
p3031
F0.0010942239097918934
sVdivorce
p3032
F6.436611234069961e-05
sVinteract
p3033
F0.000321830561703498
sVdemonstrate
p3034
F0.00012873222468139922
sVcomfy
p3035
F0.0
sVleast
p3036
F0.0
sVpaint
p3037
F2.4900211249773512e-05
sVregulation
p3038
F0.0
sVstation
p3039
F0.00012873222468139922
sVmentally
p3040
F0.00012873222468139922
sVstatement
p3041
F7.89318021818522e-05
sVlevothyroxine
p3042
F0.0
sVidusl2n0l81rk20140204
p3043
F0.0
sVfrankey
p3044
F0.0
sVstore
p3045
F0.0003551931098183349
sVlarkin
p3046
F0.0
sVmainstay
p3047
F0.0
sVbumble
p3048
F0.0
sVoption
p3049
F0.0016091528085174901
sVrelationship
p3050
F0.0001992016899981881
sVpump
p3051
F6.436611234069961e-05
sVbowel
p3052
F0.0
sVneedle
p3053
F0.00023679540654555656
sVpark
p3054
F6.436611234069961e-05
sVimmediate
p3055
F7.89318021818522e-05
sVtrolly
p3056
F0.0
sVanalgesic
p3057
F0.0
sVdentist
p3058
F0.00038619667404419763
sVpart
p3059
F0.0004952334545991878
sVdifferentiate
p3060
F0.0
sVconsult
p3061
F0.0
sVbelieve
p3062
F0.00030587948666420416
sVtianeptine
p3063
F0.0
sVreliever
p3064
F0.0
sV600mg
p3065
F0.0
sVstd
p3066
F6.436611234069961e-05
sValbeit
p3067
F0.0
sVneurontin
p3068
F0.0
sVb
p3069
F5.826275936461032e-05
sVcommiserate
p3070
F0.0
sVcyclic
p3071
F0.0
sVvial
p3072
F0.0
sVdouble
p3073
F0.00027626130763648267
sVlargely
p3074
F0.0
sVyoutu
p3075
F0.0
sVblah
p3076
F0.00011839770327277828
sVmedicate
p3077
F0.0
sVstalk
p3078
F0.00038619667404419763
sVsedate
p3079
F0.0005525226152729653
sVfibromyawesomes
p3080
F0.0
sV800mg
p3081
F0.0
sVazithromycin
p3082
F0.0
sVglucose
p3083
F0.0
sVrestful
p3084
F0.0
sVdeclare
p3085
F0.0
sVpulmonologist
p3086
F0.0
sVphobic
p3087
F0.0
sVmotivation
p3088
F0.0
sVoutta
p3089
F6.436611234069961e-05
sVuncomfortable
p3090
F0.00019309833702209881
sVexert
p3091
F0.0
sVamitrp
p3092
F0.0
sVnocturne
p3093
F0.0
sVdirect
p3094
F0.00019309833702209881
sVultram
p3095
F0.0
sVwave
p3096
F4.9800422499547024e-05
sVsmaller
p3097
F4.9800422499547024e-05
sVsciatica
p3098
F0.0
sVintestine
p3099
F0.0
sVconcentration
p3100
F7.89318021818522e-05
sVsell
p3101
F5.826275936461032e-05
sVmountain
p3102
F0.0
sVshrivel
p3103
F0.0
sVessentially
p3104
F0.0
sVself
p3105
F5.894651044098112e-05
sVcyclizine
p3106
F0.0
sVscotland
p3107
F0.0
sVsevere
p3108
F0.0011839770327277828
sVnondepressed
p3109
F0.0
sVcouch
p3110
F0.00012873222468139922
sVonset
p3111
F0.0
sVmajority
p3112
F0.00019732950545463048
sVbuild
p3113
F8.739413904691547e-05
sVanafranil
p3114
F0.0
sVeffexor
p3115
F0.0
sVdraposil
p3116
F0.0
sVplay
p3117
F0.0003984033799963762
sVrisperidone
p3118
F0.0
sValleviate
p3119
F0.00025746444936279844
sVpopulate
p3120
F6.436611234069961e-05
sVinelastic
p3121
F0.0
sVfirsthand
p3122
F0.0
sVsore
p3123
F0.00038619667404419763
sVnasal
p3124
F0.0
sVchart
p3125
F7.89318021818522e-05
sVbloat
p3126
F0.00012873222468139922
sVleave
p3127
F0.00030587948666420416
sV75
p3128
F0.00019309833702209881
sV93
p3129
F3.94659010909261e-05
sVplan
p3130
F0.0002490021124977351
sVsignificant
p3131
F0.0010942239097918934
sVthunderclap
p3132
F0.0
sVnothing
p3133
F0.0002161372049502641
sVstressful
p3134
F0.00012873222468139922
sVextremely
p3135
F0.0004735908130911131
sVnumerous
p3136
F3.94659010909261e-05
sV45mg
p3137
F0.0
sVpolyethylene
p3138
F0.0
sVbreaker
p3139
F0.0
sVmineral
p3140
F6.436611234069961e-05
sVseize
p3141
F6.436611234069961e-05
sVsemax
p3142
F0.0
sVclear
p3143
F2.6198449084880498e-05
sVsometimes
p3144
F0.0005243648342814929
sVcover
p3145
F0.0001456568984115258
sVluckily
p3146
F0.0
sVkm
p3147
F0.0
sVnefazodone
p3148
F0.0
sVhydocodone
p3149
F0.0
sVotolaryngology
p3150
F0.0
sVorganise
p3151
F0.0
sVclean
p3152
F2.6198449084880498e-05
sVthank
p3153
F0.0006225052812443378
sVweigh
p3154
F3.94659010909261e-05
sVgabe
p3155
F0.0
sVblend
p3156
F7.89318021818522e-05
sV2900568
p3157
F0.0
sVheterodimerization
p3158
F0.0
sVgaba
p3159
F0.0
sVscience
p3160
F3.94659010909261e-05
sVugh
p3161
F0.0
sVparticularly
p3162
F0.00027626130763648267
sVappendix
p3163
F0.0
sVupswing
p3164
F0.0
sVescitalopram
p3165
F0.0
sVlarge
p3166
F0.0
sVsession
p3167
F0.000321830561703498
sVrelation
p3168
F6.436611234069961e-05
sVutilization
p3169
F6.436611234069961e-05
sVcyclics
p3170
F0.0
sVcarefully
p3171
F6.436611234069961e-05
sVse
p3172
F3.94659010909261e-05
sVfluoxetine
p3173
F0.0
sVmarinol
p3174
F0.0
sVfine
p3175
F0.0
sVfind
p3176
F0.0
sVdilation
p3177
F0.0
sVaccompany
p3178
F0.0
sVimpact
p3179
F0.0
sVamitrypaline
p3180
F0.0
sVperiodically
p3181
F3.94659010909261e-05
sVaggravate
p3182
F0.0
sVmusic
p3183
F1.964883681366037e-05
sVreoccurring
p3184
F0.0
sVnervous
p3185
F0.0001578636043637044
sVruin
p3186
F0.00012873222468139922
sVparanoia
p3187
F0.0
sVunhappy
p3188
F6.436611234069961e-05
sVpopof
p3189
F0.0
sVenzyme
p3190
F0.0
sVprogest
p3191
F0.0
sVcentral
p3192
F0.0
sVfactor
p3193
F0.00012873222468139922
sV8
p3194
F6.549612271220124e-05
sVneuropathic
p3195
F0.0
sVaappublications
p3196
F0.0
sVmisspell
p3197
F0.0
sV68
p3198
F6.436611234069961e-05
sVhip
p3199
F0.00012873222468139922
sVintractable
p3200
F0.0
sVdevastate
p3201
F0.0
sVingram
p3202
F0.0
sVdependent
p3203
F0.00025746444936279844
sVexpress
p3204
F0.00012873222468139922
sVkind
p3205
F0.0
sVupside
p3206
F3.94659010909261e-05
sVcheaper
p3207
F7.89318021818522e-05
sVsucralose
p3208
F0.0
sVfamous
p3209
F3.94659010909261e-05
sVremedy
p3210
F0.0
sV150mg
p3211
F0.0
sVvenopuncture
p3212
F0.0
sVbreast
p3213
F0.00012873222468139922
sVclosely
p3214
F0.0
sVreply
p3215
F0.00023679540654555656
sVdeaden
p3216
F0.0
sVnalaxone
p3217
F0.0
sVdose
p3218
F0.007080272357476957
sVdistraction
p3219
F0.0
sVcrp
p3220
F0.0
sVresolve
p3221
F0.00014940126749864106
sVblocker
p3222
F0.0018022511455395888
sVoxy
p3223
F0.0
sValchohol
p3224
F0.0
sVexpenditure
p3225
F0.0
sVcry
p3226
F0.0004735908130911131
sVremove
p3227
F4.9800422499547024e-05
sVcoincidence
p3228
F6.436611234069961e-05
sVcrc
p3229
F0.0
sVhypo
p3230
F0.0
sVcommon
p3231
F0.0007221061262434319
sVactivity
p3232
F0.0009654916851104941
sV5hr
p3233
F0.0
sVendeavor
p3234
F0.0
sVdur
p3235
F0.0
sVmouthwash
p3236
F0.0
sVinsane
p3237
F6.436611234069961e-05
sVcramp
p3238
F0.0
sVset
p3239
F8.514495952586161e-05
sVstump
p3240
F3.94659010909261e-05
sVdump
p3241
F7.89318021818522e-05
sVbacktrack
p3242
F0.0
sVoverwhelm
p3243
F0.0
sVarno
p3244
F0.0
sVpotent
p3245
F0.0
sVsex
p3246
F0.00027626130763648267
sVtip
p3247
F4.9800422499547024e-05
sVsee
p3248
F0.0006811596762068929
sVindividual
p3249
F0.00014940126749864106
sVdumb
p3250
F0.00019732950545463048
sVbackfire
p3251
F0.0
sVrtms
p3252
F0.0
sVovereat
p3253
F0.0
sVtender
p3254
F0.0
sVclose
p3255
F0.00017430147874841458
sVarm
p3256
F9.960084499909405e-05
sVvengeance
p3257
F6.436611234069961e-05
sVmcg
p3258
F0.0
sVproject
p3259
F2.4900211249773512e-05
sVpractice
p3260
F0.0
sVelectrolyte
p3261
F0.0
sVritz
p3262
F0.0
sVexpert
p3263
F6.436611234069961e-05
sVmkeigykw
p3264
F0.0
sVujtbtiszjem
p3265
F0.0
sVwow
p3266
F0.00019309833702209881
sVcurrently
p3267
F0.0005478046474950173
sVplease
p3268
F7.204573498342137e-05
sVinebriate
p3269
F0.0
sVpickup
p3270
F6.436611234069961e-05
sVsmallest
p3271
F6.436611234069961e-05
sVmyriad
p3272
F0.0
sVelectrical
p3273
F0.00012873222468139922
sVvascular
p3274
F0.0
sVacidic
p3275
F6.436611234069961e-05
sVhold
p3276
F5.826275936461032e-05
sVdonate
p3277
F6.436611234069961e-05
sVnope
p3278
F6.436611234069961e-05
sVhypochondria
p3279
F0.0
sVthrive
p3280
F0.0
sVpiss
p3281
F0.00019309833702209881
sVavailable
p3282
F0.00027390232374750864
sVmilder
p3283
F0.0
sVrecently
p3284
F0.0002184853476172887
sVstatistically
p3285
F0.0
sVbusiness
p3286
F6.5496122712201245e-06
sV1238
p3287
F0.0
sVattention
p3288
F1.456568984115258e-05
sVpoorer
p3289
F0.0
sVspray
p3290
F6.436611234069961e-05
sVregime
p3291
F0.0
sVselectively
p3292
F0.0
sVaccessible
p3293
F0.00012873222468139922
sV400mg
p3294
F0.0
sVinvisible
p3295
F3.94659010909261e-05
sVyamashirogumi
p3296
F0.0
sVsolu
p3297
F0.0
sVpvrmltqimhu
p3298
F0.0
sVht7
p3299
F0.0
sVc
p3300
F1.964883681366037e-05
sVlast
p3301
F0.00026853410312002507
sVreverse
p3302
F4.9800422499547024e-05
sVhesitant
p3303
F0.0
sVfiance
p3304
F0.0
sVbarely
p3305
F0.0001578636043637044
sVnorcos
p3306
F0.0
sVevent
p3307
F0.00012450105624886755
sVforeign
p3308
F3.94659010909261e-05
sVpseuephedrine
p3309
F0.0
sVsensitive
p3310
F1.456568984115258e-05
sVconnection
p3311
F0.00011839770327277828
sVmethacholine
p3312
F0.0
sVunincorporated
p3313
F0.0
sVbuzz
p3314
F0.0001578636043637044
sVpoverty
p3315
F6.436611234069961e-05
sVondansetron
p3316
F0.0
sVrisky
p3317
F6.436611234069961e-05
sVapprove
p3318
F0.00038619667404419763
sVhistamine
p3319
F0.0
sVpda
p3320
F0.0
sVload
p3321
F0.00012450105624886755
sVconsume
p3322
F3.94659010909261e-05
sVpoint
p3323
F0.0002161372049502641
sVsimple
p3324
F1.3099224542440249e-05
sVsweet
p3325
F7.470063374932053e-05
sVcommunity
p3326
F0.0
sVbpd
p3327
F0.0
sVnewborn
p3328
F0.0
sVpamphlet
p3329
F0.0
sVdietary
p3330
F0.0
sVsimply
p3331
F0.00014940126749864106
sVconsideration
p3332
F0.0
sVvessel
p3333
F0.00025746444936279844
sVmattress
p3334
F0.00012873222468139922
sVthroughout
p3335
F2.4900211249773512e-05
sVexpensive
p3336
F0.00027390232374750864
sVpatiently
p3337
F0.0
sV30mg
p3338
F0.0
sVworthless
p3339
F6.436611234069961e-05
sVdevil
p3340
F0.00011839770327277828
sVraise
p3341
F9.960084499909405e-05
sVpt
p3342
F0.00025746444936279844
sVmonthly
p3343
F0.0
sVcreate
p3344
F0.00023679540654555656
sVoverlook
p3345
F0.0
sVdue
p3346
F0.000828783922909448
sVanaesthesiologists
p3347
F0.0
sVsecret
p3348
F3.94659010909261e-05
sVmitrazapine
p3349
F0.0
sVx4exwu4rhes
p3350
F0.0
sVmaintenance
p3351
F0.0
sVmetronidazole
p3352
F0.0
sVclinical
p3353
F0.0
sVbrick
p3354
F0.0
sVpi
p3355
F0.0
sVempty
p3356
F6.5496122712201245e-06
sVft
p3357
F0.00012873222468139922
sVfirm
p3358
F2.4900211249773512e-05
sValto
p3359
F0.0
sVsweetheart
p3360
F0.0
sVsuspicious
p3361
F6.436611234069961e-05
sVpartly
p3362
F3.94659010909261e-05
sVbrother
p3363
F0.00011839770327277828
sVbuck
p3364
F6.436611234069961e-05
sVfire
p3365
F1.456568984115258e-05
sVwet
p3366
F3.94659010909261e-05
sVgas
p3367
F0.00038619667404419763
sV39
p3368
F0.00011839770327277828
sVgap
p3369
F0.000321830561703498
sVamlodipine
p3370
F0.0
sVfund
p3371
F7.89318021818522e-05
sVpricey
p3372
F6.436611234069961e-05
sVengage
p3373
F0.0
sVunderstand
p3374
F0.00020303798040782384
sVliver
p3375
F0.0003551931098183349
sVcolonoscopy
p3376
F6.436611234069961e-05
sV35mg
p3377
F0.0
sVincoming
p3378
F0.0
sVdespite
p3379
F7.28284492057629e-05
sVgad
p3380
F0.0
sVlamotrigine
p3381
F0.0
sVrandomly
p3382
F0.00019309833702209881
sVpierce
p3383
F6.436611234069961e-05
sVlook
p3384
F0.00036677828718832694
sVjuice
p3385
F0.00011839770327277828
sVsolid
p3386
F0.00023679540654555656
sVcapsicum
p3387
F0.0
sVreliable
p3388
F3.94659010909261e-05
sVbill
p3389
F7.89318021818522e-05
sVtolerate
p3390
F0.0
sVtwenty
p3391
F2.4900211249773512e-05
sVbuspirone
p3392
F0.0
sVcrutch
p3393
F0.0
sVthryroid
p3394
F0.0
sVpace
p3395
F0.0
sVsexuality
p3396
F0.0
sVdisproportionate
p3397
F0.0
sVbehavior
p3398
F0.00019732950545463048
sVerror
p3399
F0.00019309833702209881
sVfun
p3400
F5.826275936461032e-05
sVross
p3401
F0.0
sVguide
p3402
F0.00019309833702209881
sVexperienes
p3403
F0.0
sVswim
p3404
F0.0001578636043637044
sVlove
p3405
F0.0001456568984115258
sVpound
p3406
F0.00023679540654555656
sVcostly
p3407
F0.0
sVagitation
p3408
F0.0
sVklonipin
p3409
F0.0
sVincredible
p3410
F6.436611234069961e-05
sVseretonin
p3411
F0.0
sVdecline
p3412
F0.00012873222468139922
sVjpg
p3413
F7.89318021818522e-05
sVintegrity
p3414
F0.00012873222468139922
sVorigin
p3415
F0.00012873222468139922
sVhydrocodone
p3416
F0.0
sVnightstand
p3417
F0.0
sVdistrubance
p3418
F0.0
sVskype
p3419
F0.0
sVpromethazine
p3420
F0.0
sVhydromorphone
p3421
F0.0
sVrid
p3422
F0.00019732950545463048
sValone
p3423
F0.00012450105624886755
sVbdnf
p3424
F0.0
sVurethra
p3425
F0.00019309833702209881
sVfrown
p3426
F0.0
sVfunny
p3427
F4.3697069523457736e-05
sVlengthy
p3428
F6.436611234069961e-05
sVunaffected
p3429
F0.0
sVirradiate
p3430
F0.0
sVshirt
p3431
F3.94659010909261e-05
sVanymore
p3432
F0.00032370274624705567
sVmigraine
p3433
F0.0
sVconcoction
p3434
F0.0
sVclassification
p3435
F3.94659010909261e-05
sVsorenson
p3436
F0.0
sVcholinergic
p3437
F0.0
sVbenign
p3438
F6.436611234069961e-05
sVwidely
p3439
F0.0
sV9
p3440
F5.826275936461032e-05
sVadvise
p3441
F0.0
sVray
p3442
F6.436611234069961e-05
sVforgiveness
p3443
F0.0
sVconflict
p3444
F0.00025746444936279844
sVinsulin
p3445
F0.0
sVdevelopment
p3446
F7.89318021818522e-05
sVantaganisom
p3447
F0.0
sVliterature
p3448
F6.436611234069961e-05
sVtemporary
p3449
F0.00019309833702209881
sVlie
p3450
F9.960084499909405e-05
sVbonus
p3451
F0.00019309833702209881
sVcamera
p3452
F0.00011839770327277828
sV5aiw
p3453
F0.0
sVmindblowing
p3454
F0.0
sVupbringing
p3455
F0.0
sVairway
p3456
F0.0
sValert
p3457
F3.94659010909261e-05
sVrabia
p3458
F0.0
sVmoment
p3459
F5.2396898169760996e-05
sVwalmart
p3460
F0.0
sVmedicaid
p3461
F0.0
sVpurpose
p3462
F5.826275936461032e-05
sV005
p3463
F0.0
sVkyodai
p3464
F0.0
sVinjector
p3465
F0.0
sVsfk
p3466
F0.0
sVbrussels
p3467
F0.0
sVnoticeably
p3468
F0.0
sVfocal
p3469
F6.436611234069961e-05
sVrecent
p3470
F0.0001578636043637044
sVearly
p3471
F0.00013109120857037322
sVsafe
p3472
F0.0002490021124977351
sVswish
p3473
F0.0
sVinfertility
p3474
F0.0
sVwerewolf
p3475
F0.0
sVmemantine
p3476
F0.0
sVcodeine
p3477
F0.0
sVanybody
p3478
F0.00012873222468139922
sVanalysis
p3479
F0.00019309833702209881
sVobviously
p3480
F0.00014940126749864106
sVperson
p3481
F0.00037870793586996707
sVedge
p3482
F5.826275936461032e-05
sVjbc
p3483
F0.0
sVrozerem
p3484
F0.0
sVwithdraw
p3485
F0.00012873222468139922
sVorganization
p3486
F6.436611234069961e-05
sVchemistry
p3487
F0.0
sVspend
p3488
F0.00012450105624886755
sVprevention
p3489
F0.0
sVknow
p3490
F0.0009431441670556979
sVchore
p3491
F0.0
sVmicrogestin
p3492
F0.0
sVpalpate
p3493
F0.0
sVpolitely
p3494
F6.436611234069961e-05
sVcheapest
p3495
F6.436611234069961e-05
sVb6cxjpnxx6k
p3496
F0.0
sVblur
p3497
F6.436611234069961e-05
sVdesk
p3498
F3.94659010909261e-05
sVldn
p3499
F0.0
sVbirthday
p3500
F3.94659010909261e-05
sVshape
p3501
F3.94659010909261e-05
sVopenly
p3502
F0.0
sVthorough
p3503
F0.0
sVirritable
p3504
F0.00025746444936279844
sVjv
p3505
F0.0
sVregardless
p3506
F0.0005149288987255969
sValternative
p3507
F0.00039465901090926097
sVsidebar
p3508
F0.00012873222468139922
sVarteritis
p3509
F0.0
sVcut
p3510
F6.549612271220124e-05
sVnortriptyine
p3511
F0.0
sVtablet
p3512
F0.0009011255727697944
sVcup
p3513
F0.00012873222468139922
sV20mg
p3514
F0.0
sVscenario
p3515
F0.0
sVfentanyl
p3516
F0.0
sVexclusively
p3517
F3.94659010909261e-05
sVsource
p3518
F0.00017430147874841458
sVgrapefruit
p3519
F0.00011839770327277828
sVlocation
p3520
F0.0001578636043637044
sVtamer
p3521
F0.0
sVproblematic
p3522
F0.00012873222468139922
sVsnap
p3523
F4.9800422499547024e-05
sVinput
p3524
F0.0008367594604290949
sVprominent
p3525
F6.436611234069961e-05
sVapp
p3526
F0.00019309833702209881
sVfinder
p3527
F0.00012873222468139922
sVhater
p3528
F6.436611234069961e-05
sVridiculously
p3529
F6.436611234069961e-05
sVcomplaint
p3530
F0.0
sVapnea
p3531
F0.0
sVemergency
p3532
F0.00038619667404419763
sVformat
p3533
F0.00019309833702209881
sVbladder
p3534
F0.00019309833702209881
sVbig
p3535
F5.2396898169760996e-05
sVrebound
p3536
F0.0
sVbreaststroke
p3537
F0.0
sVaggregation
p3538
F0.0
sVcautionary
p3539
F0.0
sVpharmacueticals
p3540
F0.0
sVgame
p3541
F8.739413904691547e-05
sVquest
p3542
F6.436611234069961e-05
sVwiser
p3543
F0.0
sVsnore
p3544
F6.436611234069961e-05
sVawaken
p3545
F0.0
sVrenin
p3546
F0.0
sVmoody
p3547
F0.0
sVknock
p3548
F0.00039465901090926097
sVoutright
p3549
F0.0
sVcognitive
p3550
F0.0
sVsemi
p3551
F2.4900211249773512e-05
sVgentamycin
p3552
F0.0
sVspine
p3553
F0.00038619667404419763
sVadmittedly
p3554
F0.0
sVsignal
p3555
F0.00023679540654555656
sVcandidemia
p3556
F0.0
sVproductive
p3557
F6.436611234069961e-05
sVglove
p3558
F6.436611234069961e-05
sVmanifest
p3559
F0.00012873222468139922
sVconstipate
p3560
F0.0
sVcollect
p3561
F0.0
sVzoloft
p3562
F0.0
sVcontinue
p3563
F0.00013109120857037322
sVindication
p3564
F3.94659010909261e-05
sVchloramphenicol
p3565
F0.0
sVdisorder
p3566
F0.0022528139319244866
sVptsd
p3567
F0.0
sVcopper
p3568
F0.0
sVgoogle
p3569
F0.00039465901090926097
sVoften
p3570
F0.0009462080274913934
sVmetabolic
p3571
F0.0
sVabsolutely
p3572
F0.00027674810698189903
sVspring
p3573
F4.9800422499547024e-05
sV1st
p3574
F7.89318021818522e-05
sVback
p3575
F0.0004977705326127294
sVphone
p3576
F0.00023679540654555656
sVblow
p3577
F5.826275936461032e-05
sVpaxil
p3578
F0.0
sVstrongest
p3579
F6.436611234069961e-05
sVtowards
p3580
F1.964883681366037e-05
sVdiclofenac
p3581
F0.0
sVoxcarbazepine
p3582
F0.0
sVpalo
p3583
F0.0
sVapply
p3584
F0.00011839770327277828
sVkinda
p3585
F0.0007080272357476957
sVcurious
p3586
F5.826275936461032e-05
sVmucous
p3587
F0.0
sVpale
p3588
F6.436611234069961e-05
sVgimmick
p3589
F0.0
sVdigestive
p3590
F0.00012873222468139922
sVgradually
p3591
F0.0
sVscale
p3592
F0.00019732950545463048
sVdull
p3593
F3.94659010909261e-05
sVunnaturally
p3594
F0.0
sVdecision
p3595
F9.960084499909405e-05
sVbenefit
p3596
F0.001287322246813992
sVper
p3597
F0.0004735908130911131
sVpen
p3598
F2.4900211249773512e-05
sVbehave
p3599
F3.94659010909261e-05
sVeliminate
p3600
F0.0
sVscalp
p3601
F0.0
sV2341111
p3602
F0.0
sVvasoconstrictor
p3603
F0.0
sVpee
p3604
F0.00019309833702209881
sVshenanigan
p3605
F0.0
sVmeloxicam
p3606
F0.0
sVtemple
p3607
F0.0
sVapathetic
p3608
F0.0
sVinclination
p3609
F0.0
sVlowest
p3610
F0.00019309833702209881
sVpatient
p3611
F0.005213655099596669
sVzzz
p3612
F0.0
sVhydroxyxine
p3613
F0.0
sVbc
p3614
F0.0
sV300
p3615
F3.94659010909261e-05
sVbm
p3616
F0.0
sV302
p3617
F0.00012873222468139922
sVlose
p3618
F0.00013099224542440248
sV306
p3619
F0.0
sVzombie
p3620
F0.00038619667404419763
sVstep
p3621
F0.00016022258825267838
sVtcas
p3622
F0.0
sVbp
p3623
F0.0
sVnowhere
p3624
F6.436611234069961e-05
sVache
p3625
F0.0
sVtaboo
p3626
F0.0
sVcgi
p3627
F6.436611234069961e-05
sVintense
p3628
F0.00019732950545463048
sVvaccine
p3629
F0.0
sV18096160
p3630
F0.0
sVpatiant
p3631
F0.0
sVreact
p3632
F0.0001578636043637044
sVpipeline
p3633
F0.0
sVcautious
p3634
F0.00012873222468139922
sVchf
p3635
F0.0
sVanything
p3636
F0.00034057983810344643
sVnetflix
p3637
F0.0
sVrow
p3638
F2.4900211249773512e-05
sVabandoment
p3639
F0.0
sVfavor
p3640
F3.94659010909261e-05
sVpage
p3641
F0.00023679540654555656
sVounce
p3642
F0.00012873222468139922
sVidk
p3643
F0.0
sVaftercare
p3644
F0.0
sVtherapeutic
p3645
F0.0
sVwanna
p3646
F3.94659010909261e-05
sVblock
p3647
F0.0007103862196366698
sVantihistaminic
p3648
F0.0
sVserotonin
p3649
F0.0
sVrepair
p3650
F0.0
sVreal
p3651
F0.0
sVplenty
p3652
F0.00019732950545463048
sVdude
p3653
F0.00019309833702209881
sVnortriptyline
p3654
F0.0
sVwithin
p3655
F0.00011652551872922064
sVnonsense
p3656
F0.0
sVusa
p3657
F6.436611234069961e-05
sVantidepresant
p3658
F0.0
sVwatt
p3659
F0.0
sVappropriate
p3660
F0.00038619667404419763
sVmitochondrial
p3661
F0.0
sVprimarily
p3662
F0.0
sValpha
p3663
F0.00012873222468139922
sVlesson
p3664
F6.436611234069961e-05
sVdelusional
p3665
F6.436611234069961e-05
sVoutline
p3666
F6.436611234069961e-05
sVconnexus
p3667
F0.0
sVgouge
p3668
F0.0
sVstory
p3669
F0.00039465901090926097
sVsneaky
p3670
F0.0
sVtieflicht
p3671
F0.0
sVneuralgia
p3672
F0.0
sVsock
p3673
F6.436611234069961e-05
sVcolumn
p3674
F6.436611234069961e-05
sVlong
p3675
F0.0
sVaccountability
p3676
F0.0
sVoccupy
p3677
F0.0
sVconsultation
p3678
F0.0
sVreduction
p3679
F0.0004505627863848972
sVhomemade
p3680
F6.436611234069961e-05
sVsuit
p3681
F3.94659010909261e-05
sVforward
p3682
F0.0
sVtranslate
p3683
F6.436611234069961e-05
sVtwitter
p3684
F0.0
sVrecord
p3685
F0.0001578636043637044
sVconsiderably
p3686
F6.436611234069961e-05
sVcanesten
p3687
F0.0
sVelsewhere
p3688
F6.436611234069961e-05
sVposter
p3689
F6.436611234069961e-05
sVpotassium
p3690
F0.0
sVvehicle
p3691
F0.00012873222468139922
sVspecialty
p3692
F0.0
sVpsychoactive
p3693
F0.0
sVcloud
p3694
F0.0
sVselador
p3695
F0.0
sVlink
p3696
F0.0005525226152729653
sValive
p3697
F1.456568984115258e-05
sVnewer
p3698
F0.00025746444936279844
sVpwn
p3699
F0.0
sVkink
p3700
F0.0
sVline
p3701
F0.00018935396793498354
sVrelaxer
p3702
F0.0
sVconsiderable
p3703
F3.94659010909261e-05
sV1046
p3704
F0.0
sVinfo
p3705
F0.0004505627863848972
sVhydrocortisone
p3706
F0.0
sVpregabalin
p3707
F0.0
sVchiropractor
p3708
F6.436611234069961e-05
sVod
p3709
F0.0
sVoxazepam
p3710
F0.0
sVincase
p3711
F0.0
sVcortef
p3712
F0.0
sVbjomvux77
p3713
F0.0
sVpeppermint
p3714
F0.0
sVur
p3715
F0.0
sVmobile
p3716
F6.436611234069961e-05
sVgrowth
p3717
F0.00012873222468139922
sVuh
p3718
F2.4900211249773512e-05
sVuk
p3719
F0.00038619667404419763
sVpineal
p3720
F0.0
sVhorner
p3721
F0.0
sVabortives
p3722
F0.0
sVaspirin
p3723
F0.0
sVsimilar
p3724
F0.00033501086634650935
sValarm
p3725
F3.94659010909261e-05
sVdocusate
p3726
F0.0
sVparoxetine
p3727
F0.0
sVludiomil
p3728
F0.0
sVconstant
p3729
F0.00039465901090926097
sVestrogen
p3730
F0.00025746444936279844
sVmindful
p3731
F0.0
sVexaminer
p3732
F0.0
sVlikewise
p3733
F0.0
sVunsafe
p3734
F6.436611234069961e-05
sVdoesn
p3735
F0.00037987751173076717
sVsingle
p3736
F5.2396898169760996e-05
sVcure
p3737
F0.000643661123406996
sVcurb
p3738
F6.436611234069961e-05
sVchat
p3739
F2.4900211249773512e-05
sVbicep
p3740
F0.0
sVc17s1
p3741
F0.0
sVtriptans
p3742
F0.0
sVtramulief
p3743
F0.0
sVadjudicate
p3744
F0.0
sVuser
p3745
F7.89318021818522e-05
sVpeace
p3746
F6.436611234069961e-05
sVcohesive
p3747
F0.0
sVdoxepin
p3748
F0.0
sVoccasional
p3749
F0.0
sVclub
p3750
F0.00012873222468139922
sVnap
p3751
F0.0
sVreputation
p3752
F3.94659010909261e-05
sVbutterbur
p3753
F0.0
sV60oz
p3754
F0.0
sVincome
p3755
F0.0
sVretract
p3756
F6.436611234069961e-05
sVverifed
p3757
F0.0
sVbaclofen
p3758
F0.0
sVnice
p3759
F0.0
sVmiko
p3760
F0.0
sVunderweight
p3761
F0.0
sVdraw
p3762
F2.6198449084880498e-05
sVcellar
p3763
F6.436611234069961e-05
sVdeclaw
p3764
F0.0
sVmisfill
p3765
F0.0
sVlucid
p3766
F0.0
sVunderstatement
p3767
F0.0
sVativan
p3768
F0.0
sVluxurious
p3769
F6.436611234069961e-05
sVinflame
p3770
F0.0
sVrise
p3771
F7.89318021818522e-05
sVvisibility
p3772
F6.436611234069961e-05
sVfructose
p3773
F0.0
sVla_1119621_667x333
p3774
F0.0
sVchocolate
p3775
F3.94659010909261e-05
sVamphetamine
p3776
F0.0
sVstructure
p3777
F6.436611234069961e-05
sVfeasible
p3778
F6.436611234069961e-05
sVindependently
p3779
F0.0
sVnotch
p3780
F6.436611234069961e-05
sVhappier
p3781
F6.436611234069961e-05
sVlead
p3782
F0.00027674810698189903
sVpractically
p3783
F6.436611234069961e-05
sVconsumer
p3784
F0.0
sVmetabolize
p3785
F0.0
sVconfirm
p3786
F0.00011839770327277828
sValongside
p3787
F7.89318021818522e-05
sVstay
p3788
F0.00030587948666420416
sVindomethacin
p3789
F0.0
sV2003
p3790
F7.89318021818522e-05
sVlevodopa
p3791
F0.0
sVbeverage
p3792
F6.436611234069961e-05
sV2007
p3793
F0.0
sVwalker
p3794
F0.00012873222468139922
sVgoat
p3795
F2.4900211249773512e-05
sVintentional
p3796
F0.0
sValeve
p3797
F0.0
sVgdgzzvv_yaq
p3798
F0.0
sVpartial
p3799
F6.436611234069961e-05
sVnoritriptyline
p3800
F0.0
sVgp
p3801
F0.0
sVlean
p3802
F6.436611234069961e-05
sVlaziness
p3803
F0.0
sVresistance
p3804
F6.436611234069961e-05
sVproduce
p3805
F0.0001578636043637044
sVclue
p3806
F0.00011839770327277828
sVnotify
p3807
F6.436611234069961e-05
sVhepatitis
p3808
F6.436611234069961e-05
sVedu
p3809
F6.436611234069961e-05
sVgo
p3810
F0.0
sVflashback
p3811
F0.0
sVmri
p3812
F0.0
sVworrisome
p3813
F0.0
sVonlinelibrary
p3814
F0.0
sVpsilocybin
p3815
F0.0
sVimproperly
p3816
F6.436611234069961e-05
sVstave
p3817
F0.0
sVyoung
p3818
F1.964883681366037e-05
sVsend
p3819
F0.00027674810698189903
sVnose
p3820
F2.913137968230516e-05
sVintensive
p3821
F0.00012873222468139922
sVselegiline
p3822
F0.0
sVtypewriter
p3823
F0.0
sVstable
p3824
F0.00012873222468139922
sVweather
p3825
F2.4900211249773512e-05
sVbp2
p3826
F0.0
sVdekmantel
p3827
F0.0
sVfatal
p3828
F3.94659010909261e-05
sVdramatically
p3829
F6.436611234069961e-05
sVingredient
p3830
F0.00012873222468139922
sVrag
p3831
F6.436611234069961e-05
sVfwiw
p3832
F0.0
sVsw8wjfwisc8
p3833
F0.0
sVrandom
p3834
F7.89318021818522e-05
sVacdfc5
p3835
F0.0
sVgarden
p3836
F3.94659010909261e-05
sVtorture
p3837
F0.00012873222468139922
sVoutside
p3838
F5.2396898169760996e-05
sVcinnamon
p3839
F3.94659010909261e-05
sVbounceback
p3840
F0.0
sVkitty
p3841
F6.436611234069961e-05
sVoutdoorsy
p3842
F6.436611234069961e-05
sVtriptan
p3843
F0.0
sVhydroxyzine
p3844
F0.0
sVfacebook
p3845
F0.0
sVaccuse
p3846
F0.0
sVsurgeon
p3847
F0.0
sVenfp
p3848
F0.0
sVwipe
p3849
F3.94659010909261e-05
sVnausea
p3850
F0.0
sVtri
p3851
F0.00012873222468139922
sVentire
p3852
F7.470063374932053e-05
sVtrk
p3853
F0.0
sVmagic
p3854
F0.0001578636043637044
sVaugment
p3855
F0.0
sVsucceed
p3856
F0.0
sVstiff
p3857
F0.00012873222468139922
sVtransmission
p3858
F0.0
sVgender
p3859
F0.0
sVbutton
p3860
F3.94659010909261e-05
sVshock
p3861
F7.89318021818522e-05
sVmichael
p3862
F0.0
sVeve
p3863
F0.0
sVfewer
p3864
F0.0004505627863848972
sVnarcoleptic
p3865
F0.0
sVtry
p3866
F0.0008645488198010564
sVolanzapine
p3867
F0.0
sVs0022395608000733
p3868
F0.0
sVrace
p3869
F6.436611234069961e-05
sVobesity
p3870
F0.0
sVsavella
p3871
F0.0
sVjuda
p3872
F0.0
sVjoey
p3873
F0.0
sVflash
p3874
F3.94659010909261e-05
sVsomeday
p3875
F0.00019309833702209881
sVstrongly
p3876
F0.0
sVcfm
p3877
F6.436611234069961e-05
sVuei
p3878
F0.0
sVrts
p3879
F0.0
sVexten
p3880
F0.0
sVuncomfortably
p3881
F0.0
sVhepatocellular
p3882
F0.0
sVnarcolepsy
p3883
F0.00025746444936279844
sVsensation
p3884
F0.0
sVjump
p3885
F4.9800422499547024e-05
sVvideo
p3886
F0.00027626130763648267
sVummc
p3887
F0.0
sVsubtle
p3888
F6.436611234069961e-05
sVnotwithstanding
p3889
F6.436611234069961e-05
sVbentyl
p3890
F0.0
sVquetzalcotl
p3891
F0.0
sVodd
p3892
F1.456568984115258e-05
sVclick
p3893
F2.4900211249773512e-05
sVfolk
p3894
F6.436611234069961e-05
sVindex
p3895
F6.436611234069961e-05
sVconfuse
p3896
F0.0001578636043637044
sV3x
p3897
F0.0
sVovulation
p3898
F0.0
sVrate
p3899
F0.0006314544174548176
sVgrieve
p3900
F0.0
sVasap
p3901
F0.0
sVbeyaz
p3902
F0.0
sVexacerbate
p3903
F0.0
sVglycinate
p3904
F0.0
sVaccess
p3905
F3.94659010909261e-05
sVconsistently
p3906
F0.00012873222468139922
sVbruxism
p3907
F0.0
sVbismol
p3908
F0.0
sV3a
p3909
F0.0
sVexercise
p3910
F0.001480420583836091
sVbody
p3911
F0.00026198449084880495
sVdiazepam
p3912
F0.0
sVproliferation
p3913
F0.0
sVpediatrics
p3914
F0.0
sVoestrogen
p3915
F0.0
sVdegree
p3916
F7.89318021818522e-05
sVleg
p3917
F0.00032370274624705567
sVrespectively
p3918
F0.0
sVdarknet
p3919
F0.0
sVprescribe
p3920
F0.005599851773640865
sVhighly
p3921
F0.0003157272087274088
sVnardil
p3922
F0.0
sVlet
p3923
F0.00015719069450928296
sVsink
p3924
F2.4900211249773512e-05
sVzopiclone
p3925
F0.0
sVothers
p3926
F0.00030587948666420416
sVoxidative
p3927
F6.436611234069961e-05
sVsing
p3928
F3.94659010909261e-05
sVsafer
p3929
F0.0
sVfifteen
p3930
F0.00019309833702209881
sVextreme
p3931
F0.00014940126749864106
sVrib
p3932
F0.0
sVnotably
p3933
F6.436611234069961e-05
sVgreat
p3934
F0.0
sVrevile
p3935
F0.0
sVoleptro
p3936
F0.0
sVnumbness
p3937
F0.0
sVreceive
p3938
F0.0005792950110662965
sV30
p3939
F0.00026218241714074644
sVopiate
p3940
F0.0
sVhost
p3941
F2.4900211249773512e-05
sV35
p3942
F7.89318021818522e-05
sVbendroflumethiazide
p3943
F0.0
sVtenfold
p3944
F0.0
sVrda
p3945
F0.0
sVcefepine
p3946
F0.0
sVsword
p3947
F7.470063374932053e-05
sVdefeat
p3948
F0.00012873222468139922
sVopinion
p3949
F0.0008367594604290949
sVdepressant
p3950
F0.0
sVmaker
p3951
F0.0
sVthats
p3952
F7.89318021818522e-05
sVprestiq
p3953
F0.0
sVstabilization
p3954
F0.0
sVvalproic
p3955
F0.0
sVheart
p3956
F0.00042330359124614973
sVforbid
p3957
F6.436611234069961e-05
sVwin
p3958
F0.0003984033799963762
sVlimp
p3959
F6.436611234069961e-05
sVmanage
p3960
F0.0005229044362452437
sVapprehensive
p3961
F0.0
sVprivate
p3962
F0.00012450105624886755
sVocd
p3963
F0.0
sV120lb
p3964
F0.0
sVwit
p3965
F3.94659010909261e-05
sVdecrease
p3966
F0.0015447866961767905
sVapo
p3967
F0.0
sVe827
p3968
F0.0
sVduck
p3969
F3.94659010909261e-05
sVlimb
p3970
F0.0
sVjackass
p3971
F6.436611234069961e-05
sVcooperative
p3972
F0.0
sVnsaid
p3973
F0.0
sVexenatide
p3974
F0.0
sVunprovoked
p3975
F0.0
sVminuteclinic
p3976
F0.0
sValbuterol
p3977
F0.0
sVuse
p3978
F0.0010741364124801003
sVfee
p3979
F0.0
sVviibryd
p3980
F0.0
sVhippie
p3981
F6.436611234069961e-05
sVconsumption
p3982
F6.436611234069961e-05
sVsars
p3983
F0.0
sVillegal
p3984
F6.436611234069961e-05
sVdruggies
p3985
F6.436611234069961e-05
sVflat
p3986
F2.913137968230516e-05
sVnext
p3987
F0.00020958759267904398
sVclassically
p3988
F0.00019309833702209881
sVdoubt
p3989
F7.28284492057629e-05
sVtypical
p3990
F0.00019732950545463048
sVd
p3991
F0.0
sVchecker
p3992
F6.436611234069961e-05
sVchloride
p3993
F0.0
sVnimodipine
p3994
F0.0
sVhydro
p3995
F0.0
sVsort
p3996
F0.00012444263315318236
sVpencil
p3997
F3.94659010909261e-05
sVchloroquine
p3998
F0.0
sVsupposedly
p3999
F6.436611234069961e-05
sVvaginally
p4000
F0.0
sVupcoming
p4001
F0.0
sVcomparison
p4002
F3.94659010909261e-05
sVtrait
p4003
F0.0
sVgi
p4004
F0.0
sVduper
p4005
F0.0
sVinfection
p4006
F0.0007080272357476957
sVweened
p4007
F0.0
sVtrail
p4008
F6.436611234069961e-05
sVtrain
p4009
F0.00038619667404419763
sVchit
p4010
F0.0
sVmanneken
p4011
F0.0
sVbaby
p4012
F0.0001578636043637044
sV4am
p4013
F0.0
sVinattentive
p4014
F6.436611234069961e-05
sViii
p4015
F0.0
sV200mg
p4016
F0.0
sVtestosterone
p4017
F0.0
sVcustomer
p4018
F0.00012873222468139922
sVmeeting_abstract
p4019
F0.0
sVaccount
p4020
F0.0001578636043637044
sVgeodon
p4021
F0.0
sVmythical
p4022
F0.0
sVlopressor
p4023
F0.0
sVzyrtec
p4024
F0.0
sVouj7ejwyue8
p4025
F0.0
sVchallenge
p4026
F6.436611234069961e-05
sVoh
p4027
F0.00039465901090926097
sVpour
p4028
F6.436611234069961e-05
sVhypertonic
p4029
F0.0
sVcreepy
p4030
F6.436611234069961e-05
sVanywhere
p4031
F2.913137968230516e-05
sVobvious
p4032
F0.00014940126749864106
sVstabilizer
p4033
F0.0
sVdrill
p4034
F0.0
sVantisocial
p4035
F0.0
sVangsty
p4036
F0.0
sVmeet
p4037
F0.00019732950545463048
sVinhibitor
p4038
F0.0
sVdidnt
p4039
F0.00012873222468139922
sVfetch
p4040
F3.94659010909261e-05
sVsomething
p4041
F0.0004977705326127294
sVcontrol
p4042
F0.0014997042414551917
sVsri
p4043
F0.0
sVtap
p4044
F6.436611234069961e-05
sVinterestingly
p4045
F0.00012873222468139922
sVpainkiller
p4046
F0.0
sVcalculation
p4047
F6.436611234069961e-05
sVpelvic
p4048
F0.00038619667404419763
sVimigran
p4049
F0.0
sV100mg
p4050
F0.0
sVhigh
p4051
F0.0
sVeffectively
p4052
F0.0
sVcoenzyme
p4053
F0.0
sVbend
p4054
F3.94659010909261e-05
sVslip
p4055
F0.00012873222468139922
sVdj
p4056
F0.0
sVserial
p4057
F0.0
sVvoice
p4058
F3.94659010909261e-05
sVpsyched
p4059
F6.436611234069961e-05
sVpaleo
p4060
F0.0
sVhiv
p4061
F0.0
sVdefective
p4062
F0.0
sVsit
p4063
F0.0002490021124977351
sVtrazadone
p4064
F0.0
sVredditors
p4065
F0.0
sVoccipital
p4066
F0.0
sVdelay
p4067
F7.89318021818522e-05
sVbabble
p4068
F0.0
sVneed
p4069
F0.0007008085130205533
sVdigoxin
p4070
F0.0
sVpair
p4071
F7.89318021818522e-05
sVketoconazole
p4072
F0.0
sVelliptical
p4073
F0.0
sVsuspend
p4074
F0.0
sVwolf
p4075
F0.0
sVcomedy
p4076
F6.436611234069961e-05
sVintelligent
p4077
F3.94659010909261e-05
sVnaltraxone
p4078
F0.0
sVstand
p4079
F0.00013109120857037322
sVprofile
p4080
F0.0003551931098183349
sVtension
p4081
F0.0
sVlt042
p4082
F0.0
sVlesion
p4083
F0.0
sVattend
p4084
F7.89318021818522e-05
sVbyetta
p4085
F0.0
sVfran
p4086
F0.0
sVunderway
p4087
F6.436611234069961e-05
sVcollection
p4088
F3.94659010909261e-05
sVauthorative
p4089
F0.0
sVnormalcy
p4090
F0.0
sVphysio
p4091
F0.0
sVabuse
p4092
F0.0004505627863848972
sVfatigue
p4093
F0.0
sVmen
p4094
F0.00012450105624886755
sVatrovent
p4095
F0.0
sVhahahaha
p4096
F0.0
sVhawk
p4097
F6.436611234069961e-05
sVprostate
p4098
F6.436611234069961e-05
sVnpp
p4099
F0.0
sVsyndrome
p4100
F0.0005919885163638914
sVphysical
p4101
F0.0
sVmemorize
p4102
F6.436611234069961e-05
sVdysthymic
p4103
F0.0
sVbind
p4104
F0.0
sVcounter
p4105
F0.0004341249120001871
sVcorrespond
p4106
F0.0
sVelement
p4107
F4.9800422499547024e-05
sVfortunately
p4108
F0.0
sVhonestly
p4109
F0.0004735908130911131
sVtemp
p4110
F0.00012873222468139922
sVallow
p4111
F0.0005792950110662965
sVtamper
p4112
F0.0
sVaddiction
p4113
F0.0
sVduloxetine
p4114
F0.0
sVlongest
p4115
F0.00012873222468139922
sVserotonergic
p4116
F0.0
sVnac
p4117
F0.0
sVadjust
p4118
F0.000321830561703498
sVdx
p4119
F0.0
sVproducer
p4120
F3.94659010909261e-05
sVmute
p4121
F6.436611234069961e-05
sVdemand
p4122
F4.9800422499547024e-05
sVmove
p4123
F0.0005976050699945643
sVoutlook
p4124
F3.94659010909261e-05
sVknowledgable
p4125
F0.0
sV2013
p4126
F0.0
sVemsam
p4127
F0.0
sV130
p4128
F3.94659010909261e-05
sVgiom
p4129
F0.0
sVfortunate
p4130
F0.0
sVsexytimes
p4131
F0.0
sVunchecked
p4132
F6.436611234069961e-05
sVbunch
p4133
F0.00012450105624886755
sVperfect
p4134
F0.00011839770327277828
sVwrite
p4135
F0.0002039196577761361
sVcomplicate
p4136
F0.0
sVlb
p4137
F0.0
sVantipsychotic
p4138
F0.0
sVtsh
p4139
F0.0
sVdecay
p4140
F0.0
sVlo
p4141
F0.0
sVll
p4142
F0.00041917518535808797
sVhypothesize
p4143
F0.0
sV3239560
p4144
F0.0
sVsiamese
p4145
F0.0
sVlabor
p4146
F0.0
sVmeantime
p4147
F0.000321830561703498
sVage
p4148
F0.00010195982888806805
sVaurorix
p4149
F0.0
sVrestrain
p4150
F0.0
sVchoose
p4151
F9.960084499909405e-05
sVamtriptyline
p4152
F0.0
sVbye
p4153
F0.00012873222468139922
sV2010
p4154
F0.0
sVtsp
p4155
F0.0
sVdad
p4156
F4.9800422499547024e-05
sVintraocular
p4157
F0.0
sVanimal
p4158
F2.913137968230516e-05
sVunclear
p4159
F3.94659010909261e-05
sVanticonvulsant
p4160
F0.0
sVnada
p4161
F6.436611234069961e-05
sVspell
p4162
F7.89318021818522e-05
sVmuddle
p4163
F0.0
sVmras
p4164
F0.0
sVmention
p4165
F0.0004731040137456967
sVflare
p4166
F0.0
sVdaw
p4167
F0.0
sVplaquenil
p4168
F0.0
sVinstead
p4169
F0.00029880253499728213
sVfront
p4170
F7.28284492057629e-05
sVrotation
p4171
F0.0
sVcircadian
p4172
F0.0
sVday
p4173
F0.0
sVemotion
p4174
F0.00012873222468139922
sVsynaptic
p4175
F0.0
sVsalford
p4176
F0.0
sVtransmitter
p4177
F0.0
sVdiagnostic
p4178
F0.0
sVthrill
p4179
F0.0
sVauto
p4180
F0.000321830561703498
sV11nce
p4181
F0.0
sVtram
p4182
F0.0
sVsucess
p4183
F0.0
sVpreclude
p4184
F0.0
sVunpredictable
p4185
F0.00025746444936279844
sVl4
p4186
F0.0
sVl5
p4187
F0.0
sVlamictal
p4188
F0.0
sVtruth
p4189
F0.00011839770327277828
sVgelcap
p4190
F0.0
sVreceptor
p4191
F0.0
sVtoxic
p4192
F0.0
sVstock
p4193
F7.470063374932053e-05
sVcolesevelam
p4194
F0.0
sVinstitution
p4195
F6.436611234069961e-05
sVactivate
p4196
F0.0001578636043637044
sVvasovagal_response
p4197
F0.0
sVlgqrp3v00xy
p4198
F0.0
sVbump
p4199
F0.0
sVixzz3pytia1zj
p4200
F0.0
sVcelexa
p4201
F0.0
sVymmv
p4202
F0.0
sVweening
p4203
F0.0
sVsociety
p4204
F3.94659010909261e-05
sVjunkie
p4205
F6.436611234069961e-05
sVmeta
p4206
F7.89318021818522e-05
sVstatic
p4207
F6.436611234069961e-05
sVmeasure
p4208
F9.960084499909405e-05
sV82
p4209
F6.436611234069961e-05
sVhuntington
p4210
F0.0
sVbay
p4211
F0.00011839770327277828
sVsexual
p4212
F0.0005149288987255969
sV87
p4213
F0.0
sVagoraphobia
p4214
F0.0
sVmight
p4215
F0.0003340302258322263
sVcategory
p4216
F0.00023679540654555656
sVsecretly
p4217
F6.436611234069961e-05
sVlastly
p4218
F0.0
sVifs
p4219
F6.436611234069961e-05
sVsentiment
p4220
F0.0
sVtwice
p4221
F0.0001992016899981881
sVculture
p4222
F0.00012873222468139922
sVkeystroke
p4223
F6.436611234069961e-05
sVvolunteers59
p4224
F0.0
sVfeminisation
p4225
F0.0
sVupset
p4226
F6.436611234069961e-05
sVsimilarly
p4227
F0.0
sVmate
p4228
F2.4900211249773512e-05
sVsituational
p4229
F0.0
sVsocalled
p4230
F0.0
sV8x
p4231
F0.0
sVrem
p4232
F0.0
sVintervention
p4233
F0.00012873222468139922
sVcause
p4234
F0.0006942589007493332
sValter
p4235
F0.0
sVmath
p4236
F0.00025746444936279844
sVtofranil
p4237
F0.0
sVshut
p4238
F5.826275936461032e-05
sVexperiment
p4239
F3.94659010909261e-05
sVworkflow
p4240
F0.0
sVwithdrawal
p4241
F0.0
sV8g
p4242
F0.0
sVasd
p4243
F0.0
sVartdet
p4244
F0.0
sVban
p4245
F0.0
sVcompletely
p4246
F0.00023305103745844129
sVect
p4247
F0.0
sVsurely
p4248
F0.00012873222468139922
sVintruder
p4249
F0.0
sVusual
p4250
F0.00019309833702209881
sV3ni1nd
p4251
F0.0
sVlikelihood
p4252
F0.0
sVbleed
p4253
F0.00012450105624886755
sVzirtek
p4254
F0.0
sVscary
p4255
F0.00025746444936279844
sV50mg
p4256
F0.0
sVinteraction
p4257
F0.0008367594604290949
sVorganic
p4258
F0.0
sVtimey
p4259
F0.0
sVg
p4260
F0.00017430147874841458
sVspill
p4261
F2.4900211249773512e-05
sVautomatic
p4262
F3.94659010909261e-05
sVcould
p4263
F0.0
sVarea
p4264
F9.169457179708174e-05
sVput
p4265
F0.0003012821644761257
sVdiscomfort
p4266
F0.0
sVhealthy
p4267
F0.0002490021124977351
sVkeep
p4268
F0.0002488852663063647
sVconversation
p4269
F7.28284492057629e-05
sVsleeplessness
p4270
F0.0
sV4th
p4271
F0.00012873222468139922
sVcounterintuitively
p4272
F0.0
sVoaxacan
p4273
F0.0
sVhence
p4274
F0.00012873222468139922
sVretain
p4275
F3.94659010909261e-05
sVparallel
p4276
F0.0
sVretail
p4277
F0.0
sVstimulate
p4278
F0.0
sVdexedrine
p4279
F0.0
sVexam
p4280
F0.00019309833702209881
sVfinest
p4281
F2.4900211249773512e-05
sVsuffix
p4282
F6.436611234069961e-05
sVdeprenyl
p4283
F0.0
sVthird
p4284
F3.929767362732074e-05
sVama
p4285
F0.0
sVpowerful
p4286
F0.000321830561703498
sVhey
p4287
F0.0001578636043637044
sVcardiac
p4288
F0.0
sVvulva
p4289
F0.0
sVregrow
p4290
F0.0
sVbitch
p4291
F0.00025746444936279844
sVdrinker
p4292
F6.436611234069961e-05
sVart
p4293
F2.4900211249773512e-05
sVscent
p4294
F6.436611234069961e-05
sVfrazzle
p4295
F0.0
sVplaylist
p4296
F0.00012873222468139922
sVmanagement
p4297
F0.0007080272357476957
sVsadly
p4298
F0.0
sVmonkey
p4299
F7.89318021818522e-05
sV10x
p4300
F0.0
sVstrict
p4301
F6.436611234069961e-05
sVgabapentine
p4302
F0.0
sVsystem
p4303
F0.00033501086634650935
sVrealistically
p4304
F0.0
sVclomipramine
p4305
F0.0
sVvagina
p4306
F0.00012873222468139922
sVintermediate
p4307
F0.0
sVslide
p4308
F3.94659010909261e-05
sVvagine
p4309
F0.0
sVfiorecet
p4310
F0.0
sVprolapse
p4311
F0.0
sVbeside
p4312
F1.456568984115258e-05
sVmucosa
p4313
F0.0
sVperfectly
p4314
F2.4900211249773512e-05
sVpainful
p4315
F0.0
sVprone
p4316
F0.0
sVconvert
p4317
F6.436611234069961e-05
sVparathesia
p4318
F0.0
sVstomach
p4319
F0.0003551931098183349
sVlot
p4320
F0.0
sVarrousals
p4321
F0.0
sVpopulation
p4322
F7.89318021818522e-05
sVacademy
p4323
F0.00012873222468139922
sVexplanation
p4324
F6.436611234069961e-05
sVwrithe
p4325
F0.0
sVdisturbance
p4326
F6.436611234069961e-05
sVenvironmental
p4327
F0.0
sVvouch
p4328
F0.0
sVanyones
p4329
F0.0
sVmanipulation
p4330
F0.00025746444936279844
sVfuzzy
p4331
F0.0
sVtopomax
p4332
F0.0
sVbotox
p4333
F0.0
sVmorbidity
p4334
F0.0
sVhaven
p4335
F0.0004078393155522722
sVbodyweight
p4336
F0.0
sVneck
p4337
F0.0004341249120001871
sVsteel
p4338
F3.94659010909261e-05
sVdevelop
p4339
F0.0005525226152729653
sVcounteract
p4340
F0.0
sVmorph
p4341
F0.0
sVroulette
p4342
F0.0
sVhubimg
p4343
F0.0
sVbother
p4344
F0.0001578636043637044
sVsmush
p4345
F0.0
sVbed
p4346
F0.0011050452305459307
sVdiscolor
p4347
F0.0
sVdefense
p4348
F0.0
sVlactmed
p4349
F0.0
sVmalpractice
p4350
F0.0
sVlight
p4351
F0.00017478827809383094
sVz8xnbmbynb0
p4352
F0.0
sVreferral
p4353
F0.0
sVexhibit
p4354
F6.436611234069961e-05
sVfalse
p4355
F7.470063374932053e-05
sVgabopentin
p4356
F0.0
sVfaster
p4357
F7.470063374932053e-05
sVpartnership
p4358
F0.0
sVcomfortable
p4359
F3.94659010909261e-05
sVtonight
p4360
F7.89318021818522e-05
sVgentle
p4361
F7.470063374932053e-05
sVsteriod
p4362
F0.0
sVunlikely
p4363
F0.0
sVgoodie
p4364
F0.0
sVcrank
p4365
F0.0
sVinduce
p4366
F0.0
sVmanifestation
p4367
F6.436611234069961e-05
sVapparently
p4368
F0.00014940126749864106
sVclearly
p4369
F4.9800422499547024e-05
sV70
p4370
F2.4900211249773512e-05
sVunbearable
p4371
F0.0
sVbastard
p4372
F3.94659010909261e-05
sVhypnagogic
p4373
F0.0
sVhaywire
p4374
F0.0
sVmin
p4375
F0.00019309833702209881
sVprobly
p4376
F0.0
sVagency
p4377
F6.436611234069961e-05
sVable
p4378
F0.0004224050053934248
sVmechanism
p4379
F0.0
sVfemoral
p4380
F0.0
sVmix
p4381
F0.0004482038024959233
sVdetector
p4382
F0.0
sVpharmacist
p4383
F0.0
sVaccuracy
p4384
F0.0
sVregard
p4385
F0.0
sVunless
p4386
F0.00034860295749682916
sVprednisone
p4387
F0.0
sVmanor
p4388
F0.0
sVhealthcare
p4389
F0.0
sVtension_headache
p4390
F0.0
sVharmful
p4391
F0.0
sVoffend
p4392
F0.00012873222468139922
sVacupuncturist
p4393
F0.0
sVeight
p4394
F9.960084499909405e-05
sVzombification
p4395
F0.0
sVlunesta
p4396
F0.0
sVdevice
p4397
F4.9800422499547024e-05
sVphd
p4398
F0.0
sVclass
p4399
F0.00048066776475803516
sVfair
p4400
F1.3099224542440249e-05
sVavandia
p4401
F0.0
sVastro
p4402
F0.0
sVdeny
p4403
F6.436611234069961e-05
sVhyperthyroidism
p4404
F0.0
sVgather
p4405
F3.94659010909261e-05
sVrequest
p4406
F0.00014940126749864106
sVdisease
p4407
F0.0007103862196366698
sVface
p4408
F0.00018935396793498354
sVdesvenlafaxine
p4409
F0.0
sVnorth
p4410
F2.4900211249773512e-05
sVoccasion
p4411
F3.94659010909261e-05
sVskinny
p4412
F0.00019309833702209881
sVmonotherapy
p4413
F0.0
sVnormally
p4414
F0.0003157272087274088
sVnortryptiline
p4415
F0.0
sVfact
p4416
F0.0004980042249954702
sVstrenuous
p4417
F0.0
sVimpression
p4418
F6.436611234069961e-05
sVtext
p4419
F0.00011839770327277828
sVdependant
p4420
F0.0
sVbrand_name
p4421
F0.0
sVtmja
p4422
F0.0
sVhomeowner
p4423
F0.0
sVvistaril
p4424
F0.0
sVbring
p4425
F7.204573498342137e-05
sVpanic
p4426
F0.0
sVbedroom
p4427
F6.436611234069961e-05
sVtripans
p4428
F0.0
sVrough
p4429
F7.89318021818522e-05
sVintracardiac
p4430
F0.0
sVtrivial
p4431
F0.0
sVthicker
p4432
F6.436611234069961e-05
sVdecade
p4433
F0.00011839770327277828
sVstaff
p4434
F0.00012873222468139922
sVngf
p4435
F0.0
sV5pm
p4436
F0.0
sVknowledge
p4437
F0.00023679540654555656
sVtire
p4438
F0.0004735908130911131
sVhadn
p4439
F4.9800422499547024e-05
sVwelbutrin
p4440
F0.0
sVneurogenic
p4441
F0.0
sVmalabsorption
p4442
F0.0
sVeat
p4443
F0.0002476167272995939
sVprolong
p4444
F0.0
sVreactive
p4445
F0.0
sV60mg
p4446
F0.0
sVplatelet
p4447
F0.0
sVcvohyev
p4448
F0.0
sVcombo
p4449
F0.00019309833702209881
sV7fkc1uny
p4450
F0.0
sVjag
p4451
F0.0
sVspice
p4452
F3.94659010909261e-05
sVlocal
p4453
F0.0001578636043637044
sVhangover
p4454
F0.00012873222468139922
sVhope
p4455
F0.00027508371539124523
sVregularly
p4456
F0.00025746444936279844
sVinsight
p4457
F6.436611234069961e-05
sVhandle
p4458
F0.00013109120857037322
sVpharmacology
p4459
F0.0
sVantagonism
p4460
F0.0
sVastigmatism
p4461
F0.0
sVfamiliar
p4462
F0.0003157272087274088
sVoverall
p4463
F0.0004505627863848972
sVlucky
p4464
F0.00017430147874841458
sVbear
p4465
F7.89318021818522e-05
sVdumbing
p4466
F6.436611234069961e-05
sVpathophysiology
p4467
F0.0
sVjoint
p4468
F0.0005149288987255969
sV123
p4469
F0.0
sVlegitimate
p4470
F0.0
sV126
p4471
F0.0
sVprobably
p4472
F0.0006991531123753238
sVstalker
p4473
F0.00012873222468139922
sVpenetrate
p4474
F0.0
sVsinus
p4475
F0.0
sVhydroxizine
p4476
F0.0
sVtecas
p4477
F0.0
sVantagonist
p4478
F0.0
sVsmash
p4479
F6.436611234069961e-05
sVmetabolite
p4480
F0.0
sVqt
p4481
F6.436611234069961e-05
sVorgan
p4482
F6.436611234069961e-05
sVht2a
p4483
F0.0
sVupper
p4484
F0.00012873222468139922
sVapproach
p4485
F0.00019732950545463048
sVundergrad
p4486
F0.0
sVughh
p4487
F0.0
sVncbi
p4488
F0.0
sVstuff
p4489
F0.0006225052812443378
sVinsist
p4490
F6.436611234069961e-05
sVdangerous
p4491
F0.00029880253499728213
sVohio
p4492
F0.0
sVgrab
p4493
F2.4900211249773512e-05
sVaugmentin
p4494
F0.0
sVgrad
p4495
F0.00019309833702209881
sVopiod
p4496
F0.0
sVgabapentin
p4497
F0.0
sVenhancer
p4498
F0.0
sVtoe
p4499
F3.94659010909261e-05
sVbtw
p4500
F0.0
sVtemporarily
p4501
F0.00019309833702209881
sVrectocele
p4502
F0.0
sVresort
p4503
F0.0
sVexpel
p4504
F0.0
sVcatastrophic
p4505
F0.0
sVframe
p4506
F3.94659010909261e-05
sVgroggy
p4507
F0.0
sVfantastically
p4508
F6.436611234069961e-05
sVlazy
p4509
F0.0001578636043637044
sVbreathe
p4510
F0.00038619667404419763
sVdislodge
p4511
F6.436611234069961e-05
sVintensity
p4512
F0.000321830561703498
sVwd
p4513
F0.0
sVscroll
p4514
F6.436611234069961e-05
sV9654
p4515
F0.0
sVracket
p4516
F0.0
sVrespite
p4517
F0.0
sVdysmorphia
p4518
F0.0
sVmentioned_videos
p4519
F0.0
sVparacetamol
p4520
F0.0
sVdanger
p4521
F2.913137968230516e-05
sVempathise
p4522
F0.0
sVcomputer
p4523
F0.0003157272087274088
sVextend
p4524
F0.00011839770327277828
sVglucophage
p4525
F0.0
sVnuclear
p4526
F6.436611234069961e-05
sVnightmare
p4527
F0.00022410190124796164
sVhorribly
p4528
F0.0
sVreishi
p4529
F0.0
sVdrown
p4530
F0.00012873222468139922
sVtend
p4531
F0.0012229561344732924
sVxray
p4532
F0.0
sVinitially
p4533
F7.89318021818522e-05
sVstate
p4534
F0.0003984033799963762
sVconvince
p4535
F2.4900211249773512e-05
sVclusterfuck
p4536
F0.0
sVmoducare
p4537
F0.0
sVcorrectly
p4538
F4.9800422499547024e-05
sVroutine
p4539
F0.0004341249120001871
sVfluconazole
p4540
F0.0
sVneither
p4541
F7.89318021818522e-05
sVemail
p4542
F3.94659010909261e-05
sVmidnight
p4543
F3.94659010909261e-05
sVaspartame
p4544
F6.436611234069961e-05
sVimbalance
p4545
F0.0
sVcomparable
p4546
F0.0
sVvarious
p4547
F0.00027390232374750864
sVjot
p4548
F0.0
sVability
p4549
F0.00023679540654555656
sVparadoxically
p4550
F6.436611234069961e-05
sVinitiation
p4551
F0.0
sVjoy
p4552
F3.94659010909261e-05
sVtantra
p4553
F0.0
sVnegate
p4554
F0.0
sVhowever
p4555
F0.0019338291534553788
sVefficiency
p4556
F0.0
sVjob
p4557
F0.00029880253499728213
sVhypothesis
p4558
F6.436611234069961e-05
sVkey
p4559
F0.0001992016899981881
sVfloss
p4560
F0.0
sVinterchangeable
p4561
F0.0
sVoutfit
p4562
F6.436611234069961e-05
sVoptional
p4563
F6.436611234069961e-05
sVlegit
p4564
F6.436611234069961e-05
sVexclusion
p4565
F0.0
sVactual
p4566
F0.00019309833702209881
sVconceive
p4567
F6.436611234069961e-05
sVempathy
p4568
F0.0
sVinstant
p4569
F3.94659010909261e-05
sVcareer
p4570
F3.94659010909261e-05
sVjoke
p4571
F3.94659010909261e-05
sVla
p4572
F1.3099224542440249e-05
sVscientificamerican
p4573
F0.0
sVpresribe
p4574
F0.0
sVetc
p4575
F0.0002423356540351446
sVadmit
p4576
F0.0
sVgabapenting
p4577
F0.0
sVendo
p4578
F0.0
sVswallow
p4579
F3.94659010909261e-05
sVplacebo
p4580
F0.0
sValprazolam
p4581
F0.0
sVorganisation
p4582
F0.0
sVotherwise
p4583
F0.00014940126749864106
sVcomment
p4584
F0.0005130567141820393
sVvent
p4585
F0.0
sVinflammatory
p4586
F0.0
sVco
p4587
F0.0001578636043637044
sVtimolol
p4588
F0.0
sVcbc
p4589
F0.0
sVabortive
p4590
F0.0
sVprostaglandin
p4591
F0.0
sVca
p4592
F6.436611234069961e-05
sVcontamination
p4593
F0.0
sVmilligram
p4594
F0.0
sVwalk
p4595
F0.0005229044362452437
sVwalt
p4596
F0.0
sVv33
p4597
F0.0
sVgtn
p4598
F0.0
sVlaugh
p4599
F7.470063374932053e-05
sVseuil
p4600
F0.0
sVrespect
p4601
F9.960084499909405e-05
sVinterrelation
p4602
F0.0
sVrosiglitazone
p4603
F0.0
sVcv
p4604
F0.0
sVct
p4605
F0.0
sVquit
p4606
F0.0004735908130911131
sVimplicate
p4607
F0.0
sVinhale
p4608
F6.436611234069961e-05
sVyay
p4609
F0.0
sVhorrific
p4610
F0.0
sVaddition
p4611
F0.0007080272357476957
sVdecent
p4612
F2.4900211249773512e-05
sVnaltrexone
p4613
F0.0
sVcefuroxime
p4614
F0.0
sVrestless
p4615
F0.0
sVgenetic
p4616
F0.0
sVpermanent
p4617
F4.9800422499547024e-05
sVslowly
p4618
F0.0001992016899981881
sVtreat
p4619
F0.0014940126749864108
sVmaryland
p4620
F0.0
sVssri
p4621
F0.0
sVcurtain
p4622
F0.0
sVhottest
p4623
F6.436611234069961e-05
sVwaste
p4624
F0.00017430147874841458
sVsoma
p4625
F0.0
sVventolin
p4626
F0.0
sVmike
p4627
F0.0
sVcop
p4628
F3.94659010909261e-05
sVlgb
p4629
F0.0
sVroute
p4630
F7.470063374932053e-05
sVsufficient
p4631
F0.0
sVotc
p4632
F0.0
sVprotect
p4633
F0.00012873222468139922
sVanorgasmia
p4634
F0.0
sVcrappy
p4635
F7.89318021818522e-05
sV250mg
p4636
F0.0
sVanticholinergic
p4637
F0.0
sVcontroller
p4638
F0.0
sVaccident
p4639
F0.00012873222468139922
sVtense
p4640
F0.0
sVice
p4641
F3.94659010909261e-05
sVbull
p4642
F6.436611234069961e-05
sVprescription
p4643
F0.0
sVfellow
p4644
F6.436611234069961e-05
sVc7
p4645
F0.0
sVcarisoprodol
p4646
F0.0
sVspain
p4647
F0.0
sVvolunteer
p4648
F0.00012873222468139922
sVmulti
p4649
F2.4900211249773512e-05
sVhypotension
p4650
F0.0
sVlaser
p4651
F6.436611234069961e-05
sVlicense
p4652
F3.94659010909261e-05
sVunlike
p4653
F0.00014940126749864106
sVkava
p4654
F0.0
sVoveruse
p4655
F0.0
sVplain
p4656
F7.470063374932053e-05
sVvanilla
p4657
F3.94659010909261e-05
sVharder
p4658
F0.00019732950545463048
sVvalue
p4659
F5.826275936461032e-05
sVpixel
p4660
F0.00012873222468139922
sVmiddle
p4661
F7.28284492057629e-05
sVadequately
p4662
F0.0
sVtexas
p4663
F0.0
sVvastly
p4664
F0.0
sVfault
p4665
F1.456568984115258e-05
sVdeductible
p4666
F0.0
sVknot
p4667
F6.436611234069961e-05
sVamoxicillin
p4668
F0.0
sVgroin
p4669
F0.00025746444936279844
sVelbow
p4670
F0.00012873222468139922
sVsupply
p4671
F0.00012873222468139922
sVsnack
p4672
F6.436611234069961e-05
sVgroup
p4673
F0.00013109120857037322
sVomgwtf
p4674
F0.0
sVcell
p4675
F0.00012450105624886755
sVmanually
p4676
F0.00012873222468139922
sValmost
p4677
F0.00014409146996684273
sVdemo
p4678
F6.436611234069961e-05
sVdelusion
p4679
F0.0
sVthus
p4680
F0.00011839770327277828
sVsite
p4681
F9.960084499909405e-05
sVmostly
p4682
F0.00042330359124614973
sVapprox
p4683
F6.436611234069961e-05
sVcopd
p4684
F0.0
sVoptimistic
p4685
F0.0
sVdual
p4686
F7.89318021818522e-05
sVjudgemental
p4687
F6.436611234069961e-05
sVpartner
p4688
F0.00019732950545463048
sVmedlineplus
p4689
F0.0
sVgreater
p4690
F0.00011839770327277828
sVportray
p4691
F0.0
sVtattoo
p4692
F6.436611234069961e-05
sVpresent
p4693
F5.2396898169760996e-05
sVgeneric
p4694
F0.000321830561703498
sV6mg
p4695
F0.0
sVballoon
p4696
F6.436611234069961e-05
sVadministration
p4697
F0.00012873222468139922
sVcross
p4698
F3.274806135610062e-05
sVazathioprine
p4699
F0.0
sVmatthew
p4700
F0.0
sVstrange
p4701
F5.826275936461032e-05
sVcanisten
p4702
F0.0
sVflour
p4703
F0.0
sVparty
p4704
F0.0003157272087274088
sVandroid
p4705
F0.0
sVfill
p4706
F0.0005229044362452437
sVflair
p4707
F0.0
sVmildly
p4708
F0.0
sVdisc
p4709
F0.0
sVincorrect
p4710
F0.00012873222468139922
sVball
p4711
F4.9800422499547024e-05
sVemotionally
p4712
F0.00012873222468139922
sVcefotaxime
p4713
F0.0
sVabsorb
p4714
F0.00012873222468139922
sVdrink
p4715
F8.514495952586161e-05
sVzanjabee
p4716
F0.0
sVeffect
p4717
F0.0005305185939688301
sViop
p4718
F0.0
sVnightly
p4719
F6.436611234069961e-05
sV80
p4720
F0.0
sVxd
p4721
F0.0
sVstudent
p4722
F0.00027626130763648267
sVpdf
p4723
F0.00012873222468139922
sVfierce
p4724
F0.0
sVfrequently
p4725
F0.0004505627863848972
sVpotasssium
p4726
F0.0
sVantagonize
p4727
F0.0
sVdiabetes
p4728
F0.0007723933480883953
sVyeah
p4729
F0.0007103862196366698
sVarse
p4730
F0.0
sVlupus
p4731
F0.0
sVexpense
p4732
F6.436611234069961e-05
sVcenter
p4733
F9.960084499909405e-05
sVfully
p4734
F4.3697069523457736e-05
sVedition
p4735
F6.436611234069961e-05
sVwhole
p4736
F0.0004731040137456967
sVresent
p4737
F0.0
sVindonesia
p4738
F0.0
sVwell
p4739
F0.0
sVcave
p4740
F0.00012873222468139922
sVthought
p4741
F8.739413904691547e-05
sV1
p4742
F0.0003143813890185659
sVinformative
p4743
F6.436611234069961e-05
sVexperimental
p4744
F0.0
sVfirstly
p4745
F0.0
sVposition
p4746
F5.826275936461032e-05
sVoutgrow
p4747
F0.0
sVmuscle
p4748
F0.002124081707243087
sVloss
p4749
F0.00023679540654555656
sVrush
p4750
F4.9800422499547024e-05
sVsubgroup
p4751
F0.0
sVrestore
p4752
F6.436611234069961e-05
sVlube
p4753
F6.436611234069961e-05
sVexcessive
p4754
F4.9800422499547024e-05
sVrocket
p4755
F0.0
sVakira
p4756
F0.0
sVpercent
p4757
F3.94659010909261e-05
sVaccurate
p4758
F6.436611234069961e-05
sVfingerprint
p4759
F0.0
sVpresumably
p4760
F6.436611234069961e-05
sVjar
p4761
F2.4900211249773512e-05
sVinadequate
p4762
F6.436611234069961e-05
sVclinic
p4763
F0.0
sVscholarly
p4764
F0.0
sVrambley
p4765
F0.0
sVloperamide
p4766
F0.0
sVlocalize
p4767
F0.00012873222468139922
sVduoxetine
p4768
F0.0
sVlauren
p4769
F0.0
sVindian
p4770
F0.0
sVcoordination
p4771
F0.0
sVhappiness
p4772
F0.00012873222468139922
sVdistress
p4773
F0.00012873222468139922
sVmaxalts
p4774
F0.0
sVmeningeal
p4775
F0.0
sVrapid
p4776
F6.436611234069961e-05
sVwee
p4777
F0.0
sVfield
p4778
F0.00012873222468139922
sVabsorption
p4779
F0.0
sVpodcast
p4780
F0.0
sVinstruction
p4781
F6.436611234069961e-05
sV0738
p4782
F0.0
sVrealize
p4783
F0.00038619667404419763
sVadd
p4784
F0.0003984033799963762
sVbook
p4785
F0.0004341249120001871
sVcombine
p4786
F0.00023679540654555656
sVcrack
p4787
F3.94659010909261e-05
sVreason
p4788
F0.00030587948666420416
sVappreciate
p4789
F0.00023679540654555656
sVrenal
p4790
F0.0
sV201111
p4791
F0.0
sVmatch
p4792
F4.9800422499547024e-05
sVboom
p4793
F4.9800422499547024e-05
sVidentical
p4794
F3.94659010909261e-05
sVbranch
p4795
F4.9800422499547024e-05
sVmagnify
p4796
F0.0
sVgovernment
p4797
F3.94659010909261e-05
sVsandrino
p4798
F0.0
sVcpap
p4799
F0.0
sVfyi
p4800
F0.0
sVinversion
p4801
F0.0
sVmaprotiline
p4802
F0.0
sVfive
p4803
F4.584728589854087e-05
sVseizure
p4804
F0.0
sVfacial
p4805
F0.00038619667404419763
sVdeployment
p4806
F0.0
sVbelgium
p4807
F0.0
sVimmediately
p4808
F7.470063374932053e-05
sVabilify
p4809
F0.0
sVname
p4810
F9.169457179708174e-05
sVinsert
p4811
F0.00019309833702209881
sVanticonvulants
p4812
F0.0
sVnecessary
p4813
F0.00013109120857037322
sVlike
p4814
F0.0
sVsuccess
p4815
F0.00039465901090926097
sVring
p4816
F3.94659010909261e-05
sV24362450
p4817
F0.0
sVgarage
p4818
F0.00012873222468139922
sVlosange
p4819
F0.0
sVjanuary
p4820
F0.0
sVbecome
p4821
F0.00012444263315318236
sVcandl
p4822
F0.0
sVuniversity
p4823
F0.00019309833702209881
sVreplacement
p4824
F0.00011839770327277828
sVopioid
p4825
F0.0
sVreglan
p4826
F0.0
sVklonopin
p4827
F0.0
sVdrop
p4828
F0.00029880253499728213
sVmanic
p4829
F0.00019309833702209881
sVfootage
p4830
F0.00012873222468139922
sVcontemporaneous
p4831
F0.0
sVauthority
p4832
F6.436611234069961e-05
sVhair
p4833
F2.4900211249773512e-05
sVdaylight
p4834
F6.436611234069961e-05
sV116
p4835
F0.0
sVconvey
p4836
F0.0
sVrecommendation
p4837
F6.436611234069961e-05
sVproper
p4838
F1.456568984115258e-05
sVhome
p4839
F0.00013109120857037322
sVsupportive
p4840
F0.0
sVleery
p4841
F0.0
sVrefill
p4842
F0.000643661123406996
sVshrug
p4843
F0.0
sVtciiylkv5je
p4844
F0.0
sVpinpoint
p4845
F0.0
sVendongenous
p4846
F0.0
sVpsychosis
p4847
F0.0
sVsoundscape
p4848
F0.0
sVliterally
p4849
F0.00023679540654555656
sVavoid
p4850
F0.00016022258825267838
sVseparate
p4851
F3.94659010909261e-05
sVkiddy
p4852
F0.0
sVinhibit
p4853
F0.0
sVoverlap
p4854
F6.436611234069961e-05
sVasthma
p4855
F0.000321830561703498
sVprophalaxis
p4856
F0.0
sVpassion
p4857
F2.4900211249773512e-05
sVinflammation
p4858
F0.0
sVethiopian
p4859
F0.0
sVtmg
p4860
F0.0
sVtmj
p4861
F0.0
sVsnuggle
p4862
F0.0
sVtrap
p4863
F0.0
sVlocate
p4864
F0.00012873222468139922
sVbiology
p4865
F0.0
sVnoise
p4866
F5.826275936461032e-05
sVtrim
p4867
F6.436611234069961e-05
sVschedule
p4868
F0.00019309833702209881
sVtecta
p4869
F0.0
sVjournal
p4870
F0.0
sVcombative
p4871
F0.0
sVpp
p4872
F0.0
sVstellar
p4873
F0.0
sVpressure
p4874
F0.002124081707243087
sVneurosurgeon
p4875
F0.0
sVexpire
p4876
F0.00012873222468139922
sValthough
p4877
F0.00037870793586996707
sVworthy
p4878
F3.94659010909261e-05
sVpublicationdetail
p4879
F0.0
sVfluorescent
p4880
F0.0
sVfrustrate
p4881
F0.0
sVpreventative
p4882
F0.0
sVstage
p4883
F0.00012450105624886755
sVsister
p4884
F3.94659010909261e-05
sVlifestyle
p4885
F0.00025746444936279844
sVrotenone
p4886
F0.0
sVextension
p4887
F6.436611234069961e-05
sV6am
p4888
F0.0
sVibd
p4889
F0.0
sVndc
p4890
F0.0
sVdilaudid
p4891
F0.0
sVdependence
p4892
F0.0
sVingest
p4893
F0.0
sV125mg
p4894
F0.0
sVaminotransferase
p4895
F0.0
sVfear
p4896
F0.00014940126749864106
sVswear
p4897
F0.00012873222468139922
sVsweat
p4898
F0.00038619667404419763
sVnonstressful
p4899
F0.0
sVcranberry
p4900
F3.94659010909261e-05
sVtongue
p4901
F2.4900211249773512e-05
sVbloodstream
p4902
F6.436611234069961e-05
sVupdate
p4903
F6.436611234069961e-05
sVbyszvbfbpty
p4904
F0.0
sVsoftware
p4905
F7.89318021818522e-05
sVequally
p4906
F0.0
sVzz
p4907
F6.436611234069961e-05
sVglenn
p4908
F0.0
sVpreviously
p4909
F0.00038619667404419763
sVh1
p4910
F0.0
sVyear
p4911
F0.000792503084817635
sVfunctional
p4912
F0.00019309833702209881
sVcyclobenzaprine
p4913
F0.0
sV80mg
p4914
F0.0
sVchronic
p4915
F0.0032826717293756797
sVguard
p4916
F2.4900211249773512e-05
sVdoesnt
p4917
F3.94659010909261e-05
sVlung
p4918
F0.00019309833702209881
sVfemale
p4919
F7.470063374932053e-05
sVscanner
p4920
F0.0
sVlovely
p4921
F2.4900211249773512e-05
sVpointless
p4922
F6.436611234069961e-05
sVadrenalin
p4923
F0.0
sVeh
p4924
F9.960084499909405e-05
sV1987
p4925
F0.0
sVuncontrollably
p4926
F0.0
sVprozac
p4927
F0.0
sVcarbon
p4928
F0.0
sVadditional
p4929
F0.00011839770327277828
sVadolescent
p4930
F0.0
sV00459
p4931
F0.0
sVtransfer
p4932
F7.89318021818522e-05
sVmuseum
p4933
F0.00012873222468139922
sVopanaer
p4934
F0.0
sVspiral
p4935
F6.436611234069961e-05
sVrcs
p4936
F0.0
sVfrustration
p4937
F0.0
sVgene
p4938
F6.436611234069961e-05
sVbiggest
p4939
F0.0001578636043637044
sVdamn
p4940
F0.00038619667404419763
sVgoin
p4941
F3.94659010909261e-05
sVinsanely
p4942
F0.0
sVchunk
p4943
F0.0
sVfunction
p4944
F0.0012229561344732924
sVmedcenter
p4945
F0.0
sVbuy
p4946
F0.00012450105624886755
sVcapsule
p4947
F6.436611234069961e-05
sVfmb005
p4948
F0.0
sVdextroamphetamine
p4949
F0.0
sVsweetener
p4950
F0.0
sVbur
p4951
F0.0
sVbrand
p4952
F4.9800422499547024e-05
sVhq
p4953
F0.0
sVmutter
p4954
F0.0
sVweight
p4955
F0.000801112941263392
sVnormelatonin
p4956
F0.0
sVdelivery
p4957
F0.00012873222468139922
sVneutral
p4958
F0.000321830561703498
sVhi
p4959
F0.00012873222468139922
sVvalerian
p4960
F0.0
sVgain
p4961
F0.0018943632523644525
sVhl
p4962
F0.0
sVthreaten
p4963
F0.00025746444936279844
sVbeat
p4964
F4.9800422499547024e-05
sVhelpful
p4965
F0.0009654916851104941
sVrectum
p4966
F0.0
sVsqueeze
p4967
F0.00012873222468139922
sVbug
p4968
F0.00011839770327277828
sVbud
p4969
F0.0
sVpartially
p4970
F3.94659010909261e-05
sVcount
p4971
F0.00019732950545463048
sVmint
p4972
F3.94659010909261e-05
sVwise
p4973
F0.00038619667404419763
sVworkup
p4974
F0.0
sVtab
p4975
F3.94659010909261e-05
sVdeficiency
p4976
F0.0
sVwhether
p4977
F8.514495952586161e-05
sVwish
p4978
F0.0004980042249954702
sVofficial
p4979
F0.0001578636043637044
sVsmooth
p4980
F2.4900211249773512e-05
sV88
p4981
F0.00019309833702209881
sVbutalbital
p4982
F0.0
sVvaporshark
p4983
F0.0
sVexcitement
p4984
F6.436611234069961e-05
sVsecrete
p4985
F0.0
sVfrequency
p4986
F0.0004505627863848972
sVlimit
p4987
F0.00011839770327277828
sVc7bispulop0
p4988
F0.0
sVvallium
p4989
F0.0
sV3mg
p4990
F0.0
sVadderall
p4991
F0.0
sVproblem
p4992
F0.0005389305241226455
sVpm
p4993
F0.0
sVantidepressives
p4994
F0.0
sVflashin
p4995
F0.0
sVpii
p4996
F0.0
sVdiabetic
p4997
F6.436611234069961e-05
sVpin
p4998
F6.436611234069961e-05
sVwhatever
p4999
F0.0001456568984115258
sVrecognize
p5000
F3.94659010909261e-05
sVdomino
p5001
F0.0
sVcontribute
p5002
F0.00025746444936279844
sVpersistent
p5003
F3.94659010909261e-05
sVlidoderm
p5004
F0.0
sV20046420
p5005
F0.0
sVlesionings
p5006
F0.0
sVhit
p5007
F5.826275936461032e-05
sVflight
p5008
F2.4900211249773512e-05
sVkowton
p5009
F0.0
sVpit
p5010
F6.436611234069961e-05
sVglutamate
p5011
F0.0
sVliquicaps
p5012
F0.0
sVhospitalization
p5013
F0.0
sVimmobilize
p5014
F0.0
sVoab
p5015
F0.0
sV48
p5016
F7.89318021818522e-05
sVvariety
p5017
F0.00011839770327277828
sVas_sdt
p5018
F0.0
sV45
p5019
F4.9800422499547024e-05
sVdihydroergotamine
p5020
F0.0
sVdetail
p5021
F0.00039465901090926097
sV40
p5022
F0.00012450105624886755
sVlately
p5023
F3.94659010909261e-05
sVsurreal
p5024
F0.0
sV_apasserby_
p5025
F0.0
sVspecial
p5026
F1.3099224542440249e-05
sVsick
p5027
F0.000321830561703498
sVautomaticaly
p5028
F0.0
sVziprasidone
p5029
F0.0
sVbehold
p5030
F6.436611234069961e-05
sV85
p5031
F6.436611234069961e-05
sVstimulant
p5032
F0.0
sValbum
p5033
F0.00019309833702209881
sVrepeat
p5034
F0.00019309833702209881
sVrya0_hghxus0
p5035
F0.0
sVdiagnosis
p5036
F0.0
sVmonday
p5037
F0.0
sVworker
p5038
F0.00019309833702209881
sVvalproate
p5039
F0.0
sVchance
p5040
F0.00013109120857037322
sVstab
p5041
F4.9800422499547024e-05
sVmasterpiece
p5042
F0.0
sVpharmacy
p5043
F0.0018022511455395888
sVcarbamazepine
p5044
F0.0
sV4960
p5045
F0.0
sVexposure
p5046
F0.0
sVhuntingtin
p5047
F0.0
sVbenadryl
p5048
F0.0
sVramble
p5049
F0.0
sV4x
p5050
F0.0
sVrisperdal
p5051
F0.0
sVresolution
p5052
F0.00023679540654555656
sVhepc
p5053
F0.0
sVrule
p5054
F0.00027626130763648267
sVintentionally
p5055
F6.436611234069961e-05
sVaetna
p5056
F0.0
sVriboflavin
p5057
F0.0
sV1365
p5058
F0.0
sVpupil
p5059
F0.0
sV1000
p5060
F7.89318021818522e-05
sVspecialize
p5061
F0.0
sVgoodly
p5062
F0.0
sVestriol
p5063
F0.0
sVgrocery
p5064
F0.00012873222468139922
sV4a
p5065
F6.436611234069961e-05
s.