(dp0
Vgt
p1
F0.0
sVsuicidal
p2
F0.0037602507224093495
sVantipsychotics
p3
F0.0
sVallergy
p4
F0.0018801253612046747
sVbaby
p5
F0.00230558717453958
sVterazosin
p6
F0.0
sVcatapres
p7
F0.0
sVmilk
p8
F0.0018801253612046747
sVzyvox
p9
F0.0
sVcertainly
p10
F0.00042546181333490493
sVsuicide
p11
F0.0056403760836140245
sVtranylcypromine
p12
F0.0
sVside_effects
p13
F0.0
sVselegiline
p14
F0.0
sVstable
p15
F0.0037602507224093495
sVtekamlo
p16
F0.0
sVdramatically
p17
F0.0018801253612046747
sVtoprol
p18
F0.0
sVharmaline
p19
F0.0
sVcapoten
p20
F0.0
sVtenormin
p21
F0.0
sVmanic
p22
F0.0018801253612046747
sVevery
p23
F0.0007652531240040067
sVtelling
p24
F0.0012763854400047148
sVartery
p25
F0.0
sVtrouble
p26
F0.00019131328100100169
sVdifference
p27
F0.00115279358726979
sVtreating
p28
F0.0018801253612046747
sVschool
p29
F0.0018801253612046747
sVissue
p30
F0.0007273317739348849
sVhyperactive
p31
F0.0018801253612046747
sVlist
p32
F0.0021819953218046545
sVsolution
p33
F0.0
sVaccupril
p34
F0.0
sVtry
p35
F0.00038262656200200337
sVprotriptyline
p36
F0.0
sVmoclobemide
p37
F0.0
sVquick
p38
F0.00019131328100100169
sVlevalbuterol
p39
F0.0
sVwork
p40
F0.0
sVpsyilocybin
p41
F0.0
sVbleeding
p42
F0.0018801253612046747
sVramipril
p43
F0.0
sVpast
p44
F0.00042546181333490493
sVclotting
p45
F0.0
sVeven
p46
F0.0007652531240040067
sVchildren
p47
F0.0014546635478697699
sVisoptin
p48
F0.0
sVbipolar
p49
F0.0018801253612046747
sVnew
p50
F0.0
sVquinapril
p51
F0.0
sVbody
p52
F0.00019131328100100169
sVpushing
p53
F0.00042546181333490493
sVoveractive
p54
F0.0
sVwater
p55
F0.0007273317739348849
sVreported
p56
F0.0056403760836140245
sVshouldn
p57
F0.0007273317739348849
sVfeeding
p58
F0.00115279358726979
sVothers
p59
F0.0025527708800094297
sVwait
p60
F0.0008509236266698099
sVsearch
p61
F0.0007273317739348849
sVkids
p62
F0.00115279358726979
sVdifficulty
p63
F0.0018801253612046747
sVphenelzine
p64
F0.0
sVchanged
p65
F0.0007273317739348849
sVexperience
p66
F0.00115279358726979
sVpacerone
p67
F0.0
sVproducts
p68
F0.00230558717453958
sVsalmeterol
p69
F0.0
sVnoticeably
p70
F0.0
sVdepressant
p71
F0.0
sVmakes
p72
F0.00038262656200200337
sVclonidine
p73
F0.0
sVfamily
p74
F0.0014546635478697699
sVquinidine
p75
F0.0
sVhighly
p76
F0.00115279358726979
sVpsychological
p77
F0.0037602507224093495
sVmobic
p78
F0.0
sVeldepryl
p79
F0.0
sValbuterol
p80
F0.0
sVuse
p81
F0.0013391929670070117
sVprinivil
p82
F0.0
sVwould
p83
F0.0
sVprove
p84
F0.0
sVcontains
p85
F0.00115279358726979
sVlyme
p86
F0.0
sVmeloxicam
p87
F0.0
sVrecommend
p88
F0.0018801253612046747
sVunivasc
p89
F0.0
sVtell
p90
F0.0034036945066792394
sVaspirin
p91
F0.0
sVnaprelan
p92
F0.0
sVtagamet
p93
F0.0
sVhurt
p94
F0.0018801253612046747
sVparticular
p95
F0.00042546181333490493
sVknown
p96
F0.0008509236266698099
sVmidst
p97
F0.0
sVmust
p98
F0.0
sVlopressor
p99
F0.0
sVscience
p100
F0.00115279358726979
sVdepressants
p101
F0.0
sVmetoprolol
p102
F0.0
sVinhibitor
p103
F0.0
sVaddictive
p104
F0.0
sVhistory
p105
F0.0021819953218046545
sVheart
p106
F0.0029093270957395397
sVcrazy
p107
F0.00115279358726979
sVaceon
p108
F0.0
sVnursing
p109
F0.0
sVstream
p110
F0.0018801253612046747
sVgive
p111
F0.00019131328100100169
sVhigh
p112
F0.0
sVsomething
p113
F0.00038262656200200337
sVwant
p114
F0.0
sVcimetidine
p115
F0.0
sVoccur
p116
F0.0037602507224093495
sVbronchodilators
p117
F0.0
sVarthrotec
p118
F0.0
sVrather
p119
F0.00042546181333490493
sVwarfarin
p120
F0.0
sVaurorix
p121
F0.0
sVanswer
p122
F0.0008509236266698099
sVinstead
p123
F0.0007273317739348849
sVpanic
p124
F0.0
sVtried
p125
F0.0021819953218046545
sVmay
p126
F0.0015305062480080135
sVstop
p127
F0.0009565664050050083
sVtribenzor
p128
F0.0
sVcontaining
p129
F0.0018801253612046747
sVimpulsive
p130
F0.0
sVabuse
p131
F0.0018801253612046747
sVblood
p132
F0.003636658869674424
sVsnp
p133
F0.0
sVantinflammatory
p134
F0.0
sVdata
p135
F0.0037602507224093495
sVmao
p136
F0.0
sVremember
p137
F0.00019131328100100169
sVwhenever
p138
F0.00115279358726979
sVmaybe
p139
F0.0
sVcounter
p140
F0.00230558717453958
sVsertaline
p141
F0.0
sVnsaids
p142
F0.0
sVcoumadin
p143
F0.0
sVoperate
p144
F0.0018801253612046747
sVbreast
p145
F0.0037602507224093495
sVlsd
p146
F0.0
sVdutoprol
p147
F0.0
sVepilepsy
p148
F0.0
sVyears
p149
F0.0017018472533396197
sVemsam
p150
F0.0
sVinnopran
p151
F0.0
sVlisinopril
p152
F0.0
sV24
p153
F0.0014546635478697699
sVaddiction
p154
F0.0
sVnebivolol
p155
F0.0
sVwriting
p156
F0.0007273317739348849
sVsymptoms
p157
F0.0
sVdigoxin
p158
F0.0
sVamitriptyline
p159
F0.0
sVeasier
p160
F0.0007273317739348849
sVerowid
p161
F0.0
sVdobutrex
p162
F0.0
sVnon
p163
F0.00019131328100100169
sVevening
p164
F0.00115279358726979
sVazilect
p165
F0.0
sVnorpramin
p166
F0.0
sVagitated
p167
F0.0
sVeffects
p168
F0.00922234869815832
sVlabetalol
p169
F0.0
sVbystolic
p170
F0.0
sVday
p171
F0.0
sVmonopril
p172
F0.0
sVayahuasca
p173
F0.0
sVpregnant
p174
F0.0037602507224093495
sVdrop
p175
F0.0007273317739348849
sVl
p176
F0.0007273317739348849
sVstopped
p177
F0.0007273317739348849
sVfound
p178
F0.00019131328100100169
sVheavy
p179
F0.00042546181333490493
sVharm
p180
F0.0
sVmental
p181
F0.0037602507224093495
sVmavik
p182
F0.0
sVcelexa
p183
F0.0
sVreduce
p184
F0.00461117434907916
sVyeah
p185
F0.00115279358726979
sVdoxazosin
p186
F0.0
sVpatch
p187
F0.00115279358726979
sVcategory
p188
F0.00115279358726979
sVmedications
p189
F0.0
sVvasotec
p190
F0.0
sValcohol
p191
F0.00115279358726979
sVaurorex
p192
F0.0
sVmethylene
p193
F0.0
sVsince
p194
F0.00038262656200200337
sVincrease
p195
F0.00115279358726979
sVjanimine
p196
F0.0
sVmedicine
p197
F0.0037602507224093495
sVobsessive
p198
F0.0
sVadvice
p199
F0.0056403760836140245
sVtrandate
p200
F0.0
sVtheory
p201
F0.0018801253612046747
sVcaregivers
p202
F0.0
sVdigitalis
p203
F0.0
sVect
p204
F0.0
sVorg
p205
F0.0037602507224093495
sVchlorine
p206
F0.0
sVscary
p207
F0.0018801253612046747
sVinteraction
p208
F0.0037602507224093495
sVhostile
p209
F0.0018801253612046747
sVg
p210
F0.0007273317739348849
sVcould
p211
F0.0
sVcompulsive
p212
F0.0018801253612046747
sVdays
p213
F0.0025527708800094297
sVkeep
p214
F0.00019131328100100169
sVsteroidal
p215
F0.0
sVamiodarone
p216
F0.0
sVleading
p217
F0.0014546635478697699
sVinteract
p218
F0.0037602507224093495
sVfirst
p219
F0.0009565664050050083
sVfeel
p220
F0.00019131328100100169
sVdobutamine
p221
F0.0
sVdone
p222
F0.00019131328100100169
sVdefects
p223
F0.0
sVpropranolol
p224
F0.0
sVseizures
p225
F0.0018801253612046747
sVpasses
p226
F0.00115279358726979
sVrythmol
p227
F0.0
sVrasagiline
p228
F0.0
sVcataflam
p229
F0.0
sVcaught
p230
F0.0007273317739348849
sVleast
p231
F0.0
sVanyone
p232
F0.00042546181333490493
sVmentally
p233
F0.0018801253612046747
sVanafranil
p234
F0.0
sVscrewing
p235
F0.0
sVchemicals
p236
F0.0
sVhaven
p237
F0.0008509236266698099
sVanxiety
p238
F0.0018801253612046747
sV14
p239
F0.003636658869674424
sV18
p240
F0.0007273317739348849
sVcouldn
p241
F0.00042546181333490493
sVmatter
p242
F0.00042546181333490493
sVexforge
p243
F0.0
sVdiuretic
p244
F0.0
sVtofranil
p245
F0.0
sVillness
p246
F0.0
sVpamelor
p247
F0.0
sVmind
p248
F0.0007273317739348849
sVmistometer
p249
F0.0
sVssris
p250
F0.0
sVterbutaline
p251
F0.0
sVneed
p252
F0.00038262656200200337
sVseem
p253
F0.0005739398430030051
sVshtml
p254
F0.0
sVrelapse
p255
F0.0
sVadvil
p256
F0.0
sVonset
p257
F0.0
sVnaproxen
p258
F0.0
sVfinding
p259
F0.0008509236266698099
sVmoexipril
p260
F0.0
sVworsening
p261
F0.0
sVpharmacist
p262
F0.0
sVblue
p263
F0.0007273317739348849
sVbegin
p264
F0.0007273317739348849
sVsure
p265
F0.0008509236266698099
sVsotalol
p266
F0.0
sVbeta
p267
F0.0018801253612046747
sVlinezolid
p268
F0.0
sVmouth
p269
F0.0007273317739348849
sVflector
p270
F0.0
sVextremely
p271
F0.00115279358726979
sV23andme
p272
F0.0
sVzelapar
p273
F0.0
sVpropafenone
p274
F0.0
sVcause
p275
F0.0009565664050050083
sVespecially
p276
F0.0017018472533396197
sValupent
p277
F0.0
sVdisease
p278
F0.00345838076180937
sVcelebrex
p279
F0.0
sVindomethacin
p280
F0.0
sVsublingual
p281
F0.0
sVnaprosyn
p282
F0.0
sVaggressive
p283
F0.0
sVlabel
p284
F0.0007273317739348849
sVlatent
p285
F0.0
sVconsistently
p286
F0.0056403760836140245
sVbrethine
p287
F0.0
sVnormodyne
p288
F0.0
sVfailed
p289
F0.00115279358726979
sVgoing
p290
F0.0
sVblocker
p291
F0.0018801253612046747
sVhope
p292
F0.00019131328100100169
sVmetaprel
p293
F0.0
sVbenazepril
p294
F0.0
sVtruly
p295
F0.00115279358726979
sVones
p296
F0.0007273317739348849
sVlegitimate
p297
F0.0
sVreport
p298
F0.00115279358726979
sVxopenex
p299
F0.0
sVapproach
p300
F0.00115279358726979
sVmedicines
p301
F0.0
sVcry
p302
F0.00230558717453958
sVocd
p303
F0.0
sVworried
p304
F0.0021819953218046545
sVstuff
p305
F0.0021819953218046545
sVfuroxone
p306
F0.0
sVcardizem
p307
F0.0
sVtenoretic
p308
F0.0
sVdeprenyl
p309
F0.0
sVphysically
p310
F0.0018801253612046747
sVisuprel
p311
F0.0
sVschizophrenia
p312
F0.0018801253612046747
sVresult
p313
F0.00115279358726979
sVterms
p314
F0.0007273317739348849
sVbricanyl
p315
F0.0
sVcalan
p316
F0.0
sVbest
p317
F0.00019131328100100169
sVvitamins
p318
F0.0018801253612046747
sVaway
p319
F0.0
sVcurrently
p320
F0.0007273317739348849
sVimipramine
p321
F0.0
sVinhibitors
p322
F0.0
sV3
p323
F0.00042546181333490493
sVdoxepin
p324
F0.0
sVherbal
p325
F0.0037602507224093495
sVprobably
p326
F0.00042546181333490493
sVconditions
p327
F0.0018801253612046747
sVpsychedelics
p328
F0.0
sVreddit
p329
F0.0
sVgenes
p330
F0.0018801253612046747
sVrecently
p331
F0.00042546181333490493
sVvitamin
p332
F0.0
sVhowever
p333
F0.00230558717453958
sVemotional
p334
F0.0018801253612046747
sVmanerix
p335
F0.0
sVc
p336
F0.00019131328100100169
sVprescription
p337
F0.0
sVjoke
p338
F0.00115279358726979
sVtaking
p339
F0.0021044460910110184
sVcardura
p340
F0.0
sVsafely
p341
F0.0018801253612046747
sVasked
p342
F0.0007273317739348849
sVexperimental
p343
F0.0
sVsequenced
p344
F0.0
sVinflammatory
p345
F0.0
sVnifedipine
p346
F0.0
sVcartia
p347
F0.0
sVnewborn
p348
F0.0
sVtons
p349
F0.00115279358726979
sVpregnancy
p350
F0.009400626806023374
sVactually
p351
F0.00019131328100100169
sVspeak
p352
F0.00115279358726979
sVsolareze
p353
F0.0
sVtrandolapril
p354
F0.0
sVreduction
p355
F0.0056403760836140245
sVtrigger
p356
F0.0037602507224093495
sValtace
p357
F0.0
sVserpasil
p358
F0.0
sVverelan
p359
F0.0
sVnorvasc
p360
F0.0
sVantifungal
p361
F0.0
sVlife
p362
F0.00019131328100100169
sVfurazolidone
p363
F0.0
sVperindopril
p364
F0.0
sVamlodipine
p365
F0.0
sVlives
p366
F0.0007273317739348849
sVliver
p367
F0.00115279358726979
sVcarvedilol
p368
F0.0
sVlast
p369
F0.0007652531240040067
sVworked
p370
F0.00042546181333490493
sVcareful
p371
F0.00230558717453958
sVcase
p372
F0.0008509236266698099
sVlook
p373
F0.00019131328100100169
sVtricyclics
p374
F0.0
sVlsd_health3
p375
F0.0
sVempirical
p376
F0.0
sVvoltaren
p377
F0.0
sVbehavior
p378
F0.00115279358726979
sVstopping
p379
F0.00115279358726979
sVminipress
p380
F0.0
sVclomipramine
p381
F0.0
sVagitation
p382
F0.0
sValmost
p383
F0.00019131328100100169
sVlotrel
p384
F0.0
sVhurting
p385
F0.0
sVsleeping
p386
F0.00115279358726979
sVcommonly
p387
F0.0
sVcaptopril
p388
F0.0
sVeveryday
p389
F0.0018801253612046747
sVgreater
p390
F0.00345838076180937
sVconfirmed
p391
F0.00115279358726979
sVsertraline
p392
F0.0
sVmake
p393
F0.00038262656200200337
sVcoronary
p394
F0.0
sVnardil
p395
F0.0
sVcontraindications
p396
F0.0
sVincorrectly
p397
F0.0018801253612046747
sVseveral
p398
F0.00230558717453958
sVharmine
p399
F0.0
sVfairly
p400
F0.00345838076180937
sVused
p401
F0.0012763854400047148
sVverapamil
p402
F0.0
sValert
p403
F0.00115279358726979
sVamturnide
p404
F0.0
sVmoment
p405
F0.00019131328100100169
sVlevels
p406
F0.0018801253612046747
sVanecdotal
p407
F0.0
sVnever
p408
F0.0
sVminocycline
p409
F0.0
sVthoughts
p410
F0.005763967936348949
sVtreximet
p411
F0.0
sVolder
p412
F0.00042546181333490493
sVchanges
p413
F0.0014546635478697699
sVsevere
p414
F0.00230558717453958
sVwithout
p415
F0.0
sVzestril
p416
F0.0
sVmachinery
p417
F0.0
sVcelecoxib
p418
F0.0
sVdesyrel
p419
F0.0
sVdose
p420
F0.0018801253612046747
sVsources
p421
F0.0018801253612046747
sVirritable
p422
F0.0018801253612046747
sVyes
p423
F0.0005739398430030051
sVthyroid
p424
F0.0
sVseems
p425
F0.00038262656200200337
sVfosinopril
p426
F0.0
sVprocardia
p427
F0.0
sVtreatment
p428
F0.007520501444818699
sVpill
p429
F0.0018801253612046747
sVtests
p430
F0.0018801253612046747
sVaround
p431
F0.00019131328100100169
sVchecking
p432
F0.00115279358726979
sVindocin
p433
F0.0
sVearly
p434
F0.00042546181333490493
sVelavil
p435
F0.0
sVknow
p436
F0.00038262656200200337
sVd
p437
F0.0
sVlike
p438
F0.0
sVcorgard
p439
F0.0
sVhytrin
p440
F0.0
sVserevent
p441
F0.0
sVzoloft
p442
F0.0
sVindividuals
p443
F0.0
sVbecome
p444
F0.00038262656200200337
sVdisorder
p445
F0.0056403760836140245
sVpage
p446
F0.00115279358726979
sVbetapace
p447
F0.0
sVcaduet
p448
F0.0
sVwww
p449
F0.00230558717453958
sVmetaproterenol
p450
F0.0
sVold
p451
F0.0
sVback
p452
F0.00019131328100100169
sVparnate
p453
F0.0
sVpaxil
p454
F0.0
sVdiclofenac
p455
F0.0
sVchoosing
p456
F0.0018801253612046747
sVibuprofen
p457
F0.0
sVtms
p458
F0.0
sVmood
p459
F0.00230558717453958
sVbottom
p460
F0.00019131328100100169
sValeve
p461
F0.0
sVeverything
p462
F0.0005739398430030051
sVatenolol
p463
F0.0
sVmaoi
p464
F0.0
sVmoderate
p465
F0.0018801253612046747
sVvanatrip
p466
F0.0
sVdiltiazem
p467
F0.0
sVmaois
p468
F0.0
sVjantoven
p469
F0.0
sVpressure
p470
F0.0037602507224093495
sVovernights
p471
F0.0
sValthough
p472
F0.00042546181333490493
sVpost
p473
F0.00115279358726979
sVace
p474
F0.0018801253612046747
sVgetting
p475
F0.00019131328100100169
sVattacks
p476
F0.0018801253612046747
sVinderal
p477
F0.0
sVglaucoma
p478
F0.0
sVregular
p479
F0.0037602507224093495
sVgreatly
p480
F0.0018801253612046747
sVnifedical
p481
F0.0
sVconsulting
p482
F0.0
sVthinner
p483
F0.00115279358726979
sVnortriptyline
p484
F0.0
sVmushrooms
p485
F0.00345838076180937
sVgoogle
p486
F0.00230558717453958
sVlung
p487
F0.0037602507224093495
sVcordarone
p488
F0.0
sVpointless
p489
F0.0018801253612046747
sVrestless
p490
F0.0
sVprozac
p491
F0.0
sVprazosin
p492
F0.0
sVadvair
p493
F0.0
sVmotrin
p494
F0.0
sVquestion
p495
F0.0008509236266698099
sVapproved
p496
F0.0
sVstart
p497
F0.0025527708800094297
sVlow
p498
F0.00042546181333490493
sVreserpine
p499
F0.0
sVlanoxin
p500
F0.0
sVhappy
p501
F0.00042546181333490493
sVvortioxetine
p502
F0.0
sVcomplete
p503
F0.0008509236266698099
sVdesipramine
p504
F0.0
sVpotency
p505
F0.0
sVinjection
p506
F0.0
sVfda
p507
F0.0
sVquin
p508
F0.0
sVenalapril
p509
F0.0
sVwhether
p510
F0.00038262656200200337
sVdangerous
p511
F0.0014546635478697699
sVnadolol
p512
F0.0
sVadderall
p513
F0.0
sVproblem
p514
F0.00042546181333490493
sVhaldol
p515
F0.0
sVstoring
p516
F0.0
sVhaloperidol
p517
F0.0
sVautoimmune
p518
F0.0
sVdrive
p519
F0.00115279358726979
sVcure
p520
F0.0018801253612046747
sVright
p521
F0.00038262656200200337
sVcovera
p522
F0.0
sVcheck
p523
F0.00345838076180937
sVkidney
p524
F0.0018801253612046747
sVupheaval
p525
F0.0
sVpennsaid
p526
F0.0
sVmaxair
p527
F0.0
sVsinequan
p528
F0.0
sVtest
p529
F0.0007273317739348849
sVlimbitrol
p530
F0.0
sVpirbuterol
p531
F0.0
sVclass
p532
F0.00042546181333490493
sVproblems
p533
F0.0012763854400047148
sVvisits
p534
F0.0
sVincludes
p535
F0.0014546635478697699
sVtwynsta
p536
F0.0
sVincluded
p537
F0.00115279358726979
sVsilenor
p538
F0.0
sVmissed
p539
F0.00115279358726979
sVisoproterenol
p540
F0.0
sVyounger
p541
F0.0021819953218046545
sVassume
p542
F0.0018801253612046747
sVcoreg
p543
F0.0
sVcambia
p544
F0.0
sVreports
p545
F0.00115279358726979
sVingestion
p546
F0.0
sVlotensin
p547
F0.0
sVpush
p548
F0.0007273317739348849
sVserious
p549
F0.0029093270957395397
sV12
p550
F0.00038262656200200337
sVsounded
p551
F0.0
s.