(dp0
Vforget
p1
F0.0005658344331101595
sVmonth
p2
F0.0013239676999450265
sVfour
p3
F0.00014883392391343232
sVugh
p4
F0.0
sVantagonize
p5
F0.0
sVgo
p6
F0.0
sVfollow
p7
F0.00033099192498625663
sVhate
p8
F0.002925321582413151
sVdepend
p9
F0.0014626607912065755
sVtv
p10
F0.0014626607912065755
sVfreelance
p11
F0.0
sVtechnique
p12
F0.002925321582413151
sVamaze
p13
F0.0
sVstable
p14
F0.011701286329652604
sVinclude
p15
F0.0008968263580964162
sVworth
p16
F0.001131668866220319
sVcase
p17
F0.0006619838499725133
sVappointment
p18
F0.0014626607912065755
sVrisk
p19
F0.001131668866220319
sVfar
p20
F0.00029766784782686464
sVrise
p21
F0.0008968263580964162
sVnone
p22
F0.0005658344331101595
sVmanic
p23
F0.004387982373619726
sVmania
p24
F0.0
sVworst
p25
F0.0008968263580964162
sVaccuse
p26
F0.0
sVfall
p27
F0.0008968263580964162
sVword
p28
F0.00014883392391343232
sVnausea
p29
F0.0
sVyikes
p30
F0.0
sVschool
p31
F0.0014626607912065755
sVgrueling
p32
F0.0
sVissue
p33
F0.001131668866220319
sVaccidentally
p34
F0.0005658344331101595
sVtry
p35
F0.0007441696195671617
sVsettle
p36
F0.001131668866220319
sVsmall
p37
F0.00014883392391343232
sVsleep
p38
F0.003960841031771116
sVguy
p39
F0.0005658344331101595
sVenjoy
p40
F0.0005658344331101595
sVchew
p41
F0.0014626607912065755
sVcap
p42
F0.0014626607912065755
sVforce
p43
F0.0005658344331101595
sVphenibut
p44
F0.0
sVtea
p45
F0.0005658344331101595
sVd
p46
F0.0
sVlikely
p47
F0.0014626607912065755
sVcost
p48
F0.0005658344331101595
sVgummies
p49
F0.0
sVplead
p50
F0.0
sVkratom
p51
F0.0
sVhopefully
p52
F0.0
sVeven
p53
F0.0013395053152208908
sVsun
p54
F0.00033099192498625663
sVsum
p55
F0.0014626607912065755
sVbipolar
p56
F0.005850643164826302
sVsuspect
p57
F0.0017936527161928324
sVnew
p58
F0.0
sVever
p59
F0.00029766784782686464
sV3d
p60
F0.0
sVbody
p61
F0.00029766784782686464
sVmed
p62
F0.0026904790742892483
sVfull
p63
F0.0
sVnever
p64
F0.0
sVprescribe
p65
F0.0014626607912065755
sVmeh
p66
F0.0
sVwater
p67
F0.001131668866220319
sVshouldn
p68
F0.0005658344331101595
sVlet
p69
F0.0004465017717402969
sVdownvote
p70
F0.0
sV100
p71
F0.0005658344331101595
sVchange
p72
F0.0005658344331101595
sVwait
p73
F0.00033099192498625663
sVgreat
p74
F0.0
sVsubstance
p75
F0.0
sVthirty
p76
F0.0008968263580964162
sVtaper
p77
F0.0
sV32
p78
F0.0005658344331101595
sVstudy
p79
F0.0017936527161928324
sV30
p80
F0.00033099192498625663
sVopiate
p81
F0.0
sVreason
p82
F0.0013239676999450265
sVexperience
p83
F0.0026904790742892483
sVsmoke
p84
F0.0026904790742892483
sVusually
p85
F0.002263337732440638
sVweird
p86
F0.001131668866220319
sVtoxicity
p87
F0.0
sVfantastic
p88
F0.0008968263580964162
sVlove
p89
F0.0006619838499725133
sVstray
p90
F0.0
sVwin
p91
F0.001131668866220319
sVimportant
p92
F0.0008968263580964162
sVreplace
p93
F0.0008968263580964162
sVask
p94
F0.00029766784782686464
sVseroquel
p95
F0.0
sVuse
p96
F0.0008930035434805938
sVproceed
p97
F0.0005658344331101595
sVwould
p98
F0.0
sVsuper
p99
F0.0008968263580964162
sVhospital
p100
F0.0008968263580964162
sValkaloid
p101
F0.0
sVvisit
p102
F0.001131668866220319
sVnegative
p103
F0.0008968263580964162
sVintense
p104
F0.0008968263580964162
sVlive
p105
F0.0004465017717402969
sVcall
p106
F0.0004465017717402969
sVcalm
p107
F0.002925321582413151
sVdepakote
p108
F0.0
sVindiana
p109
F0.0
sVtell
p110
F0.0013239676999450265
sVsort
p111
F0.00014883392391343232
sVflat
p112
F0.00033099192498625663
sVhaha
p113
F0.002925321582413151
sVchocolate
p114
F0.0008968263580964162
sV99
p115
F0.0008968263580964162
sVglass
p116
F0.00014883392391343232
sVteaser
p117
F0.0
sVeverywhere
p118
F0.0005658344331101595
sVstick
p119
F0.0008968263580964162
sVparticular
p120
F0.00033099192498625663
sVtolerate
p121
F0.0
sVhold
p122
F0.00033099192498625663
sVeasiest
p123
F0.0
sVmg
p124
F0.0
sVma
p125
F0.0014626607912065755
sVhour
p126
F0.001131668866220319
sVstrain
p127
F0.0
sVwork
p128
F0.0
sVstabilizer
p129
F0.0
sVmeet
p130
F0.0008968263580964162
sVroot
p131
F0.0008968263580964162
sVcontrol
p132
F0.0008968263580964162
sVclaim
p133
F0.0005658344331101595
sVweaker
p134
F0.0014626607912065755
sVgive
p135
F0.0004465017717402969
sVawesome
p136
F0.0014626607912065755
sVfuck
p137
F0.008775964747239452
sVaccept
p138
F0.0005658344331101595
sVhigh
p139
F0.0
sVsomething
p140
F0.0004465017717402969
sVwant
p141
F0.0
sVsense
p142
F0.00014883392391343232
sV10mg
p143
F0.0
sVrescue
p144
F0.0008968263580964162
sVend
p145
F0.0005953356956537293
sVmemorize
p146
F0.0014626607912065755
sVthing
p147
F0.0004465017717402969
sVwrite
p148
F0.00033099192498625663
sVtill
p149
F0.0017936527161928324
sVoccasionally
p150
F0.0005658344331101595
sVpure
p151
F0.00033099192498625663
sVtoxic
p152
F0.0
sVinstead
p153
F0.0005658344331101595
sVtoddler
p154
F0.0014626607912065755
sVpanic
p155
F0.0
sVpizza
p156
F0.0014626607912065755
sVprofile
p157
F0.0008968263580964162
sVbadly
p158
F0.00033099192498625663
sVproduct
p159
F0.0017936527161928324
sVcocktail
p160
F0.0014626607912065755
sVmay
p161
F0.00014883392391343232
sVwatch
p162
F0.0
sVadvice
p163
F0.002925321582413151
sVearlier
p164
F0.00033099192498625663
sVlong
p165
F0.0
sVnormalcy
p166
F0.0
sVabuse
p167
F0.0014626607912065755
sVdrastic
p168
F0.0
sVsuck
p169
F0.0008968263580964162
sVgrow
p170
F0.0008968263580964162
sVawkward
p171
F0.0005658344331101595
sVresemble
p172
F0.0014626607912065755
sVwhenever
p173
F0.0008968263580964162
sVlight
p174
F0.00033099192498625663
sVcounter
p175
F0.0017936527161928324
sVinform
p176
F0.0014626607912065755
sVcomplexity
p177
F0.0014626607912065755
sVprogressively
p178
F0.0
sVpay
p179
F0.00014883392391343232
sVevery
p180
F0.0005953356956537293
sVdream
p181
F0.0026904790742892483
sVtypical
p182
F0.0008968263580964162
sVlsd
p183
F0.0
sVinsight
p184
F0.0014626607912065755
sVsoon
p185
F0.00029766784782686464
sVcourse
p186
F0.00033099192498625663
sVatypicals
p187
F0.0
sVshake
p188
F0.0008968263580964162
sVhell
p189
F0.0005658344331101595
sVstill
p190
F0.0
sVbunch
p191
F0.0005658344331101595
sV1
p192
F0.00014883392391343232
sV20
p193
F0.0004465017717402969
sVthank
p194
F0.0005658344331101595
sVfit
p195
F0.00033099192498625663
sVpersonal
p196
F0.00033099192498625663
sVll
p197
F0.0004465017717402969
sVrecreational
p198
F0.0014626607912065755
sVactually
p199
F0.0005953356956537293
sVbetter
p200
F0.0004465017717402969
sVpolicy
p201
F0.0014626607912065755
sVmight
p202
F0.00014883392391343232
sVerowid
p203
F0.0
sVeventually
p204
F0.0014626607912065755
sVgood
p205
F0.0
sVfood
p206
F0.00033099192498625663
sVmaterial
p207
F0.0008968263580964162
sVinsomnia
p208
F0.0
sVbreak
p209
F0.0008968263580964162
sVmention
p210
F0.0005658344331101595
sVhalf
p211
F0.00029766784782686464
sVson
p212
F0.00033099192498625663
sVday
p213
F0.0
sVterm
p214
F0.0005658344331101595
sVstabilize
p215
F0.0
sVedit
p216
F0.0014626607912065755
sValways
p217
F0.0
sVdidn
p218
F0.00029766784782686464
sVconcerta
p219
F0.0
sVlamictal
p220
F0.0
sVinstability
p221
F0.0
sVsquare
p222
F0.0006619838499725133
sVbueno
p223
F0.0
sVmental
p224
F0.0014626607912065755
sVweight
p225
F0.00033099192498625663
sVfish
p226
F0.0006619838499725133
sVyeah
p227
F0.004484131790482081
sV40mg
p228
F0.0
sVball
p229
F0.0005658344331101595
sVyear
p230
F0.0016371731630477556
sVripple
p231
F0.0
sVhappen
p232
F0.0009929757749587698
sVadequately
p233
F0.0
sVer
p234
F0.002263337732440638
sVanxious
p235
F0.0014626607912065755
sVcanvas
p236
F0.0008968263580964162
sVgod
p237
F0.0008968263580964162
sVsince
p238
F0.0004465017717402969
sVresearch
p239
F0.0014626607912065755
sVsane
p240
F0.0014626607912065755
sVhealth
p241
F0.0014626607912065755
sV7
p242
F0.00033099192498625663
sVmedicine
p243
F0.0014626607912065755
sVcause
p244
F0.0004465017717402969
sVguess
p245
F0.0005658344331101595
sVunipolar
p246
F0.0
sVbase
p247
F0.00033099192498625663
sVput
p248
F0.00029766784782686464
sVorg
p249
F0.004387982373619726
sVcard
p250
F0.0008968263580964162
sVcare
p251
F0.0017936527161928324
sVinteraction
p252
F0.0014626607912065755
sVcouldn
p253
F0.00033099192498625663
sVcould
p254
F0.0
sVomit
p255
F0.0
sVterrible
p256
F0.001131668866220319
sVkeep
p257
F0.0005953356956537293
sVturn
p258
F0.0006619838499725133
sVplace
p259
F0.00014883392391343232
sVisn
p260
F0.00014883392391343232
sVthink
p261
F0.0010418374673940261
sVfirst
p262
F0.00014883392391343232
sVemotion
p263
F0.0014626607912065755
sVworse
p264
F0.00033099192498625663
sVfeel
p265
F0.0011906713913074586
sVone
p266
F0.0
sVsequester
p267
F0.0
sVspecifically
p268
F0.0
sVwasn
p269
F0.00014883392391343232
sVadderal
p270
F0.0
sVprecisely
p271
F0.0
sVmiss
p272
F0.00014883392391343232
sVkoi
p273
F0.0
sVpriority
p274
F0.0
sVlittle
p275
F0.0
sVnecessarily
p276
F0.0008968263580964162
sVsadly
p277
F0.0
sVmonkey
p278
F0.0008968263580964162
sVoccupy
p279
F0.0
sVtop
p280
F0.0006619838499725133
sVleast
p281
F0.0
sVanyone
p282
F0.0009929757749587698
sVpaint
p283
F0.003395006598660956
sVattack
p284
F0.0006619838499725133
sV2
p285
F0.0007441696195671617
sVbite
p286
F0.0006619838499725133
sVfriend
p287
F0.00014883392391343232
sVheadache
p288
F0.002925321582413151
sVlot
p289
F0.0
sVrelationship
p290
F0.0005658344331101595
sVexactly
p291
F0.00033099192498625663
sVadrenergic
p292
F0.0
sVpart
p293
F0.0006619838499725133
sVhaven
p294
F0.00033099192498625663
sVsymptom
p295
F0.0
sVboyfriend
p296
F0.0014626607912065755
sV13
p297
F0.0005658344331101595
sVb
p298
F0.00033099192498625663
sV14
p299
F0.0005658344331101595
sV10x
p300
F0.0
sVbed
p301
F0.0017936527161928324
sVproject
p302
F0.0005658344331101595
sVstressor
p303
F0.0
sVmaybe
p304
F0.0
sVlisten
p305
F0.001131668866220319
sVresult
p306
F0.0008968263580964162
sVbenztropine
p307
F0.0
sVprn
p308
F0.0
sVmind
p309
F0.0005658344331101595
sVmarijuana
p310
F0.0014626607912065755
sVsad
p311
F0.001131668866220319
sVsay
p312
F0.0007441696195671617
sVbuy
p313
F0.0005658344331101595
sVadhd
p314
F0.0
sVneed
p315
F0.0004465017717402969
sVconcentration
p316
F0.0008968263580964162
sVregulate
p317
F0.0
sVseek
p318
F0.00033099192498625663
sVrelatively
p319
F0.0014626607912065755
sVscrew
p320
F0.0026904790742892483
sVmin
p321
F0.0014626607912065755
sVself
p322
F0.00014883392391343232
sVnote
p323
F0.00033099192498625663
sVmix
p324
F0.0005658344331101595
sVpotential
p325
F0.0014626607912065755
sVtake
p326
F0.0025301767065283496
sVdestroy
p327
F0.0014626607912065755
sVbegin
p328
F0.001131668866220319
sVsure
p329
F0.00033099192498625663
sVnormal
p330
F0.0005658344331101595
sVclonazepam
p331
F0.0
sVinsanity
p332
F0.0
sVregular
p333
F0.0014626607912065755
sVphase
p334
F0.0014626607912065755
sVclass
p335
F0.00033099192498625663
sVepisode
p336
F0.0014626607912065755
sVespecially
p337
F0.0006619838499725133
sVbackordered
p338
F0.0
sVmedical
p339
F0.0005658344331101595
sVsometimes
p340
F0.0006619838499725133
sVdrive
p341
F0.0008968263580964162
sVface
p342
F0.00033099192498625663
sVdefinitely
p343
F0.001131668866220319
sVexp
p344
F0.0
sVdystonic
p345
F0.0
sVconsumer
p346
F0.0
sVfact
p347
F0.0005658344331101595
sV95501
p348
F0.0
sVwikipedia
p349
F0.0
sVimpasto
p350
F0.0
sVcheap
p351
F0.0008968263580964162
sVvistaril
p352
F0.0
sVbring
p353
F0.0004465017717402969
sVfind
p354
F0.0
sVdecade
p355
F0.0008968263580964162
sVtire
p356
F0.0008968263580964162
sVhadn
p357
F0.0005658344331101595
sV3
p358
F0.0009929757749587698
sVdestabilize
p359
F0.0
sVregularly
p360
F0.0014626607912065755
sVdo
p361
F0.0007441696195671617
sVlegitimate
p362
F0.0
sVget
p363
F0.0
sVhorrible
p364
F0.0008968263580964162
sVstop
p365
F0.0007441696195671617
sVkind
p366
F0.0
sVcheaper
p367
F0.0008968263580964162
sVcapsule
p368
F0.0014626607912065755
sVnearly
p369
F0.00014883392391343232
sVreport
p370
F0.0008968263580964162
sVuntreated
p371
F0.0
sVantagonist
p372
F0.0
sVunfortunately
p373
F0.0014626607912065755
sVresolve
p374
F0.0005658344331101595
sVbar
p375
F0.0005658344331101595
sVparasitic
p376
F0.0
sVmorning
p377
F0.0026904790742892483
sVbad
p378
F0.0005953356956537293
sVstuff
p379
F0.001697503299330478
sVgram
p380
F0.0
sVrelease
p381
F0.0005658344331101595
sVwiki
p382
F0.0
sVnibble
p383
F0.0008968263580964162
sVpotent
p384
F0.0
sVsee
p385
F0.0008930035434805938
sVasleep
p386
F0.0017936527161928324
sVanyways
p387
F0.0008968263580964162
sVpebble
p388
F0.0
sVfrontline
p389
F0.0
sVsuffer
p390
F0.0008968263580964162
sVmovie
p391
F0.0017936527161928324
sVscrap
p392
F0.0
sVcurrently
p393
F0.0005658344331101595
sVplease
p394
F0.00029766784782686464
sVlabel
p395
F0.0005658344331101595
sVenough
p396
F0.0
sVterribly
p397
F0.0008968263580964162
sVroutine
p398
F0.0008968263580964162
sVuncaria
p399
F0.0
sVprobably
p400
F0.0016549596249312833
sVtolerance
p401
F0.0014626607912065755
sVextend
p402
F0.0008968263580964162
sVattention
p403
F0.00033099192498625663
sVhowever
p404
F0.0008968263580964162
sVcome
p405
F0.00029766784782686464
sVdrowsy
p406
F0.0
sVantipsychotic
p407
F0.0
sVreaction
p408
F0.0026904790742892483
sVschizoaffective
p409
F0.0
sVoutcome
p410
F0.0
sVlast
p411
F0.0005953356956537293
sVakathisia
p412
F0.0
sVtopamax
p413
F0.0
sVmany
p414
F0.0
sVcessastion
p415
F0.0
sVsensitive
p416
F0.00033099192498625663
sVotherwise
p417
F0.0005658344331101595
sVpoint
p418
F0.00029766784782686464
sVrhynchophylline
p419
F0.0
sVwhatever
p420
F0.00033099192498625663
sVheight
p421
F0.001131668866220319
sVmitraphylline
p422
F0.0
sVraise
p423
F0.0005658344331101595
sVnaltrexone
p424
F0.0
sVcreativity
p425
F0.0
sVdue
p426
F0.0008968263580964162
sVbeer
p427
F0.0014626607912065755
sVcry
p428
F0.0008968263580964162
sVslowly
p429
F0.001131668866220319
sVtreat
p430
F0.001697503299330478
sVinterest
p431
F0.0008968263580964162
sVwaste
p432
F0.0005658344331101595
sVglucose
p433
F0.0
sVtreatment
p434
F0.0014626607912065755
sVlife
p435
F0.0016371731630477556
sVmushroom
p436
F0.0014626607912065755
sVsufficient
p437
F0.0
sVfund
p438
F0.0008968263580964162
sVlift
p439
F0.0008968263580964162
sVwake
p440
F0.0005658344331101595
sVcareful
p441
F0.0008968263580964162
sVbetag
p442
F0.0
sVlook
p443
F0.0008930035434805938
sVharder
p444
F0.0008968263580964162
sVnear
p445
F0.00029766784782686464
sVfun
p446
F0.0013239676999450265
sVbalance
p447
F0.0014626607912065755
sVstupidest
p448
F0.0014626607912065755
sVridiculously
p449
F0.0014626607912065755
sVlayer
p450
F0.003587305432385665
sVpound
p451
F0.0008968263580964162
sVwouldn
p452
F0.00033099192498625663
sValmost
p453
F0.00029766784782686464
sVinsanely
p454
F0.0
sVside_effect
p455
F0.0
sVsurface
p456
F0.0008968263580964162
sVcluster
p457
F0.0
sVsomeone
p458
F0.0
sVid
p459
F0.0014626607912065755
sVdifferent
p460
F0.0009929757749587698
sVpas
p461
F0.0008968263580964162
sVritalin
p462
F0.0
sVbaseline
p463
F0.0014626607912065755
sVanymore
p464
F0.0005658344331101595
sVgrant
p465
F0.0
sVsuggest
p466
F0.0014626607912065755
sVmake
p467
F0.0016371731630477556
sVcomplex
p468
F0.0005658344331101595
sVsuboxone
p469
F0.0
sVlithium
p470
F0.0
sVambien
p471
F0.0
sVhigher
p472
F0.0013239676999450265
sVexhaust
p473
F0.0
sVfinish
p474
F0.001131668866220319
sVdrink
p475
F0.00029766784782686464
sVeffect
p476
F0.00014883392391343232
sVhand
p477
F0.0
sVcranky
p478
F0.0
sVaction
p479
F0.0008968263580964162
sVphp
p480
F0.0014626607912065755
sVtotally
p481
F0.0006619838499725133
sVlower
p482
F0.00033099192498625663
sVolder
p483
F0.00033099192498625663
sVwell
p484
F0.0
sVperson
p485
F0.00033099192498625663
sVprincechanchi
p486
F0.0
sVwithout
p487
F0.0
sVbottle
p488
F0.0005658344331101595
sVthc
p489
F0.0
sVsummer
p490
F0.001697503299330478
sVmoney
p491
F0.0008968263580964162
sVrest
p492
F0.00014883392391343232
sVclinic
p493
F0.0
sVkill
p494
F0.00033099192498625663
sVyes
p495
F0.00029766784782686464
sVgraduate
p496
F0.0014626607912065755
sVyet
p497
F0.0007441696195671617
sVblow
p498
F0.00033099192498625663
sVfamily
p499
F0.0005658344331101595
sVfiancee
p500
F0.0
sVsupply
p501
F0.002925321582413151
sVvyvanse
p502
F0.0
sVseem
p503
F0.00014883392391343232
sVimprovement
p504
F0.0008968263580964162
sVsource
p505
F0.0005658344331101595
sVadd
p506
F0.0005658344331101595
sV4
p507
F0.00014883392391343232
sVpill
p508
F0.004387982373619726
sVkick
p509
F0.0005658344331101595
sVreal
p510
F0.0
sVnoticeable
p511
F0.0014626607912065755
sVaround
p512
F0.00014883392391343232
sVemergency
p513
F0.004387982373619726
sVread
p514
F0.00033099192498625663
sVcouple
p515
F0.0006619838499725133
sVpossible
p516
F0.00033099192498625663
sVshitty
p517
F0.002925321582413151
sVknow
p518
F0.0017860070869611876
sVworld
p519
F0.00033099192498625663
sVapart
p520
F0.0005658344331101595
sVlike
p521
F0.0
sVcollective
p522
F0.0014626607912065755
sVspecific
p523
F0.0005658344331101595
sVzoloft
p524
F0.0
sVcontinue
p525
F0.00033099192498625663
sVeither
p526
F0.00014883392391343232
sVnight
p527
F0.0005953356956537293
sVcompletely
p528
F0.00033099192498625663
sVbecome
p529
F0.00014883392391343232
sVopioid
p530
F0.0
sVklonopin
p531
F0.0
sVnauseous
p532
F0.0
sVdeal
p533
F0.00033099192498625663
sVspring
p534
F0.0005658344331101595
sVback
p535
F0.0004465017717402969
sVdead
p536
F0.0006619838499725133
sVhungry
p537
F0.0008968263580964162
sVibuprofen
p538
F0.0
sVhome
p539
F0.00033099192498625663
sVsuuuper
p540
F0.0
sVcreep
p541
F0.0014626607912065755
sVmood
p542
F0.0017936527161928324
sVlead
p543
F0.00033099192498625663
sVsymbiotic
p544
F0.0
sVbest
p545
F0.0005953356956537293
sVeverything
p546
F0.00014883392391343232
sVthree
p547
F0.00014883392391343232
sVdispensary
p548
F0.0
sVconventional
p549
F0.0014626607912065755
sVcurl
p550
F0.0
sVstem
p551
F0.0
sVzombie
p552
F0.0014626607912065755
sVpaste
p553
F0.0014626607912065755
sVthrow
p554
F0.0008968263580964162
sVok
p555
F0.0005658344331101595
sVasperger
p556
F0.0
sVanything
p557
F0.0004465017717402969
sVoh
p558
F0.0008968263580964162
sVkratomonline
p559
F0.0
sVfavorite
p560
F0.0005658344331101595
sVdinner
p561
F0.0005658344331101595
sVbenzos
p562
F0.0
sV75mg
p563
F0.0
sVstand
p564
F0.00033099192498625663
sVact
p565
F0.0006619838499725133
sVcreate
p566
F0.0008968263580964162
sVunmedicated
p567
F0.0
sVcorynantheidine
p568
F0.0
sVwithin
p569
F0.00033099192498625663
sVwashington
p570
F0.0
sVpaw
p571
F0.0
sVtwo
p572
F0.0
sVnothing
p573
F0.00014883392391343232
sVen
p574
F0.0008968263580964162
sVreceptor
p575
F0.0
sVconsecutively
p576
F0.0
sVcanal
p577
F0.0
sVfast
p578
F0.00033099192498625663
sVarea
p579
F0.00014883392391343232
sVinitial
p580
F0.0005658344331101595
sVquestion
p581
F0.0006619838499725133
sVlol
p582
F0.002925321582413151
sVfight
p583
F0.0005658344331101595
sVstart
p584
F0.002647935399890053
sVinner
p585
F0.0005658344331101595
sVway
p586
F0.0008930035434805938
sVbiggest
p587
F0.0017936527161928324
sVdamn
p588
F0.002925321582413151
sVheh
p589
F0.0005658344331101595
sVhappy
p590
F0.0006619838499725133
sVmedium
p591
F0.002263337732440638
sVcomplete
p592
F0.00033099192498625663
sVform
p593
F0.0006619838499725133
sVrecommend
p594
F0.0014626607912065755
sVhear
p595
F0.00033099192498625663
sVgain
p596
F0.0008968263580964162
sVhelpful
p597
F0.002925321582413151
sV225
p598
F0.0
sVeat
p599
F0.0009929757749587698
sVinfo
p600
F0.0014626607912065755
sVwhether
p601
F0.00014883392391343232
sVpsychosis
p602
F0.0
sVlimit
p603
F0.0008968263580964162
sVproblem
p604
F0.0009929757749587698
sVpiece
p605
F0.001131668866220319
sVhaldol
p606
F0.0
sVdiagnose
p607
F0.004387982373619726
sVmedication
p608
F0.0014626607912065755
sVcbd
p609
F0.0
sVpencil
p610
F0.0008968263580964162
sVrecommendation
p611
F0.0014626607912065755
sVdoesn
p612
F0.0004465017717402969
sVdisease
p613
F0.0008968263580964162
sVsingle
p614
F0.00014883392391343232
sVright
p615
F0.0004465017717402969
sVtogether
p616
F0.0
sVawhile
p617
F0.0014626607912065755
sVshit
p618
F0.004484131790482081
sVmutual
p619
F0.0008968263580964162
sVpeace
p620
F0.0014626607912065755
sVgenerally
p621
F0.001131668866220319
sVdetail
p622
F0.0008968263580964162
sV40
p623
F0.0005658344331101595
sVlately
p624
F0.0008968263580964162
sV5
p625
F0.00014883392391343232
sVtest
p626
F0.001131668866220319
sVintention
p627
F0.0
sVfelt
p628
F0.001697503299330478
sVstay
p629
F0.00033099192498625663
sVchance
p630
F0.00033099192498625663
sVfell
p631
F0.0005658344331101595
sVvein
p632
F0.005850643164826302
sVlonger
p633
F0.00029766784782686464
sVwife
p634
F0.0008968263580964162
sVage
p635
F0.00033099192498625663
sVdaily
p636
F0.002925321582413151
sVsafe
p637
F0.0005658344331101595
sVtime
p638
F0.0
sVfactually
p639
F0.0
sVavoid
p640
F0.00033099192498625663
s.