(dp0
Vlsd
p1
F0.0
sVsince
p2
F0.0008600073433677103
sVdesyrel
p3
F0.0
sVallergy
p4
F0.0042258478047831486
sVsublingual
p5
F0.0
sVemotional
p6
F0.0042258478047831486
sVgo
p7
F0.0
sVprozac
p8
F0.0
sVyes
p9
F0.0012900110150515654
sVfind
p10
F0.0
sVzyvox
p11
F0.0
sVthyroid
p12
F0.0
sVwrite
p13
F0.0009562856323305763
sVcertainly
p14
F0.0009562856323305763
sVone
p15
F0.0
sVlatent
p16
F0.0
sVantipsychotic
p17
F0.0
sVtranylcypromine
p18
F0.0
sVactually
p19
F0.00043000367168385517
sVselegiline
p20
F0.0
sVtm
p21
F0.0042258478047831486
sVchoose
p22
F0.001634781086226286
sVstable
p23
F0.008451695609566297
sVinclude
p24
F0.0025910667185568624
sVdramatically
p25
F0.0042258478047831486
sVhope
p26
F0.00043000367168385517
sVconsult
p27
F0.0
sVdo
p28
F0.00043000367168385517
sVaround
p29
F0.00043000367168385517
sVget
p30
F0.0
sVharmaline
p31
F0.0
sVhappy
p32
F0.0009562856323305763
sVstop
p33
F0.00043000367168385517
sVterm
p34
F0.001634781086226286
sVtruly
p35
F0.0025910667185568624
sVearly
p36
F0.0009562856323305763
sVtest
p37
F0.003269562172452572
sVevery
p38
F0.0017200146867354207
sVlegitimate
p39
F0.0
sVreport
p40
F0.01036426687422745
sVartery
p41
F0.0
sVtricyclic
p42
F0.0
sVdifference
p43
F0.0025910667185568624
sVday
p44
F0.0
sVlike
p45
F0.0
sVschool
p46
F0.0042258478047831486
sVayahuasca
p47
F0.0
sVd
p48
F0.0
sVapproach
p49
F0.0025910667185568624
sVcry
p50
F0.005182133437113725
sVlist
p51
F0.001634781086226286
sVsolution
p52
F0.0
sVtry
p53
F0.0008600073433677103
sVzoloft
p54
F0.0
sVstuff
p55
F0.004904343258678858
sVsource
p56
F0.001634781086226286
sVprotriptyline
p57
F0.0
sVcontain
p58
F0.008451695609566297
sVquick
p59
F0.00043000367168385517
sVpage
p60
F0.0025910667185568624
sVobsessive
p61
F0.0
sVheavy
p62
F0.0009562856323305763
sVdeprenyl
p63
F0.0
sVdrop
p64
F0.001634781086226286
sVold
p65
F0.0
sVmental
p66
F0.008451695609566297
sVpsyilocybin
p67
F0.0
sVsequence
p68
F0.0
sVaurorex
p69
F0.0
sVcelexa
p70
F0.0
sVreduce
p71
F0.01036426687422745
sVyeah
p72
F0.0025910667185568624
sVl
p73
F0.001634781086226286
sVpast
p74
F0.0009562856323305763
sVpaxil
p75
F0.0
sVschizophrenia
p76
F0.0042258478047831486
sVindividual
p77
F0.003269562172452572
sVresult
p78
F0.0025910667185568624
sVyear
p79
F0.00043000367168385517
sVfail
p80
F0.0009562856323305763
sVbest
p81
F0.00043000367168385517
sVeven
p82
F0.002150018358419276
sValcohol
p83
F0.0025910667185568624
sVconfirm
p84
F0.0025910667185568624
sVmiss
p85
F0.00043000367168385517
sVcurrently
p86
F0.001634781086226286
sVlabel
p87
F0.001634781086226286
sVincrease
p88
F0.0025910667185568624
sVconsistently
p89
F0.012677543414349447
sV3
p90
F0.0009562856323305763
sVcheck
p91
F0.005182133437113725
sVmedicine
p92
F0.0042258478047831486
sVprobably
p93
F0.0009562856323305763
sVmaoi
p94
F0.0
sVmoderate
p95
F0.0042258478047831486
sVcause
p96
F0.0012900110150515654
sVbody
p97
F0.00043000367168385517
sVreddit
p98
F0.0
sVrecently
p99
F0.0009562856323305763
sVtheory
p100
F0.0042258478047831486
sVnever
p101
F0.0
sVvitamin
p102
F0.0
sVoveractive
p103
F0.0
sVdifficulty
p104
F0.0042258478047831486
sVshouldn
p105
F0.001634781086226286
sVect
p106
F0.0
sVovernights
p107
F0.0
sValthough
p108
F0.0009562856323305763
sVothers
p109
F0.0009562856323305763
sVask
p110
F0.00043000367168385517
sVorg
p111
F0.008451695609566297
sVpost
p112
F0.0025910667185568624
sVchlorine
p113
F0.0
sVmanerix
p114
F0.0
sVsearch
p115
F0.001634781086226286
sVprescription
p116
F0.0
sVcouldn
p117
F0.0009562856323305763
sV14
p118
F0.001634781086226286
sVpressure
p119
F0.0042258478047831486
sVphenelzine
p120
F0.0
sVjoke
p121
F0.0025910667185568624
sVcould
p122
F0.0
sVglaucoma
p123
F0.0
sVpsychedelics
p124
F0.0
sVcommonly
p125
F0.0
sVkeep
p126
F0.00043000367168385517
sVchemical
p127
F0.012677543414349447
sVgreatly
p128
F0.0042258478047831486
sVmouth
p129
F0.001634781086226286
sVnoticeably
p130
F0.0
sVdepressant
p131
F0.0
sVexperimental
p132
F0.0
sVfirst
p133
F0.00043000367168385517
sVfamily
p134
F0.001634781086226286
sVinjection
p135
F0.0
sVhighly
p136
F0.0025910667185568624
sVpsychological
p137
F0.008451695609566297
sVgoogle
p138
F0.005182133437113725
sVmethylene
p139
F0.0
sVspeak
p140
F0.0025910667185568624
sVcontraindication
p141
F0.0
sVuse
p142
F0.0008600073433677103
sVantinflammatory
p143
F0.0
sVwould
p144
F0.0
sVprove
p145
F0.0
sVextremely
p146
F0.0025910667185568624
sVquestion
p147
F0.0019125712646611526
sVlive
p148
F0.00043000367168385517
sVlyme
p149
F0.0
sVeldepryl
p150
F0.0
sVreduction
p151
F0.012677543414349447
sVtrigger
p152
F0.008451695609566297
sVton
p153
F0.0042258478047831486
sVlow
p154
F0.0009562856323305763
sVrecommend
p155
F0.0042258478047831486
sVmoclobemide
p156
F0.0
sVstore
p157
F0.0025910667185568624
sVantifungal
p158
F0.0
sVback
p159
F0.00043000367168385517
sVlife
p160
F0.00043000367168385517
sVonset
p161
F0.0
sVmushroom
p162
F0.012677543414349447
sVscary
p163
F0.0042258478047831486
sVsomething
p164
F0.0008600073433677103
sVmind
p165
F0.001634781086226286
sVhurt
p166
F0.0042258478047831486
sVpotency
p167
F0.0
sVparticular
p168
F0.0009562856323305763
sVcatch
p169
F0.0025910667185568624
sVlast
p170
F0.0008600073433677103
sVmidst
p171
F0.0
sVcareful
p172
F0.005182133437113725
sVhaven
p173
F0.0019125712646611526
sVsound
p174
F0.0009562856323305763
sVparnate
p175
F0.0
sVlook
p176
F0.00043000367168385517
sVwhether
p177
F0.00043000367168385517
sVscience
p178
F0.0025910667185568624
sVlsd_health3
p179
F0.0
sVwork
p180
F0.0
sVempirical
p181
F0.0
sVpointless
p182
F0.0042258478047831486
sVeasier
p183
F0.001634781086226286
sVmatter
p184
F0.0009562856323305763
sVerowid
p185
F0.0
sVadderall
p186
F0.0
sVproblem
p187
F0.0019125712646611526
sVinhibitor
p188
F0.0
sVaddictive
p189
F0.0
sVhistory
p190
F0.003269562172452572
sVheart
p191
F0.001634781086226286
sVcrazy
p192
F0.0025910667185568624
sVillness
p193
F0.0
sVautoimmune
p194
F0.0
sVstream
p195
F0.0042258478047831486
sVagitation
p196
F0.0
sValmost
p197
F0.00043000367168385517
sVssri
p198
F0.0
sVside_effect
p199
F0.0
sVdisease
p200
F0.005182133437113725
sVhigh
p201
F0.0
sVcase
p202
F0.0019125712646611526
sVcure
p203
F0.0042258478047831486
sVexperience
p204
F0.0025910667185568624
sVwant
p205
F0.0
sVseem
p206
F0.002150018358419276
sVeveryday
p207
F0.0042258478047831486
sVworry
p208
F0.002868856896991729
sVgreater
p209
F0.0077732001556705885
sVscrew
p210
F0.0025910667185568624
sVissue
p211
F0.001634781086226286
sVupheaval
p212
F0.0
sVrather
p213
F0.0009562856323305763
sVmake
p214
F0.0012900110150515654
sVtreatment
p215
F0.0042258478047831486
sVcoronary
p216
F0.0
sVnardil
p217
F0.0
sVaurorix
p218
F0.0
sVtake
p219
F0.00043000367168385517
sVincorrectly
p220
F0.0042258478047831486
sVanswer
p221
F0.0019125712646611526
sVinstead
p222
F0.001634781086226286
sVseveral
p223
F0.0025910667185568624
sVpharmacist
p224
F0.0
sVharmine
p225
F0.0
sVfairly
p226
F0.0077732001556705885
sVbegin
p227
F0.001634781086226286
sVsure
p228
F0.0009562856323305763
sV23andme
p229
F0.0
sVshtml
p230
F0.0
sVblue
p231
F0.001634781086226286
sVeffect
p232
F0.0034400293734708413
sVmoment
p233
F0.00043000367168385517
sVlinezolid
p234
F0.0
sVanecdotal
p235
F0.0
sVblood
p236
F0.003269562172452572
sVsnp
p237
F0.0
sVrasagiline
p238
F0.0
sVdata
p239
F0.008451695609566297
sVclass
p240
F0.0009562856323305763
sVmao
p241
F0.0
sVkid
p242
F0.0042258478047831486
sVvortioxetine
p243
F0.0
sVgene
p244
F0.0042258478047831486
sVremember
p245
F0.00043000367168385517
sVolder
p246
F0.0009562856323305763
sVassume
p247
F0.0042258478047831486
sVmaybe
p248
F0.0
sVbottom
p249
F0.00043000367168385517
sVdrive
p250
F0.0025910667185568624
sVminocycline
p251
F0.0
sVsevere
p252
F0.005182133437113725
sVingestion
p253
F0.0
sVmachinery
p254
F0.0
sVpush
p255
F0.003269562172452572
sVeverything
p256
F0.0012900110150515654
sVaddiction
p257
F0.0
sVoperate
p258
F0.0042258478047831486
sVknow
p259
F0.0012900110150515654
s.