(dp0
Vpartial
p1
F0.004296785297909005
sVconsider
p2
F0.0009723383887485956
sVmonth
p3
F0.0009723383887485956
sV______________
p4
F0.0
sVgpcrs
p5
F0.0
sVgo
p6
F0.0
sVmeditation
p7
F0.0
sVcontent
p8
F0.004296785297909005
sVinverse
p9
F0.0021483926489545024
sVdepend
p10
F0.0021483926489545024
sVpenile
p11
F0.0
sV0
p12
F0.0026345618433288
sVinclude
p13
F0.0013172809216644
sVworth
p14
F0.0008311117272901022
sVsound
p15
F0.0004861691943742978
sVworse
p16
F0.0004861691943742978
sVfar
p17
F0.0002186109793692501
sVdecide
p18
F0.0013172809216644
sVtrouble
p19
F0.0002186109793692501
sVdifference
p20
F0.0013172809216644
sVcool
p21
F0.0021483926489545024
sVdin
p22
F0.0
sVmagic
p23
F0.0013172809216644
sVstimulus
p24
F0.0
sVupload
p25
F0.004296785297909005
sVleave
p26
F0.0009723383887485956
sVp
p27
F0.0008311117272901022
sVantagonize
p28
F0.0
sVregret
p29
F0.0013172809216644
sVplexus
p30
F0.0
sVjapanese
p31
F0.006445177946863508
sVpregaba
p32
F0.0
sVorgasm
p33
F0.004296785297909005
sVsecond
p34
F0.0004372219587385002
sVcost
p35
F0.0008311117272901022
sVpatient
p36
F0.0021483926489545024
sVeven
p37
F0.0006558329381077504
sVappear
p38
F0.0013172809216644
sVworsen
p39
F0.0
sVcaffeine
p40
F0.0021483926489545024
sVd3
p41
F0.0
sVnew
p42
F0.0
sVnever
p43
F0.0
sVprescribe
p44
F0.004296785297909005
sVht7
p45
F0.0
sVselective
p46
F0.0
sVht2
p47
F0.0
sVothers
p48
F0.0004861691943742978
sVstrong
p49
F0.0008311117272901022
sVstudy
p50
F0.0013172809216644
sVopiate
p51
F0.0
sVexperience
p52
F0.0013172809216644
sVsmoke
p53
F0.0013172809216644
sVsocial
p54
F0.0004861691943742978
sVaction
p55
F0.0013172809216644
sVopinion
p56
F0.004296785297909005
sVuseful
p57
F0.0021483926489545024
sVagomelatine
p58
F0.0
sVimpulsivity
p59
F0.0
sVpsychological
p60
F0.0021483926489545024
sVmicrodosing
p61
F0.0
sVmoran
p62
F0.0
sVapply
p63
F0.0013172809216644
sVcocaine
p64
F0.0021483926489545024
sVuse
p65
F0.0008744439174770004
sVwould
p66
F0.0
sVtwo
p67
F0.0
sVmediate
p68
F0.0
sVcalm
p69
F0.004296785297909005
sVmemory
p70
F0.0008311117272901022
sVpregabalin
p71
F0.0
sVtype
p72
F0.0008311117272901022
sVneverending
p73
F0.0
sVentrance
p74
F0.0008311117272901022
sVrelax
p75
F0.0013172809216644
sVtardive
p76
F0.0
sVcompany
p77
F0.0004372219587385002
sVmuse
p78
F0.0
sVmescaline
p79
F0.0
sVshoot
p80
F0.0013172809216644
sVhigh
p81
F0.0
sVwork
p82
F0.0
sVlongitude
p83
F0.0
sVatypical
p84
F0.004296785297909005
sVobvious
p85
F0.0008311117272901022
sVstabilizer
p86
F0.0
sVdosage
p87
F0.004296785297909005
sVmirtazapine
p88
F0.0
sVcontrol
p89
F0.0026345618433288
sVgive
p90
F0.0002186109793692501
sVfuck
p91
F0.0021483926489545024
sVorbit1
p92
F0.0
sVinvolve
p93
F0.0
sVminimum
p94
F0.0013172809216644
sVsomething
p95
F0.0002186109793692501
sVwant
p96
F0.0
sVsense
p97
F0.0002186109793692501
sVsharp
p98
F0.0021483926489545024
sVhonest
p99
F0.0008311117272901022
sVguarantee
p100
F0.0021483926489545024
sVdiscussion
p101
F0.0013172809216644
sVantagonism
p102
F0.0
sVchemical
p103
F0.0021483926489545024
sVmay
p104
F0.0004372219587385002
sVmax
p105
F0.0021483926489545024
sVwrong
p106
F0.0004861691943742978
sVplane
p107
F0.004296785297909005
sVsuck
p108
F0.0013172809216644
sVresponse
p109
F0.010741963244772511
sVrefuse
p110
F0.0008311117272901022
sVmorphine
p111
F0.006445177946863508
sVbind
p112
F0.0
sVtetracyclic
p113
F0.0
sVswitch
p114
F0.0026345618433288
sVbeating_depression_w_memantine_and_lsd
p115
F0.0
sVpleasure
p116
F0.0016622234545802044
sVaddiction
p117
F0.0
sVfirst
p118
F0.0004372219587385002
sVtalk
p119
F0.0008311117272901022
sVexclusive
p120
F0.0021483926489545024
sVlsd
p121
F0.0
sVhelp
p122
F0.0008744439174770004
sVcourse
p123
F0.0004861691943742978
sVjapan
p124
F0.0
sVstill
p125
F0.0
sVinsted
p126
F0.0
sV25
p127
F0.0008311117272901022
sVle
p128
F0.004296785297909005
sVantipsychotic
p129
F0.0
sVll
p130
F0.0002186109793692501
sVbetter
p131
F0.0006558329381077504
sVabsence
p132
F0.0
sVfade
p133
F0.0013172809216644
sV2014
p134
F0.0
sVmain
p135
F0.0002186109793692501
sVmight
p136
F0.0004372219587385002
sVeasier
p137
F0.0008311117272901022
sV2013
p138
F0.0
sVwouldn
p139
F0.0004861691943742978
sVnon
p140
F0.0004372219587385002
sVgood
p141
F0.0
sV3
p142
F0.0019446767774971912
sVnod
p143
F0.0021483926489545024
sVpractice
p144
F0.0
sVtherapy
p145
F0.0021483926489545024
sVhalf
p146
F0.0002186109793692501
sVeasily
p147
F0.0004861691943742978
sVterm
p148
F0.0016622234545802044
sVerection
p149
F0.0021483926489545024
sVedit
p150
F0.004296785297909005
sValways
p151
F0.0
sVdidn
p152
F0.0008744439174770004
sVevade
p153
F0.0021483926489545024
sVreasonable
p154
F0.0013172809216644
sVmean
p155
F0.0004861691943742978
sVen
p156
F0.0026345618433288
sVweight
p157
F0.0004861691943742978
sVreduce
p158
F0.0013172809216644
sVidea
p159
F0.0002186109793692501
sVcarry
p160
F0.0002186109793692501
sVyear
p161
F0.0002186109793692501
sVdisinhibition
p162
F0.0
sVhypeprolactinemia
p163
F0.0
sVhappen
p164
F0.0004861691943742978
sVsexual
p165
F0.004296785297909005
sVagoraphobia
p166
F0.0
sVtry
p167
F0.0002186109793692501
sVsince
p168
F0.0006558329381077504
sVincrease
p169
F0.0052691236866576
sVwithdrawal
p170
F0.0
sVcommercially
p171
F0.0
sVbase
p172
F0.0004861691943742978
sVunwanted
p173
F0.0021483926489545024
sVask
p174
F0.0006558329381077504
sVorg
p175
F0.00859357059581801
sVinteraction
p176
F0.0021483926489545024
sVcould
p177
F0.0
sVterrible
p178
F0.0016622234545802044
sVkeep
p179
F0.0004372219587385002
sVthing
p180
F0.0004372219587385002
sVplace
p181
F0.0002186109793692501
sVisn
p182
F0.0004372219587385002
sVthink
p183
F0.0013116658762155008
sVbupropion
p184
F0.0
sVfeed
p185
F0.0013172809216644
sVfeel
p186
F0.0006558329381077504
sVnumber
p187
F0.0008311117272901022
sVone
p188
F0.0
sVspecifically
p189
F0.0
sVanother
p190
F0.0002186109793692501
sVbland
p191
F0.0
sVmiss
p192
F0.0002186109793692501
sVht1a
p193
F0.0
sV1p
p194
F0.0
sVguess
p195
F0.003324446909160409
sVscript
p196
F0.0021483926489545024
sVleast
p197
F0.0
sVeuphoria
p198
F0.0
sVanyone
p199
F0.0004861691943742978
sV2
p200
F0.0004372219587385002
sVcondasending
p201
F0.0
sVdownregulate
p202
F0.0
sVway
p203
F0.0004372219587385002
sVmostly
p204
F0.0008311117272901022
sVbehind
p205
F0.0002186109793692501
sVpart
p206
F0.0009723383887485956
sV11
p207
F0.0002186109793692501
sV10
p208
F0.0004372219587385002
sV13
p209
F0.0008311117272901022
sVanxiety
p210
F0.01718714119163602
sV15
p211
F0.0002186109793692501
sVcounteract
p212
F0.0
sV5ht2a
p213
F0.0
sVsee
p214
F0.0002186109793692501
sVmemantine
p215
F0.0
sVresult
p216
F0.0013172809216644
sVmind
p217
F0.003324446909160409
sVblip
p218
F0.0
sVsay
p219
F0.0004372219587385002
sVlogitude
p220
F0.0
sVseem
p221
F0.0002186109793692501
sVregulate
p222
F0.0
sVoption
p223
F0.010741963244772511
sVgabaergics
p224
F0.0
sVstrength
p225
F0.0008311117272901022
sVangle
p226
F0.0021483926489545024
sVlatter
p227
F0.0021483926489545024
sVmechanism
p228
F0.0
sVtake
p229
F0.0006558329381077504
sVcitrulline
p230
F0.0
sV3mfw31
p231
F0.0
sVregard
p232
F0.0
sVpain
p233
F0.0008311117272901022
sVclash
p234
F0.0021483926489545024
sVnormal
p235
F0.0008311117272901022
sVclearer
p236
F0.0
sVaddict
p237
F0.006445177946863508
sVsignificant
p238
F0.004296785297909005
sVsub
p239
F0.0008311117272901022
sVequatorial
p240
F0.0
sVespecially
p241
F0.0004861691943742978
sVki
p242
F0.0
sVlose
p243
F0.0002186109793692501
sVcover
p244
F0.0004861691943742978
sVsober
p245
F0.004296785297909005
sVsporadically
p246
F0.0021483926489545024
sVrestriction
p247
F0.0
sVanyway
p248
F0.0016622234545802044
sVbring
p249
F0.0004372219587385002
sVsubtle
p250
F0.006445177946863508
sVfear
p251
F0.0008311117272901022
sV25mg
p252
F0.0
sVd2
p253
F0.0
sVfind
p254
F0.0
sVurouge
p255
F0.0
sVocd
p256
F0.0
sVcombo
p257
F0.0021483926489545024
sVextracellular
p258
F0.0
sVhit
p259
F0.0004861691943742978
sVget
p260
F0.0
sVstop
p261
F0.0004372219587385002
sVkind
p262
F0.0
sV12
p263
F0.0002186109793692501
sVbromocriptine
p264
F0.0
sVantagonist
p265
F0.0
sVht2c
p266
F0.0
sVht2a
p267
F0.0
sVstupid
p268
F0.0008311117272901022
sVactivity
p269
F0.004296785297909005
sVrelease
p270
F0.003324446909160409
sVoccupy
p271
F0.0
sVgabapentin
p272
F0.0
sVwiki
p273
F0.0
sVbtw
p274
F0.0
sVhabit
p275
F0.0
sVphysically
p276
F0.0021483926489545024
sVnut
p277
F0.0021483926489545024
sVreinforce
p278
F0.0
sVht2c_receptor
p279
F0.0
sVsubject
p280
F0.0021483926489545024
sV04
p281
F0.0026345618433288
sVaway
p282
F0.0
sVposse
p283
F0.0021483926489545024
sVwikipedia
p284
F0.0
sVlabel
p285
F0.0016622234545802044
sVstate
p286
F0.0016622234545802044
sVprobably
p287
F0.0009723383887485956
sVneither
p288
F0.0013172809216644
sVdiscovery
p289
F0.0
sVavailable
p290
F0.0016622234545802044
sVdisthymia
p291
F0.0
sVreddit
p292
F0.0
sVloose
p293
F0.0008311117272901022
sVexam
p294
F0.0021483926489545024
sVchoroid
p295
F0.0
sVhowever
p296
F0.0013172809216644
sVselectively
p297
F0.0
sVwp
p298
F0.0
sVarticle
p299
F0.0008311117272901022
sVc
p300
F0.0013116658762155008
sVlast
p301
F0.0004372219587385002
sVagonist
p302
F0.0
sVmany
p303
F0.0
sVetc
p304
F0.0002186109793692501
sVupregulate
p305
F0.0
sVpdf
p306
F0.004296785297909005
sVapprove
p307
F0.004296785297909005
sVexperimental
p308
F0.0
sVotherwise
p309
F0.0008311117272901022
sVcomment
p310
F0.0013172809216644
sVamong
p311
F0.0013172809216644
sVafaik
p312
F0.0
sVrevamp
p313
F0.0
sVthroughout
p314
F0.0008311117272901022
sVavc_datasending_2014_en
p315
F0.0
sVquit
p316
F0.0013172809216644
sVlorcaserin
p317
F0.0
sVdecent
p318
F0.0008311117272901022
sVpc
p319
F0.0021483926489545024
sVinterest
p320
F0.0052691236866576
sV4
p321
F0.0004372219587385002
sVefficacy
p322
F0.0
sVunderstand
p323
F0.0002186109793692501
sVcatch
p324
F0.0013172809216644
sVlamotrigine
p325
F0.0
sVcase
p326
F0.0014585075831228935
sVphysician
p327
F0.0
sVlook
p328
F0.0004372219587385002
sV2011
p329
F0.0
sVdepressionregimens
p330
F0.0
sVsuppose
p331
F0.0013172809216644
sVcountry
p332
F0.0004861691943742978
sVamisulpride
p333
F0.0
sVexclude
p334
F0.0021483926489545024
sValmost
p335
F0.0004372219587385002
sVside_effect
p336
F0.0
sVsurface
p337
F0.0013172809216644
sVanhedonia
p338
F0.0
sVritanserin
p339
F0.0
sVcomparative
p340
F0.0
sVdmt
p341
F0.0
sVverticaly
p342
F0.0
sVdevelop
p343
F0.0013172809216644
sVdoctor
p344
F0.0021483926489545024
sVmake
p345
F0.0006558329381077504
sVcheck
p346
F0.0013172809216644
sVstrange
p347
F0.0014585075831228935
sVdownregulation
p348
F0.0
sVhigher
p349
F0.0004861691943742978
sVweek
p350
F0.0008311117272901022
sVeffect
p351
F0.0010930548968462505
sVmoment
p352
F0.0002186109793692501
sVkaido
p353
F0.0
sVfrequently
p354
F0.004296785297909005
sVstack
p355
F0.004296785297909005
sVkid
p356
F0.004296785297909005
sVlower
p357
F0.0009723383887485956
sVexpression
p358
F0.0016622234545802044
sVpiracetam
p359
F0.0
sVagonism
p360
F0.0
sVusual
p361
F0.0021483926489545024
sVbenzo
p362
F0.0
sVyea
p363
F0.0
sVdose
p364
F0.015038748542681515
sVdopamine
p365
F0.0
sVyes
p366
F0.0004372219587385002
sVconsole
p367
F0.0021483926489545024
sVdopaminergic
p368
F0.0
sVpoint
p369
F0.0004372219587385002
sVsky
p370
F0.0026345618433288
sVexcept
p371
F0.0004861691943742978
sVadd
p372
F0.0024933351818703067
sVaffinity
p373
F0.0
sVtreatment
p374
F0.00859357059581801
sVformal
p375
F0.0021483926489545024
sVread
p376
F0.0014585075831228935
sVbig
p377
F0.0002186109793692501
sVpossible
p378
F0.0019446767774971912
sVshitty
p379
F0.0021483926489545024
sVgame
p380
F0.0019446767774971912
sVinhibition
p381
F0.0
sVknow
p382
F0.0006558329381077504
sVbackground
p383
F0.0002186109793692501
sVintersection
p384
F0.0
sVd
p385
F0.0
sVdesire
p386
F0.0021483926489545024
sVlike
p387
F0.0
sVstagger
p388
F0.0
sVcognition
p389
F0.0021483926489545024
sVbecome
p390
F0.0004372219587385002
sVtherapeutic
p391
F0.0
sVopioid
p392
F0.0
sVright
p393
F0.0004372219587385002
sVdeal
p394
F0.0009723383887485956
sVback
p395
F0.0002186109793692501
sVselectivity
p396
F0.0
sVpaxil
p397
F0.0
sVcabergoline
p398
F0.0
sVunless
p399
F0.0008311117272901022
sVintact
p400
F0.0013172809216644
sVmood
p401
F0.0013172809216644
sVbenzodiazepine
p402
F0.0
sVdecision
p403
F0.0008311117272901022
sVpsychologically
p404
F0.0
sVper
p405
F0.0013172809216644
sVresponder
p406
F0.0
sVcannabis
p407
F0.0
sVprovider
p408
F0.0
sVrun
p409
F0.0004372219587385002
sVschedule
p410
F0.0021483926489545024
sVnight
p411
F0.0002186109793692501
sV1snri
p412
F0.0
sVincline
p413
F0.0
sVanything
p414
F0.0004372219587385002
sVreappear
p415
F0.0
sVisland
p416
F0.0026345618433288
sVaco
p417
F0.0
sVdependence
p418
F0.0
sVbenzos
p419
F0.0
sVplus
p420
F0.0008311117272901022
sValliance
p421
F0.0
sVpresence
p422
F0.0004861691943742978
sVnortriptyline
p423
F0.0
sVchronic
p424
F0.006445177946863508
sVoverkill
p425
F0.0
sVnicotine
p426
F0.0
sVreceptor
p427
F0.0
sVrisk
p428
F0.0008311117272901022
sVlive
p429
F0.0002186109793692501
sVlong
p430
F0.0
sVdyskensia
p431
F0.0
sVstrict
p432
F0.0021483926489545024
sVlow
p433
F0.0019446767774971912
sVlot
p434
F0.0
sVmetabolism
p435
F0.0021483926489545024
sVmedium
p436
F0.0008311117272901022
sVelsewhere
p437
F0.0021483926489545024
sVform
p438
F0.0009723383887485956
sVenough
p439
F0.0
sVrecommend
p440
F0.0021483926489545024
sVht
p441
F0.0
sVasending
p442
F0.0
sVhear
p443
F0.0004861691943742978
sVgain
p444
F0.0013172809216644
sVline
p445
F0.0009723383887485956
sVmalate
p446
F0.0
sVpsychosis
p447
F0.0
sVoriginaly
p448
F0.0
sVplanet
p449
F0.0021483926489545024
sVetifoxine
p450
F0.0
sVlimit
p451
F0.0013172809216644
sVnootropic
p452
F0.0
sVproblem
p453
F0.0019446767774971912
sVsimilar
p454
F0.0009723383887485956
sVclear
p455
F0.0002186109793692501
sVlongitude_of_the_ascending_node
p456
F0.0
sVlongjack
p457
F0.0
sVtricyclic
p458
F0.0
sVilegally
p459
F0.0
sVssri
p460
F0.0
sVdoesn
p461
F0.0002186109793692501
sVgeneral
p462
F0.0
sVfile
p463
F0.0021483926489545024
sVav
p464
F0.0
sVdealer
p465
F0.0021483926489545024
sVregime
p466
F0.0
sVmushroom
p467
F0.0021483926489545024
sVimage
p468
F0.0013172809216644
sVpeace
p469
F0.0021483926489545024
sV5
p470
F0.005465274484231253
sVsick
p471
F0.0021483926489545024
sVnode
p472
F0.0
sVwelcome
p473
F0.0002186109793692501
sVamphetamine
p474
F0.0
sVpractically
p475
F0.0021483926489545024
sVsvg
p476
F0.0
sVorbit
p477
F0.0
sVdaily
p478
F0.004296785297909005
sVwrite
p479
F0.0004861691943742978
sVu
p480
F0.0008311117272901022
sVtime
p481
F0.0
sVserious
p482
F0.0008311117272901022
sVavoid
p483
F0.0004861691943742978
s.