(dp0
Vdownvoting
p1
F0.0
sVsuicidal
p2
F0.0004294039309541592
sVtelmisartan
p3
F0.0
sVchild
p4
F3.239056623327723e-05
sVbear
p5
F0.00017552520988466363
sVfour
p6
F7.282375650821002e-05
sVandre
p7
F0.0
sVdisinhibits
p8
F0.0
sVsleep
p9
F0.0008859526193448733
sVasian
p10
F0.0
sVappetite
p11
F0.0002862692873027728
sVflomax
p12
F0.0
sVhate
p13
F0.0004294039309541592
sVforget
p14
F0.00011074407741810916
sVseleg
p15
F0.0
sVswap
p16
F8.776260494233181e-05
sVwhatsoever
p17
F8.776260494233181e-05
sVstationery
p18
F0.0
sVsorry
p19
F6.478113246655446e-05
sVworth
p20
F0.0003876042709633821
sVmodstrid
p21
F0.0
sV50mg
p22
F0.0
sVrisk
p23
F0.0007752085419267642
sVkristendom
p24
F0.0
sVhypertensive
p25
F0.0
sVactivation
p26
F0.0002862692873027728
sVexception
p27
F8.776260494233181e-05
sVmanic
p28
F0.0007156732182569321
sVmania
p29
F0.0
sVevery
p30
F0.00017477701561970403
sVaffect
p31
F0.0008588078619083184
sVbaicalin
p32
F0.0
sVdisturb
p33
F0.0001431346436513864
sVbrokket
p34
F0.0
sVprobiotic
p35
F0.0
sVdaydream
p36
F0.0
sVcause
p37
F0.0005388957981607541
sVconvenience
p38
F0.0
sVunrelated
p39
F0.0001431346436513864
sVenhance
p40
F0.00027686019354527294
sVmonologue
p41
F0.0
sV295
p42
F0.0
sVreliable
p43
F8.776260494233181e-05
sVenjoy
p44
F5.537203870905458e-05
sVnmdar
p45
F0.0
sVforce
p46
F0.00011074407741810916
sV10g
p47
F0.0
sVpulse
p48
F0.0
sVnail
p49
F8.776260494233181e-05
sV10x
p50
F0.0
sVstreet
p51
F0.0002862692873027728
sVspontaneously
p52
F0.0001431346436513864
sVmeditation
p53
F0.0
sVeven
p54
F0.0003641187825410501
sVbromantane
p55
F0.0
sVhide
p56
F5.537203870905458e-05
sVweren
p57
F5.537203870905458e-05
sVpoison
p58
F0.0007156732182569321
sVkun
p59
F0.0
sVbipolar
p60
F0.0010019425055597048
sV8429371
p61
F0.0
sVnew
p62
F0.0
sVnet
p63
F8.776260494233181e-05
sVimproperly
p64
F0.0001431346436513864
sVever
p65
F0.00014564751301642003
sVmed
p66
F0.001491964284019641
sVsimultaneously
p67
F0.0001431346436513864
sVbehavior
p68
F8.776260494233181e-05
sVpresynaptic
p69
F0.0
sVmeo
p70
F0.0
sVmen
p71
F0.00022148815483621833
sVflere
p72
F0.0
sVlammintausta
p73
F0.0
sVneurotoxicity
p74
F0.0
sVprotection
p75
F0.0002862692873027728
sVchina
p76
F0.0
sVpursuit
p77
F0.0001431346436513864
sVuddannelsesforvaltning
p78
F0.0
sVactive
p79
F5.537203870905458e-05
sVpath
p80
F3.239056623327723e-05
sV100
p81
F0.0005537203870905459
sV_really_
p82
F0.0
sVbuddy
p83
F0.0001431346436513864
sVdry
p84
F0.00035105041976932726
sVcyclical
p85
F0.0
sVsubstance
p86
F0.0
sVforum
p87
F0.0001431346436513864
sVtaper
p88
F0.0
sVphenelzine
p89
F0.0
sVstudy
p90
F0.0011409138642503138
sVusps
p91
F0.0
sVcredit
p92
F6.478113246655446e-05
sVamisulpride
p93
F0.0
sVsmoke
p94
F0.00035105041976932726
sVintrigue
p95
F0.0
sVclonidine
p96
F0.0
sVfantastic
p97
F8.776260494233181e-05
sVstraw
p98
F0.00017552520988466363
sVreplace
p99
F0.00035105041976932726
sVnauseate
p100
F0.0
sVsynergized
p101
F0.0
sVhindsight
p102
F0.0
sVhablar
p103
F0.0
sVglance
p104
F5.537203870905458e-05
sVtotal
p105
F5.537203870905458e-05
sVobliteration
p106
F0.0
sVexperimentation
p107
F0.0
sVplow
p108
F0.0
sVdna
p109
F0.0
sVwould
p110
F0.0
sVsnri
p111
F0.0
sVhospital
p112
F0.0004388130247116591
sVuddannelse
p113
F0.0
sVnegative
p114
F0.0005265756296539909
sVbleed
p115
F0.00016611611612716375
sVtela
p116
F0.0
sVmediate
p117
F0.0
sVtm
p118
F0.0001431346436513864
sVcall
p119
F0.00016021226431806203
sVknoll
p120
F0.0
sVstrike
p121
F0.0002862692873027728
sVinner
p122
F0.00011074407741810916
sVcare
p123
F0.00026328781482699544
sVassessment
p124
F0.0002862692873027728
sVtell
p125
F0.0003239056623327723
sVbreathe
p126
F0.0002862692873027728
sVpaperwork
p127
F0.0
sVnootropax
p128
F0.0
sVholy
p129
F5.537203870905458e-05
sVwary
p130
F0.0
sVsuccessful
p131
F0.00011074407741810916
sVexpose
p132
F8.776260494233181e-05
sVaware
p133
F0.0
sVwarn
p134
F0.00011074407741810916
sVglass
p135
F1.4564751301642001e-05
sVreversible
p136
F0.0
sVloose
p137
F0.00011074407741810916
sVexcellent
p138
F0.0002862692873027728
sV91
p139
F8.776260494233181e-05
sV90
p140
F0.00017552520988466363
sVexhorbitant
p141
F0.0
sVmust
p142
F0.0
sV1991
p143
F0.0001431346436513864
sVmg
p144
F0.0
sVjoin
p145
F3.239056623327723e-05
sVroom
p146
F6.478113246655446e-05
sVpursue
p147
F0.0
sVml
p148
F0.0
sVnoots
p149
F0.0
sVwork
p150
F0.0
sVmk
p151
F0.0001431346436513864
sVwhack
p152
F0.0
sVoxide
p153
F0.0
sVeighteen
p154
F0.0001431346436513864
sVfosterbarn
p155
F0.0
sVakin
p156
F0.0
sVroot
p157
F0.00026328781482699544
sVexample
p158
F0.0005182490597324357
sVaddictive
p159
F0.0
sVacetylcholine
p160
F0.0
sVgive
p161
F0.0003786835338426921
sVindia
p162
F0.0
sVinvolve
p163
F0.0
sVhormone
p164
F0.0
sVcaution
p165
F0.0004294039309541592
sVwant
p166
F0.0
sVhonest
p167
F5.537203870905458e-05
sVlooser
p168
F0.0
sVguarantee
p169
F0.0005725385746055456
sVpreferably
p170
F0.0001431346436513864
sVend
p171
F0.00013108276171477803
sVturn
p172
F0.00016195283116638616
sVprovide
p173
F0.0004294039309541592
sVtravel
p174
F6.478113246655446e-05
sVfeature
p175
F0.00017552520988466363
sVrevisit
p176
F0.0001431346436513864
sVcompassion
p177
F0.0001431346436513864
sVtoxin
p178
F0.0
sVhop
p179
F0.0005725385746055456
sVanswer
p180
F9.71716986998317e-05
sVstereochemistry
p181
F0.0
sVactuality
p182
F0.0
sVpreferable
p183
F0.0
sVcvwynk4
p184
F0.0
sVclassify
p185
F0.0
sVbadly
p186
F3.239056623327723e-05
sVearlier
p187
F6.478113246655446e-05
sVwrong
p188
F3.239056623327723e-05
sVstefans
p189
F0.0
sVlay
p190
F0.00026328781482699544
sVcuriosity
p191
F8.776260494233181e-05
sVlaw
p192
F0.0001431346436513864
sVmeaningful
p193
F8.776260494233181e-05
sVture
p194
F0.0
sVfoolhardy
p195
F0.0
sVdanny
p196
F0.0
sVattempt
p197
F3.239056623327723e-05
sVanymore
p198
F0.0003322322322543275
sVthird
p199
F1.4564751301642001e-05
sVmove
p200
F0.00016611611612716375
sVpulsate
p201
F0.0
sVspout
p202
F0.0
sVtetracyclic
p203
F0.0
sVchildhood
p204
F0.0
sVmaintain
p205
F0.00017552520988466363
sVupside
p206
F0.00017552520988466363
sVultimate
p207
F0.0
sVtrileptal
p208
F0.0
sVvapor
p209
F0.0
sVorder
p210
F0.00014564751301642003
sVwind
p211
F5.537203870905458e-05
sVrestriction
p212
F0.0
sVmyclonus
p213
F0.0
sVoffice
p214
F5.537203870905458e-05
sVdevote
p215
F0.0
sVtyramine
p216
F0.0
sVvary
p217
F0.00035105041976932726
sVjordb
p218
F0.0
sVverticales
p219
F0.0
sVthesis
p220
F0.0001431346436513864
sVresponsive
p221
F0.0001431346436513864
sVchronically
p222
F0.0
sVtalkative
p223
F0.0
sVadolescence
p224
F0.0
sVsomnolence
p225
F0.0
sVtraer
p226
F0.0
sVime
p227
F0.0001431346436513864
sVpharma
p228
F0.0
sVncbi
p229
F0.0
sVauditory
p230
F0.0
sVpersonal
p231
F0.00022673396363294063
sVfix
p232
F0.00017552520988466363
sVrecreational
p233
F0.0004294039309541592
sVavocado
p234
F0.0001431346436513864
sVimo
p235
F0.0
sVpropyne
p236
F0.0
sVbarato
p237
F0.0
sVenefokus
p238
F0.0
sVproduction
p239
F0.0002862692873027728
sVfig
p240
F0.0001431346436513864
sVfade
p241
F0.00026328781482699544
sV400
p242
F0.00017552520988466363
sVcarve
p243
F0.0001431346436513864
sVfik
p244
F0.0
sVeasier
p245
F0.00016611611612716375
sVversus
p246
F8.776260494233181e-05
sVeventually
p247
F0.0005725385746055456
sVcoffee
p248
F0.00026328781482699544
sVcombination
p249
F0.0009413246580539279
sVlevoamphetamine
p250
F0.0
sVsafe
p251
F0.00044297630967243666
sVschool
p252
F0.0005725385746055456
sVscene
p253
F5.537203870905458e-05
sVbreak
p254
F0.0009653886543656501
sVmodification
p255
F0.0
sVtherapy
p256
F0.0014313464365138641
sVoxidant
p257
F0.0
sVinterrupt
p258
F0.0
sVsulbutiamine
p259
F0.0
sVmxe
p260
F0.0
sVscholar
p261
F8.776260494233181e-05
sVunregistered
p262
F0.0
sVlithium
p263
F0.0
sVphenylethylamine
p264
F0.0
sVreasonably
p265
F0.0001431346436513864
sVsleepless
p266
F0.0
sVl
p267
F0.0016611611612716377
sVexplode
p268
F0.0
sVnoticable
p269
F0.0001431346436513864
sVdlpa
p270
F0.0
sVreasonable
p271
F8.776260494233181e-05
sVside
p272
F7.282375650821002e-05
sVluck
p273
F0.000664464464508655
sVconstipation
p274
F0.0004294039309541592
sVevolve
p275
F8.776260494233181e-05
sVtrain
p276
F0.0002862692873027728
sVlifeextension
p277
F0.0
sV24h
p278
F0.0
sVmdd
p279
F0.0
sVt3
p280
F0.0
sVsammenligner
p281
F0.0
sV2fma
p282
F0.0
sVlaboratory
p283
F0.0001431346436513864
sVrecognizable
p284
F0.0
sVextract
p285
F0.0004294039309541592
sVrt
p286
F0.0
sVpraksis
p287
F0.0
sVumiddelbare
p288
F0.0
sVcontraindicate
p289
F0.0
sV00am
p290
F0.0
sVrx
p291
F0.0
sVcontent
p292
F0.0005725385746055456
sVsafety
p293
F0.0006143382345963228
sVrare
p294
F0.0001431346436513864
sVreader
p295
F0.0001431346436513864
sVmedicine
p296
F0.0007156732182569321
sVsurprise
p297
F5.537203870905458e-05
sVrn
p298
F0.0
sVgov
p299
F0.0012882117928624775
sVcomedown
p300
F0.0
sVschizophrenia
p301
F0.0001431346436513864
sVassociate
p302
F0.0010531512593079818
sVlittle
p303
F0.0
sVfree
p304
F0.00012956226493310893
sVstandard
p305
F5.537203870905458e-05
sVdecent
p306
F0.00011074407741810916
sVstruggle
p307
F0.0004388130247116591
sVnmda
p308
F0.0
sVbromentane
p309
F0.0
sVinadequately
p310
F0.0
sVknit
p311
F0.0
sVfret
p312
F0.0
sVstudere
p313
F0.0
sVlocal
p314
F8.776260494233181e-05
sVatt
p315
F0.0
sVspeedy
p316
F0.0001431346436513864
sVisn
p317
F0.00021847126952463005
sVsoda
p318
F0.0001431346436513864
sVaca
p319
F0.0
sVpurpose
p320
F3.239056623327723e-05
sValready
p321
F0.00018934176692134605
sVdunce
p322
F0.0
sV200mcg
p323
F0.0
sVgrade
p324
F0.0001431346436513864
sVvitro
p325
F0.0
sVthereof
p326
F0.0
sVcurlad
p327
F0.0
sVdownside
p328
F0.0
sVanother
p329
F0.00017477701561970403
sVwasn
p330
F0.00011651801041313601
sVsober
p331
F0.0001431346436513864
sVcategorize
p332
F0.0
sVcomic
p333
F0.0001431346436513864
sVclarity
p334
F8.776260494233181e-05
sVelectronic
p335
F0.0
sVpristiq
p336
F0.0
sVmercury
p337
F0.0
sVstimulation
p338
F0.0005725385746055456
sVten
p339
F3.239056623327723e-05
sVservice
p340
F5.537203870905458e-05
sVopportunity
p341
F0.00017552520988466363
sVtop
p342
F0.0001943433973996634
sVbitcoin
p343
F0.0
sVapproximately
p344
F0.0
sVeuphoria
p345
F0.0
sVeldepryl
p346
F0.0
sVpalpitation
p347
F0.0
sVdrugnerds
p348
F0.0
sVton
p349
F0.0005725385746055456
sVwildly
p350
F0.00017552520988466363
sVairy
p351
F0.0
sVkid
p352
F0.0001431346436513864
sVbitter
p353
F0.0001431346436513864
sVmutate
p354
F0.0
sVmurder
p355
F0.0001431346436513864
sVgym
p356
F8.776260494233181e-05
sVserve
p357
F0.00026328781482699544
sVadopter
p358
F0.0
sVpalsy
p359
F0.0
sVcrawl
p360
F5.537203870905458e-05
sVpeculiar
p361
F0.0
sVsymptom
p362
F0.0
sVrasageline
p363
F0.0
sVpast
p364
F0.00022673396363294063
sV150mg
p365
F0.0
sV5ht2c
p366
F0.0
sV3iscuo
p367
F0.0
sVlikely
p368
F0.0014313464365138641
sVshower
p369
F0.0001431346436513864
sVmatter
p370
F6.478113246655446e-05
sV5mg
p371
F0.0
sVguilt
p372
F0.0001431346436513864
sVendure
p373
F0.0001431346436513864
sVhallucination
p374
F0.0
sVkunnet
p375
F0.0
sVmini
p376
F0.0001431346436513864
sVfashion
p377
F0.0001431346436513864
sVprinsesser
p378
F0.0
sVmichaellustgarten
p379
F0.0
sVprozac
p380
F0.0
sVmind
p381
F0.0005537203870905459
sVspectrum
p382
F0.0
sVginger
p383
F8.776260494233181e-05
sVraw
p384
F5.537203870905458e-05
sVrat
p385
F0.00035105041976932726
sVseed
p386
F0.0001431346436513864
sVmanner
p387
F5.537203870905458e-05
sVadhd
p388
F0.0
sVarousal
p389
F0.0
sVseem
p390
F0.0007864965702886681
sVregulate
p391
F0.0
sVseek
p392
F6.478113246655446e-05
sVray
p393
F0.0001431346436513864
sVephedrin
p394
F0.0
sVapoptotic
p395
F0.0
sVthoroughly
p396
F0.0
sVlatter
p397
F0.0002862692873027728
sVresponsible
p398
F0.00017552520988466363
sVderes
p399
F0.0
sVsnow
p400
F0.0001431346436513864
sVchest
p401
F5.537203870905458e-05
sVeducator
p402
F0.0
sVtransmit
p403
F0.0
sVeffectiveness
p404
F0.0
sVpns
p405
F0.0
sVtidigt
p406
F0.0
sVblue
p407
F0.00011074407741810916
sVacquire
p408
F0.0
sVclonazepam
p409
F0.0
sVmethylphenidate
p410
F0.0
sVnorepinephrine
p411
F0.0
sVregular
p412
F0.0007156732182569321
sVmouth
p413
F0.00027686019354527294
sVhonor
p414
F8.776260494233181e-05
sVphase
p415
F0.0002862692873027728
sVautopsy
p416
F0.0004294039309541592
sVmitigate
p417
F0.0
sVepisode
p418
F0.0031489621603305006
sVobservation
p419
F0.0002862692873027728
sVdoc
p420
F0.00026328781482699544
sVmedical
p421
F0.00022148815483621833
sVmetal
p422
F0.00017552520988466363
sVdog
p423
F0.00011074407741810916
sVrer
p424
F0.0
sVdoe
p425
F0.0
sVpsychology
p426
F0.0001431346436513864
sVmellem
p427
F0.0
sVdefinitely
p428
F0.0003876042709633821
sVdystonia
p429
F0.0
sVurgency
p430
F0.0
sVreserve
p431
F0.0001431346436513864
sVbomb
p432
F0.0001431346436513864
sVhedberg
p433
F0.0
sVrandom
p434
F8.776260494233181e-05
sVsubreddit
p435
F0.0
sVmalleable
p436
F0.0
sVunfrequent
p437
F0.0
sVsubtle
p438
F0.0002862692873027728
sVcheaply
p439
F0.0
sVd2
p440
F0.0
sVd3
p441
F0.0
sV3obf2f
p442
F0.0
sVoch
p443
F0.0
sVbotox
p444
F0.0
sVacne
p445
F0.0
sVocd
p446
F0.0
sVnegligible
p447
F0.0
sVsugar
p448
F0.00017552520988466363
sVknuckle
p449
F0.0
sVfolder
p450
F0.0001431346436513864
sVrice
p451
F0.0002862692873027728
sVbehond
p452
F0.0
sVpersonality
p453
F0.00017552520988466363
sVdo
p454
F5.8259005206568005e-05
sVdl
p455
F0.0001431346436513864
sVmixture
p456
F0.0001431346436513864
sVcolorful
p457
F0.0
sVwide
p458
F3.239056623327723e-05
sVde
p459
F0.00027673027473119807
sVstop
p460
F0.0004078130364459761
sVfulde
p461
F0.0
sVda
p462
F0.0007021008395386545
sVbelviq
p463
F0.0
sVmeditate
p464
F0.0001431346436513864
sVdansk
p465
F0.0
sVdespite
p466
F0.00012956226493310893
sVreport
p467
F0.00035105041976932726
sVnasty
p468
F0.00017552520988466363
sVdu
p469
F0.0004294039309541592
sVdr
p470
F0.0002862692873027728
sVunfortunately
p471
F0.0010019425055597048
sVhospitalize
p472
F0.0
sVbpii
p473
F0.0
sVdisco
p474
F0.0
sVtwice
p475
F0.0003322322322543275
sVbad
p476
F0.00029129502603284006
sVcarrier
p477
F0.0
sVrelease
p478
F0.000664464464508655
sVmovement
p479
F5.537203870905458e-05
sVdisincline
p480
F0.0
sVaspiration
p481
F0.0
sVrespond
p482
F0.0005265756296539909
sVdeprenyl
p483
F0.0
sVresveratrol
p484
F0.0
sVhavde
p485
F0.0
sVvictim
p486
F0.0005725385746055456
sVfair
p487
F1.4564751301642001e-05
sVsensitivity
p488
F0.0
sVresult
p489
F0.0011409138642503138
sVhorrendous
p490
F0.0001431346436513864
sVfail
p491
F0.00016195283116638616
sVmiserable
p492
F8.776260494233181e-05
sVdepressive
p493
F0.0
sVfostermodern
p494
F0.0
sVkommunal
p495
F0.0
sVbest
p496
F0.00026216552342955607
sVsubject
p497
F0.0001431346436513864
sVmonoamine_oxidase_inhibitor
p498
F0.0
sV00
p499
F0.0001431346436513864
sV01
p500
F0.0002862692873027728
sV96btc
p501
F0.0
sVbecareful
p502
F0.0
sVaway
p503
F0.0
sViirc
p504
F0.0
sVwikipedia
p505
F0.0
sVimipramine
p506
F0.0
sVartificial
p507
F0.0001431346436513864
sVmodulate
p508
F0.0
sVamidate
p509
F0.0
sVunable
p510
F8.776260494233181e-05
sVhopefully
p511
F0.0
sVtolerance
p512
F0.0005725385746055456
sVlethargic
p513
F0.0
sVpreserve
p514
F0.0001431346436513864
sVaccord
p515
F0.0
sVnever
p516
F0.0
sVomg
p517
F0.0001431346436513864
sVextend
p518
F0.00026328781482699544
sVnature
p519
F2.9129502603284002e-05
sVwean
p520
F0.0
sVweak
p521
F0.0004294039309541592
sVvitamin
p522
F0.0
sVresidual
p523
F0.0001431346436513864
sVandrogen
p524
F0.0
sVwear
p525
F0.00017552520988466363
sVextent
p526
F0.0001431346436513864
sVcousin
p527
F0.0001431346436513864
sVoxidase
p528
F0.0
sVimprove
p529
F0.0010531512593079818
sVessentially
p530
F0.0
sVagonist
p531
F0.0
sVbrat
p532
F0.0001431346436513864
sVresistant
p533
F0.0
sVcountry
p534
F3.239056623327723e-05
sVill
p535
F0.00011074407741810916
sVeyeball
p536
F0.0001431346436513864
sVmildly
p537
F0.0
sVcomponentes
p538
F0.0
sVcon
p539
F0.0
sVtough
p540
F5.537203870905458e-05
sVcalamus
p541
F0.0
sVseizure
p542
F0.0
sVabilify
p543
F0.0
sV100mcg
p544
F0.0
sVillness
p545
F0.0
sVarsenic
p546
F0.0
sVtrust
p547
F0.00017552520988466363
sVwakefulness
p548
F0.0
sVpresumable
p549
F0.0
sVspeak
p550
F0.00017552520988466363
sVcontraindication
p551
F0.0
sVfra
p552
F0.0
sVreputake
p553
F0.0
sVnicer
p554
F8.776260494233181e-05
sVbewilder
p555
F0.0
sVsource
p556
F0.00022148815483621833
sVregenerate
p557
F0.0
sVunitedpharmacies
p558
F0.0
sVthree
p559
F0.00010195325911149402
sVtiny
p560
F3.239056623327723e-05
sVquickly
p561
F0.0001943433973996634
sVting
p562
F0.0001431346436513864
sVbeer
p563
F0.0001431346436513864
sVaccentuate
p564
F0.0
sVinterest
p565
F0.0012286764691926456
sVbasic
p566
F0.00011074407741810916
sVrelearn
p567
F0.0
sVwarmth
p568
F0.0
sVlocation
p569
F8.776260494233181e-05
sVwebsite
p570
F8.776260494233181e-05
sVlife
p571
F0.0004078130364459761
sVcymbalta
p572
F0.0
sVhospitalization
p573
F0.0
sVworker
p574
F0.0001431346436513864
sVbladder
p575
F0.0001431346436513864
sVwish
p576
F5.537203870905458e-05
sVcoherent
p577
F0.0
sVlift
p578
F0.0006143382345963228
sVtaiwan
p579
F0.0
sVpersonally
p580
F0.00016195283116638616
sVcatch
p581
F0.00017552520988466363
sVmct
p582
F0.0
sVspin
p583
F0.0
sV5g
p584
F0.0
sVinhibit
p585
F0.0
sVplasma
p586
F0.0001431346436513864
sVlessen
p587
F0.0
sVn
p588
F0.00021847126952463005
sVnear
p589
F5.8259005206568005e-05
sVsuppose
p590
F0.00026328781482699544
sVbalance
p591
F0.0005725385746055456
sVprocedure
p592
F0.0001431346436513864
sVmistake
p593
F3.239056623327723e-05
sVir
p594
F0.0
sVtilfredsstillende
p595
F0.0
sVii
p596
F0.0
sVcharacterize
p597
F0.0
sVelicit
p598
F0.0
sVtissue
p599
F0.0002862692873027728
sVim
p600
F0.0004294039309541592
sVanhedonic
p601
F0.0
sVcurcumin
p602
F0.0
sVmouse
p603
F0.00026328781482699544
sVinsatiable
p604
F0.0
sVdisappear
p605
F0.00026328781482699544
sVsammen
p606
F0.0
sVseverity
p607
F0.0
sVminiature
p608
F0.0001431346436513864
sVperform
p609
F5.537203870905458e-05
sVsuggest
p610
F0.0018607503674680232
sVmake
p611
F0.0006991080624788161
sVrecurrent
p612
F0.0
sVdha
p613
F0.0
sVnardil
p614
F0.0
sVexcessive
p615
F0.00011074407741810916
sVpotentially
p616
F0.0008588078619083184
sVdihydroxyflavone
p617
F0.0
sVunfortunate
p618
F5.537203870905458e-05
sVincorrectly
p619
F0.0001431346436513864
sVsuccess
p620
F0.00035105041976932726
sVseveral
p621
F0.0004388130247116591
sVambien
p622
F0.0
sVwheel
p623
F5.537203870905458e-05
sVfairly
p624
F0.0005265756296539909
sVnih
p625
F0.0
sVnil
p626
F0.0
sVpick
p627
F5.537203870905458e-05
sVhang
p628
F3.239056623327723e-05
sVhand
p629
F0.0
sVireport
p630
F0.0
sVpharmacological
p631
F0.0
sVtimmersorterare
p632
F0.0
sVpharmateutical
p633
F0.0
sVnit
p634
F0.0
sVcycle
p635
F0.0017552520988466365
sVscenario
p636
F0.0
sV1977
p637
F0.0
sVgame
p638
F9.71716986998317e-05
sVchanger
p639
F0.0
sVacademic
p640
F0.0001431346436513864
sVcontact
p641
F0.00016611611612716375
sVgrundlag
p642
F0.0
sVmother
p643
F2.9129502603284002e-05
sV801
p644
F0.0
sVparadigm
p645
F0.0
sVhacen
p646
F0.0
sVtldr
p647
F0.0
sVepa
p648
F0.0
sVprotocol
p649
F0.0001431346436513864
sVlaptop
p650
F0.00017552520988466363
sVsleepy
p651
F0.0001431346436513864
sVdisguise
p652
F0.0001431346436513864
sVvirgina
p653
F0.0
sVpsych
p654
F0.0
sVmig
p655
F0.0
sVhuman
p656
F0.00016611611612716375
sVdopamine
p657
F0.0
sVyep
p658
F0.0001431346436513864
sVyes
p659
F0.00010195325911149402
sVdouchey
p660
F0.0
sVyet
p661
F0.00014564751301642003
sVprevious
p662
F1.4564751301642001e-05
sVthyroid
p663
F0.0
sVham
p664
F8.776260494233181e-05
sVhan
p665
F0.0
sVinstance
p666
F5.537203870905458e-05
sV1_meetingabstracts
p667
F0.0
sVpharmacy
p668
F0.0001431346436513864
sVpuama
p669
F0.0
sVaffinity
p670
F0.0
sVteenager
p671
F0.0001431346436513864
sVtilsvarende
p672
F0.0
sVhar
p673
F0.0
sVsave
p674
F5.537203870905458e-05
sVhat
p675
F5.537203870905458e-05
sVtolerable
p676
F0.0
sVdesire
p677
F0.0002862692873027728
sVajcn
p678
F0.0
sVrapidly
p679
F5.537203870905458e-05
sVpossible
p680
F0.00025912452986621786
sVpossibly
p681
F6.478113246655446e-05
sVwhichever
p682
F0.0
sVjudge
p683
F8.776260494233181e-05
sVshadow
p684
F8.776260494233181e-05
sVunique
p685
F8.776260494233181e-05
sVcognitive
p686
F0.0
sVshoulder
p687
F5.537203870905458e-05
sVpsychological
p688
F0.0002862692873027728
sVbpd
p689
F0.0
sV55
p690
F0.0001431346436513864
sVimpairment
p691
F0.0
sV50
p692
F0.0001943433973996634
sV53
p693
F0.00035105041976932726
sVspecific
p694
F0.00027686019354527294
sVremind
p695
F0.00017552520988466363
sVnight
p696
F2.9129502603284002e-05
sVsignal
p697
F0.0005265756296539909
sVhyperventilate
p698
F0.0
sVright
p699
F0.00020390651822298805
sVold
p700
F0.0
sVenvision
p701
F0.0
sVdeal
p702
F0.00029151509609949506
sVkunne
p703
F0.0
sVeasy
p704
F0.0
sVdead
p705
F0.00012956226493310893
sVoh
p706
F0.00035105041976932726
sVselectivity
p707
F0.0
sVitemsampler
p708
F0.0
sVpain
p709
F0.0004983483483814912
sVguess
p710
F0.0003322322322543275
sVcreep
p711
F0.0001431346436513864
sVcocaine
p712
F0.0001431346436513864
sVindre
p713
F0.0
sVump
p714
F0.0
sVparesthesia
p715
F0.0
sVopposite
p716
F8.776260494233181e-05
sVcreative
p717
F8.776260494233181e-05
sVeverything
p718
F0.00010195325911149402
sVfog
p719
F0.0
sVtrazodone
p720
F0.0
sVchristmas
p721
F0.0
sVnardosinone
p722
F0.0
sVstefan
p723
F0.0
sVfven
p724
F0.0
sVtranshumanist
p725
F0.0
sVselvf
p726
F0.0
sVpost
p727
F0.0010531512593079818
sVsuper
p728
F0.00017552520988466363
sVvalium
p729
F0.0
sVlimitation
p730
F0.0
sVrestlessness
p731
F0.0
sVlightheaded
p732
F0.0
sVadipose
p733
F0.0
sVassault
p734
F0.0001431346436513864
sVo
p735
F4.369425390492601e-05
sVptsd
p736
F0.0
sVdinner
p737
F5.537203870905458e-05
sVplus
p738
F0.00016611611612716375
sVafternoon
p739
F0.0001431346436513864
sVtannic
p740
F0.0001431346436513864
sV466886
p741
F0.0
sVslightly
p742
F0.00022673396363294063
sVcroak
p743
F0.0
sVnerve
p744
F0.0002862692873027728
sVwhats
p745
F0.0
sVxyz
p746
F0.0
sVfloat
p747
F8.776260494233181e-05
sVsom
p748
F0.0
sVbeneficial
p749
F0.0001431346436513864
sVbath
p750
F0.0001431346436513864
sVmontelukast
p751
F0.0
sVthankful
p752
F0.0
sVjatamansi
p753
F0.0
sVarmado
p754
F0.0
sVsoy
p755
F0.0001431346436513864
sVhallucinogenic
p756
F0.0
sVanorexia
p757
F0.0001431346436513864
sVremeron
p758
F0.0
sVrely
p759
F8.776260494233181e-05
sVvaldoxan
p760
F0.0
sVpropynyl
p761
F0.0
sVchlorpromazine
p762
F0.0
sVsupport
p763
F0.00017552520988466363
sVconstantly
p764
F5.537203870905458e-05
sVwordpress
p765
F0.0
sVway
p766
F0.00034955403123940805
sVfreebase
p767
F0.0
sVgik
p768
F0.0
sVmetabolism
p769
F0.0007156732182569321
sVhappy
p770
F0.0001943433973996634
sVlowest
p771
F0.0001431346436513864
sVpamelor
p772
F0.0
sVhead
p773
F4.369425390492601e-05
sVfadern
p774
F0.0
sVform
p775
F0.00022673396363294063
sVoffer
p776
F0.0003876042709633821
sVlorazepam
p777
F0.0
sVrecommend
p778
F0.002147019654770796
sVfailure
p779
F0.0004388130247116591
sVdesipramine
p780
F0.0
sVhear
p781
F0.00029151509609949506
sVephedrine
p782
F0.0
sVnootropaxjkmrlta
p783
F0.0
sV24hr
p784
F0.0
sVrenal
p785
F0.0
sVcounsel
p786
F0.0
sVspelade
p787
F0.0
sVtype
p788
F0.00044297630967243666
sVinside
p789
F2.9129502603284002e-05
sVmaximum
p790
F0.0002862692873027728
sVvivo
p791
F0.0
sVzodiac
p792
F0.0
sValguna
p793
F0.0
sVlatuda
p794
F0.0
sV150
p795
F0.0
sVmedication
p796
F0.0038646353785874326
sVflat
p797
F3.239056623327723e-05
sVrequest
p798
F0.00011074407741810916
sVabstract
p799
F0.0002862692873027728
sVdrive
p800
F0.00035105041976932726
sVsometime
p801
F5.537203870905458e-05
sVexist
p802
F0.00026328781482699544
sVlunde
p803
F0.0
sVship
p804
F0.00016195283116638616
sVtrip
p805
F0.0006143382345963228
sVshit
p806
F0.0006143382345963228
sVcomorbid
p807
F0.0
sVni
p808
F0.0001431346436513864
sV200mg
p809
F0.0
sVno
p810
F0.0
sVaccomodating
p811
F0.0
sVgenerally
p812
F0.00011074407741810916
sVne
p813
F0.00035105041976932726
sVreality
p814
F0.0004294039309541592
sVtil
p815
F0.00011074407741810916
sVtio
p816
F0.0
sVrole
p817
F0.0001431346436513864
sVtid
p818
F0.0
sVcarbolines
p819
F0.0
sVroll
p820
F0.00016611611612716375
sVpakinson
p821
F0.0
sVeternity
p822
F0.0001431346436513864
sV51btc
p823
F0.0
sVintend
p824
F0.0001431346436513864
sVfelt
p825
F0.0006090924257996004
sVupdate
p826
F0.0005725385746055456
sVdiet
p827
F0.0020038850111194096
sVconcurrent
p828
F0.0001431346436513864
sVfell
p829
F5.537203870905458e-05
sVprofessional
p830
F8.776260494233181e-05
sVvariable
p831
F8.776260494233181e-05
sVtransporter
p832
F0.0
sVdanske
p833
F0.0
sVhurt
p834
F0.0004294039309541592
sVomega
p835
F0.0
sVlonger
p836
F0.00010195325911149402
sVhippocampal
p837
F0.0
sVassume
p838
F0.0007156732182569321
sVpenge
p839
F0.0
sVinterval
p840
F0.0
sVpseudo
p841
F0.0001431346436513864
sVdaily
p842
F0.0024332889420735685
sVwarm
p843
F3.239056623327723e-05
sVtime
p844
F0.0
sVpush
p845
F0.00011074407741810916
sVserious
p846
F0.0003322322322543275
sVstick
p847
F0.00026328781482699544
sVurinary
p848
F0.0
sVconcept
p849
F0.0002862692873027728
sVskogsarbetare
p850
F0.0
sVrob
p851
F8.776260494233181e-05
sVrelieve
p852
F0.0
sVfocus
p853
F0.0007156732182569321
sVmild
p854
F0.0
sVsupplement
p855
F0.0
sVmodafinil
p856
F0.0
sVskin
p857
F2.9129502603284002e-05
sVbattle
p858
F0.0001431346436513864
sVchair
p859
F8.776260494233181e-05
sVmilk
p860
F0.0008588078619083184
sVretention
p861
F0.0001431346436513864
sVcertainly
p862
F0.00029151509609949506
sVvarenicline
p863
F0.0
sVdepend
p864
F0.0024332889420735685
sVtranylcypromine
p865
F0.0
sVfather
p866
F5.537203870905458e-05
sV0
p867
F0.0019307773087313001
sVfinally
p868
F0.00017552520988466363
sVunpleasant
p869
F0.0001431346436513864
sVtext
p870
F8.776260494233181e-05
sVride
p871
F0.00011074407741810916
sVshoot
p872
F8.776260494233181e-05
sVmethyl
p873
F0.0
sVstring
p874
F3.239056623327723e-05
sVadvantage
p875
F8.776260494233181e-05
sVintake
p876
F0.0
sVvegan
p877
F0.0004294039309541592
sVchoice
p878
F0.0003322322322543275
sVliability
p879
F0.0
sVmyrbetriq
p880
F0.0
sVrationality
p881
F0.0
sVcook
p882
F0.00017552520988466363
sVword
p883
F5.8259005206568005e-05
sVtrouble
p884
F7.282375650821002e-05
sVexact
p885
F0.00011074407741810916
sVminute
p886
F0.00022148815483621833
sVcool
p887
F0.0001431346436513864
sVlevel
p888
F0.00014564751301642003
sVtear
p889
F6.478113246655446e-05
sVdie
p890
F0.0001943433973996634
sVdig
p891
F0.0002862692873027728
sVdecennial
p892
F0.0
sVaccidentally
p893
F5.537203870905458e-05
sVisocarboxazid
p894
F0.0
sVleave
p895
F0.00016195283116638616
sVp
p896
F0.0005537203870905459
sVsoooo
p897
F0.0001431346436513864
sVgut
p898
F0.0005725385746055456
sVquick
p899
F4.369425390492601e-05
sVguy
p900
F0.00016611611612716375
sVperceptual
p901
F0.0
sVaccumulation
p902
F0.0
sVwellbutrin
p903
F0.0
sVanesthetic
p904
F0.0
sVprevent
p905
F0.0005265756296539909
sVtremendously
p906
F0.0
sVsigh
p907
F8.776260494233181e-05
sVmeasurable
p908
F0.0
sVagitate
p909
F0.0
sVsign
p910
F4.369425390492601e-05
sVtetracyclics
p911
F0.0
sVcost
p912
F0.00011074407741810916
sVfasebj
p913
F0.0
sVhtp
p914
F0.0
sVrun
p915
F8.738850780985201e-05
sVmj
p916
F0.0
sVsubstitute
p917
F0.0
sVbold
p918
F5.537203870905458e-05
sVessence
p919
F0.0
sVaddy
p920
F0.0001431346436513864
sV25mg
p921
F0.0
sVcurrent
p922
F0.00011074407741810916
sVtranscontinental
p923
F0.0
sVparagraph
p924
F0.0
sVdrunkard
p925
F0.0
sVaspartic
p926
F0.0
sVboost
p927
F0.0
sValertness
p928
F0.0
sVparadoxical
p929
F0.0
sVsatisfy
p930
F0.0
sVfocalin
p931
F0.0
sVburn
p932
F8.776260494233181e-05
sVtitrate
p933
F0.0
sVefficacious
p934
F0.0
sVv
p935
F0.0002862692873027728
sVngf
p936
F0.0
sVwater
p937
F0.00011074407741810916
sVabandon
p938
F0.0001431346436513864
sVmoren
p939
F0.0
sVupgrade
p940
F0.0001431346436513864
sVwitch
p941
F0.00026328781482699544
sVaddress
p942
F0.00035105041976932726
sValone
p943
F0.00022148815483621833
sValong
p944
F4.369425390492601e-05
sVaunque
p945
F0.0
sVchange
p946
F0.0008859526193448733
sVwait
p947
F0.0001943433973996634
sVbox
p948
F3.239056623327723e-05
sVsubconscious
p949
F0.0
sVendte
p950
F0.0
sVnoticeable
p951
F0.0004294039309541592
sVhealthy
p952
F0.00016611611612716375
sVshift
p953
F0.0001431346436513864
sVbos
p954
F0.0
sVguilty
p955
F0.0001431346436513864
sVcommonly
p956
F0.0
sVtrial
p957
F0.0006143382345963228
sVesben
p958
F0.0
sVsuggestion
p959
F0.0006143382345963228
sVusually
p960
F0.0010520687354720372
sVbp
p961
F0.0
sVweird
p962
F0.00011074407741810916
sVmirtazapine
p963
F0.0
sVeks
p964
F0.0
sV20mg
p965
F0.0
sVgenesightrx
p966
F0.0
sVemerge
p967
F8.776260494233181e-05
sVvirker
p968
F0.0
sVlove
p969
F0.00016195283116638616
sVextra
p970
F0.00027686019354527294
sVproblematic
p971
F0.0001431346436513864
sVprefer
p972
F0.00022148815483621833
sVrarely
p973
F0.0
sVinositol
p974
F0.0
sVmarket
p975
F8.776260494233181e-05
sVprimrose
p976
F0.0
sVprove
p977
F0.0
sVsubvert
p978
F0.0
sVpositive
p979
F0.0003322322322543275
sVangry
p980
F0.00017552520988466363
sVvisit
p981
F5.537203870905458e-05
sVoptimize
p982
F0.0
sVlive
p983
F0.00020390651822298805
sVapproach
p984
F0.00026328781482699544
sVpmpd
p985
F0.0
sVmemory
p986
F0.0007198365032177096
sVvores
p987
F0.0
sVscope
p988
F0.0001431346436513864
sVsharpen
p989
F0.0
sVthru
p990
F0.0002862692873027728
sVtheoretical
p991
F0.0
sVtoday
p992
F0.00012956226493310893
sVaspirin
p993
F0.0
sVbioperine
p994
F0.0
sVafford
p995
F0.0002862692873027728
sVenvelope
p996
F0.0
sVclue
p997
F8.776260494233181e-05
sVfuel
p998
F0.0
sVvisual
p999
F0.0002862692873027728
sVtandem
p1000
F0.0
sVdegrade
p1001
F0.0
sVeffort
p1002
F0.0001431346436513864
sVeasiest
p1003
F0.0
sVimpair
p1004
F0.0
sVcar
p1005
F5.537203870905458e-05
sVelectroconvulsive
p1006
F0.0
sVbeliever
p1007
F0.0
sVadrenic
p1008
F0.0
sVwallet
p1009
F8.776260494233181e-05
sVsastre
p1010
F0.0
sVhope
p1011
F0.00011651801041313601
sVarrive
p1012
F5.537203870905458e-05
sVpickle
p1013
F0.0001431346436513864
sVdosage
p1014
F0.0028626928730277282
sVcae
p1015
F0.0
sVheart
p1016
F0.0006090924257996004
sVisomer
p1017
F0.0
sVfigure
p1018
F0.00017552520988466363
sVattribute
p1019
F8.776260494233181e-05
sVawesome
p1020
F0.0004294039309541592
sVfuck
p1021
F0.0002862692873027728
sVagent
p1022
F0.0004983483483814912
sVsample
p1023
F6.478113246655446e-05
sVdrawer
p1024
F0.0
sVdxm
p1025
F0.0
sVworkin
p1026
F0.0001431346436513864
sVoccur
p1027
F0.0002862692873027728
sV232
p1028
F0.0
sVpink
p1029
F0.00017552520988466363
sVshallower
p1030
F0.0
sVsudddenly
p1031
F0.0
sV500mcg
p1032
F0.0
sVfortunately
p1033
F0.0
sVwrite
p1034
F0.00016195283116638616
sVsnris
p1035
F0.0
sV1
p1036
F0.00032042452863612406
sVtill
p1037
F8.776260494233181e-05
sVvital
p1038
F0.0002862692873027728
sVlexapro
p1039
F0.0
sVchrispy_chken_org_295235
p1040
F0.0
sVoptimal
p1041
F0.0
sVaxis
p1042
F0.0
sVtachycardiac
p1043
F0.0
sVpathway
p1044
F0.0
sVnonstop
p1045
F0.0001431346436513864
sVproduct
p1046
F0.00026328781482699544
sVmar
p1047
F0.0
sVcocktail
p1048
F0.0004294039309541592
sVhuge
p1049
F4.369425390492601e-05
sVmay
p1050
F0.0007428023163837422
sVmax
p1051
F0.0001431346436513864
sVdive
p1052
F0.0001431346436513864
sVspot
p1053
F0.00016611611612716375
sVmismo
p1054
F0.0
sVproduce
p1055
F0.0005265756296539909
sVlevo
p1056
F0.0
sVpave
p1057
F0.0
sVcardiac
p1058
F0.0
sVlidt
p1059
F0.0
sVsuck
p1060
F8.776260494233181e-05
sVrasagiline
p1061
F0.0
sVdata
p1062
F0.0001431346436513864
sVgrow
p1063
F8.776260494233181e-05
sVmao
p1064
F0.0
sVman
p1065
F0.00013108276171477803
sVtritrated
p1066
F0.0
sVstress
p1067
F0.00017552520988466363
sVnatural
p1068
F0.00017552520988466363
sVremember
p1069
F8.738850780985201e-05
sV80
p1070
F0.0
sVwhenever
p1071
F0.00017552520988466363
sVmaybe
p1072
F0.0
sVsv
p1073
F0.0
sVsu
p1074
F0.0
sVst
p1075
F0.0
sVsk
p1076
F0.0
sVswitch
p1077
F0.0007898634444809864
sVblock
p1078
F0.0008776260494233183
sVsm
p1079
F0.0
sVtalk
p1080
F0.0006090924257996004
sVtypical
p1081
F0.00017552520988466363
sVlsd
p1082
F0.0
sVresiliency
p1083
F0.0
sVwebpage
p1084
F0.0001431346436513864
sVindeed
p1085
F0.00022148815483621833
sVmianserin
p1086
F0.0
sVmainly
p1087
F0.00017552520988466363
sVganske
p1088
F0.0
sVstability
p1089
F0.0
sVbrain
p1090
F0.0015504170838535284
sVnbsp
p1091
F0.0005725385746055456
sVstatistical
p1092
F0.0
sVshake
p1093
F8.776260494233181e-05
sVcold
p1094
F0.00011074407741810916
sVfosterfadern
p1095
F0.0
sVtendency
p1096
F0.0001431346436513864
sVderive
p1097
F0.0
sVgroup
p1098
F9.71716986998317e-05
sVmonitor
p1099
F0.0001431346436513864
sVfidgety
p1100
F0.0
sVvinpocetine
p1101
F0.0
sVideation
p1102
F0.0
sVwindow
p1103
F6.478113246655446e-05
sVamelioration
p1104
F0.0
sVbajisimos
p1105
F0.0
sVthanx
p1106
F0.0
sVmail
p1107
F0.00017552520988466363
sVmain
p1108
F1.4564751301642001e-05
sVuptake
p1109
F0.0
sVpuzzle
p1110
F0.0005725385746055456
sVentrada
p1111
F0.0
sVcholine
p1112
F0.0
sVmodestly
p1113
F0.0
sVnon
p1114
F0.00017477701561970403
sVahi
p1115
F0.0
sVazilect
p1116
F0.0
sVnok
p1117
F0.0
sVtninger
p1118
F0.0
sVkiller
p1119
F0.00011074407741810916
sVinsomnia
p1120
F0.0
sVintroduce
p1121
F0.0002862692873027728
sVtoxic
p1122
F0.0
sVadrenaline
p1123
F0.0
sVhalf
p1124
F0.00017477701561970403
sVson
p1125
F6.478113246655446e-05
sVwont
p1126
F0.0001431346436513864
sVdown
p1127
F0.0
sVterm
p1128
F0.00044297630967243666
sVname
p1129
F0.00010195325911149402
sVstabilize
p1130
F0.0
sVcognition
p1131
F0.0001431346436513864
sVdidn
p1132
F0.0004078130364459761
sVvaged
p1133
F0.0
sVconcerta
p1134
F0.0
sVrealistic
p1135
F0.0
sVdesde
p1136
F0.0
sVstockholm
p1137
F0.0
sVrock
p1138
F5.537203870905458e-05
sVentirely
p1139
F0.00016195283116638616
sVem
p1140
F3.239056623327723e-05
sVel
p1141
F0.0002862692873027728
sVen
p1142
F0.0016674894939043047
sVamphetimine
p1143
F0.0
sVsignificantly
p1144
F0.0
sVed
p1145
F8.776260494233181e-05
sVyeah
p1146
F0.00017552520988466363
sVbreakthrough
p1147
F0.0
sVsupplant
p1148
F0.0
sVex
p1149
F0.00017552520988466363
sVyear
p1150
F0.00042237778774761804
sVet
p1151
F0.0004294039309541592
sVhappen
p1152
F0.00025912452986621786
sVer
p1153
F0.0003322322322543275
sVultimately
p1154
F0.0008588078619083184
sVsystemsammenst
p1155
F0.0
sVspace
p1156
F0.00017552520988466363
sVunderst
p1157
F0.0
sVfurthermore
p1158
F0.0001431346436513864
sVlgelig
p1159
F0.0
sVincrease
p1160
F0.004124842432289596
sVseriously
p1161
F0.00011074407741810916
sVbeige
p1162
F0.0
sVrational
p1163
F0.0
sVformula
p1164
F0.0
sVtrandermally
p1165
F0.0
sVhemorrhagic
p1166
F0.0
sVcorrect
p1167
F0.00017552520988466363
sVhcl
p1168
F0.0
sVneurotrophic
p1169
F0.0
sVhallucinogen
p1170
F0.0
sVtheory
p1171
F0.0002862692873027728
sVquite
p1172
F0.00010195325911149402
sVcalifornia
p1173
F0.0
sVbesides
p1174
F8.776260494233181e-05
sVldre
p1175
F0.0
sVbumpy
p1176
F0.0
sVorg
p1177
F0.0015744810801652503
sV___
p1178
F0.0
sVcough
p1179
F5.537203870905458e-05
sVcard
p1180
F8.776260494233181e-05
sVgotu
p1181
F0.0
sVadvance
p1182
F5.537203870905458e-05
sVdrowsiness
p1183
F0.0
sVgusta
p1184
F0.0
sVlifeext
p1185
F0.0
sVcouldn
p1186
F0.00012956226493310893
sVbrintellix
p1187
F0.0
sVmodest
p1188
F0.0001431346436513864
sV10mg
p1189
F0.0
sVinitiate
p1190
F0.0001431346436513864
sVcalidad
p1191
F0.0
sVplace
p1192
F5.8259005206568005e-05
sVmassive
p1193
F0.0
sVpromotion
p1194
F0.0004294039309541592
sVthink
p1195
F0.0006845433111771741
sVfrequent
p1196
F0.0002862692873027728
sVfirst
p1197
F0.0004515072903509021
sVemotion
p1198
F0.0001431346436513864
sVcheese
p1199
F0.00017552520988466363
sVfw900
p1200
F0.0
sVteologiuddannelser
p1201
F0.0
sVparkinson
p1202
F0.0
sVmucho
p1203
F0.0
sVfast
p1204
F0.00012956226493310893
sVdirectly
p1205
F0.00011074407741810916
sVspecificity
p1206
F0.0
sVxr
p1207
F0.0
sVimpossible
p1208
F8.776260494233181e-05
sVmessage
p1209
F5.537203870905458e-05
sVtachycardia
p1210
F0.0
sVopen
p1211
F0.0
sVtomorrow
p1212
F0.0002862692873027728
sVxt
p1213
F0.0
sViam
p1214
F0.0
sV1p
p1215
F0.0
sVsheer
p1216
F0.0001431346436513864
sVnecessarily
p1217
F8.776260494233181e-05
sVsheet
p1218
F5.537203870905458e-05
sVsilent
p1219
F8.776260494233181e-05
sV1x
p1220
F0.0
sVbite
p1221
F0.000421077361032604
sVnewstar
p1222
F0.0
sVplastic
p1223
F0.0001431346436513864
sVteologi
p1224
F0.0
sVpsychotic
p1225
F0.0004294039309541592
sV2
p1226
F0.00033498927993776606
sV1g
p1227
F0.0
sVmilage
p1228
F0.0
sVwhite
p1229
F6.478113246655446e-05
sVfriend
p1230
F5.8259005206568005e-05
sV2mg
p1231
F0.0
sVnutrition
p1232
F0.0
sVmostly
p1233
F0.0005537203870905459
sVpurchase
p1234
F0.00026328781482699544
sVbenbest
p1235
F0.0
sVsuit
p1236
F8.776260494233181e-05
sVaccurately
p1237
F8.776260494233181e-05
sVshort
p1238
F4.369425390492601e-05
sVderived_neurotrophic_factor
p1239
F0.0
sV11
p1240
F4.369425390492601e-05
sV10
p1241
F0.00021847126952463005
sVtelevision
p1242
F0.0001431346436513864
sV12
p1243
F5.8259005206568005e-05
sV15
p1244
F4.369425390492601e-05
sV14
p1245
F0.00011074407741810916
sVtraverse
p1246
F0.0
sV16
p1247
F5.537203870905458e-05
sV19
p1248
F0.00011074407741810916
sVrequire
p1249
F0.0008588078619083184
sVagmatine
p1250
F0.0
sVmutilation
p1251
F0.0
sVfuture
p1252
F0.00029151509609949506
sVmagnesium
p1253
F0.0
sVcollege
p1254
F0.0001431346436513864
sVsynthesis
p1255
F0.0001431346436513864
sVdecompose
p1256
F0.0
sVanyways
p1257
F8.776260494233181e-05
sVpre
p1258
F0.00017552520988466363
sVcoconut
p1259
F6.478113246655446e-05
sVunsubstantiated
p1260
F0.0
sVrene
p1261
F0.0
sVpaywalls
p1262
F0.0
sVsam
p1263
F0.0
sVprl
p1264
F0.0
sVpro
p1265
F0.0
sVprn
p1266
F0.0
sVlevomethamphetamine
p1267
F0.0
sVinpatient
p1268
F0.0
sVsay
p1269
F0.0005243310468591121
sVpubmed
p1270
F0.0
sVpregnenolone
p1271
F0.0
sVhypnotic
p1272
F0.0
sV20g
p1273
F0.0
sVanger
p1274
F0.00017552520988466363
sVslag
p1275
F0.0001431346436513864
sVturner
p1276
F0.0
sVrecover
p1277
F5.537203870905458e-05
sVsaw
p1278
F0.00022148815483621833
sVmptp
p1279
F0.0
sVisolate
p1280
F0.0
sVaside
p1281
F0.00011074407741810916
sVpmc514561
p1282
F0.0
sVnote
p1283
F0.00025912452986621786
sVideal
p1284
F0.00035105041976932726
sVpotential
p1285
F0.0017176157238166369
sVtake
p1286
F0.0011360506015280763
sVonline
p1287
F0.0005265756296539909
sVobjective
p1288
F0.0
sVperformance
p1289
F0.00022148815483621833
sVwonder
p1290
F0.0005537203870905459
sVblunt
p1291
F0.0002862692873027728
sV200
p1292
F0.0007156732182569321
sVbegin
p1293
F0.0005537203870905459
sVsure
p1294
F0.0007449830233653763
sVmultiple
p1295
F0.00017552520988466363
sVtrace
p1296
F0.0
sVnormal
p1297
F0.0005537203870905459
sVtrack
p1298
F0.00026328781482699544
sVprice
p1299
F0.00027686019354527294
sVclearer
p1300
F0.0
sVbeta
p1301
F0.0010019425055597048
sVpaiy
p1302
F0.0
sVattack
p1303
F0.00022673396363294063
sVsymtoms
p1304
F0.0
sVpair
p1305
F0.00017552520988466363
sVgrateful
p1306
F0.0
sVespecially
p1307
F0.00025912452986621786
sVaverage
p1308
F0.00026328781482699544
sVlater
p1309
F0.00022148815483621833
sVsale
p1310
F0.0001431346436513864
sVproperly
p1311
F3.239056623327723e-05
sVpdoc
p1312
F0.0
sVpattern
p1313
F0.0
sVjittery
p1314
F0.0
sVdrenge
p1315
F0.0
sVtypically
p1316
F0.0008588078619083184
sVshop
p1317
F0.0002862692873027728
sVdrastically
p1318
F0.0
sVshow
p1319
F0.00021847126952463005
sVcheap
p1320
F0.0004388130247116591
sVgedtestingservice
p1321
F0.0
sVelevate
p1322
F0.0
sVtherapist
p1323
F0.0002862692873027728
sVtiredness
p1324
F0.0
sVhace
p1325
F0.0
sVlabel
p1326
F0.00016611611612716375
sVnlm
p1327
F0.0
sVline
p1328
F6.478113246655446e-05
sVground
p1329
F5.537203870905458e-05
sVnemesis
p1330
F0.0
sVratio
p1331
F0.0001431346436513864
sVbrain_dopamine_and_kinematics_of_graphomotor
p1332
F0.0
sVtitle
p1333
F8.776260494233181e-05
sV500mg
p1334
F0.0
sVhusband
p1335
F8.776260494233181e-05
sVsimpelthen
p1336
F0.0
sVhockey
p1337
F0.0
sVnalt
p1338
F0.0
sVdoxepin
p1339
F0.0
sVawareness
p1340
F0.0
sVnootropics
p1341
F0.0
sVcorrectly
p1342
F5.537203870905458e-05
sVwheezy
p1343
F0.0
sVget
p1344
F0.0
sVnogle
p1345
F0.0
sVtruly
p1346
F0.00035105041976932726
sVrefina
p1347
F0.0
sVloath
p1348
F0.0
sVcannot
p1349
F0.00012956226493310893
sVnearly
p1350
F2.9129502603284002e-05
sVdistinctly
p1351
F0.0
sVbromocriptine
p1352
F0.0
sVconjunction
p1353
F0.0
sVfirstborn
p1354
F0.0
sVsecondary
p1355
F5.537203870905458e-05
sVcatecholamine
p1356
F0.0
sVresource
p1357
F0.0002862692873027728
sVbodybuilder
p1358
F0.0
sVhordenine
p1359
F0.0
sVdecarboxylase
p1360
F0.0
sVatomoxetine
p1361
F0.0
sVsaliva
p1362
F0.0001431346436513864
sVyield
p1363
F0.0
sVmorning
p1364
F0.00026328781482699544
sVtheanine
p1365
F0.0
sVstupid
p1366
F0.00016611611612716375
sVdejes
p1367
F0.0
sVvision
p1368
F0.0
sVwiki
p1369
F0.0
sVaffordable
p1370
F0.0
sVtransdermal
p1371
F0.0
sVbuuuuut
p1372
F0.0
sVphysically
p1373
F0.0002862692873027728
sVhypotension
p1374
F0.0
sVnamely
p1375
F0.0
sVactively
p1376
F0.0
sVasleep
p1377
F8.776260494233181e-05
sVragey
p1378
F0.0
sV1926
p1379
F0.0
sVstigma
p1380
F0.0
sVsurgery
p1381
F0.0005725385746055456
sVestamos
p1382
F0.0
sVconcern
p1383
F0.0011450771492110912
sVgiver
p1384
F0.0
sVinhibitory
p1385
F0.0
sVestan
p1386
F0.0
sVreview
p1387
F0.0
sVdefinite
p1388
F0.0002862692873027728
sVphosphatidylserine
p1389
F0.0
sVenough
p1390
F0.0
sVestar
p1391
F0.0
sVherbal
p1392
F0.0001431346436513864
sVimport
p1393
F0.0001431346436513864
sVacross
p1394
F0.00011074407741810916
sVpsychedelics
p1395
F0.0
sVnotice
p1396
F0.0005830301921989901
sVuk
p1397
F0.0002862692873027728
sVvertical
p1398
F5.537203870905458e-05
sVscreen
p1399
F0.00026328781482699544
sVdome
p1400
F0.0
sVcomt
p1401
F0.0
sVblame
p1402
F5.537203870905458e-05
sVsympathomimetic
p1403
F0.0
sVconcentrate
p1404
F0.0002862692873027728
sVcomo
p1405
F0.0
sVvenlafaxine
p1406
F0.0
sVreevaluate
p1407
F0.0
sVgauntlet
p1408
F0.0
sVcome
p1409
F0.00027673027473119807
sVligand
p1410
F0.0
sVreaction
p1411
F0.0004388130247116591
sVcleave
p1412
F0.0
sVstun
p1413
F0.0
sVsuperstar
p1414
F0.0
sVfit
p1415
F3.239056623327723e-05
sVcramp
p1416
F0.0
sVbioactive
p1417
F0.0
sVregion
p1418
F0.00017552520988466363
sVballpark
p1419
F0.0
sVmoreso
p1420
F0.0
sVbelig
p1421
F0.0
sVvilazodone
p1422
F0.0
sVjo
p1423
F0.0
sVtout
p1424
F0.0
sVexpression
p1425
F0.00016611611612716375
sVsheaf
p1426
F0.0
sVnoopept
p1427
F0.0
sVduty
p1428
F0.00017552520988466363
sVamong
p1429
F0.00026328781482699544
sVqhi
p1430
F0.0
sVafterwards
p1431
F0.00011074407741810916
sVcancer
p1432
F0.0008588078619083184
sVcolor
p1433
F5.537203870905458e-05
sVeffective
p1434
F0.004007770022238819
sVpor
p1435
F0.0001431346436513864
sVperiod
p1436
F9.71716986998317e-05
sVpop
p1437
F0.00017552520988466363
sVmonton
p1438
F0.0
sVtwin
p1439
F8.776260494233181e-05
sVludiomil
p1440
F0.0
sVamine
p1441
F0.0
sVarticle
p1442
F0.00011074407741810916
sVpod
p1443
F0.0
sVboat
p1444
F0.0001431346436513864
sVnarcissistic
p1445
F0.0
sVbetter
p1446
F0.0004369425390492601
sVunusual
p1447
F8.776260494233181e-05
sVstretch
p1448
F0.00017552520988466363
sVrebuild
p1449
F0.0
sVsker
p1450
F0.0
sVbreath
p1451
F3.239056623327723e-05
sVcoinrx
p1452
F0.0
sVlder
p1453
F0.0
sV15mg
p1454
F0.0
sVdifferently
p1455
F8.776260494233181e-05
sVdesmethylselegiline
p1456
F0.0
sVgist
p1457
F0.0001431346436513864
sVinfluence
p1458
F5.537203870905458e-05
sVthousand
p1459
F5.537203870905458e-05
sVpersist
p1460
F0.0001431346436513864
sVayone
p1461
F0.0
sVdramatic
p1462
F8.776260494233181e-05
sVwake
p1463
F0.00011074407741810916
sVgamble
p1464
F0.0001431346436513864
sVoverdose
p1465
F0.0008588078619083184
sVcareful
p1466
F0.0005265756296539909
sV1mg
p1467
F0.0
sVskriver
p1468
F0.0
sVsound
p1469
F0.0001943433973996634
sV1294791551579fdnyemsambulancefit
p1470
F0.0
sVtrick
p1471
F0.00011074407741810916
sVrefractory
p1472
F0.0
sVongoing
p1473
F0.0
sVmany
p1474
F0.0
sVsituation
p1475
F0.00026328781482699544
sVunderstand
p1476
F0.00010195325911149402
sVcigs
p1477
F0.0
sValcoholic
p1478
F0.0001431346436513864
sVside_effect
p1479
F0.0
sVbror
p1480
F0.0
sVbias
p1481
F0.0
sVironic
p1482
F0.0001431346436513864
sVprotein
p1483
F0.0
sVproperty
p1484
F9.71716986998317e-05
sVawhile
p1485
F0.0001431346436513864
sVworry
p1486
F0.00012956226493310893
sVdifferent
p1487
F0.000421077361032604
sVpas
p1488
F0.00035105041976932726
sVritalin
p1489
F0.0
sVharsh
p1490
F8.776260494233181e-05
sVdoctor
p1491
F0.0004294039309541592
sVinquire
p1492
F0.0002862692873027728
sVpay
p1493
F4.369425390492601e-05
sVlave
p1494
F0.0
sVmagyar
p1495
F0.0
sVcheck
p1496
F0.0008776260494233183
sVya
p1497
F0.00026328781482699544
sVreleaser
p1498
F0.0
sVhtml
p1499
F0.0004294039309541592
sVmanila
p1500
F0.0
sVlite
p1501
F0.0
sVphysical
p1502
F0.0
sVhvis
p1503
F0.0
sVweek
p1504
F0.0008859526193448733
sVexhaust
p1505
F0.0
sVoil
p1506
F0.0007021008395386545
sVdrivel
p1507
F0.0
sVuddannelser
p1508
F0.0
sVtotally
p1509
F9.71716986998317e-05
sVtradition
p1510
F0.0001431346436513864
sVcosta
p1511
F0.0
sVcyp1a2
p1512
F0.0
sVburrito
p1513
F0.0001431346436513864
sVlargely
p1514
F0.0
sVminimize
p1515
F0.0002862692873027728
sVantihistamine
p1516
F0.0
sVroughly
p1517
F0.0
sVc60
p1518
F0.0
sVcosto
p1519
F0.0
sVsevere
p1520
F0.001491964284019641
sVwithout
p1521
F0.0
sVsolve
p1522
F0.00017552520988466363
sVrelief
p1523
F0.0
sValleviate
p1524
F0.0005725385746055456
sVhubby
p1525
F0.0
sVjustify
p1526
F0.0
sV215
p1527
F0.0
sVbenzo
p1528
F0.0
sVmoney
p1529
F0.00026328781482699544
sVvaluable
p1530
F8.776260494233181e-05
sVtipos
p1531
F0.0
sVdehydration
p1532
F0.0
sVinflammatory
p1533
F0.0
sVkill
p1534
F9.71716986998317e-05
sVanerkendte
p1535
F0.0
sVaspect
p1536
F0.00026328781482699544
sVsufficiently
p1537
F0.0
sVtouch
p1538
F9.71716986998317e-05
sVbehavioural
p1539
F0.0
sVng
p1540
F0.0
sVsatin
p1541
F0.0
sVketamine
p1542
F0.0
sVdeath
p1543
F0.0003322322322543275
sVtrigger
p1544
F0.0004294039309541592
sVdopaminergic
p1545
F0.0
sVexcept
p1546
F0.00016195283116638616
sVimprovement
p1547
F0.00035105041976932726
sVfisetin
p1548
F0.0
sVpile
p1549
F8.776260494233181e-05
sVtreatment
p1550
F0.0037215007349360465
sVversa
p1551
F0.0001431346436513864
sVelectrical
p1552
F0.0002862692873027728
sVunviable
p1553
F0.0
sVpill
p1554
F0.0022901542984221823
sVreal
p1555
F0.0
sVkalde
p1556
F0.0
sVaround
p1557
F0.00018934176692134605
sVdesperately
p1558
F8.776260494233181e-05
sVread
p1559
F0.0006154207584322674
sVmor
p1560
F0.0002862692873027728
sVpsa
p1561
F0.0
sVdiscontinue
p1562
F0.0
sVvirginia
p1563
F0.0
sVbuspirone
p1564
F0.0
sVtest
p1565
F0.0007752085419267642
sVinhibition
p1566
F0.0
sVinsist
p1567
F0.0001431346436513864
sValldaychemist
p1568
F0.0
sVamp
p1569
F8.776260494233181e-05
sVamt
p1570
F0.0
sVmod
p1571
F0.0001431346436513864
sVacute
p1572
F0.0
sVstranger
p1573
F0.0001431346436513864
sVachieve
p1574
F0.0001431346436513864
sVracetams
p1575
F0.0
sVpole
p1576
F8.776260494233181e-05
sVvenderlo
p1577
F0.0
sVsanity
p1578
F0.0
sVbenefit
p1579
F0.0022901542984221823
sVeither
p1580
F0.00027673027473119807
sVfully
p1581
F6.478113246655446e-05
sVtic
p1582
F0.0
sVveggiefitness
p1583
F0.0
sVpapernotes
p1584
F0.0
sVpronounce
p1585
F0.0001431346436513864
sVparnate
p1586
F0.0
sVoxazepam
p1587
F0.0
sVbiloba
p1588
F0.0
sVuden
p1589
F0.0
sVkola
p1590
F0.0
sVduration
p1591
F0.0
sVoctane
p1592
F0.0
sVviral
p1593
F0.0
sVfabricas
p1594
F0.0
sVgenetics
p1595
F0.0
sVmood
p1596
F0.002632878148269955
sVbenzodiazepine
p1597
F0.0
sVtube
p1598
F0.0001431346436513864
sVlegal
p1599
F0.0002862692873027728
sVnoot
p1600
F0.0
sVmaob
p1601
F0.0
sVdeficit
p1602
F0.0
sVxten
p1603
F0.0
sVmaoi
p1604
F0.0
sVamino
p1605
F0.0
sVintravenous
p1606
F0.0
sVrefer
p1607
F0.0001431346436513864
sV3meo
p1608
F0.0
sVproveen
p1609
F0.0
sVmethamphetamine
p1610
F0.0
sVwelcome
p1611
F1.4564751301642001e-05
sVscientific
p1612
F0.0001431346436513864
sVbusiness
p1613
F1.4564751301642001e-05
sVepsom
p1614
F0.0
sVintrude
p1615
F0.0
sVmiscellaneous
p1616
F0.0001431346436513864
sVhjemme
p1617
F0.0
sVsixty
p1618
F0.0
sVfinicky
p1619
F0.0
sVthrow
p1620
F8.776260494233181e-05
sVmicrodose
p1621
F0.0
sVmanufacturer
p1622
F0.0
sVoo
p1623
F0.0001431346436513864
sVjournaling
p1624
F0.0
sVom
p1625
F0.0
sVpaises
p1626
F0.0
sVcentral
p1627
F0.0
sVtease
p1628
F0.0001431346436513864
sVog
p1629
F0.0
sVintolerable
p1630
F0.0
sVod
p1631
F0.0
sVfavorite
p1632
F5.537203870905458e-05
sVmeal
p1633
F5.537203870905458e-05
sVbenzos
p1634
F0.0
sV75mg
p1635
F0.0
sVgreatly
p1636
F0.0002862692873027728
sVhindu
p1637
F0.0
sVbond
p1638
F8.776260494233181e-05
sVroad
p1639
F8.776260494233181e-05
sVop
p1640
F0.0002862692873027728
sVdextro
p1641
F0.0
sVpotentiate
p1642
F0.0
sVimage
p1643
F8.776260494233181e-05
sVproblemsame
p1644
F0.0
sVvnte
p1645
F0.0
sVnicotine
p1646
F0.0
sVinvolvement
p1647
F0.0
sVbedtime
p1648
F0.0
sVeinstein
p1649
F0.0
sVmark
p1650
F0.00016611611612716375
sVintervention
p1651
F0.0001431346436513864
sVpharmaceutical
p1652
F0.0
sVweight
p1653
F0.0003239056623327723
sVaren
p1654
F0.00013108276171477803
sVweekend
p1655
F8.776260494233181e-05
sVstrictly
p1656
F8.776260494233181e-05
sVthere
p1657
F0.0
sVmelander
p1658
F0.0
sVhey
p1659
F8.776260494233181e-05
sVlol
p1660
F0.0001431346436513864
sVstart
p1661
F0.0004858584934991585
sVparachute
p1662
F0.0
sVbromide
p1663
F0.0
sVlow
p1664
F0.0010364981194648714
sVlot
p1665
F0.0
sVhellish
p1666
F0.0
sVmarlboros
p1667
F0.0
sVallergic
p1668
F0.0001431346436513864
sVirreversibly
p1669
F0.0
sVcomplete
p1670
F0.00012956226493310893
sVeksempel
p1671
F0.0
sVregard
p1672
F0.0
sVaniracetam
p1673
F0.0
sVnerve_growth_factor
p1674
F0.0
sVintoxication
p1675
F0.0
sVelimination
p1676
F0.0
sVorthostatic
p1677
F0.0
sVirreversible
p1678
F0.0
sVldte
p1679
F0.0
sVfaster
p1680
F5.537203870905458e-05
sVvolume
p1681
F0.0001431346436513864
sVpull
p1682
F6.478113246655446e-05
sVregimen
p1683
F0.0
sVpropargyl
p1684
F0.0
sVcirculation
p1685
F0.0
sVrage
p1686
F0.0001431346436513864
sVattenuate
p1687
F0.0
sVvice
p1688
F0.0001431346436513864
sVprimarly
p1689
F0.0
sVuniversitetsavisen
p1690
F0.0
sVashwagandha
p1691
F0.0
sVhydrolase
p1692
F0.0
sVnootropic
p1693
F0.0
sVnetop
p1694
F0.0
sVagree
p1695
F3.239056623327723e-05
sVstrongly
p1696
F0.0
sV600
p1697
F8.776260494233181e-05
sVaf
p1698
F0.0
sVtaste
p1699
F5.537203870905458e-05
sVcertain
p1700
F0.00016021226431806203
sVdescribe
p1701
F0.00017552520988466363
sVdeep
p1702
F6.478113246655446e-05
sVnerv
p1703
F0.0
sVap
p1704
F0.0
sVexamine
p1705
F8.776260494233181e-05
sVhypertension
p1706
F0.0
sVinulin
p1707
F0.0
sVfile
p1708
F0.0002862692873027728
sVformulation
p1709
F0.0
sVlifetime
p1710
F8.776260494233181e-05
sVmelatonin
p1711
F0.0
sVillegal
p1712
F0.0001431346436513864
sVfill
p1713
F0.00011074407741810916
sVhigh
p1714
F0.0
sVrosea
p1715
F0.0
sVidiot
p1716
F0.0001431346436513864
sVdiarrhea
p1717
F0.0004294039309541592
sVringtone
p1718
F0.0001431346436513864
sVgraduate
p1719
F0.0001431346436513864
sV5
p1720
F0.000247600772127914
sVm9re
p1721
F0.0
sVpoor
p1722
F1.4564751301642001e-05
sVseparate
p1723
F0.00017552520988466363
sVpharmaceutically
p1724
F0.0
sVdrift
p1725
F0.0
sVm
p1726
F8.738850780985201e-05
sVimportant
p1727
F0.0007898634444809864
sVunless
p1728
F0.0003876042709633821
sVconclusive
p1729
F0.0
sVtricky
p1730
F0.0001431346436513864
sVunbind
p1731
F0.0
sVclinically
p1732
F0.0
sVoxiracetam
p1733
F0.0
sVtransporte
p1734
F0.0
sVcorea
p1735
F0.0
sVpramiracetam
p1736
F0.0
sVadderrall
p1737
F0.0
sVtitration
p1738
F0.0
sVmimic
p1739
F0.0001431346436513864
sVc8
p1740
F0.0
sVu
p1741
F0.00044297630967243666
sVhugely
p1742
F0.0
sVbehavioral
p1743
F0.0
sVoverseas
p1744
F0.0
sVresolution
p1745
F8.776260494233181e-05
sVnunca
p1746
F0.0
sVrepresent
p1747
F0.0001431346436513864
sVdepropargylated
p1748
F0.0
sVconsider
p1749
F0.00035629622856604953
sVchinese
p1750
F0.0
sVlack
p1751
F0.00012956226493310893
sVmonth
p1752
F0.0010041075532315942
sVthoughtful
p1753
F0.0001431346436513864
sVdeadline
p1754
F0.0001431346436513864
sVzinc
p1755
F0.0
sVinvariably
p1756
F0.0
sVfollow
p1757
F0.0001943433973996634
sValt
p1758
F0.00017552520988466363
sVdisk
p1759
F0.0001431346436513864
sVreluctant
p1760
F0.0
sVrd
p1761
F0.0
sVtv
p1762
F0.0001431346436513864
sVtr
p1763
F0.0001431346436513864
sVextraneous
p1764
F0.0001431346436513864
sVhyperthermia
p1765
F0.0
sVprogram
p1766
F8.776260494233181e-05
sVamphs
p1767
F0.0
sVsmile
p1768
F0.00017552520988466363
sV17646220
p1769
F0.0
sVcase
p1770
F0.0007773735895986536
sV697901
p1771
F0.0
sVparcel
p1772
F0.0
sVfar
p1773
F0.00034955403123940805
sVhorror
p1774
F0.0002862692873027728
sVfaq
p1775
F0.0
sVmph
p1776
F0.0
sVpsychologist
p1777
F0.0
sVmirapex
p1778
F0.0
sVworst
p1779
F0.00017552520988466363
sVsublingually
p1780
F0.0
sVdecide
p1781
F0.0007021008395386545
sVfall
p1782
F0.00017552520988466363
sVsourly
p1783
F0.0
sVdifference
p1784
F0.00026328781482699544
sVmppe
p1785
F0.0
sVfald
p1786
F0.0
sVmotor
p1787
F0.0001431346436513864
sVpotentiation
p1788
F0.0
sVunlike
p1789
F0.0003322322322543275
sVlist
p1790
F0.0003322322322543275
sVapplicable
p1791
F0.0
sVlarge
p1792
F0.0
sVadjust
p1793
F0.0008588078619083184
sVsedation
p1794
F0.0
sVsmall
p1795
F5.8259005206568005e-05
sVbiological
p1796
F0.0
sVpasa
p1797
F0.0
sVmethodical
p1798
F0.0
sVphenibut
p1799
F0.0
sVsynergy
p1800
F0.0
sVpdocs
p1801
F0.0
sVrate
p1802
F0.00035105041976932726
sVfiber
p1803
F0.0
sVdesign
p1804
F8.776260494233181e-05
sVenhancement
p1805
F0.0002862692873027728
sVlawyer
p1806
F0.0001431346436513864
sVwyeth
p1807
F0.0
sVrnene
p1808
F0.0
sVlla
p1809
F0.0
sVribbon
p1810
F0.0
sVmaterial
p1811
F8.776260494233181e-05
sVsun
p1812
F9.71716986998317e-05
sVsection
p1813
F0.00017552520988466363
sVdirt
p1814
F0.00017552520988466363
sVstool
p1815
F0.0001431346436513864
sVcaffeine
p1816
F0.0017176157238166369
sVoverload
p1817
F0.0
sVcrush
p1818
F0.0001431346436513864
sVversion
p1819
F0.00017552520988466363
sVjudicious
p1820
F0.0
sVaby
p1821
F0.0
sVdiscern
p1822
F0.0
sVmethod
p1823
F0.0007156732182569321
sVextention
p1824
F0.0001431346436513864
sVhemsamarit
p1825
F0.0
sVhasn
p1826
F6.478113246655446e-05
sVfull
p1827
F0.0
sVma
p1828
F0.0005725385746055456
sVhungover
p1829
F0.0
sVfuld
p1830
F0.0
sVcomponent
p1831
F0.00026328781482699544
sVsupposedly
p1832
F0.0004294039309541592
sVoveractive
p1833
F0.0
sVtage
p1834
F0.0
sVshouldn
p1835
F0.00011074407741810916
sVselective
p1836
F0.0
sVexcess
p1837
F0.00026328781482699544
sVepitome
p1838
F0.0
sVstrong
p1839
F0.00022148815483621833
sV900
p1840
F0.0
sVahead
p1841
F0.00016611611612716375
sVmdma
p1842
F0.0
sVexperience
p1843
F0.001404201679077309
sVrefinar
p1844
F0.0
sVprior
p1845
F0.0010019425055597048
sVamount
p1846
F0.0006090924257996004
sVheroin
p1847
F0.0001431346436513864
sV9mg
p1848
F0.0
sVsocial
p1849
F0.0001943433973996634
sVclinical_significance
p1850
F0.0
sVschtick
p1851
F0.0
sVtoxicity
p1852
F0.0
sVproducto
p1853
F0.0
sV1521307
p1854
F0.0
sVvia
p1855
F0.0002862692873027728
sVverbose
p1856
F0.0
sVfamily
p1857
F0.00027686019354527294
sVagomelatine
p1858
F0.0
sVvil
p1859
F0.0
sVput
p1860
F0.00018934176692134605
sVglade
p1861
F0.0
sVseroquel
p1862
F0.0
sVvit
p1863
F0.0
sVestablish
p1864
F0.0001431346436513864
sVresearch
p1865
F0.0015744810801652503
sVreadily
p1866
F0.0
sVeye
p1867
F0.0006143382345963228
sVscore
p1868
F5.537203870905458e-05
sVfaint
p1869
F0.0001431346436513864
sVtwo
p1870
F0.0
sVensablado
p1871
F0.0
sV6
p1872
F0.00010195325911149402
sVhomework
p1873
F0.0001431346436513864
sVminor
p1874
F0.00016611611612716375
sV12333
p1875
F0.0
sVtryna
p1876
F0.0001431346436513864
sVneuron
p1877
F0.0
sVinsulin
p1878
F0.0
sVrelevant
p1879
F0.0
sVprecios
p1880
F0.0
sVforuds
p1881
F0.0
sVsite
p1882
F5.537203870905458e-05
sVbasically
p1883
F0.0010019425055597048
sVparticular
p1884
F0.00029151509609949506
sVemsamblarlos
p1885
F0.0
sVhurry
p1886
F3.239056623327723e-05
sVnineteen
p1887
F8.776260494233181e-05
sVkaraoke
p1888
F0.0001431346436513864
sVglad
p1889
F3.239056623327723e-05
sVdex
p1890
F0.0
sVnone
p1891
F0.00016611611612716375
sVinclude
p1892
F0.0016674894939043047
sVhour
p1893
F0.0007752085419267642
sVdep
p1894
F0.0
sVrecall
p1895
F0.0007156732182569321
sVder
p1896
F0.0
sVdet
p1897
F0.0
sVdopac
p1898
F0.0
sVuridine
p1899
F0.0
sVremain
p1900
F0.00026328781482699544
sVsudden
p1901
F0.00011074407741810916
sVnine
p1902
F3.239056623327723e-05
sV14btc
p1903
F0.0
sVden
p1904
F0.0004388130247116591
sVlearn
p1905
F0.0008588078619083184
sVindtil
p1906
F0.0
sVtianeptine
p1907
F0.0
sVmarble
p1908
F0.0
sVhistory
p1909
F0.00011074407741810916
sVcompare
p1910
F0.0005265756296539909
sVshare
p1911
F3.239056623327723e-05
sVashwaghanda
p1912
F0.0
sVcollision
p1913
F0.0
sVminimum
p1914
F8.776260494233181e-05
sVsense
p1915
F2.9129502603284002e-05
sVexclude
p1916
F0.0001431346436513864
sVbpap
p1917
F0.0
sVfirmly
p1918
F0.0001431346436513864
sVinformation
p1919
F0.0004388130247116591
sVstim
p1920
F0.0
sVgoal
p1921
F0.0002862692873027728
sVrather
p1922
F0.0003239056623327723
sVfluoxetine
p1923
F0.0
sVundervisningen
p1924
F0.0
sVchorea
p1925
F0.0
sVoccasionally
p1926
F0.00011074407741810916
sVreject
p1927
F0.0001431346436513864
sVfr
p1928
F0.0002862692873027728
sVsemax
p1929
F0.0
sVokay
p1930
F0.00017552520988466363
sVthreat
p1931
F0.0
sVfx
p1932
F0.0
sVadvice
p1933
F0.0001431346436513864
sVreuptake
p1934
F0.0
sVfa
p1935
F0.0
sVmaprotiline
p1936
F0.0
sVunfamiliar
p1937
F0.0002862692873027728
sVnumb
p1938
F0.0
sVparticipant
p1939
F0.0
sVvidenskabeligt
p1940
F0.0
sV10btc
p1941
F0.0
sVresponse
p1942
F0.0015744810801652503
sVrefuse
p1943
F5.537203870905458e-05
sVmisanthropic
p1944
F0.0
sVmorphine
p1945
F0.0001431346436513864
sVselegeline
p1946
F0.0
sV8mg
p1947
F0.0
sVcoat
p1948
F8.776260494233181e-05
sVsupervision
p1949
F0.0
sVbipolarity
p1950
F0.0
sVego
p1951
F0.0
sVfundamental
p1952
F0.0
sVsaphris
p1953
F0.0
sVpleasure
p1954
F0.00022148815483621833
sVequation
p1955
F0.0
sVhelp
p1956
F0.0007282375650821002
sVsertraline
p1957
F0.0
sVslouch
p1958
F0.0
sVsoon
p1959
F2.9129502603284002e-05
sVpaper
p1960
F0.00016611611612716375
sVkristendomsfilologi
p1961
F0.0
sVhell
p1962
F0.0003322322322543275
sVsuffer
p1963
F0.0006143382345963228
sVcardiovascular
p1964
F0.0
sV24
p1965
F5.537203870905458e-05
sV25
p1966
F0.00044297630967243666
sV27
p1967
F5.537203870905458e-05
sV20
p1968
F0.00013108276171477803
sV21
p1969
F5.537203870905458e-05
sV22
p1970
F5.537203870905458e-05
sVpray
p1971
F5.537203870905458e-05
sVlateral
p1972
F0.0
sVselenium
p1973
F0.0
sV29
p1974
F8.776260494233181e-05
sVpct
p1975
F0.0
sVactually
p1976
F0.00018934176692134605
sVlate
p1977
F3.239056623327723e-05
sVresort
p1978
F0.0
sVpharmacotherapy
p1979
F0.0
sVargentino
p1980
F0.0
sVbypass
p1981
F0.0004294039309541592
sVneuroprotective
p1982
F0.0
sVamitriptyline
p1983
F0.0
sVhvor
p1984
F0.0
sVbout
p1985
F0.0001431346436513864
sVmight
p1986
F0.0003641187825410501
sValter
p1987
F0.0
sVally
p1988
F0.0
sVcolleague
p1989
F0.0
sVwouldn
p1990
F9.71716986998317e-05
sVgood
p1991
F0.0
sVyo
p1992
F0.00017552520988466363
sVfood
p1993
F0.00025912452986621786
sVpropose
p1994
F0.0001431346436513864
sVarmodafinil
p1995
F0.0
sVprimary
p1996
F0.00026328781482699544
sVvomit
p1997
F0.0001431346436513864
sVmonolaurin
p1998
F0.0
sVcompound
p1999
F0.0
sVfoot
p2000
F5.537203870905458e-05
sVcopious
p2001
F0.0
sVcomplain
p2002
F8.776260494233181e-05
sVmystery
p2003
F0.0
sVeasily
p2004
F0.0001943433973996634
sValways
p2005
F0.0
sV2x
p2006
F0.0
sVrefresh
p2007
F0.0001431346436513864
sVsomeone
p2008
F0.0
sV2g
p2009
F0.0
sVdisorient
p2010
F0.0
sV22btc
p2011
F0.0
sVincoordination
p2012
F0.0
sVheavy
p2013
F6.478113246655446e-05
sVbreakdown
p2014
F0.0001431346436513864
sVeveryone
p2015
F0.00011074407741810916
sVdetect
p2016
F0.0001431346436513864
sV300mg
p2017
F0.0
sVgeneration
p2018
F0.0
sVenergy
p2019
F0.0018607503674680232
sVhard
p2020
F0.00025912452986621786
sVreduce
p2021
F0.001491964284019641
sVidea
p2022
F8.738850780985201e-05
sVorally
p2023
F0.0
sVclockwork
p2024
F0.0
sVfinish
p2025
F0.00011074407741810916
sVexpect
p2026
F7.282375650821002e-05
sVcarry
p2027
F1.4564751301642001e-05
sVthing
p2028
F0.00017477701561970403
sVtodo
p2029
F0.0
sVinsurance
p2030
F0.0010019425055597048
sVterrify
p2031
F0.0
sVovermodent
p2032
F0.0
sValcohol
p2033
F0.0008776260494233183
sVitem
p2034
F5.537203870905458e-05
sVsince
p2035
F0.00032042452863612406
sVtemporary
p2036
F0.0004294039309541592
sVdesvenlafaxine
p2037
F0.0
sVadhere
p2038
F0.0
sVsi
p2039
F0.0
sVhealth
p2040
F0.0007156732182569321
sV7
p2041
F0.0001943433973996634
sVdysfunction
p2042
F0.0
sVissue
p2043
F0.0007198365032177096
sVass
p2044
F8.776260494233181e-05
sVbald
p2045
F0.0001431346436513864
sVbelief
p2046
F0.0
sVcircumstance
p2047
F0.0002862692873027728
sVhydroxyzine
p2048
F0.0
sVmoclobemide
p2049
F0.0
sVribose
p2050
F0.0
sVforgive
p2051
F8.776260494233181e-05
sVissue_with_generic_bioequivalence
p2052
F0.0
sVdifficulty
p2053
F0.0002862692873027728
sVreason
p2054
F0.0003886867947993268
sVbase
p2055
F0.00022673396363294063
sValzheimer
p2056
F0.0
sVimagine
p2057
F5.537203870905458e-05
sVask
p2058
F0.00011651801041313601
sVtudet
p2059
F0.0
sVash
p2060
F0.0
sVgenerate
p2061
F0.0007156732182569321
sVbring
p2062
F1.4564751301642001e-05
sVthread
p2063
F0.0001431346436513864
sVinterpretation
p2064
F0.0001431346436513864
sVterrible
p2065
F0.00011074407741810916
sVw
p2066
F0.00027686019354527294
sVanecdote
p2067
F0.0
sVassign
p2068
F0.0
sVbupropion
p2069
F0.0
sVmajor
p2070
F0.00025912452986621786
sVprobability
p2071
F0.0
sVpurport
p2072
F0.0
sVfeel
p2073
F0.0005243310468591121
sVrelate
p2074
F0.0
sVnumber
p2075
F0.0003322322322543275
sVfancy
p2076
F0.0001431346436513864
sVeuphoric
p2077
F0.0
sV40mg
p2078
F0.0
sVfiction
p2079
F0.0001431346436513864
sVmiss
p2080
F5.8259005206568005e-05
sVpropranolol
p2081
F0.0
sVunexplained
p2082
F0.0001431346436513864
sVnoma
p2083
F0.0
sVkom
p2084
F0.0
sVprovagil
p2085
F0.0
sVscript
p2086
F0.0002862692873027728
sVintroduction
p2087
F0.0001431346436513864
sVtwenty
p2088
F0.00011074407741810916
sVinteract
p2089
F0.0005725385746055456
sVleast
p2090
F0.0
sVfosterfamiljen
p2091
F0.0
sVcontra
p2092
F0.0
sVregulation
p2093
F0.0
sVracemic
p2094
F0.0
sV189
p2095
F0.0
sVstore
p2096
F0.00017552520988466363
sVheadache
p2097
F0.002147019654770796
sVscare
p2098
F0.0002862692873027728
sVimperfect
p2099
F0.0
sVoption
p2100
F0.0011450771492110912
sVrelationship
p2101
F5.537203870905458e-05
sVbehind
p2102
F1.4564751301642001e-05
sVpramipexole
p2103
F0.0
sVneedle
p2104
F8.776260494233181e-05
sVpark
p2105
F0.0001431346436513864
sVdiscover
p2106
F8.776260494233181e-05
sVserotonin
p2107
F0.0
sVpart
p2108
F0.00012956226493310893
sVdrunkenness
p2109
F0.0
sVconsult
p2110
F0.0
sVbelieve
p2111
F0.0001943433973996634
sVpersian
p2112
F0.0
sValbeit
p2113
F0.0
sVkind
p2114
F0.0
sVb
p2115
F0.0011660603843979803
sVyum
p2116
F0.0
sVglutamate
p2117
F0.0
sVdouble
p2118
F8.776260494233181e-05
sVinstruction
p2119
F0.0002862692873027728
sVgrey
p2120
F8.776260494233181e-05
sVmedicate
p2121
F0.0
sVcysteine
p2122
F0.0
sVaap
p2123
F0.0
sVsedate
p2124
F0.00026328781482699544
sVteacrine
p2125
F0.0
sVfasoracetam
p2126
F0.0
sVrisky
p2127
F0.0002862692873027728
sVladasten
p2128
F0.0
sVtofranil
p2129
F0.0
sVmotivation
p2130
F0.0
sVpcp
p2131
F0.0
sVexert
p2132
F0.0
sVhoneymoon
p2133
F0.0001431346436513864
sV30am
p2134
F0.0
sValongside
p2135
F8.776260494233181e-05
sVstefan_l
p2136
F0.0
sVbiggest
p2137
F0.00017552520988466363
sVseleginline
p2138
F0.0
sVgten
p2139
F0.0
sVpharmacokinetics
p2140
F0.0
sVconcentration
p2141
F0.0005265756296539909
sVderfor
p2142
F0.0
sVkarl
p2143
F0.0
sVsell
p2144
F3.239056623327723e-05
sVmountain
p2145
F0.0
sVgeneric
p2146
F0.0017176157238166369
sVmonophosphate
p2147
F0.0
sVpara
p2148
F0.0
sVzero
p2149
F0.00026328781482699544
sV21635908
p2150
F0.0
sVself
p2151
F0.00010195325911149402
sVkristne
p2152
F0.0
sVaccumulative
p2153
F0.0
sVthreonate
p2154
F0.0
sVfind
p2155
F0.0
sVuseless
p2156
F0.0002862692873027728
sVselv
p2157
F0.0
sVcarbidopa
p2158
F0.0
sVplay
p2159
F0.00027686019354527294
sVtowards
p2160
F5.8259005206568005e-05
sVbottle
p2161
F5.537203870905458e-05
sVquote
p2162
F8.776260494233181e-05
sVreach
p2163
F0.00027686019354527294
sVkan
p2164
F0.0
sVallergy
p2165
F0.0001431346436513864
sVcigarette
p2166
F0.0006143382345963228
sV75
p2167
F0.0002862692873027728
sVplan
p2168
F0.0003322322322543275
sVsignificant
p2169
F0.0008588078619083184
sV70
p2170
F5.537203870905458e-05
sVnothing
p2171
F0.00017477701561970403
sValpha
p2172
F0.0002862692873027728
sVextremely
p2173
F0.0006143382345963228
sVsamtidigt
p2174
F0.0
sVbasal
p2175
F0.0
sVreward
p2176
F0.00017552520988466363
sVkg
p2177
F0.0001431346436513864
sVmobile
p2178
F0.0002862692873027728
sVclear
p2179
F4.369425390492601e-05
sVsometimes
p2180
F0.0001943433973996634
sVcover
p2181
F0.0001943433973996634
sVsalt
p2182
F0.0001431346436513864
sVtraditional
p2183
F0.00017552520988466363
sVoverdrive
p2184
F0.0
sVclean
p2185
F1.4564751301642001e-05
sVweigh
p2186
F0.0004388130247116591
sVgaba
p2187
F0.0
sVscience
p2188
F8.776260494233181e-05
sVguzzle
p2189
F0.0
sVparticularly
p2190
F0.00035105041976932726
sVsomewhat
p2191
F0.0007156732182569321
sVrestore
p2192
F0.0001431346436513864
sVtenes
p2193
F0.0
sVmuira
p2194
F0.0
sVcdn
p2195
F0.0
sVcdp
p2196
F0.0
sVcarefully
p2197
F0.0004294039309541592
sVse
p2198
F0.0004388130247116591
sVchock
p2199
F0.0
sVfine
p2200
F0.0
sVpostsynaptic
p2201
F0.0
sVimpact
p2202
F0.0
sVcardioprotective
p2203
F0.0
sVrocket
p2204
F0.0
sValprazolam
p2205
F0.0
sVjustice
p2206
F0.0001431346436513864
sVvalgt
p2207
F0.0
sVruin
p2208
F0.0001431346436513864
sVdestabilize
p2209
F0.0
sVenzyme
p2210
F0.0
sVindian
p2211
F0.0
sVgelatinize
p2212
F0.0
sVfactor
p2213
F0.0010019425055597048
sV8
p2214
F0.00016021226431806203
sVp53
p2215
F0.0
sVaccurate
p2216
F0.0001431346436513864
sVporque
p2217
F0.0
sVhit
p2218
F9.71716986998317e-05
sVdependent
p2219
F0.0005725385746055456
sVbluelight
p2220
F0.0
sVgrocery
p2221
F0.0001431346436513864
sVcheaper
p2222
F0.00017552520988466363
sVcapsule
p2223
F0.0001431346436513864
sVanxiety
p2224
F0.007586136113523479
sVrest
p2225
F1.4564751301642001e-05
sVreply
p2226
F8.776260494233181e-05
sVpdf
p2227
F0.0004294039309541592
sVresolve
p2228
F5.537203870905458e-05
sVblocker
p2229
F0.0001431346436513864
sVbadge
p2230
F0.0
sVcry
p2231
F0.00017552520988466363
sVremove
p2232
F0.00011074407741810916
sVgastrointestinal
p2233
F0.0
sVhypo
p2234
F0.0
sVcommon
p2235
F0.0003322322322543275
sVwithdrawal
p2236
F0.0
sVsustainable
p2237
F0.0
sVx
p2238
F0.0007156732182569321
sVdizziness
p2239
F0.0010019425055597048
sVhinder
p2240
F0.0
sVrelentless
p2241
F0.0
sVderhjemme
p2242
F0.0
sVinsane
p2243
F0.0001431346436513864
sVpakkede
p2244
F0.0
sVset
p2245
F7.282375650821002e-05
sVdump
p2246
F0.00017552520988466363
sVfinansieret
p2247
F0.0
sVoverwhelm
p2248
F0.0
sVintelligence
p2249
F0.0
sVpotent
p2250
F0.0
sVsex
p2251
F0.00017552520988466363
sVskulle
p2252
F0.0
sVsee
p2253
F0.0003786835338426921
sVindividual
p2254
F0.0003876042709633821
sVbare
p2255
F8.776260494233181e-05
sVthistle
p2256
F0.0
sVcleverly
p2257
F0.0
sVsen
p2258
F0.0
sVged
p2259
F0.0
sVarm
p2260
F5.537203870905458e-05
sVanalog
p2261
F0.0
sVbarn
p2262
F0.0004294039309541592
sVspeed
p2263
F1.4564751301642001e-05
sVwow
p2264
F0.0004294039309541592
sVcurrently
p2265
F0.0004983483483814912
sVplease
p2266
F0.00010195325911149402
sVcrossword
p2267
F0.0
sVvarious
p2268
F0.00011074407741810916
sVmodulators
p2269
F0.0
sVrytary
p2270
F0.0
sVnumerous
p2271
F8.776260494233181e-05
sVacutely
p2272
F0.0
sVavailable
p2273
F0.0005537203870905459
sVblow
p2274
F6.478113246655446e-05
sVrhodiola
p2275
F0.0
sVrecently
p2276
F0.0001943433973996634
sVstatistically
p2277
F0.0
sVnemlig
p2278
F0.0
sVcreatine
p2279
F0.0
sVattention
p2280
F9.71716986998317e-05
sVdermatillomania
p2281
F0.0
sVpams
p2282
F0.0
sVrapid
p2283
F0.0010019425055597048
sVsneakier
p2284
F0.0
sVinertia
p2285
F0.0
sVc
p2286
F4.369425390492601e-05
sVtoward
p2287
F0.00026328781482699544
sVprescription
p2288
F0.0
sVreverse
p2289
F5.537203870905458e-05
sVredefine
p2290
F0.0
sVbarely
p2291
F0.00017552520988466363
sVevent
p2292
F0.00022148815483621833
sVpiracetam
p2293
F0.0
sVconnection
p2294
F8.776260494233181e-05
sVbuzz
p2295
F8.776260494233181e-05
sVpiribedil
p2296
F0.0
sVmean
p2297
F0.00029151509609949506
sVwhole
p2298
F0.00011074407741810916
sVhistamine
p2299
F0.0
sVexperimental
p2300
F0.0
sVload
p2301
F0.00016611611612716375
sVconsume
p2302
F8.776260494233181e-05
sVsamme
p2303
F0.0
sVpoint
p2304
F0.00013108276171477803
sVsimple
p2305
F4.369425390492601e-05
sVothers
p2306
F0.0003886867947993268
sVwhatever
p2307
F6.478113246655446e-05
sV100mg
p2308
F0.0
sVpm
p2309
F0.0
sVmstn
p2310
F0.0
sVb6fven
p2311
F0.0
sVsimply
p2312
F5.537203870905458e-05
sVveggie
p2313
F0.0
sVunsuccessful
p2314
F0.0001431346436513864
sVthroughout
p2315
F5.537203870905458e-05
sVmission
p2316
F0.0
sVexpensive
p2317
F0.0003322322322543275
sV30mg
p2318
F0.0
sVcomplication
p2319
F0.0
sVraise
p2320
F0.00027686019354527294
sVjackoffknifefighter
p2321
F0.0
sVnader
p2322
F0.0
sVcreate
p2323
F0.00026328781482699544
sVoverlook
p2324
F0.0
sVdue
p2325
F0.0013164390741349774
sVnachr
p2326
F0.0
sVnother
p2327
F0.0
sVmaintenance
p2328
F0.0
sVdonde
p2329
F0.0
sVhtr2a
p2330
F0.0
sVkommun
p2331
F0.0
sVempty
p2332
F4.369425390492601e-05
sV4
p2333
F0.00020390651822298805
sVved
p2334
F0.0
sValto
p2335
F0.0
sVheller
p2336
F0.0
sVpartly
p2337
F8.776260494233181e-05
sVj04kim
p2338
F0.0
sVvinegar
p2339
F8.776260494233181e-05
sVfire
p2340
F6.478113246655446e-05
sVwet
p2341
F8.776260494233181e-05
sVconvert
p2342
F0.0001431346436513864
sVelse
p2343
F0.00018934176692134605
sVdetermination
p2344
F0.0
sVliver
p2345
F0.0006143382345963228
sVdemand
p2346
F5.537203870905458e-05
sVsuicide
p2347
F0.0001431346436513864
sV528
p2348
F0.0
sVlamotrigine
p2349
F0.0
sVlook
p2350
F0.00042237778774761804
sVsolid
p2351
F0.00026328781482699544
sVstraight
p2352
F1.4564751301642001e-05
sVtolerate
p2353
F0.0
sVeuthymia
p2354
F0.0
sVcoq10
p2355
F0.0
sVsesame
p2356
F0.0001431346436513864
sVprecursor
p2357
F0.0
sVcyp2c19
p2358
F0.0
sVmatch
p2359
F5.537203870905458e-05
sVrigour
p2360
F0.0
sVerror
p2361
F0.0002862692873027728
sVfun
p2362
F3.239056623327723e-05
sVfleet
p2363
F0.0001431346436513864
sVpack
p2364
F6.478113246655446e-05
sVpound
p2365
F0.00026328781482699544
sVagitation
p2366
F0.0
sVbot
p2367
F0.0
sVpakistan
p2368
F0.0
sVjpg
p2369
F0.00017552520988466363
sVconfound
p2370
F0.0
sVdestabilization
p2371
F0.0
sVstubbornly
p2372
F0.0
sVeczema
p2373
F0.0
sVrid
p2374
F0.00026328781482699544
sVadulted
p2375
F0.0
sVbdnf
p2376
F0.0
sVunaffected
p2377
F0.0
sVbaseline
p2378
F0.0005725385746055456
sVldrene
p2379
F0.0
sVgrant
p2380
F0.0
sVmigraine
p2381
F0.0
sVwhiny
p2382
F0.0
sVtextile
p2383
F0.0
sVbenign
p2384
F0.0001431346436513864
sV9
p2385
F0.00022673396363294063
sVadvise
p2386
F0.0
sVrelatively
p2387
F0.0004294039309541592
sVyucca
p2388
F0.0
sV05
p2389
F0.00017552520988466363
sVhigher
p2390
F0.000421077361032604
sVdevelopment
p2391
F8.776260494233181e-05
sVliterature
p2392
F0.0001431346436513864
sVslyr
p2393
F0.0
sVfatty
p2394
F0.0001431346436513864
sVlie
p2395
F0.00011074407741810916
sVcomprehensive
p2396
F0.0
sVdepersonalization
p2397
F0.0
sVyesterday
p2398
F0.0004294039309541592
sVprincipally
p2399
F0.0
sVmoment
p2400
F7.282375650821002e-05
sVpower
p2401
F6.478113246655446e-05
sVuser
p2402
F0.00017552520988466363
sVbromo
p2403
F0.0
sVrobust
p2404
F8.776260494233181e-05
sVnoticeably
p2405
F0.0
sVrecent
p2406
F0.00017552520988466363
sVhows
p2407
F0.0
sVlower
p2408
F0.00035629622856604953
sVtask
p2409
F5.537203870905458e-05
sVolder
p2410
F6.478113246655446e-05
sVmemantine
p2411
F0.0
sVanalysis
p2412
F0.0001431346436513864
sVrdh
p2413
F0.0
sVperson
p2414
F0.00016195283116638616
sVedge
p2415
F3.239056623327723e-05
sVy
p2416
F0.0001943433973996634
sVentry
p2417
F0.00026328781482699544
sVclearance
p2418
F0.0
sVspend
p2419
F5.537203870905458e-05
sVgrossly
p2420
F0.0
sVcyp2a6
p2421
F0.0
sVchore
p2422
F0.0
sVchord
p2423
F0.0001431346436513864
sVburden
p2424
F0.0
sVslc6a4
p2425
F0.0
sVinactive
p2426
F0.0001431346436513864
sVworld
p2427
F6.478113246655446e-05
sVad
p2428
F0.0012286764691926456
sVregardless
p2429
F0.0002862692873027728
sValternative
p2430
F0.0007021008395386545
sVbliver
p2431
F0.0
sVcut
p2432
F4.369425390492601e-05
sVtablet
p2433
F0.0020038850111194096
sVk2
p2434
F0.0
sVlongecity
p2435
F0.0
sVindoktrineret
p2436
F0.0
sVhoras
p2437
F0.0
sVeager
p2438
F0.0
sVbenzedrine
p2439
F0.0
sVplateau
p2440
F0.0
sVaps
p2441
F0.0
sVwoiuldn
p2442
F0.0
sVe_for_ecstasy
p2443
F0.0
sVfinder
p2444
F0.0001431346436513864
sVbuild
p2445
F6.478113246655446e-05
sVvendor
p2446
F8.776260494233181e-05
sVemergency
p2447
F0.0004294039309541592
sVbroscience
p2448
F0.0
sVevaluate
p2449
F0.0
sVcouple
p2450
F0.00029151509609949506
sVadvocate
p2451
F0.0
sVadrafinil
p2452
F0.0
sVjudgement
p2453
F0.0001431346436513864
sVshitty
p2454
F0.0001431346436513864
sVexpecially
p2455
F0.0
sVdamage
p2456
F0.00026328781482699544
sVeffexor
p2457
F0.0
sVhelpful
p2458
F0.0008588078619083184
sVstimulators
p2459
F0.0
sVd
p2460
F0.0
sVstimulatory
p2461
F0.0
sVseemingly
p2462
F0.0001431346436513864
sVinos
p2463
F0.0
sVmanifest
p2464
F0.0001431346436513864
sVcollect
p2465
F0.0
sVzoloft
p2466
F0.0
sVcontinue
p2467
F9.71716986998317e-05
sVunstable
p2468
F0.0002862692873027728
sVbyproduct
p2469
F0.0
sVpopular
p2470
F0.0002862692873027728
sVprrvious
p2471
F0.0
sVdisorder
p2472
F0.0011450771492110912
sVessential
p2473
F0.0
sVmcts
p2474
F0.0
sVmathematical
p2475
F0.0
sVgoogle
p2476
F0.00026328781482699544
sVoften
p2477
F0.00022148815483621833
sVabsolutely
p2478
F0.00012956226493310893
sVspring
p2479
F5.537203870905458e-05
sVnmethyl_npropynyl2phenylethylamine_mppe_a
p2480
F0.0
sVback
p2481
F0.00021847126952463005
sVphone
p2482
F8.776260494233181e-05
sVautophagy
p2483
F0.0
sVpaxil
p2484
F0.0
sVstrongest
p2485
F0.0001431346436513864
sVcatalyze
p2486
F0.0
sVcurious
p2487
F9.71716986998317e-05
sVoddly
p2488
F8.776260494233181e-05
sVeasygoing
p2489
F0.0001431346436513864
sVgradually
p2490
F0.0
sVscale
p2491
F0.00017552520988466363
sVpet
p2492
F0.0001431346436513864
sVdecision
p2493
F5.537203870905458e-05
sVintegration
p2494
F0.0001431346436513864
sVper
p2495
F0.0008776260494233183
sVcrisis
p2496
F0.0
sVenergic
p2497
F0.0
sVbehave
p2498
F8.776260494233181e-05
sVeliminate
p2499
F0.0
sV12mg
p2500
F0.0
sVprod
p2501
F0.0
sVpea
p2502
F0.0015744810801652503
sVminimal
p2503
F0.0
sVbuspar
p2504
F0.0
sVcgi
p2505
F0.0001431346436513864
sVpatient
p2506
F0.0007156732182569321
sVnu
p2507
F0.0001431346436513864
sVzombie
p2508
F0.0001431346436513864
sVstep
p2509
F3.239056623327723e-05
sVtinker
p2510
F0.0
sVordning
p2511
F0.0
sVnowhere
p2512
F0.0001431346436513864
sVbuccal
p2513
F0.0
sVviibryd
p2514
F0.0
sVintense
p2515
F0.00035105041976932726
sV3t39ar
p2516
F0.0
sVdiscus
p2517
F0.0
sVreact
p2518
F8.776260494233181e-05
sVpipeline
p2519
F0.0
sVpassionate
p2520
F5.537203870905458e-05
sVanything
p2521
F0.00021847126952463005
sVaccustom
p2522
F0.0
sVglaucoma
p2523
F0.0
sVrange
p2524
F9.71716986998317e-05
sVlinezolid
p2525
F0.0
sVchi
p2526
F0.0
sVmodaf
p2527
F0.0
sVndet
p2528
F0.0
sVsilence
p2529
F0.00011074407741810916
sVinte
p2530
F0.0
sVnsi
p2531
F0.0
sVmaca
p2532
F0.0
sVswastika
p2533
F0.0
sVdude
p2534
F0.0001431346436513864
sVnortriptyline
p2535
F0.0
sVwithin
p2536
F6.478113246655446e-05
sVnonsense
p2537
F0.0
sVappropriate
p2538
F0.0002862692873027728
sVmitochondrial
p2539
F0.0
sVprimarily
p2540
F0.0
sVfrance
p2541
F0.0
sVmethylene
p2542
F0.0
sVspan
p2543
F0.0001431346436513864
sVklynke
p2544
F0.0
sVaspudden
p2545
F0.0
sVunorthodox
p2546
F0.0
sVquestion
p2547
F0.00025912452986621786
sVprovigil
p2548
F0.0
sVtransdermally
p2549
F0.0
sVforward
p2550
F0.0
sV100323
p2551
F0.0
sVmanufacture
p2552
F0.0
sVenantiomer
p2553
F0.0
sVpsychoactive
p2554
F0.0
sVgithub
p2555
F0.0
sVginkgo
p2556
F0.0
sVsubjectively
p2557
F0.0
sVlink
p2558
F0.00026328781482699544
sVrepeatedly
p2559
F8.776260494233181e-05
sVnewer
p2560
F0.0004294039309541592
sVinjection
p2561
F0.0
sVphenylalanine
p2562
F0.0
sVconsiderable
p2563
F8.776260494233181e-05
sVinfo
p2564
F0.0011450771492110912
sVinverse
p2565
F0.0001431346436513864
sVdicearx
p2566
F0.0
sVrejection
p2567
F0.0
sVconsist
p2568
F0.0
sVnoradrenaline
p2569
F0.0
sVup
p2570
F0.0
sVlifespan
p2571
F0.0
sVpar
p2572
F0.0001431346436513864
sVun
p2573
F9.71716986998317e-05
sVuh
p2574
F0.00011074407741810916
sVprolintane
p2575
F0.0
sVischemic
p2576
F0.0
sVsimilar
p2577
F0.00025912452986621786
sVparoxetine
p2578
F0.0
sVtricyclic
p2579
F0.0
sVconstant
p2580
F8.776260494233181e-05
sVhinanden
p2581
F0.0
sVanhedonia
p2582
F0.0
sVnuvigil
p2583
F0.0
sVunsafe
p2584
F0.0001431346436513864
sVtogether
p2585
F0.0
sVdoesn
p2586
F0.00018934176692134605
sVmagazine
p2587
F0.0001431346436513864
sVsingle
p2588
F5.8259005206568005e-05
sVcure
p2589
F0.0002862692873027728
sVpsychopath
p2590
F0.0
sVsurmise
p2591
F0.0
sVtyskland
p2592
F0.0
sVeller
p2593
F0.0
sVnah
p2594
F0.0001431346436513864
sVdigress
p2595
F0.0
sVoccasional
p2596
F0.0
sVmydriasis
p2597
F0.0
sVemoxypine
p2598
F0.0
sVb12
p2599
F0.0
sVellen
p2600
F0.0
sVreabsorb
p2601
F0.0
sVdepartment
p2602
F0.0002862692873027728
sVnice
p2603
F0.0
sVdraw
p2604
F2.9129502603284002e-05
sVprecipitate
p2605
F0.0
sVativan
p2606
F0.0
sVsmitter
p2607
F0.0
sVamphetamine
p2608
F0.0
sVe
p2609
F0.00011651801041313601
sVffat
p2610
F0.0
sVmetabolize
p2611
F0.0
sVsedative
p2612
F0.0
sVimpatient
p2613
F0.0001431346436513864
sV2003
p2614
F8.776260494233181e-05
sVbeverage
p2615
F0.0001431346436513864
sV2007
p2616
F0.0
sVenzymated
p2617
F0.0
sVliterally
p2618
F0.00017552520988466363
sVfresh
p2619
F5.537203870905458e-05
sVscroll
p2620
F0.0001431346436513864
sVcode
p2621
F8.776260494233181e-05
sVevidence
p2622
F0.0004388130247116591
sVwrangle
p2623
F0.0
sVhepatitis
p2624
F0.0001431346436513864
sVedu
p2625
F0.0002862692873027728
sVgo
p2626
F0.0
sVpsycho
p2627
F0.0001431346436513864
sVadjustment
p2628
F0.0
sVstrew
p2629
F0.0
sVdanmark
p2630
F0.0
sVgi
p2631
F0.0
sVcompose
p2632
F0.0001431346436513864
sVprodrug
p2633
F0.0
sVanergic
p2634
F0.0
sVyoung
p2635
F1.4564751301642001e-05
sVsend
p2636
F0.00012956226493310893
sVoutside
p2637
F4.369425390492601e-05
sVmethmeds
p2638
F0.0
sVstable
p2639
F0.0001431346436513864
sVmonoamine
p2640
F0.0
sVfatal
p2641
F0.00026328781482699544
sVinflammation
p2642
F0.0
sVannoy
p2643
F0.0001431346436513864
sVconfirmation
p2644
F0.0001431346436513864
sVmainstream
p2645
F0.0001431346436513864
sVtorture
p2646
F0.0001431346436513864
sVsusceptible
p2647
F0.0
sVcostos
p2648
F0.0
sVwe00523152
p2649
F0.0
sValcar
p2650
F0.0
sVreverberate
p2651
F0.0
sVartery
p2652
F0.0
sVenfp
p2653
F0.0
sVwipe
p2654
F8.776260494233181e-05
sVnausea
p2655
F0.0
sVentire
p2656
F0.00016611611612716375
sVfastfood
p2657
F0.0
sVmoderate
p2658
F0.0015744810801652503
sVantihistaminergic
p2659
F0.0
sVforpligtelser
p2660
F0.0
sVtrd
p2661
F0.0
sVfewer
p2662
F0.0002862692873027728
sVtry
p2663
F0.0007573670676853842
sVrace
p2664
F0.0002862692873027728
sVprep
p2665
F0.0
sVinhibtion
p2666
F0.0
sVslow
p2667
F0.00012956226493310893
sVsmaller
p2668
F5.537203870905458e-05
sVmalice
p2669
F0.0
sVjump
p2670
F0.00011074407741810916
sVlogistica
p2671
F0.0
sVdesoxyn
p2672
F0.0
sVvideo
p2673
F8.776260494233181e-05
sVuncomfortable
p2674
F0.0004294039309541592
sVacid
p2675
F0.0010531512593079818
sVodd
p2676
F0.00012956226493310893
sVlibido
p2677
F0.0
sV10bpm
p2678
F0.0
sVselegilene
p2679
F0.0
sVrandomize
p2680
F0.0
sVsqueeze
p2681
F0.0001431346436513864
sVschedule
p2682
F0.0005725385746055456
sVfat
p2683
F0.00017552520988466363
sVskr
p2684
F0.0
sVexacerbate
p2685
F0.0
sVglycinate
p2686
F0.0
sVunhelpful
p2687
F8.776260494233181e-05
sVconsistently
p2688
F0.0001431346436513864
sVmitochondrion
p2689
F0.0
sVexperiment
p2690
F0.00035105041976932726
sVhuperzine
p2691
F0.0
sVpristine
p2692
F0.0
sVgamle
p2693
F0.0
sVoriginalpostsearcher
p2694
F0.0
sVbody
p2695
F0.00018934176692134605
sVrdagen
p2696
F0.0
sVdegree
p2697
F0.00017552520988466363
sVleg
p2698
F0.00011074407741810916
sVescitralopram
p2699
F0.0
sVprescribe
p2700
F0.0024332889420735685
sVnonexistent
p2701
F0.0001431346436513864
sVforney
p2702
F0.0
sVhighly
p2703
F0.0007021008395386545
sVexplore
p2704
F0.0002862692873027728
sVaggravate
p2705
F0.0
sVlet
p2706
F5.8259005206568005e-05
sVsink
p2707
F0.00016611611612716375
sVunremitting
p2708
F0.0
sVoxidative
p2709
F0.0002862692873027728
sVsing
p2710
F8.776260494233181e-05
sVsafer
p2711
F0.0
sVfifteen
p2712
F0.0001431346436513864
sVimplicit
p2713
F0.0
sVsina
p2714
F0.0
sVrdt
p2715
F0.0
sVgreat
p2716
F0.0
sVengage
p2717
F0.0
sVoleptro
p2718
F0.0
sVbitterness
p2719
F0.0001431346436513864
sVreceive
p2720
F0.0001431346436513864
sV31
p2721
F8.776260494233181e-05
sV30
p2722
F0.0003239056623327723
sVextreme
p2723
F0.00016611611612716375
sVparanoid
p2724
F0.0001431346436513864
sVdextrotatory
p2725
F0.0
sVnervous
p2726
F8.776260494233181e-05
sVexistent
p2727
F0.0002862692873027728
sVopinion
p2728
F0.0004294039309541592
sVdepressant
p2729
F0.0
sVpmc
p2730
F0.0
sVmaker
p2731
F0.0
sVapple
p2732
F3.239056623327723e-05
sVdanger
p2733
F9.71716986998317e-05
sVwin
p2734
F0.0004983483483814912
sVmanage
p2735
F0.00027686019354527294
sVimpulsivity
p2736
F0.0
sVprivate
p2737
F5.537203870905458e-05
sVmicrodosing
p2738
F0.0
sVashitaba
p2739
F0.0
sVdecrease
p2740
F0.0011450771492110912
sVmening
p2741
F0.0
sVapply
p2742
F0.00017552520988466363
sVuse
p2743
F0.0012816981145444962
sVmethamp
p2744
F0.0
sVcrap
p2745
F8.776260494233181e-05
sVconsumption
p2746
F0.0002862692873027728
sVbreakup
p2747
F0.0
sVnext
p2748
F8.738850780985201e-05
sVhypersomnia
p2749
F0.0
sVdoubt
p2750
F9.71716986998317e-05
sVhjemsamtalen
p2751
F0.0
sVkunde
p2752
F0.0
sVcram
p2753
F0.0
sVsort
p2754
F5.8259005206568005e-05
sVpfc
p2755
F0.0
sVclever
p2756
F5.537203870905458e-05
sVheinonen
p2757
F0.0
sVcomparison
p2758
F8.776260494233181e-05
sVinitial
p2759
F0.00016611611612716375
sVremission
p2760
F0.0
sVpharmacologist
p2761
F0.0
sVinfection
p2762
F0.0001431346436513864
sVbodily
p2763
F0.0002862692873027728
sVtransient
p2764
F0.0
sVprinser
p2765
F0.0
sVvuelta
p2766
F0.0
sV4am
p2767
F0.0
sVadequate
p2768
F0.0
sVfan
p2769
F5.537203870905458e-05
sVtopic
p2770
F8.776260494233181e-05
sVaccount
p2771
F8.776260494233181e-05
sVgeodon
p2772
F0.0
sVf
p2773
F0.00017552520988466363
sVdullness
p2774
F0.0
sVchallenge
p2775
F0.0004294039309541592
sVpackage
p2776
F5.537203870905458e-05
sVstroke
p2777
F0.0001431346436513864
sVcentrophenoxine
p2778
F0.0
sVothe
p2779
F0.0
sVbutterknife
p2780
F0.0
sVanywhere
p2781
F3.239056623327723e-05
sVobvious
p2782
F0.000664464464508655
sVstabilizer
p2783
F0.0
sVfetzima
p2784
F0.0
sVproceso
p2785
F0.0
sVinhibitor
p2786
F0.0
sVdissolve
p2787
F0.0
sVbend
p2788
F8.776260494233181e-05
sVcontrol
p2789
F0.0008776260494233183
sVkenny
p2790
F0.0
sVslip
p2791
F0.0001431346436513864
sVplate
p2792
F0.0001431346436513864
sVprocess
p2793
F0.0005265756296539909
sVaco
p2794
F0.0
sVtax
p2795
F0.0001431346436513864
sVdependence
p2796
F0.0
sVmeeting_abstract
p2797
F0.0
sVeffectively
p2798
F0.0
sVcondescend
p2799
F0.0
sVsomething
p2800
F0.00026216552342955607
sVtab
p2801
F0.0007021008395386545
sVserial
p2802
F0.0
sVvoice
p2803
F8.776260494233181e-05
sVtai
p2804
F0.0
sVgtens
p2805
F0.0
sVsyndrome
p2806
F0.0007021008395386545
sVsit
p2807
F5.537203870905458e-05
sVsix
p2808
F0.00035105041976932726
sVserum
p2809
F0.0
sVpakker
p2810
F0.0
sVneuroprotection
p2811
F0.0
sVsig
p2812
F0.0
sVanimal
p2813
F0.00012956226493310893
sVinstead
p2814
F0.0006090924257996004
sVinstinctively
p2815
F0.0
sVtoddler
p2816
F0.0001431346436513864
sVpanic
p2817
F0.0
sVsin
p2818
F0.0002862692873027728
sVstand
p2819
F6.478113246655446e-05
sVprofile
p2820
F0.0004388130247116591
sVtension
p2821
F0.0
sVklar
p2822
F0.0
sVikke
p2823
F0.0
sVoutlier
p2824
F0.0
sVwatch
p2825
F0.0
sVclostridium
p2826
F0.0
sVbestemt
p2827
F0.0
sVcollection
p2828
F8.776260494233181e-05
sV3
p2829
F0.0006802018908988219
sVfatigue
p2830
F0.0
sVtraumer
p2831
F0.0
sVgammal
p2832
F0.0
sVpsychedelic
p2833
F0.0
sVidebenone
p2834
F0.0
sVlight
p2835
F9.71716986998317e-05
sVpraktiseres
p2836
F0.0
sVkillswitch
p2837
F0.0
sVlauric
p2838
F0.0
sVcourage
p2839
F0.0001431346436513864
sVhonestly
p2840
F0.00035105041976932726
sVoxybutinin
p2841
F0.0
sVallow
p2842
F0.0008588078619083184
sVhealthcare
p2843
F0.0
sVaddiction
p2844
F0.0
sVduloxetine
p2845
F0.0
sVserotonergic
p2846
F0.0
sVunsolved
p2847
F0.0
sVunselective
p2848
F0.0
sVmute
p2849
F0.0001431346436513864
sValtogether
p2850
F8.776260494233181e-05
sVoffentlige
p2851
F0.0
sV800mg
p2852
F0.0
sVuniversiteter
p2853
F0.0
sVanxiolytic
p2854
F0.0
sVuniversitetet
p2855
F0.0
sVhorny
p2856
F0.0001431346436513864
sVperfect
p2857
F0.00017552520988466363
sVchemical
p2858
F0.0005725385746055456
sVld
p2859
F0.0
sVle
p2860
F0.0015744810801652503
sVlb
p2861
F0.0
sVantipsychotic
p2862
F0.0
sVla
p2863
F0.00011651801041313601
sVlo
p2864
F0.0
sVll
p2865
F0.00030585977733448206
sVli
p2866
F0.0007021008395386545
sVmental
p2867
F0.0007156732182569321
sVage
p2868
F9.71716986998317e-05
sVpermanent
p2869
F0.00011074407741810916
sVchoose
p2870
F0.00022148815483621833
sV2015
p2871
F0.0
sV2014
p2872
F0.0
sV17296473
p2873
F0.0
sV2011
p2874
F0.0
sVdad
p2875
F0.00011074407741810916
sVdag
p2876
F0.0
sVcrash
p2877
F0.0003876042709633821
sVfrontal
p2878
F0.00017552520988466363
sVnada
p2879
F0.0001431346436513864
sVpractice
p2880
F0.0
sVmras
p2881
F0.0
sVdat
p2882
F0.00011074407741810916
sVmention
p2883
F0.0006090924257996004
sVfingerprint
p2884
F0.0
sVfront
p2885
F3.239056623327723e-05
sVday
p2886
F0.0
sVsynaptic
p2887
F0.0
sVecstacy
p2888
F0.0
sVedit
p2889
F0.0014313464365138641
sVcider
p2890
F0.0
sVperfectionism
p2891
F0.0
sV13btc
p2892
F0.0
sVunpredictable
p2893
F0.0001431346436513864
sVtrustable
p2894
F0.0
sVganglion
p2895
F0.0
sVfabriksarbetare
p2896
F0.0
sVreceptor
p2897
F0.0
sVstock
p2898
F0.00011074407741810916
sVconvulsant
p2899
F0.0
sVtrichotillomania
p2900
F0.0
sVactivate
p2901
F8.776260494233181e-05
sVbeginner
p2902
F0.0
sVdensity
p2903
F0.00017552520988466363
sVdeficiency
p2904
F0.0
sVmarginally
p2905
F0.0
sVstatic
p2906
F0.0001431346436513864
sVmeasure
p2907
F0.00011074407741810916
sVmeth
p2908
F0.0
sVpatch
p2909
F0.0019307773087313001
sVsexual
p2910
F0.0010019425055597048
sVpartial
p2911
F0.0004294039309541592
sVspecial
p2912
F2.9129502603284002e-05
sVcategory
p2913
F0.00017552520988466363
sVlastly
p2914
F0.0
sVelectronica
p2915
F0.0
sVdefend
p2916
F0.0001431346436513864
sVdevelop
p2917
F0.0004388130247116591
sVradical
p2918
F0.0
sVinvestigate
p2919
F0.00017552520988466363
sVvcu
p2920
F0.0
sV6mg
p2921
F0.0
sVtechnically
p2922
F8.776260494233181e-05
sVobsessive
p2923
F0.0
sVred
p2924
F1.4564751301642001e-05
sVshut
p2925
F3.239056623327723e-05
sVdmaa
p2926
F0.0
sVuppv
p2927
F0.0
sVactivity
p2928
F0.0008588078619083184
sVanyone
p2929
F0.0001943433973996634
sVcompletely
p2930
F0.00025912452986621786
sVect
p2931
F0.0
sVque
p2932
F0.0
sVtempt
p2933
F0.0
sVearly
p2934
F3.239056623327723e-05
sVanyhow
p2935
F0.0
sVimpulsive
p2936
F0.0
sVfundamentalister
p2937
F0.0
sVlog
p2938
F0.0001431346436513864
sVscary
p2939
F0.0004294039309541592
sVinteraction
p2940
F0.0011450771492110912
sVorganic
p2941
F0.0
sVg
p2942
F0.0003322322322543275
sVspill
p2943
F5.537203870905458e-05
sVcould
p2944
F0.0
sVdrugabuse
p2945
F0.0
sVfeasible
p2946
F0.0001431346436513864
sVcounterpart
p2947
F0.0
sVconversation
p2948
F3.239056623327723e-05
sVlength
p2949
F2.9129502603284002e-05
sVtysk
p2950
F0.0
sVyngste
p2951
F0.0
sV40mcg
p2952
F0.0
sVsouth
p2953
F5.537203870905458e-05
sVdexedrine
p2954
F0.0
sVuntested
p2955
F0.0
sVpowerful
p2956
F0.0004294039309541592
sVhypomania
p2957
F0.0
sVethylphenidate
p2958
F0.0
sVhypomanic
p2959
F0.0
sV185
p2960
F0.0
sVquality
p2961
F0.00016611611612716375
sVlong
p2962
F0.0
sVreference
p2963
F0.00026328781482699544
sVlos
p2964
F0.0
sVmilder
p2965
F0.0
sVunknown
p2966
F8.776260494233181e-05
sVsystem
p2967
F6.478113246655446e-05
sVeighth
p2968
F0.0001431346436513864
sVpriority
p2969
F0.0
sVutallige
p2970
F0.0
sVsyster
p2971
F0.0
sVnoradrenergics
p2972
F0.0
sVneurotransmitter
p2973
F0.0
sVperfectly
p2974
F5.537203870905458e-05
sVperipheral
p2975
F0.0
sVflatulence
p2976
F0.0
sVprone
p2977
F0.0
sVlipoic
p2978
F0.0
sVsixteenth
p2979
F0.0
sVstomach
p2980
F8.776260494233181e-05
sVgear
p2981
F0.0
sVbig
p2982
F2.9129502603284002e-05
sVexplanation
p2983
F0.0001431346436513864
sVexactly
p2984
F0.00022673396363294063
sVogs
p2985
F0.0
sVenvironmental
p2986
F0.0
sVterrifyingly
p2987
F0.0
sVsporadically
p2988
F0.0001431346436513864
sVclearnet
p2989
F0.0
sVfuzzy
p2990
F0.0
sVmoriarty
p2991
F0.0
sVhaven
p2992
F0.00022673396363294063
sVblind
p2993
F8.776260494233181e-05
sVbeh
p2994
F0.0
sVbid
p2995
F8.776260494233181e-05
sVcounteract
p2996
F0.0
sVamide
p2997
F0.0
sVarbetade
p2998
F0.0
sVbeg
p2999
F0.0
sVbed
p3000
F0.00026328781482699544
sVclaim
p3001
F5.537203870905458e-05
sVbroad
p3002
F8.776260494233181e-05
sVbind
p3003
F0.0
sVoverindulge
p3004
F0.0
sVtyrosine
p3005
F0.0
sVok
p3006
F5.537203870905458e-05
sVworthless
p3007
F0.0001431346436513864
sVbet
p3008
F9.71716986998317e-05
sVimho
p3009
F0.0
sVdrunk
p3010
F5.537203870905458e-05
sVsemsame
p3011
F0.0
sVfalse
p3012
F0.00011074407741810916
sVbiologiska
p3013
F0.0
sVfirstworldanimeproblemsamirite
p3014
F0.0
sVtonight
p3015
F8.776260494233181e-05
sVgentle
p3016
F5.537203870905458e-05
sVatarax
p3017
F0.0
sVblir
p3018
F0.0
sVunlikely
p3019
F0.0
sVdictate
p3020
F0.0
sVneed
p3021
F0.00046607204165254404
sVinduce
p3022
F0.0
sVdementia
p3023
F0.0
sVapparently
p3024
F0.00016611611612716375
sVclearly
p3025
F0.00011074407741810916
sVcaprylic
p3026
F0.0
sVscrew
p3027
F8.776260494233181e-05
sVafraid
p3028
F9.71716986998317e-05
sVmin
p3029
F0.0002862692873027728
sVnamenda
p3030
F0.0
sVrout
p3031
F0.0
sVable
p3032
F6.478113246655446e-05
sVrerne
p3033
F0.0
sVmechanism
p3034
F0.0
sVadjunct
p3035
F0.0
sVmix
p3036
F0.0013843009677263647
sVarchive
p3037
F0.0001431346436513864
sVelavil
p3038
F0.0
sV1521307_lg
p3039
F0.0
sVpharmacist
p3040
F0.0
sVcoke
p3041
F0.0001431346436513864
sVmileage
p3042
F0.0
sVbeyond
p3043
F1.4564751301642001e-05
sVtobacco
p3044
F8.776260494233181e-05
sVkhan
p3045
F0.0
sVuseful
p3046
F0.0008588078619083184
sVnarcolepsy
p3047
F0.0001431346436513864
sVpreliminary
p3048
F0.0001431346436513864
sVsedan
p3049
F0.0
sVclass
p3050
F0.00035629622856604953
sVpolice
p3051
F8.776260494233181e-05
sVdelivery
p3052
F0.0001431346436513864
sVdeny
p3053
F0.0001431346436513864
sVnobody
p3054
F8.776260494233181e-05
sVatypical
p3055
F0.0017176157238166369
sVstronger
p3056
F0.0002862692873027728
sVdisease
p3057
F0.0007021008395386545
sVface
p3058
F6.478113246655446e-05
sVsnapshot
p3059
F0.0
sVidiosyncratic
p3060
F0.0
sVmonotherapy
p3061
F0.0
sVnormally
p3062
F0.00035105041976932726
sVfact
p3063
F0.00027686019354527294
sVunsettle
p3064
F0.0
sVcontaminant
p3065
F0.0
sVcognitively
p3066
F0.0
sVgranny
p3067
F0.0
sVanyway
p3068
F0.0005537203870905459
sVsublingual
p3069
F0.0
sVvistaril
p3070
F0.0
sVpurely
p3071
F8.776260494233181e-05
sVseaweed
p3072
F0.0001431346436513864
sVneurotoxic
p3073
F0.0
sVunconnected
p3074
F0.0
sVfear
p3075
F5.537203870905458e-05
sVtrivial
p3076
F0.0
sVdecade
p3077
F0.00017552520988466363
sVprincipal
p3078
F0.0
sVone
p3079
F0.0
sVexercise
p3080
F0.0002862692873027728
sVhighest
p3081
F0.0004294039309541592
sVknowledge
p3082
F0.00026328781482699544
sVender
p3083
F0.0
sVrash
p3084
F5.537203870905458e-05
sVegen
p3085
F0.0
sVdarknet_deals_for_the_week_of_october_11_2015
p3086
F0.0
sVbrighter
p3087
F0.0001431346436513864
sV60mg
p3088
F0.0
sVjam
p3089
F3.239056623327723e-05
sVcombo
p3090
F0.0017176157238166369
sVemployee
p3091
F0.0001431346436513864
sVforeg
p3092
F0.0
sVhangover
p3093
F0.0001431346436513864
sVinferior
p3094
F0.0002862692873027728
sVregularly
p3095
F0.0002862692873027728
sVphenylpiracetam
p3096
F0.0
sVrighteousness
p3097
F0.0
sVinsight
p3098
F0.0001431346436513864
sVhandle
p3099
F9.71716986998317e-05
sVklassiske
p3100
F0.0
sVpharmacology
p3101
F0.0
sVlobe
p3102
F0.0
sVmidnight
p3103
F8.776260494233181e-05
sVglutamine
p3104
F0.0
sVoverall
p3105
F0.0005725385746055456
sVarrhythmia
p3106
F0.0
sVdopa
p3107
F0.0
sVact
p3108
F0.00022673396363294063
sV120
p3109
F0.0
sVcommunity
p3110
F0.0
sVprobably
p3111
F0.0006802018908988219
sVtecas
p3112
F0.0
sVantagonist
p3113
F0.0
sVmetabolite
p3114
F0.0
sVmolybdenum
p3115
F0.0
sVcourse
p3116
F0.00022673396363294063
sVh
p3117
F0.0003322322322543275
sVkn
p3118
F0.0
sVganan
p3119
F0.0
sVstuff
p3120
F0.0005537203870905459
sVcr
p3121
F0.0005725385746055456
sVgram
p3122
F0.0
sVcontain
p3123
F0.0008588078619083184
sVcycler
p3124
F0.0
sVgabapentin
p3125
F0.0
sVenhancer
p3126
F0.0
sVeurope
p3127
F0.0
sVexpel
p3128
F0.0
sVpitch
p3129
F0.0001431346436513864
sVreddit
p3130
F0.0
sVimmigrant
p3131
F0.0001431346436513864
sVintensity
p3132
F0.0004294039309541592
sVrelatable
p3133
F0.0
sVdexmethylphenidate
p3134
F0.0
sVpowder
p3135
F0.0006143382345963228
sVndret
p3136
F0.0
sVmoclobomide
p3137
F0.0
sVstack
p3138
F0.0012882117928624775
sVgyp2d6
p3139
F0.0
sVegentlig
p3140
F0.0
sVstill
p3141
F0.0
sVcomputer
p3142
F8.776260494233181e-05
sVarguably
p3143
F0.0
sVhorribly
p3144
F0.0
sVprofessorerne
p3145
F0.0
sVtend
p3146
F0.0014313464365138641
sVgenius
p3147
F0.0001431346436513864
sVstate
p3148
F0.00044297630967243666
sVmethionine
p3149
F0.0
sVtte
p3150
F0.0
sVaction
p3151
F0.00026328781482699544
sVhorrible
p3152
F8.776260494233181e-05
sVebola
p3153
F0.0
sVdmt
p3154
F0.0
sVneither
p3155
F0.00017552520988466363
sVemail
p3156
F0.00035105041976932726
sVcomparable
p3157
F0.0
sVability
p3158
F0.00026328781482699544
sVparadoxically
p3159
F0.0001431346436513864
sVjoy
p3160
F8.776260494233181e-05
sVdeliver
p3161
F0.00017552520988466363
sVhowever
p3162
F0.0015797268889619729
sVjob
p3163
F0.00022148815483621833
sVhypothesis
p3164
F0.0002862692873027728
sVdisconnect
p3165
F0.0001431346436513864
sVprecious
p3166
F8.776260494233181e-05
sVlegit
p3167
F0.0001431346436513864
sVh2o2
p3168
F0.0
sVketo
p3169
F0.0
sVfluorenol
p3170
F0.0
sVcareer
p3171
F0.00017552520988466363
sVsunnersta
p3172
F0.0
sVetc
p3173
F0.00011651801041313601
sVinsidious
p3174
F0.0
sVatleast
p3175
F0.0
sVlavede
p3176
F0.0
sVuncaught
p3177
F0.0001431346436513864
sVswallow
p3178
F0.00035105041976932726
sVplacebo
p3179
F0.0
sVsafely
p3180
F0.0001431346436513864
sVotherwise
p3181
F0.00016611611612716375
sVcomment
p3182
F0.0006143382345963228
sVunclear
p3183
F8.776260494233181e-05
sVco
p3184
F0.00035105041976932726
sVspliff
p3185
F0.0
sValla
p3186
F0.0
sVwalk
p3187
F5.537203870905458e-05
sVcarboline
p3188
F0.0
sVadderral
p3189
F0.0
sVcompany
p3190
F4.369425390492601e-05
sV00pm
p3191
F0.0
sVrespect
p3192
F0.00011074407741810916
sVelectrocardiogram
p3193
F0.0
sVwithdrawl
p3194
F0.0
sVklare
p3195
F0.0
sVquit
p3196
F0.00017552520988466363
sVtread
p3197
F0.0
sVsecond
p3198
F8.738850780985201e-05
sVtransferase
p3199
F0.0
sVaddition
p3200
F0.0018607503674680232
sVdisintegrate
p3201
F0.0
sVcent
p3202
F0.0001431346436513864
sVsnort
p3203
F0.0001431346436513864
sVrestless
p3204
F0.0
sVgenetic
p3205
F0.0
sVgaze
p3206
F0.0
sVslowly
p3207
F0.00011074407741810916
sVtreat
p3208
F0.0017719052386897466
sVssri
p3209
F0.0
sVwaste
p3210
F5.537203870905458e-05
sVmandarlos
p3211
F0.0
sVhelvede
p3212
F0.0
sV1272
p3213
F0.0
sVcontribute
p3214
F0.0001431346436513864
sVgeneral
p3215
F0.0
sVwanna
p3216
F8.776260494233181e-05
sVroute
p3217
F5.537203870905458e-05
sVsufficient
p3218
F0.0
sVreplenishment
p3219
F0.0
sVarginine
p3220
F0.0
sVanorgasmia
p3221
F0.0
sV250mg
p3222
F0.0
sVhmm
p3223
F5.537203870905458e-05
sVcontroller
p3224
F0.0
sVmisguide
p3225
F0.0
sVderivative
p3226
F0.0
sVc3
p3227
F0.0
sVlast
p3228
F0.00033498927993776606
sVdreng
p3229
F0.0
sVpresent
p3230
F4.369425390492601e-05
sVthankfully
p3231
F0.0
sVnovel
p3232
F0.0
sVlaser
p3233
F0.0001431346436513864
sVmega
p3234
F0.0
sVcorset
p3235
F0.0
sVkava
p3236
F0.0
sVtremor
p3237
F0.0
sVharder
p3238
F8.776260494233181e-05
sVvalue
p3239
F0.00012956226493310893
sVspecifically
p3240
F0.0
sVexterno
p3241
F0.0
sVaccesible
p3242
F0.0001431346436513864
sVfault
p3243
F3.239056623327723e-05
sVrename
p3244
F0.0001431346436513864
sVva
p3245
F0.00017552520988466363
sVvb
p3246
F0.0
sVmotif
p3247
F0.0
sVcbt
p3248
F0.0
sValmost
p3249
F0.00021847126952463005
sVvi
p3250
F0.0004294039309541592
sVblood
p3251
F0.0006090924257996004
sVdelusion
p3252
F0.0
sVthus
p3253
F0.00035105041976932726
sVsurprisingly
p3254
F0.0001431346436513864
sVpicamilon
p3255
F0.0
sVvp
p3256
F0.0
sVdespues
p3257
F0.0
sVtransmucosal
p3258
F0.0
sVmaladaptive
p3259
F0.0
sVgpc
p3260
F0.0
sVcylcyclohexylamine
p3261
F0.0
sVparent
p3262
F8.776260494233181e-05
sVwatchful
p3263
F0.0001431346436513864
sVtailandia
p3264
F0.0
sVcoluracetam
p3265
F0.0
sVperhaps
p3266
F0.0008776260494233183
sVadministration
p3267
F0.0005725385746055456
sVcross
p3268
F4.369425390492601e-05
sVunderwhelmed
p3269
F0.0
sVcoronary
p3270
F0.0
sVadverse
p3271
F0.0
sVbuddhism
p3272
F0.0
sVparty
p3273
F0.0004388130247116591
sVdownregulation
p3274
F0.0
sVinfer
p3275
F0.0
sVgrandeur
p3276
F0.0
sVdifficult
p3277
F0.00022148815483621833
sVtighten
p3278
F0.0
sVspell
p3279
F8.776260494233181e-05
sVemotionally
p3280
F0.0001431346436513864
sVcompetir
p3281
F0.0
sVabsorb
p3282
F0.0004294039309541592
sVdrink
p3283
F0.00013108276171477803
sVupon
p3284
F3.239056623327723e-05
sVeffect
p3285
F0.0008593203267968781
sV11btc
p3286
F0.0
sViop
p3287
F0.0
sVsooner
p3288
F0.0001431346436513864
sVpainful
p3289
F0.0
sVbarco
p3290
F0.0
sVfrequently
p3291
F0.0004294039309541592
sVspree
p3292
F0.0
sVphp
p3293
F0.0002862692873027728
sVantagonize
p3294
F0.0
sVkeep
p3295
F0.00029129502603284006
sVlethargy
p3296
F0.0
sVaurorix
p3297
F0.0
sVcenter
p3298
F0.00011074407741810916
sVapprove
p3299
F0.0004294039309541592
sVwell
p3300
F0.0
sVvidenskabelig
p3301
F0.0
sVthought
p3302
F6.478113246655446e-05
sVbiochemistry
p3303
F0.0
sVdrone
p3304
F0.0
sVanxiogenic
p3305
F0.0
sVsupplementation
p3306
F0.0
sVloss
p3307
F0.00026328781482699544
sVusual
p3308
F0.0002862692873027728
sVddes
p3309
F0.0
sVroutinely
p3310
F0.0
sVglycine
p3311
F0.0
sVflesh
p3312
F8.776260494233181e-05
sVproximity
p3313
F0.0
sVdomestic
p3314
F0.0001431346436513864
sVobtain
p3315
F0.0
sVdose
p3316
F0.01273898328497339
sVgeneralize
p3317
F0.0
sVdistant
p3318
F0.00017552520988466363
sVaromatic
p3319
F0.0001431346436513864
sVoverstimulation
p3320
F0.0
sVskill
p3321
F0.0
sVtcas
p3322
F0.0
sVhappiness
p3323
F0.0005725385746055456
sVweb
p3324
F5.537203870905458e-05
sVdisturbance
p3325
F0.0001431346436513864
sV750mg
p3326
F0.0
sVwed
p3327
F0.0
sVabsorption
p3328
F0.0
sVclose
p3329
F0.0003322322322543275
sVsupply
p3330
F0.0001431346436513864
sVjare
p3331
F0.0
sVvyvanse
p3332
F0.0
sVrealize
p3333
F0.0002862692873027728
sVske
p3334
F0.0
sVarrest
p3335
F8.776260494233181e-05
sVadd
p3336
F0.0011628128128901463
sVcombine
p3337
F0.0009653886543656501
sVadc
p3338
F0.0
sVstimulate
p3339
F0.0
sVcrack
p3340
F8.776260494233181e-05
sVusage
p3341
F0.00017552520988466363
sVc12
p3342
F0.0
sVcrossroad
p3343
F0.0
sVwarrant
p3344
F0.0001431346436513864
sVsmart
p3345
F8.776260494233181e-05
sVkirke
p3346
F0.0
sVunaccounted
p3347
F0.0
sVsusceptibility
p3348
F0.0
sVndris
p3349
F0.0
sVutan
p3350
F0.0
sVfyi
p3351
F0.0
sVferritin
p3352
F0.0
sVknow
p3353
F0.0007282375650821002
sVfacial
p3354
F0.0001431346436513864
sVimmediately
p3355
F0.00011074407741810916
sVintersection
p3356
F0.0
sVyeesh
p3357
F0.0
sVmuscle
p3358
F0.0002862692873027728
sVinsert
p3359
F0.0004294039309541592
sVtl
p3360
F0.0
sVnecessary
p3361
F6.478113246655446e-05
sVlike
p3362
F0.0
sVonion
p3363
F0.0008588078619083184
sVcandy
p3364
F0.0001431346436513864
sV230pm
p3365
F0.0
sVdietary
p3366
F0.0
sVchemist
p3367
F0.0
sVlose
p3368
F0.00011651801041313601
sVbecome
p3369
F0.00013108276171477803
sVpage
p3370
F0.00017552520988466363
sVtherapeutic
p3371
F0.0
sVklonopin
p3372
F0.0
sVdrop
p3373
F0.00016611611612716375
sVselgin
p3374
F0.0
sValive
p3375
F6.478113246655446e-05
sV985
p3376
F0.0
sVmotive
p3377
F0.0
sVgrowth
p3378
F0.0004294039309541592
sVocks
p3379
F0.0
sVstory
p3380
F0.00017552520988466363
sVflush
p3381
F0.0001431346436513864
sVproper
p3382
F6.478113246655446e-05
sVhome
p3383
F6.478113246655446e-05
sV250
p3384
F0.0002862692873027728
sVdage
p3385
F0.0
sVsureplastik
p3386
F0.0
sVlead
p3387
F0.00029151509609949506
sVpsychosis
p3388
F0.0
sVleak
p3389
F0.0001431346436513864
sVavoid
p3390
F0.0003886867947993268
sVxanax
p3391
F0.0
sVthank
p3392
F0.0003322322322543275
sVreligionsvidenskabelig
p3393
F0.0
sVfedex
p3394
F0.0
sVdextroamphetmine
p3395
F0.0
sVsustain
p3396
F0.0
sVmutation
p3397
F0.0
sVfanns
p3398
F0.0
sVeso
p3399
F0.0
sVblurry
p3400
F0.0
sVhypomanias
p3401
F0.0
sVlocate
p3402
F0.0001431346436513864
sVbiology
p3403
F0.0
sVnoise
p3404
F3.239056623327723e-05
sVmayoria
p3405
F0.0
sVslight
p3406
F0.00035105041976932726
sVslur
p3407
F0.0
sVpueda
p3408
F0.0
sVfordi
p3409
F0.0
sVdarknetmarkets
p3410
F0.0
sVlightly
p3411
F0.0001431346436513864
sVstellar
p3412
F0.0
sVpressure
p3413
F0.0011450771492110912
sValthough
p3414
F0.0003239056623327723
sVstay
p3415
F6.478113246655446e-05
sVpanel
p3416
F8.776260494233181e-05
sVpeptide
p3417
F0.0
sViris
p3418
F0.0
sVsister
p3419
F8.776260494233181e-05
sVactual
p3420
F0.0001431346436513864
sVtestosterone
p3421
F0.0
sVextension
p3422
F0.0005725385746055456
sVinterestingly
p3423
F0.0001431346436513864
sVidra
p3424
F0.0
sVcondition
p3425
F0.00022148815483621833
sVmommy
p3426
F0.0001431346436513864
sVbasis
p3427
F9.71716986998317e-05
sVavsnittet
p3428
F0.0
sVingest
p3429
F0.0
sVdependency
p3430
F0.0002862692873027728
sVa2
p3431
F0.0
sVsweat
p3432
F0.0002862692873027728
sVbloodstream
p3433
F0.0001431346436513864
sVsoftware
p3434
F8.776260494233181e-05
sVequally
p3435
F0.0
sVacceptance
p3436
F0.0
sVoctopamine
p3437
F0.0
sVfunctional
p3438
F0.0001431346436513864
sV80mg
p3439
F0.0
sVchronic
p3440
F0.0001431346436513864
sVdoesnt
p3441
F8.776260494233181e-05
sVpromise
p3442
F0.00017552520988466363
sVfemale
p3443
F0.00011074407741810916
sVstrategy
p3444
F0.0002862692873027728
sVpointless
p3445
F0.0002862692873027728
sVmere
p3446
F0.0002862692873027728
sVndri
p3447
F0.0
sVkontraintuitivt
p3448
F0.0
sVnuke
p3449
F0.0
sVadditional
p3450
F0.00017552520988466363
sVtrackmystack
p3451
F0.0
sV16413604
p3452
F0.0
sVpcl
p3453
F0.0
sVspiral
p3454
F0.0001431346436513864
sVricin
p3455
F0.0
sVsolidify
p3456
F0.0
sVskole
p3457
F0.0
sVgene
p3458
F0.0007156732182569321
sVvar
p3459
F0.0
sVvat
p3460
F0.0
sVfunction
p3461
F0.0007156732182569321
sVlamictal
p3462
F0.0
sVbuy
p3463
F0.00011074407741810916
sVfrisk
p3464
F0.0
sVdextroamphetamine
p3465
F0.0
sVhr
p3466
F0.0002862692873027728
sVbus
p3467
F0.0001431346436513864
sVbrand
p3468
F0.00044297630967243666
sVht
p3469
F0.0
sVmethamphatmine
p3470
F0.0
sVsubjective
p3471
F0.0
sVhi
p3472
F0.0001431346436513864
sVgain
p3473
F0.0008776260494233183
sVlarger
p3474
F0.00027686019354527294
sVphenelzineu
p3475
F0.0
sVoverflow
p3476
F0.0001431346436513864
sVha
p3477
F5.537203870905458e-05
sVcapitalize
p3478
F0.0
sVeat
p3479
F9.71716986998317e-05
sVcount
p3480
F0.00017552520988466363
sVterritory
p3481
F0.0001431346436513864
sVacetyl
p3482
F0.0
sVevident
p3483
F0.0001431346436513864
sVsociety
p3484
F8.776260494233181e-05
sVwhether
p3485
F8.738850780985201e-05
sVdangerous
p3486
F0.0005537203870905459
sVwife
p3487
F0.00017552520988466363
sVsmooth
p3488
F5.537203870905458e-05
sVdistract
p3489
F0.0
sVrecord
p3490
F8.776260494233181e-05
sVfrequency
p3491
F0.0001431346436513864
sVlimit
p3492
F0.00017552520988466363
sVhuden
p3493
F0.0
sVcake
p3494
F8.776260494233181e-05
sVadderall
p3495
F0.0
sVproblem
p3496
F0.0006802018908988219
sVpiece
p3497
F5.537203870905458e-05
sVmindste
p3498
F0.0
sVfirm
p3499
F5.537203870905458e-05
sVmarketplace
p3500
F0.0
sVlivsstilssygdomme
p3501
F0.0
sVhorrific
p3502
F0.0
sVrecognize
p3503
F8.776260494233181e-05
sVproblemet
p3504
F0.0
sVdopaminergics
p3505
F0.0
sVsarcosine
p3506
F0.0
sVind
p3507
F0.0
sVsollefte
p3508
F0.0
sVanesthesia
p3509
F0.0
sVworse
p3510
F0.00029151509609949506
sVtick
p3511
F0.00017552520988466363
sVvariety
p3512
F0.00017552520988466363
sV45
p3513
F5.537203870905458e-05
sVpercent
p3514
F8.776260494233181e-05
sVdetail
p3515
F8.776260494233181e-05
sV40
p3516
F0.0006090924257996004
sV87
p3517
F0.0
sVsick
p3518
F0.0002862692873027728
sVincredibly
p3519
F0.00017552520988466363
sVstimulant
p3520
F0.0
sVirritability
p3521
F0.0
sVjunk
p3522
F8.776260494233181e-05
sVrepeat
p3523
F0.0002862692873027728
sVstar
p3524
F5.537203870905458e-05
sVsalesperson
p3525
F0.0
sVecstatic
p3526
F0.0
sVtraumatic
p3527
F0.0
sVbioavailability
p3528
F0.0
sVvariation
p3529
F0.0001431346436513864
sVfrustrate
p3530
F0.0
sVchance
p3531
F6.478113246655446e-05
sVaugmentation
p3532
F0.0
sVadf
p3533
F0.0
sVtiden
p3534
F0.0
sVgap
p3535
F0.0004294039309541592
sVsunifiram
p3536
F0.0
sVtamox
p3537
F0.0
sVexposure
p3538
F0.0
sVramble
p3539
F0.0
sV4x
p3540
F0.0
sVeod
p3541
F0.0
sVoral
p3542
F0.0004294039309541592
sVpode
p3543
F0.0
sVhvert
p3544
F0.0
sVselank
p3545
F0.0
sVrule
p3546
F0.00035105041976932726
sVcerebral
p3547
F0.0
sV_apasserby_
p3548
F0.0
sVinhibtits
p3549
F0.0
sVdiagnosis
p3550
F0.0
sVneurodegenerative
p3551
F0.0
sV4f
p3552
F0.0
sVawake
p3553
F0.0002862692873027728
sVindirectly
p3554
F0.0
sVlongevityman
p3555
F0.0
s.