(dp0
Vdisarray
p1
F0.0
sVsuicidal
p2
F0.001319746910675357
sVcnnz7pl
p3
F0.0
sVsaver
p4
F0.0
sVchild
p5
F3.445976725472374e-05
sVdesirable
p6
F0.0
sVderp
p7
F0.0
sVfour
p8
F4.132050353697376e-05
sVedgy
p9
F0.00020303798625774725
sVprotest
p10
F0.0
sVsleep
p11
F0.0054196612321749885
sVexcite
p12
F9.33691284740171e-05
sVgrandparent
p13
F0.0
sVappetite
p14
F0.004111519221719382
sVhate
p15
F0.0004568354690799313
sVpoorly
p16
F0.00010151899312887363
sVdisappear
p17
F0.0001867382569480342
sVbuddy
p18
F0.00010151899312887363
sVhealthland
p19
F0.0
sVphysiological
p20
F0.0
sVrupture
p21
F0.0
sVreputation
p22
F6.224608564934473e-05
sVivabradine
p23
F0.0
sVtickle
p24
F5.075949656443681e-05
sVdisinhibit
p25
F0.0
sVswap
p26
F6.224608564934473e-05
sVwhatsoever
p27
F9.33691284740171e-05
sVetizest
p28
F0.0
sVlord
p29
F3.112304282467236e-05
sVsorry
p30
F0.0002067586035283424
sVmagnetic
p31
F0.0
sVadventure
p32
F5.075949656443681e-05
sVhormone
p33
F0.0
sVrisk
p34
F0.0004123655285350534
sVdownstream
p35
F0.0
sVappal
p36
F0.0
sVhypertensive
p37
F0.0
sVdispense
p38
F0.0
sVblanket
p39
F3.112304282467236e-05
sVrise
p40
F3.112304282467236e-05
sVglimepiride
p41
F0.0
sVinhibit
p42
F0.0
sV250mg
p43
F0.0
sVredact
p44
F0.0
sVmania
p45
F0.0
sVtrileptal
p46
F0.0
sVleisurely
p47
F0.0
sVaffect
p48
F0.001624303890061978
sVvast
p49
F0.0
sVcopy
p50
F1.963645373976445e-05
sVyikes
p51
F0.0
sVschool
p52
F0.0010151899312887363
sVastral
p53
F0.0
sVbestfriend
p54
F0.0
sVscholar
p55
F3.112304282467236e-05
sVprobiotic
p56
F0.0
sVexaggerate
p57
F0.0
sVobsessive
p58
F0.0
sVsynergy
p59
F0.0
sVcommenter
p60
F0.0
sVsolution
p61
F0.0
sVkbar
p62
F0.0
sVviable
p63
F0.0
sVintensify
p64
F0.0
sVunrelated
p65
F0.00015227848969331045
sVprotriptyline
p66
F0.0
sVcholesterol
p67
F0.00020303798625774725
sVenhance
p68
F0.00017672808365788004
sVoddly
p69
F3.112304282467236e-05
sVhappier
p70
F0.00015227848969331045
sVenjoy
p71
F0.0001570916299181156
sVforce
p72
F0.00017672808365788004
sVspecially
p73
F5.075949656443681e-05
sVnigh
p74
F0.0
sVinfancy
p75
F0.0
sVblasphemy
p76
F5.075949656443681e-05
sVconsistent
p77
F5.075949656443681e-05
sV10g
p78
F0.0
sVpulse
p79
F0.0
sVbatch
p80
F0.0
sVnail
p81
F9.33691284740171e-05
sVpalps
p82
F0.0
sVcrave
p83
F0.0
sVstreet
p84
F0.00020303798625774725
sVocassional
p85
F0.0
sVkratom
p86
F0.0
sVemptiness
p87
F0.0
sVtheory
p88
F0.00015227848969331045
sVeven
p89
F0.0006611280565915801
sVbromantane
p90
F0.0
sVguilty
p91
F5.075949656443681e-05
sVchrist
p92
F0.0
sVworsen
p93
F0.0
sVweren
p94
F0.0001178187224385867
sVasia
p95
F0.0
sVquietapine
p96
F0.0
sVwouldnt
p97
F0.0
sVbipolar
p98
F0.0015227848969331043
sVhostile
p99
F5.075949656443681e-05
sVapb
p100
F0.0
sVconduct
p101
F0.0
sVsupplier
p102
F0.0
sVnew
p103
F0.0
sVnet
p104
F6.224608564934473e-05
sVhmmm
p105
F0.00010151899312887363
sVever
p106
F0.0002324278323954774
sVdisintegrate
p107
F0.0
sVcull
p108
F0.0
sVmed
p109
F0.000778076070616809
sVmea
p110
F0.0
sVsri
p111
F0.0
sVpresynaptic
p112
F0.0
sVherb
p113
F0.0
sVmeo
p114
F0.0
sVnever
p115
F0.0
sVweirdly
p116
F0.0
sVhere
p117
F5.16506294212172e-06
sVsocialize
p118
F0.0
sVching
p119
F0.0
sVkicker
p120
F0.0
sVethanol
p121
F0.0
sVactive
p122
F9.818226869882226e-05
sVpath
p123
F3.445976725472374e-05
sV100
p124
F0.0002945468060964667
sVdiagnostic
p125
F0.0
sVdry
p126
F0.00021786129977270654
sVsubstance
p127
F0.0
sVforum
p128
F0.00015227848969331045
sVtaper
p129
F0.0
sVphenelzine
p130
F0.0
sVdrs
p131
F0.0
sVtypically
p132
F0.0004568354690799313
sVcontroversy
p133
F5.075949656443681e-05
sV3nkz1u
p134
F0.0
sVunhelpful
p135
F3.112304282467236e-05
sVjama
p136
F0.0
sVsmoke
p137
F0.0005602147708441026
sVneurologist
p138
F0.0
sVmilitary
p139
F0.00015227848969331045
sVaka
p140
F0.0
sVsuitable
p141
F0.0
sVmenial
p142
F0.0
sVclonidine
p143
F0.0
sVfantastic
p144
F9.33691284740171e-05
sVhunch
p145
F0.0
sVground
p146
F5.890936121929335e-05
sVwikimedia
p147
F0.0
sVtreatment
p148
F0.0017765823797552883
sVreplace
p149
F6.224608564934473e-05
sVpsychological
p150
F0.0002537974828221841
sVpatience
p151
F5.075949656443681e-05
sValpha
p152
F0.0005075949656443682
sVhindsight
p153
F0.0
sVmodafinilpots
p154
F0.0
sVcocaine
p155
F0.00010151899312887363
sVcuriously
p156
F0.0
sVindictment
p157
F0.0
sVtrazodone
p158
F0.0
sVdeficit
p159
F0.0
sVcharge
p160
F3.112304282467236e-05
sVwould
p161
F0.0
sVarmy
p162
F3.112304282467236e-05
sVsnri
p163
F0.0
sVhospital
p164
F0.000591337813668775
sVmotivate
p165
F0.0
sVnegative
p166
F0.0003734765138960684
sVinsult
p167
F5.075949656443681e-05
sVarmo
p168
F0.0
sVmediate
p169
F0.0
sVautowikibot
p170
F0.0
sVcall
p171
F0.0002066025176848688
sVtherefore
p172
F0.00010151899312887363
sVshed
p173
F0.0
sVrecommend
p174
F0.00126898741411092
sVstrike
p175
F5.075949656443681e-05
sVsurvive
p176
F0.00010151899312887363
sVtype
p177
F0.0004516384360145823
sVtell
p178
F0.0008844673595379092
sVpantoprazole
p179
F0.0
sVreevaluate
p180
F0.0
sVattractive
p181
F3.92729074795289e-05
sVunequivicolly
p182
F0.0
sVcomorbid
p183
F0.0
sVholy
p184
F1.963645373976445e-05
sVrelax
p185
F0.0003112304282467237
sVsuccessful
p186
F1.963645373976445e-05
sVnaive
p187
F0.0
sVhaha
p188
F0.00020303798625774725
sVdepression
p189
F5.075949656443681e-05
sVhurt
p190
F0.0004568354690799313
sV99
p191
F3.112304282467236e-05
sVdisruption
p192
F0.0
sVwarm
p193
F1.1486589084907912e-05
sVadult
p194
F0.0003045569793866209
sVexcellent
p195
F0.00020303798625774725
sV90
p196
F0.0001867382569480342
sVhole
p197
F1.1486589084907912e-05
sVhold
p198
F8.040612359435539e-05
sVbenedryl
p199
F0.0
sVsupplemental
p200
F0.0
sVmust
p201
F0.0
sVshoot
p202
F0.0004668456423700854
sVmd
p203
F0.0
sVintake
p204
F0.0
sVjoin
p205
F4.594635633963165e-05
sVroom
p206
F4.594635633963165e-05
sVcharacterize
p207
F0.0
sVpursue
p208
F0.0
sVnoots
p209
F0.0
sVtremendously
p210
F0.0
sVworm
p211
F5.075949656443681e-05
sVroof
p212
F6.224608564934473e-05
sVworth
p213
F0.0005105477972338757
sVnovel
p214
F0.0
sVsuggestive
p215
F5.075949656443681e-05
sVpharm
p216
F0.0
sVreabsorb
p217
F0.0
sVinteraction
p218
F0.0005583544622088049
sVim
p219
F0.0009136709381598626
sVroot
p220
F6.224608564934473e-05
sVexample
p221
F0.00033311108346232947
sVaddictive
p222
F0.0
sVamitryp
p223
F0.0
sVphrase
p224
F3.112304282467236e-05
sVacetylcholine
p225
F0.0
sVkpin
p226
F0.0
sVgive
p227
F0.00047002072773307647
sVclimax
p228
F0.0
sVtable
p229
F1.033012588424344e-05
sVhusband
p230
F9.33691284740171e-05
sVinvolve
p231
F0.0
sVpromethazine
p232
F0.0
sVhomie
p233
F0.0
sVcaution
p234
F0.00010151899312887363
sVwant
p235
F0.0
sVwow
p236
F0.00010151899312887363
sVclonazopam
p237
F0.0
sVindifferent
p238
F5.075949656443681e-05
sVlexapro
p239
F0.0
sVloathe
p240
F5.075949656443681e-05
sVpreferably
p241
F5.075949656443681e-05
sVend
p242
F0.0002014374547427471
sVrecovery
p243
F9.33691284740171e-05
sVillicit
p244
F0.0
sVsertaline
p245
F0.0
sVtravel
p246
F2.2973178169815824e-05
sVdamage
p247
F6.224608564934473e-05
sVmachine
p248
F0.00012449217129868945
sVcitalopram
p249
F0.0
sVhot
p250
F3.92729074795289e-05
sVenquire
p251
F0.0
sVmorbid
p252
F0.0
sVhop
p253
F0.0004568354690799313
sVrookie
p254
F0.0
sVanswer
p255
F9.18927126792633e-05
sVdisappoint
p256
F5.075949656443681e-05
sVmemorization
p257
F5.075949656443681e-05
sVclassify
p258
F0.0
sVmassive
p259
F0.0
sVbadly
p260
F4.594635633963165e-05
sVuntill
p261
F5.075949656443681e-05
sVfever
p262
F0.0
sVdoable
p263
F0.0
sVmodulation
p264
F0.0
sVarthritis
p265
F0.0
sVimaginable
p266
F0.0
sVlab
p267
F0.0
sVthankyou
p268
F0.0
sVwrong
p269
F0.00021824519261325035
sVmesh
p270
F0.0
sVtenormin
p271
F0.0
sVgravol
p272
F0.0
sVsummarize
p273
F0.0
sVparallel
p274
F0.0
sVpurchase
p275
F9.33691284740171e-05
sVattempt
p276
F0.00014932565810380286
sVthird
p277
F1.549518882636516e-05
sVmanic
p278
F0.0007613924484665521
sVtetra
p279
F0.0
sVsensitive
p280
F4.594635633963165e-05
sVappreciate
p281
F0.00015561521412336184
sVhypnotic
p282
F0.0
sVbattletag
p283
F0.0
sVorally
p284
F0.0
sVupside
p285
F3.112304282467236e-05
sVultimate
p286
F0.0
sVho
p287
F1.963645373976445e-05
sVenter
p288
F2.2973178169815824e-05
sVevery
p289
F0.00036671946889064213
sVpreventive
p290
F0.0
sVorder
p291
F5.681569236333892e-05
sVwind
p292
F3.92729074795289e-05
sVjack
p293
F5.075949656443681e-05
sVrestriction
p294
F0.0
sVbreathe
p295
F0.00020303798625774725
sVafterwards
p296
F7.85458149590578e-05
sV7yrs
p297
F0.0
sVneti
p298
F0.0
sVwut
p299
F0.0
sVvits
p300
F0.0
sVconsent
p301
F0.00010151899312887363
sVtochka3evlj3sxdv
p302
F0.0
sVtyramine
p303
F0.0
sVvary
p304
F0.0001867382569480342
sVhadn
p305
F7.85458149590578e-05
sVneuron
p306
F0.0
sVrussian
p307
F5.075949656443681e-05
sVguidance
p308
F0.0
sVnsfw
p309
F0.0
sVeuropeanneuropsychopharmacology
p310
F0.0
sVvastly
p311
F0.0
sVbladder
p312
F0.00010151899312887363
sVantacid
p313
F0.0
sV25mg
p314
F0.0
sVnardil
p315
F0.0
sV19185342
p316
F0.0
sVfit
p317
F8.040612359435539e-05
sVreflection
p318
F0.0
sVpersonal
p319
F0.00016081224718871078
sVfix
p320
F0.000342353471071396
sVrecreational
p321
F0.0007613924484665521
sVimo
p322
F0.0
sVbetter
p323
F0.0005681569236333892
sVaccord
p324
F0.0
sVproduction
p325
F0.00010151899312887363
sVcompensatory
p326
F0.0
sVdifferently
p327
F0.00015561521412336184
sVfade
p328
F0.0001867382569480342
sVpharms
p329
F0.0
sVacupuncture
p330
F0.0
sVprecipitate
p331
F0.0
sVinhibitor
p332
F0.0
sVcred
p333
F0.0
sVeasier
p334
F0.0002945468060964667
sVpropanalol
p335
F0.0
sVpleasurable
p336
F0.0
sVaborter
p337
F0.0
sVeventually
p338
F0.0009136709381598626
sVcoffee
p339
F0.0002489843425973789
sVwidely
p340
F0.0
sVcombination
p341
F0.0002749103523567023
sV20cat
p342
F0.0
sVconfuse
p343
F6.224608564934473e-05
sVunemployed
p344
F0.0
sVdrowsiness
p345
F0.0
sVtheanine
p346
F0.0
sVmxp
p347
F0.0
sVhypomania
p348
F0.0
sVbreak
p349
F0.000684706942142792
sVhotics
p350
F0.0
sVtherapy
p351
F0.0022334178488352197
sVindulge
p352
F0.0
sVvaping
p353
F0.0
sVmxe
p354
F0.0
sVlifelong
p355
F0.0
sVhumanity
p356
F5.075949656443681e-05
sVbank
p357
F3.112304282467236e-05
sVbread
p358
F3.112304282467236e-05
sV40g
p359
F0.0
sVelavil
p360
F0.0
sVindeed
p361
F5.890936121929335e-05
sVprogression
p362
F0.0
sVreasonably
p363
F0.00010151899312887363
sVsleepless
p364
F0.0
sVlucy
p365
F0.0
sVlosartan
p366
F0.0
sVedit2
p367
F0.0
sVintimidate
p368
F5.075949656443681e-05
sVreasonable
p369
F0.00015561521412336184
sVfitness
p370
F0.00010151899312887363
sVacoustic
p371
F0.0
sVmeal
p372
F0.0001963645373976445
sVbone
p373
F7.85458149590578e-05
sVluck
p374
F0.0004123655285350534
sVfee
p375
F0.0
sVwhim
p376
F0.0
sVfinancial
p377
F5.075949656443681e-05
sVconstipation
p378
F5.075949656443681e-05
sVindependent
p379
F3.112304282467236e-05
sVknockout
p380
F0.0
sVmda
p381
F0.0
sVspider
p382
F5.075949656443681e-05
sVmdd
p383
F0.0
sVaide
p384
F0.0
sVxr
p385
F0.0
sVdoug
p386
F0.0
sVgrandfather
p387
F5.075949656443681e-05
sVextract
p388
F5.075949656443681e-05
sVslew
p389
F0.0
sVclothe
p390
F0.0
sVru
p391
F0.0
sVnetwork
p392
F5.075949656443681e-05
sVmethylprednisolone
p393
F0.0
sVmode
p394
F3.112304282467236e-05
sVopen
p395
F0.0
sVuseless
p396
F5.075949656443681e-05
sVrx
p397
F0.0
sVsynapsesneuro
p398
F0.0
sVencourage
p399
F0.00015227848969331045
sVdsm
p400
F0.0
sVwrite
p401
F0.00013783906901889496
sVadapt
p402
F0.0
sVrc
p403
F0.00015227848969331045
sVmedicine
p404
F0.0007613924484665521
sVsurprise
p405
F7.85458149590578e-05
sVrn
p406
F0.0
sVgov
p407
F0.0003553164759510577
sVsluggish
p408
F0.00010151899312887363
sVperception
p409
F0.00020303798625774725
sVcomedown
p410
F0.0
sVbarrier
p411
F3.112304282467236e-05
sVassociate
p412
F0.000778076070616809
sVdouglas
p413
F0.0
sVhorrid
p414
F0.0
sVtexture
p415
F6.224608564934473e-05
sVsheer
p416
F5.075949656443681e-05
sVfree
p417
F0.0001033793017641712
sVupbringing
p418
F0.0
sVsensory
p419
F0.00020303798625774725
sVstruggle
p420
F0.000342353471071396
sVnmda
p421
F0.0
sVstereotypical
p422
F0.0
sVforcibly
p423
F0.0
sVinadequately
p424
F0.0
sVquetiepine
p425
F0.0
sVknit
p426
F0.0
sVslope
p427
F3.112304282467236e-05
sVfret
p428
F0.0
sV25gram
p429
F0.0
sVredhair
p430
F0.0
sVheteroreceptors
p431
F0.0
sVwithdrawl
p432
F0.0
sVdenture
p433
F0.0
sVatm
p434
F0.0
sVtolerant
p435
F0.0
sVflicker
p436
F5.075949656443681e-05
sVish
p437
F5.075949656443681e-05
sVoppose
p438
F0.0
sVisn
p439
F0.00024275795827972084
sVsoda
p440
F5.075949656443681e-05
sVregress
p441
F0.0
sVscheme
p442
F3.112304282467236e-05
sVonto
p443
F0.0001178187224385867
sVstewart
p444
F0.0
sVrecite
p445
F0.0
sVchronotherapy
p446
F0.0
sValready
p447
F9.297113295819095e-05
sVgrade
p448
F0.00010151899312887363
sVreassure
p449
F0.0
sVvitro
p450
F0.0
sVrestrict
p451
F0.0
sVhook
p452
F5.890936121929335e-05
sVkurzgesagt
p453
F0.0
sVdeplete
p454
F0.0
sVdownside
p455
F0.0
sVanother
p456
F0.00030990377652730317
sVwasn
p457
F0.0002066025176848688
sVsober
p458
F0.0003045569793866209
sVcategorize
p459
F0.0
sVcalorie
p460
F0.0006598734553376785
sVclarity
p461
F3.112304282467236e-05
sVcaloric
p462
F0.0
sVdysfunction
p463
F0.0
sVawfully
p464
F3.112304282467236e-05
sVstimulation
p465
F0.0003045569793866209
sVhe
p466
F1.1486589084907912e-05
sVtoy
p467
F5.075949656443681e-05
sVfence
p468
F6.224608564934473e-05
sVservice
p469
F3.92729074795289e-05
sVindicate
p470
F5.075949656443681e-05
sVfluvoxamine
p471
F0.0
sVtop
p472
F0.0003675708507170532
sVeuphoric
p473
F0.0
sVeuphoria
p474
F0.0
sVpalpitation
p475
F0.0
sVmaster
p476
F1.963645373976445e-05
sVnoradrenergic_and_specific_serotonergic_antidepressant
p477
F0.0
sVglucocorticoid
p478
F0.0
sV2012_minneapolis_workplace_shooting
p479
F0.0
sVunderlie
p480
F0.0
sVlol
p481
F0.0007106329519021154
sVrecreationally
p482
F0.0
sVlisten
p483
F0.00013745517617835115
sVmurder
p484
F5.075949656443681e-05
sVantihypertensive
p485
F0.0
sVgym
p486
F0.0001867382569480342
sV2am
p487
F0.0
sVminnies
p488
F0.0
sVinexact
p489
F0.0
sVtrippy
p490
F0.00010151899312887363
sVdirect
p491
F0.0005075949656443682
sVemaciate
p492
F0.0
sVpredictable
p493
F0.0
sVavanza
p494
F0.0
sVsomewhat
p495
F0.0006091139587732418
sVpregaba
p496
F0.0
sVsymptom
p497
F0.0
sVrls
p498
F0.0
sVdistance
p499
F3.112304282467236e-05
sVanxiety
p500
F0.008781392905647568
sV5ht2c
p501
F0.0
sVfrankly
p502
F5.075949656443681e-05
sV5ht2a
p503
F0.0
sVtree
p504
F1.1486589084907912e-05
sVlikely
p505
F0.0013705064072397938
sVebay
p506
F5.075949656443681e-05
sVproject
p507
F1.963645373976445e-05
sVmatter
p508
F9.18927126792633e-05
sV5mg
p509
F0.0
sVsilly
p510
F1.963645373976445e-05
sVfriend
p511
F0.00010846632178455611
sVhallucination
p512
F0.0
sV__mirtazapine__
p513
F0.0
sVsolely
p514
F0.00010151899312887363
sVpoland
p515
F0.0
sVenhancement
p516
F0.00010151899312887363
sVsupplement
p517
F0.0
sVmini
p518
F5.075949656443681e-05
sVfashion
p519
F5.075949656443681e-05
sVendquote
p520
F0.0
sVminn
p521
F0.0
sVmodern
p522
F1.1486589084907912e-05
sVmind
p523
F0.0008050946033303423
sVmine
p524
F0.00013783906901889496
sVginger
p525
F3.112304282467236e-05
sVnbc
p526
F0.0
sVparamaters
p527
F0.0
sVshittiness
p528
F0.0
sVanalysis
p529
F0.00015227848969331045
sVrap
p530
F5.075949656443681e-05
sVadhd
p531
F0.0
sVarousal
p532
F0.0
sVhypoxiam
p533
F0.0
sVseem
p534
F0.0003615544059485204
sVurinate
p535
F0.0
sVseek
p536
F8.040612359435539e-05
sVdozen
p537
F0.00012449217129868945
sVchem
p538
F0.0
sVsecure
p539
F3.112304282467236e-05
sVrelapse
p540
F0.0
sVconcrete
p541
F0.0
sVlatter
p542
F0.00020303798625774725
sVresponsible
p543
F3.112304282467236e-05
sVthorough
p544
F0.0
sVchest
p545
F5.890936121929335e-05
sVcontact
p546
F9.818226869882226e-05
sVchess
p547
F5.075949656443681e-05
sVresponsibly
p548
F0.0
sVtransmit
p549
F0.0
sVeffectiveness
p550
F0.0
sVstrobe
p551
F0.0
sVblue
p552
F1.963645373976445e-05
sVgravy
p553
F3.112304282467236e-05
sVexactly
p554
F0.0002756781380377899
sVndris
p555
F0.0
sVpsychologically
p556
F0.0
sVclonazepam
p557
F0.0
sVaccumbal
p558
F0.0
sVobject
p559
F1.1486589084907912e-05
sVquit
p560
F0.0008403221562661538
sVastepro
p561
F0.0
sVnorepinephrine
p562
F0.0
sVregular
p563
F0.0005075949656443682
sVmouth
p564
F0.0001963645373976445
sVaddict
p565
F0.0007106329519021154
sVletter
p566
F1.963645373976445e-05
sVx
p567
F5.075949656443681e-05
sVphase
p568
F0.00010151899312887363
sVcontain
p569
F5.075949656443681e-05
sVautopsy
p570
F0.00010151899312887363
sVdarkness
p571
F5.075949656443681e-05
sV1ux484
p572
F0.0
sVmitigate
p573
F0.0
sVolanzapine
p574
F0.0
sVepisode
p575
F0.000812151945030989
sVobservation
p576
F0.00010151899312887363
sVenvironmental
p577
F0.0
sVdob
p578
F0.0
sVdoc
p579
F0.0008714451990908262
sValarm
p580
F9.33691284740171e-05
sVflop
p581
F5.075949656443681e-05
sVnighttime
p582
F5.075949656443681e-05
sVdog
p583
F7.85458149590578e-05
sVmusical
p584
F5.075949656443681e-05
sVallergic
p585
F0.00010151899312887363
sVdigress
p586
F0.0
sVdefinitely
p587
F0.0008247310570701068
sVtech
p588
F5.075949656443681e-05
sVgrossly
p589
F0.0
sVnorepenephrine
p590
F0.0
sVdeeply
p591
F9.33691284740171e-05
sVscream
p592
F0.00010151899312887363
sVdot
p593
F6.224608564934473e-05
sVreserve
p594
F5.075949656443681e-05
sVsetraline
p595
F0.0
sVhunger
p596
F0.0006091139587732418
sVbarbiturate
p597
F0.0
sVprobe
p598
F0.0
sVsubreddit
p599
F0.0
sVndma
p600
F0.0
sVchord
p601
F5.075949656443681e-05
sVlyrica
p602
F0.0
sVpoison
p603
F5.075949656443681e-05
sVdopey
p604
F0.0
sVx3
p605
F0.0
sVlethal
p606
F0.0
sVsubtle
p607
F0.00020303798625774725
sVanalogue
p608
F0.0
sVd2
p609
F0.0
sVd3
p610
F0.0
sVcapitulate
p611
F0.0
sVexperiemented
p612
F0.0
sVbusy
p613
F1.1486589084907912e-05
sVchamomile
p614
F0.0
sVheadline
p615
F0.00015227848969331045
sVexplain
p616
F0.00025527389861693784
sVlayman
p617
F0.0
sVkinase
p618
F0.0
sVcripple
p619
F0.0
sVsugar
p620
F0.0004357225995454131
sVbliss
p621
F0.0
sVpng
p622
F5.075949656443681e-05
sVdisgust
p623
F0.0
sVintegrate
p624
F0.00010151899312887363
sVgingko
p625
F0.0
sVadequate
p626
F0.0
sVboyfriend
p627
F0.0003045569793866209
sVsudafed
p628
F0.0
sVsmaller
p629
F1.963645373976445e-05
sVindepth
p630
F0.0
sVdo
p631
F0.0001239615106109213
sVcortex
p632
F0.0
sVmixture
p633
F5.075949656443681e-05
sVwide
p634
F1.1486589084907912e-05
sVdd
p635
F0.0
sVstop
p636
F0.0004287002241961028
sVperceive
p637
F0.0
sVpsychiatric
p638
F0.0
sVforemost
p639
F0.0
sVpocket
p640
F0.00010151899312887363
sVamazon
p641
F0.0011167089244176098
sVmeditate
p642
F0.0003553164759510577
sVdx
p643
F0.0
sValtogether
p644
F3.112304282467236e-05
sVanxiolytic
p645
F0.0
sVnasty
p646
F0.00012449217129868945
sV80lbs
p647
F0.0
sVibotenic
p648
F0.0
sVslack
p649
F0.0
sVlaptop
p650
F3.112304282467236e-05
sV8am
p651
F0.0
sVbar
p652
F5.890936121929335e-05
sVblast
p653
F6.224608564934473e-05
sVnicely
p654
F3.112304282467236e-05
sVchloral
p655
F0.0
sVhospitalize
p656
F0.0
sVanimation
p657
F5.075949656443681e-05
sVyohimbe
p658
F0.0
sVpatch
p659
F6.224608564934473e-05
sVbag
p660
F6.224608564934473e-05
sVbad
p661
F0.0004441954130224679
sVerupt
p662
F0.0
sVrelease
p663
F0.0003141832598362312
sVpsych
p664
F0.0
sVbam
p665
F5.075949656443681e-05
sVsteal
p666
F1.963645373976445e-05
sVrequire
p667
F0.0005075949656443682
sVrespond
p668
F0.0002801073854220513
sVdeprenyl
p669
F0.0
sVnortryptaline
p670
F0.0
sVmglur
p671
F0.0
sVfair
p672
F2.066025176848688e-05
sVspecialist
p673
F0.0
sVjob
p674
F0.0005301842509736401
sVperipheral
p675
F0.0
sVvalsartan
p676
F0.0
sVspirit
p677
F1.963645373976445e-05
sVresult
p678
F0.0006224608564934474
sVetiz
p679
F0.0
sVhorrendous
p680
F0.00015227848969331045
sVfail
p681
F0.00019527201444343448
sVsimultaneously
p682
F0.00010151899312887363
sVdepressive
p683
F0.0
sVhammer
p684
F0.0
sVbleh
p685
F0.0
sVbest
p686
F0.00024275795827972084
sVsubject
p687
F0.00015227848969331045
sVinstance
p688
F9.818226869882226e-05
sV01
p689
F5.075949656443681e-05
sVavandia
p690
F0.0
sVinappropriate
p691
F9.33691284740171e-05
sVsorta
p692
F5.075949656443681e-05
sVrare
p693
F0.0003045569793866209
sVaway
p694
F0.0
sViirc
p695
F0.0
sVwikipedia
p696
F0.0
sVimipramine
p697
F0.0
sVcontinually
p698
F5.075949656443681e-05
sVsigaint
p699
F0.0
sVscore
p700
F3.92729074795289e-05
sVfinger
p701
F5.890936121929335e-05
sVomeprazole
p702
F0.0
sVhopefully
p703
F0.0
sVmum
p704
F6.224608564934473e-05
sVoccupational
p705
F0.0
sVirc
p706
F5.075949656443681e-05
sVtolerance
p707
F0.0010151899312887363
sVlethargic
p708
F0.0
sVnonides
p709
F0.0
sVthyroid
p710
F0.0
sVlazy
p711
F0.00015561521412336184
sVmen
p712
F3.92729074795289e-05
sVpaywall
p713
F0.0
sVextend
p714
F0.00015561521412336184
sVnature
p715
F2.58253147106086e-05
sVwean
p716
F0.0
sVtldr
p717
F0.0
sVhandful
p718
F0.0
sVweak
p719
F0.0006598734553376785
sVvitamin
p720
F0.0
sVmeh
p721
F0.0
sVdebate
p722
F3.112304282467236e-05
sVwear
p723
F0.00015561521412336184
sVextent
p724
F0.00010151899312887363
sV20151009_101200
p725
F0.0
sVcousin
p726
F0.00010151899312887363
sVresidual
p727
F5.075949656443681e-05
sVwy
p728
F0.0
sVimprove
p729
F0.0004045995567207407
sVcop
p730
F0.00015561521412336184
sVessentially
p731
F0.0
sVaccident
p732
F0.00015227848969331045
sVstark
p733
F0.0
sVantidopaminergic
p734
F0.0
sVagonist
p735
F0.0
sVresistant
p736
F0.0
sVcountry
p737
F6.891953450944748e-05
sVill
p738
F5.890936121929335e-05
sVdisengage
p739
F0.0
sVmirtazapie
p740
F0.0
sVbrag
p741
F0.0
sVsteer
p742
F0.0
sVcrank
p743
F0.0
sVlogic
p744
F5.075949656443681e-05
sVpita
p745
F0.0
sVuni
p746
F0.0004060759725154945
sVargue
p747
F0.00010151899312887363
sVvertigo
p748
F5.075949656443681e-05
sVanxienty
p749
F0.0
sVagonism
p750
F0.0
sVpeacefully
p751
F0.0
sVsuggest
p752
F0.001319746910675357
sVwhatmeds
p753
F0.0
sVtough
p754
F9.818226869882226e-05
sVconfide
p755
F0.0
sVirresponsible
p756
F0.0
sVseizure
p757
F0.0
sVheight
p758
F1.963645373976445e-05
sVawesomely
p759
F0.0
sVhygiene
p760
F0.00015227848969331045
sVinactivate
p761
F0.0
sVnilly
p762
F0.0
sVpregnancy
p763
F0.00010151899312887363
sVnews
p764
F0.00013745517617835115
sVrefill
p765
F0.00015227848969331045
sVtrust
p766
F0.00015561521412336184
sVchka
p767
F0.0
sVspeak
p768
F0.0004045995567207407
sVparalyze
p769
F0.0
sVbathroom
p770
F5.075949656443681e-05
sVtint
p771
F0.0
sVabdominal
p772
F0.0
sVincomparable
p773
F0.0
sVoutlier
p774
F0.0
sVbasis
p775
F0.0001033793017641712
sVlorcaserin
p776
F0.0
sVbinge
p777
F0.0
sVsubside
p778
F0.0
sVthree
p779
F7.747594413182579e-05
sVtiny
p780
F3.445976725472374e-05
sVquickly
p781
F0.00014932565810380286
sVbeer
p782
F0.00010151899312887363
sVtrigger
p783
F0.00020303798625774725
sVdetrimental
p784
F0.0
sVinterest
p785
F0.0005290917280194302
sVbasic
p786
F1.963645373976445e-05
sVfry
p787
F0.00020303798625774725
sVnorvasc
p788
F0.0
sVteenager
p789
F5.075949656443681e-05
sVwebsite
p790
F3.112304282467236e-05
sVfatlogic
p791
F0.0
sVlife
p792
F0.000423535161253981
sV25i
p793
F0.0
sVchub
p794
F0.0
sVrecomend
p795
F0.0
sVmushroom
p796
F0.00015227848969331045
sV900mg
p797
F0.0
sVsuppress
p798
F0.0
sVdismiss
p799
F5.075949656443681e-05
sVsooooo
p800
F5.075949656443681e-05
sVsearch
p801
F0.00013745517617835115
sVuncommon
p802
F6.224608564934473e-05
sVargument
p803
F6.224608564934473e-05
sVcoherent
p804
F0.0
sVlift
p805
F0.00015561521412336184
sVpersonally
p806
F0.00019527201444343448
sVcatch
p807
F0.00012449217129868945
sVdeepen
p808
F0.0
sVbuprenorphine
p809
F0.0
sVdiabeta
p810
F0.0
sVpecker
p811
F0.0
sV161
p812
F0.0
sVchill
p813
F5.075949656443681e-05
sVtonight
p814
F9.33691284740171e-05
sVexception
p815
F0.00012449217129868945
sVtank
p816
F5.075949656443681e-05
sVdaze
p817
F0.0
sVshrink
p818
F9.33691284740171e-05
sVrigorously
p819
F0.0
sVlessen
p820
F0.0
sVbuproprion
p821
F0.0
sVn
p822
F5.16506294212172e-06
sVlesser
p823
F5.075949656443681e-05
sVcalcium
p824
F0.0
sVnear
p825
F2.066025176848688e-05
sVsuppose
p826
F0.0002489843425973789
sVbacolfen
p827
F0.0
sVaid
p828
F0.0
sVbalance
p829
F0.0004060759725154945
sVk
p830
F6.224608564934473e-05
sVmealtime
p831
F0.0
sVarevailablell
p832
F0.0
sVseven
p833
F6.224608564934473e-05
sVvasodilation
p834
F0.0
sVrobert
p835
F0.0
sViq
p836
F0.0
sVir
p837
F0.0
sVupregulates
p838
F0.0
sVclonazolam
p839
F0.0
sVweirdness
p840
F5.075949656443681e-05
sVii
p841
F0.0
sVplayer
p842
F3.112304282467236e-05
sVcant
p843
F0.00010151899312887363
sVdizzy
p844
F0.0
sVanhedonia
p845
F0.0
sVcone
p846
F5.075949656443681e-05
sVanhedonic
p847
F0.0
sVworkout
p848
F0.0
sVie
p849
F5.075949656443681e-05
sVinsatiable
p850
F0.0
sV40gs
p851
F0.0
sVamitryptaline
p852
F0.0
sV20049305
p853
F0.0
sVkeen
p854
F3.112304282467236e-05
sVseverity
p855
F0.0
sVstickied
p856
F0.0
sVperform
p857
F5.890936121929335e-05
sVlarge
p858
F0.0
sVmake
p859
F0.0014978682532152988
sVrecurrent
p860
F0.0
sVdhc
p861
F0.0
sVjerry
p862
F0.0
sV10yrs
p863
F0.0
sVdrawback
p864
F0.0
sVpotentially
p865
F0.00020303798625774725
sVunfortunate
p866
F3.92729074795289e-05
sVevaluate
p867
F0.0
sVvegetable
p868
F5.075949656443681e-05
sVseveral
p869
F0.0005602147708441026
sVcouple
p870
F0.00021824519261325035
sVeuropean
p871
F0.0
sVfairly
p872
F0.0002801073854220513
sVnih
p873
F0.0
sVmyocardial
p874
F0.0
sVcatholic
p875
F0.0
sVverapamil
p876
F0.0
sVpick
p877
F0.0005105477972338757
sVhang
p878
F3.445976725472374e-05
sVevil
p879
F7.85458149590578e-05
sVkit
p880
F0.0014939060555842737
sVeffectively
p881
F0.0
sVpharmacological
p882
F0.0
sVafraid
p883
F6.891953450944748e-05
sVcapable
p884
F0.00015227848969331045
sVtune
p885
F0.0003045569793866209
sVkid
p886
F0.0004568354690799313
sVpharmawhore
p887
F0.0
sVflubromazelam
p888
F0.0
sVspecialize
p889
F0.0
sVshortly
p890
F5.075949656443681e-05
sVwhereby
p891
F0.0
sVscenario
p892
F0.0
sVmirtazipine
p893
F0.0
sVcongrats
p894
F0.0
sVeps
p895
F0.0
sVdeal
p896
F0.0003675708507170532
sVtho
p897
F0.0006091139587732418
sVclient
p898
F6.224608564934473e-05
sVencounter
p899
F5.075949656443681e-05
sVmother
p900
F2.58253147106086e-05
sVjean
p901
F0.0
sV800
p902
F3.112304282467236e-05
sVthc
p903
F0.0
sVprobly
p904
F0.0
sVunfortunately
p905
F0.0003553164759510577
sVimpression
p906
F0.00010151899312887363
sVbirth
p907
F0.00015227848969331045
sVsentence
p908
F0.0003045569793866209
sVyea
p909
F0.0
sVphoto
p910
F1.963645373976445e-05
sV2844
p911
F0.0
sVunited_states
p912
F0.0
sVsleepy
p913
F0.0007613924484665521
sVenvious
p914
F0.0
sVphenubit
p915
F0.0
sVfinancially
p916
F0.00010151899312887363
sVidentify
p917
F6.224608564934473e-05
sVhangover
p918
F0.0003553164759510577
sVhuman
p919
F0.00013745517617835115
sVdopamine
p920
F0.0
sVyep
p921
F0.00020303798625774725
sVyes
p922
F8.780607001606923e-05
sVyet
p923
F0.0001033012588424344
sVprevious
p924
F2.066025176848688e-05
sVhah
p925
F0.0
sVunable
p926
F0.00021786129977270654
sVcandidate
p927
F6.224608564934473e-05
sVanalytical
p928
F0.0
sVacetylsalicylic
p929
F0.0
sVease
p930
F6.224608564934473e-05
sVboot
p931
F5.075949656443681e-05
sVsubutex
p932
F0.0
sVpharmacy
p933
F0.003451645766381703
sVhydroxozine
p934
F0.0
sVspread
p935
F5.075949656443681e-05
sVaffinity
p936
F0.0
sVboard
p937
F3.92729074795289e-05
sVeasy
p938
F0.0
sVprison
p939
F0.00012449217129868945
sV5g
p940
F0.0
sVsave
p941
F0.0001570916299181156
sVhat
p942
F0.00013745517617835115
sVtolerable
p943
F0.0
sVpsychosis
p944
F0.0
sVnoticeable
p945
F5.075949656443681e-05
sVthankfully
p946
F0.0
sVfreedom
p947
F1.963645373976445e-05
sVmindfuck
p948
F0.0
sVelse
p949
F0.000129126573553043
sVreferral
p950
F0.0
sVpossible
p951
F0.00021824519261325035
sVwih
p952
F0.0
sVfast
p953
F0.00017229883627361867
sVpossibly
p954
F0.00012635247993398704
sVzmjjijj
p955
F0.0
sVbackground
p956
F1.549518882636516e-05
sVperformance
p957
F7.85458149590578e-05
sVjudge
p958
F0.00015561521412336184
sVshadow
p959
F3.112304282467236e-05
sVunique
p960
F9.33691284740171e-05
sVunfounded
p961
F0.0
sVmassively
p962
F0.0
sVd
p963
F0.0
sVdesire
p964
F0.0002537974828221841
sVnauseate
p965
F0.0
sVbpd
p966
F0.0
sVfrontal
p967
F3.112304282467236e-05
sVconcious
p968
F0.0
sV55
p969
F5.075949656443681e-05
sVcontradict
p970
F0.0
sVbpm
p971
F0.0
sVunnecessary
p972
F5.075949656443681e-05
sVmountaintop
p973
F0.0
sVspecific
p974
F0.0001963645373976445
sVremind
p975
F0.00015561521412336184
sVdissociative
p976
F0.0
sVnight
p977
F0.0004287002241961028
sVnotorious
p978
F0.0004060759725154945
sVsecurity
p979
F1.963645373976445e-05
sVstarvation
p980
F0.0
sVintroduce
p981
F5.075949656443681e-05
sVsignal
p982
F6.224608564934473e-05
sVbeneficial
p983
F0.00010151899312887363
sVright
p984
F0.00032539896535366833
sVold
p985
F0.0
sVcrowd
p986
F6.224608564934473e-05
sVpeople
p987
F1.033012588424344e-05
sVdepakene
p988
F0.0
sVsomehow
p989
F1.963645373976445e-05
sVelderly
p990
F5.075949656443681e-05
sVphysician
p991
F0.0
sVselectivity
p992
F0.0
sVhassle
p993
F0.0
sVideal
p994
F9.33691284740171e-05
sVstatistic
p995
F0.0
sVdear
p996
F1.963645373976445e-05
sVmultiple
p997
F0.0003112304282467237
sVbore
p998
F0.00010151899312887363
sVpsychogenic
p999
F0.0
sVstrategic
p1000
F0.0
sVtxt
p1001
F5.075949656443681e-05
sVdense
p1002
F5.075949656443681e-05
sVtotaly
p1003
F0.0
sVbottom
p1004
F2.066025176848688e-05
sVparesthesia
p1005
F0.0
sVreflexively
p1006
F0.0
sVnormal
p1007
F0.000785458149590578
sVmicrowave
p1008
F5.075949656443681e-05
sVcreative
p1009
F0.00012449217129868945
sVeverything
p1010
F0.0001859422659163819
sVfog
p1011
F0.0
sVperiphery
p1012
F0.0
sVatenolol
p1013
F0.0
sVumm
p1014
F0.0
sVexperimentation
p1015
F0.0
sVchristmas
p1016
F0.0
sVicu
p1017
F0.0
sVantihistaminic
p1018
F0.0
sVcord
p1019
F0.0
sVcore
p1020
F7.85458149590578e-05
sVsnore
p1021
F5.075949656443681e-05
sVepigenetic
p1022
F0.0
sVcrap
p1023
F9.33691284740171e-05
sVflunk
p1024
F0.0
sVdiltiazem
p1025
F0.0
sVdental
p1026
F5.075949656443681e-05
sVburn
p1027
F0.00015561521412336184
sVphen
p1028
F0.0
sVdiscount
p1029
F0.00010151899312887363
sVbolt
p1030
F0.0
sV14mg
p1031
F0.0
sVinvaluable
p1032
F0.0
sVpeer
p1033
F3.112304282467236e-05
sVfastime
p1034
F0.0
sVsuper
p1035
F0.0013071677986362393
sValien
p1036
F5.075949656443681e-05
sVvalium
p1037
F0.0
sVsrni
p1038
F0.0
sVrestlessness
p1039
F0.0
sVlightheaded
p1040
F0.0
sVupregulating
p1041
F0.0
sVconceal
p1042
F0.0
sVoccasionally
p1043
F5.890936121929335e-05
sVinderal
p1044
F0.0
sVinjure
p1045
F0.0
sVv
p1046
F0.00015227848969331045
sVo
p1047
F1.033012588424344e-05
sVessential
p1048
F0.0
sVtrustworthy
p1049
F5.075949656443681e-05
sVsnris
p1050
F0.0
sVplus
p1051
F0.0001963645373976445
sVafternoon
p1052
F0.0002537974828221841
sVhorizon
p1053
F5.075949656443681e-05
sVsteadily
p1054
F0.0
sVcommit
p1055
F6.224608564934473e-05
sVtwitch
p1056
F5.075949656443681e-05
sVslightly
p1057
F0.0001033793017641712
sVautomatically
p1058
F9.33691284740171e-05
sVnerve
p1059
F0.00015227848969331045
sVtel
p1060
F0.0
sVdigestion
p1061
F0.0
sVwhats
p1062
F0.0
sVhypo
p1063
F0.0
sVhungrier
p1064
F5.075949656443681e-05
sVod
p1065
F0.0
sVpreliminary
p1066
F0.00015227848969331045
sVcraft
p1067
F0.0
sVson
p1068
F3.445976725472374e-05
sVdown
p1069
F0.0
sVthankful
p1070
F0.0
sVfinely
p1071
F0.00020303798625774725
sVprazocin
p1072
F0.0
sVirritate
p1073
F0.0
sVwrap
p1074
F1.963645373976445e-05
sVstall
p1075
F0.00010151899312887363
sVanorexic
p1076
F0.00010151899312887363
sVanorexia
p1077
F5.075949656443681e-05
sVstrangely
p1078
F5.075949656443681e-05
sVrely
p1079
F3.112304282467236e-05
sVvaldoxan
p1080
F0.0
sVstereotype
p1081
F5.075949656443681e-05
sVsupport
p1082
F0.00015561521412336184
sVinitial
p1083
F9.818226869882226e-05
sVcausative
p1084
F0.0
sVtame
p1085
F0.00010151899312887363
sVavail
p1086
F0.0
sVhumorous
p1087
F5.075949656443681e-05
sVaccordingly
p1088
F5.075949656443681e-05
sVclinical
p1089
F0.0
sVcarthage_nursing_home_shooting
p1090
F0.0
sVway
p1091
F0.00036671946889064213
sVwax
p1092
F1.963645373976445e-05
sVjane
p1093
F0.0
sVmusic
p1094
F5.681569236333892e-05
sVempathy
p1095
F0.0
sVwar
p1096
F0.00015561521412336184
sVpurposely
p1097
F0.0
sVcalm
p1098
F0.0005075949656443682
sVfork
p1099
F1.963645373976445e-05
sVpamelor
p1100
F0.0
sVhead
p1101
F7.231088118970408e-05
sVcreation
p1102
F5.075949656443681e-05
sVamphs
p1103
F0.0
sVform
p1104
F0.00019527201444343448
sVoffer
p1105
F0.0009621862332484581
sVlorazepam
p1106
F0.0
sVmorpine
p1107
F0.0
sVanalyse
p1108
F0.0
sVacute
p1109
F0.0
sVpowerfully
p1110
F0.0
sVunderstandable
p1111
F0.0
sVzoom
p1112
F5.075949656443681e-05
sVheap
p1113
F0.0
sVblindness
p1114
F5.075949656443681e-05
sVtrue
p1115
F0.0001033793017641712
sVreset
p1116
F5.075949656443681e-05
sVcounsel
p1117
F0.0
sVcircumstantial
p1118
F0.0
sV2000ug
p1119
F0.0
sVhappen
p1120
F0.00039054402888686896
sVaza
p1121
F0.0
sVinside
p1122
F2.066025176848688e-05
sVb6
p1123
F0.0
sVhmm
p1124
F1.963645373976445e-05
sVnassa
p1125
F0.0
sVemotional
p1126
F0.0003045569793866209
sVfate
p1127
F5.075949656443681e-05
sVdelete
p1128
F6.224608564934473e-05
sVdiagnose
p1129
F0.0009136709381598626
sVtonne
p1130
F0.0
sV8mg
p1131
F0.0
sV155
p1132
F0.0
sVgo
p1133
F0.0
sVclassic
p1134
F6.224608564934473e-05
sVtoss
p1135
F5.075949656443681e-05
sVabstract
p1136
F5.075949656443681e-05
sVmirror
p1137
F0.00015561521412336184
sVmuscular
p1138
F3.112304282467236e-05
sVdrive
p1139
F0.000342353471071396
sVsoothe
p1140
F0.0
sVexist
p1141
F9.33691284740171e-05
sVprayer
p1142
F0.0
sVrequest
p1143
F5.890936121929335e-05
sVengeldinger
p1144
F0.0
sVawhile
p1145
F0.00015227848969331045
sV20
p1146
F0.00014462176237940816
sVsympathy
p1147
F5.075949656443681e-05
sVdealer
p1148
F0.00010151899312887363
sVshit
p1149
F0.0010581834560388604
sVphysical
p1150
F0.0
sVnh
p1151
F0.0
sVradically
p1152
F0.0
sV200mg
p1153
F0.0
sVnl
p1154
F0.00010151899312887363
sVfaithful
p1155
F5.075949656443681e-05
sVclingy
p1156
F5.075949656443681e-05
sVfloor
p1157
F3.112304282467236e-05
sVnb
p1158
F0.0
sVanesthesiologist
p1159
F0.0
sVgenerally
p1160
F0.0003338197135759956
sVactor
p1161
F5.075949656443681e-05
sVactos
p1162
F0.0
sVtil
p1163
F1.963645373976445e-05
sVrole
p1164
F0.00015227848969331045
sVcomplicit
p1165
F0.0
sVtest
p1166
F0.000392729074795289
sVtie
p1167
F3.112304282467236e-05
sVbecuase
p1168
F0.0
sVsmell
p1169
F9.33691284740171e-05
sVroll
p1170
F5.890936121929335e-05
sVtic
p1171
F0.0
sVnode
p1172
F0.0
sVpicture
p1173
F9.818226869882226e-05
sVintend
p1174
F0.0002537974828221841
sVsalad
p1175
F5.075949656443681e-05
sVcanto
p1176
F0.0
sVhandicap
p1177
F0.00020303798625774725
sVfelt
p1178
F0.0010014591407279869
sVupdate
p1179
F0.00010151899312887363
sVdiet
p1180
F0.0005075949656443682
sVoutpatient
p1181
F0.0
sVbrief
p1182
F5.075949656443681e-05
sVfell
p1183
F3.92729074795289e-05
sVprofessional
p1184
F6.224608564934473e-05
sVsnooze
p1185
F0.0
sVneuroscience
p1186
F0.0
sVnoradrenergic
p1187
F0.0
sVaware
p1188
F0.0
sVweekend
p1189
F9.33691284740171e-05
sVindo
p1190
F0.0
sVquintessentially
p1191
F0.0
sVreabsorption
p1192
F0.0
sVwarn
p1193
F0.0001963645373976445
sVyounger
p1194
F1.963645373976445e-05
sVregime
p1195
F0.0
sVallright
p1196
F0.0
sVapology
p1197
F0.0
sVglass
p1198
F5.16506294212172e-06
sVassume
p1199
F0.00020303798625774725
sVsigma
p1200
F0.0
sVinterval
p1201
F0.0
sVdaily
p1202
F0.0021318988557063458
sVgorilla
p1203
F5.075949656443681e-05
sVsafe
p1204
F0.0001963645373976445
sVapart
p1205
F1.963645373976445e-05
sVteeth
p1206
F0.00012449217129868945
sVpush
p1207
F7.85458149590578e-05
sVserious
p1208
F0.000392729074795289
sVquantity
p1209
F0.0
sVprospective
p1210
F0.0
sVantidpressents
p1211
F0.0
sVbasically
p1212
F0.0009644304347242995
sVintoxicate
p1213
F0.0
sVunavoidable
p1214
F0.0
sVlamactil
p1215
F0.0
sVbolus
p1216
F0.0
sVwhoever
p1217
F1.963645373976445e-05
sVskip
p1218
F0.00012449217129868945
sVkeep
p1219
F0.0004080399724276159
sVrelieve
p1220
F0.0
sVacademically
p1221
F0.0
sVfocus
p1222
F0.0009644304347242995
sVinvent
p1223
F5.075949656443681e-05
sV______________
p1224
F0.0
sVmirt
p1225
F0.0
sVmanager
p1226
F9.33691284740171e-05
sVtrichotillomania
p1227
F0.0
sVasymptomatic
p1228
F0.0
sVgrateful
p1229
F0.0
sVskin
p1230
F5.16506294212172e-06
sVbattle
p1231
F0.00015227848969331045
sVremarkably
p1232
F0.0
sVward
p1233
F0.00015227848969331045
sVanony
p1234
F0.0
sVretention
p1235
F5.075949656443681e-05
sVvet
p1236
F0.0003553164759510577
sVsuicide
p1237
F0.0007106329519021154
sVdepend
p1238
F0.0007106329519021154
sVzone
p1239
F0.00013745517617835115
sVpromote
p1240
F0.00010151899312887363
sVtechnique
p1241
F5.075949656443681e-05
sVsufferer
p1242
F0.0
sV94
p1243
F3.112304282467236e-05
sVrecurrence
p1244
F0.0
sV0
p1245
F0.00015561521412336184
sVfinally
p1246
F0.0004979686851947578
sVpermanently
p1247
F0.00015227848969331045
sV50lbs
p1248
F0.0
sVrhythm
p1249
F0.00020303798625774725
sVunrefreshing
p1250
F0.0
sVaspx
p1251
F0.00015227848969331045
sVride
p1252
F1.963645373976445e-05
sVpersevere
p1253
F0.0
sVprotective
p1254
F5.075949656443681e-05
sVstring
p1255
F1.1486589084907912e-05
sVgooglefu
p1256
F0.0
sVyeast
p1257
F3.112304282467236e-05
sVrecipe
p1258
F0.0
sVbluebrainboost
p1259
F0.0
sVmg
p1260
F0.0
sVseemingly
p1261
F0.00015227848969331045
sVchoice
p1262
F9.818226869882226e-05
sVultrashort
p1263
F0.0
sV977x
p1264
F0.0
sVcook
p1265
F3.112304282467236e-05
sVword
p1266
F3.615544059485204e-05
sVtrouble
p1267
F5.16506294212172e-05
sVdaytime
p1268
F0.0003045569793866209
sVexact
p1269
F0.00017672808365788004
sVminute
p1270
F0.0002749103523567023
sVcool
p1271
F0.0002537974828221841
sVdissociate
p1272
F0.0
sVdin
p1273
F0.0
sVunifiram
p1274
F0.0
sVdextropropoxyphene
p1275
F0.0
sVlevel
p1276
F4.648556647909548e-05
sVtear
p1277
F4.594635633963165e-05
sVdie
p1278
F5.743294542453957e-05
sVdig
p1279
F0.00010151899312887363
sVaccidentally
p1280
F1.963645373976445e-05
sVadderal
p1281
F0.0
sVleave
p1282
F0.00022973178169815827
sVitem
p1283
F1.963645373976445e-05
sVsoooo
p1284
F5.075949656443681e-05
sVsettle
p1285
F5.890936121929335e-05
sVpropanolol
p1286
F0.0
sVt_t
p1287
F0.0
sVteam
p1288
F0.00015227848969331045
sVquick
p1289
F2.58253147106086e-05
sVspiral
p1290
F5.075949656443681e-05
sVguy
p1291
F0.00025527389861693784
sVorganon
p1292
F0.0
sVdip
p1293
F5.075949656443681e-05
sVround
p1294
F3.445976725472374e-05
sVwellbutrin
p1295
F0.0
sVdis
p1296
F3.112304282467236e-05
sVanesthetic
p1297
F0.0
sVprevent
p1298
F0.0001867382569480342
sVspiritual
p1299
F0.00010151899312887363
sV105lbs
p1300
F0.0
sVregret
p1301
F6.224608564934473e-05
sVinsignificant
p1302
F0.0
sVsigh
p1303
F3.112304282467236e-05
sVsidetrack
p1304
F0.0
sVubiquitous
p1305
F0.0
sVdiscover
p1306
F9.33691284740171e-05
sV3723a635b4269dd35dc25bc269025ddd85632212
p1307
F0.0
sVsign
p1308
F2.066025176848688e-05
sVcetirizine
p1309
F0.0
sVstrenghts
p1310
F0.0
sVpmc
p1311
F0.0
sVneuropsychiatry
p1312
F0.0
sVravenous
p1313
F0.0
sVbacterial
p1314
F0.0
sVreaaaaally
p1315
F0.0
sVport
p1316
F1.963645373976445e-05
sVsubstitute
p1317
F0.0
sVepileptic
p1318
F0.0
sVeducate
p1319
F0.0
sVdarkest
p1320
F0.0
sVappear
p1321
F0.00012449217129868945
sV75mgs
p1322
F0.0
sVpsychotropic
p1323
F0.0
sVdepress_appd
p1324
F0.0
sVlowest
p1325
F5.075949656443681e-05
sVoxide
p1326
F0.0
sVmelt
p1327
F0.0
sVsupporter
p1328
F0.0
sVcurrent
p1329
F0.00017672808365788004
sVrub
p1330
F5.075949656443681e-05
sVhungry
p1331
F0.0006224608564934474
sVamericansubs
p1332
F0.0
sVsuspect
p1333
F0.00012449217129868945
sVketipinor
p1334
F0.0
sVgoooood
p1335
F0.0
sVinternational
p1336
F6.224608564934473e-05
sVappeal
p1337
F5.075949656443681e-05
sVboost
p1338
F0.0
sValertness
p1339
F0.0
sVparadoxical
p1340
F0.0
sVsatisfy
p1341
F0.0
sVfocalin
p1342
F0.0
sVassertive
p1343
F5.075949656443681e-05
sVfuneral
p1344
F5.075949656443681e-05
sVmr
p1345
F0.0
sVwater
p1346
F7.85458149590578e-05
sVht6
p1347
F0.0
sVwussy
p1348
F0.0
sVsnack
p1349
F5.075949656443681e-05
sVtopiramate
p1350
F0.0
sVaddress
p1351
F0.00012449217129868945
sValone
p1352
F0.00025527389861693784
sVratio
p1353
F5.075949656443681e-05
sValong
p1354
F6.198075530546064e-05
sVrue
p1355
F0.0
sVmild
p1356
F0.0
sVchange
p1357
F0.0008836404182894002
sVwait
p1358
F0.00016081224718871078
sVbox
p1359
F3.445976725472374e-05
sVboy
p1360
F1.963645373976445e-05
sVtianeptine
p1361
F0.0
sVarc
p1362
F0.0
sVstair
p1363
F0.0
sVthirty
p1364
F9.33691284740171e-05
sVinstitute
p1365
F0.0
sVshift
p1366
F0.0002537974828221841
sVsleepys
p1367
F0.0
sVbos
p1368
F0.0
sVbot
p1369
F0.0
sVcommonly
p1370
F0.0
sVprecuneus
p1371
F0.0
sVtrial
p1372
F0.0004979686851947578
sVineffective
p1373
F0.00015227848969331045
sVsuggestion
p1374
F9.33691284740171e-05
sVusually
p1375
F0.0007069123346315202
sVcyst
p1376
F0.0
sVweird
p1377
F0.0003534561673157601
sV20mg
p1378
F0.0
sVgenuinely
p1379
F0.00010151899312887363
sVpepto
p1380
F0.0
sVpancreatitis
p1381
F0.0
sVlove
p1382
F0.00021824519261325035
sVconfidentiality
p1383
F5.075949656443681e-05
sVstubborn
p1384
F0.0
sVproblematic
p1385
F0.00010151899312887363
sVmerely
p1386
F0.0
sVsubstitution
p1387
F0.0
sVprefer
p1388
F7.85458149590578e-05
sVwestroads_mall_shooting
p1389
F0.0
sVmess
p1390
F0.000342353471071396
sVflexibility
p1391
F0.0
sVcvp06t4
p1392
F0.0
sVlogically
p1393
F5.075949656443681e-05
sV27
p1394
F3.92729074795289e-05
sVfake
p1395
F0.00010151899312887363
sVlithium
p1396
F0.0
sVrarely
p1397
F0.0
sVempathogens
p1398
F0.0
sVpost
p1399
F0.0006224608564934474
sVmarket
p1400
F0.000778076070616809
sVeverybody
p1401
F3.112304282467236e-05
sVjan
p1402
F0.0
sVdeplin
p1403
F0.0
sVvenalefexine
p1404
F0.0
sVdiscus
p1405
F0.0
sVprove
p1406
F0.0
sVperk
p1407
F0.0
sVpositive
p1408
F0.0002356374448771734
sVangry
p1409
F9.33691284740171e-05
sVwane
p1410
F0.0
sVdude
p1411
F0.0004568354690799313
sVtightly
p1412
F6.224608564934473e-05
sVlive
p1413
F0.0001033012588424344
sVresubmit
p1414
F0.0
sVayy
p1415
F0.0
sVbender
p1416
F0.0
sVmemory
p1417
F0.0001963645373976445
sVtachycardic
p1418
F0.0
sVscope
p1419
F5.075949656443681e-05
sVsharpen
p1420
F0.0
sVpregabalin
p1421
F0.0
sVcheckout
p1422
F0.0
sVtheoretical
p1423
F0.0
sVahha
p1424
F0.0
sVaspirin
p1425
F0.0
sVdormant
p1426
F5.075949656443681e-05
sVantiemetic
p1427
F0.0
sVafford
p1428
F0.00010151899312887363
sVacceptable
p1429
F5.075949656443681e-05
sVcashier
p1430
F5.075949656443681e-05
sVvalidity
p1431
F0.0
sVatarax
p1432
F0.0
sVemployee
p1433
F5.075949656443681e-05
sVmirtazap
p1434
F0.0
sVtandem
p1435
F0.0
sVignorant
p1436
F0.0002537974828221841
sVdegrade
p1437
F0.0
sVsulfur
p1438
F5.075949656443681e-05
sVsit
p1439
F0.00017672808365788004
sVcaffeinated
p1440
F0.0
sVeffort
p1441
F0.00020303798625774725
sVfly
p1442
F3.92729074795289e-05
sVimpair
p1443
F0.0
sVpatently
p1444
F0.0
sVedible
p1445
F5.075949656443681e-05
sVflubromazepam
p1446
F0.0
sV3yr
p1447
F0.0
sVcar
p1448
F7.85458149590578e-05
sVoriginally
p1449
F3.112304282467236e-05
sVpretend
p1450
F5.075949656443681e-05
sVflu
p1451
F0.00010151899312887363
sVcolonidine
p1452
F0.0
sVcat
p1453
F0.00021786129977270654
sVintensely
p1454
F0.0
sVhardest
p1455
F0.00020303798625774725
sVquetiapine
p1456
F0.0
sVachieve
p1457
F0.00015227848969331045
sVaripiprazole
p1458
F0.0
sVcal
p1459
F0.0
sVmetoprolol
p1460
F0.0
sVarrive
p1461
F7.85458149590578e-05
sVdosage
p1462
F0.0014720254003686675
sVslightest
p1463
F0.0
sVsocial
p1464
F0.00014932565810380286
sVclaim
p1465
F9.818226869882226e-05
sVcrazy
p1466
F0.000342353471071396
sVfigure
p1467
F0.0003734765138960684
sVnexus
p1468
F0.0
sVdecember
p1469
F0.0
sVawesome
p1470
F0.0005583544622088049
sVarise
p1471
F0.0
sVfuck
p1472
F0.003705443249203887
sVagent
p1473
F0.0001570916299181156
sVednf
p1474
F0.0
sVsample
p1475
F4.594635633963165e-05
sV7pm
p1476
F0.0
sVdxm
p1477
F0.0
sVsurround
p1478
F0.0
sVexclude
p1479
F0.00010151899312887363
sVoffense
p1480
F0.00010151899312887363
sVbelsomra
p1481
F0.0
sVcardio
p1482
F0.0
sVoccur
p1483
F0.0003553164759510577
sVpink
p1484
F6.224608564934473e-05
sVdiclazepam
p1485
F0.0
sVproductive
p1486
F0.00010151899312887363
sVwinter
p1487
F3.112304282467236e-05
sVfortunately
p1488
F0.0
sVtilt
p1489
F0.0
sVdiscussion
p1490
F6.224608564934473e-05
sVget
p1491
F0.0
sVdinner
p1492
F5.890936121929335e-05
sVpublicise
p1493
F0.0
sVchemical
p1494
F0.0004060759725154945
sVtill
p1495
F6.224608564934473e-05
sVemotionless
p1496
F0.0
sVcriterion
p1497
F0.0
sVactual
p1498
F0.00015227848969331045
sVpure
p1499
F2.2973178169815824e-05
sVensure
p1500
F5.075949656443681e-05
sVadamant
p1501
F0.0
sVabsolute
p1502
F9.33691284740171e-05
sVeight
p1503
F1.963645373976445e-05
sVpathway
p1504
F0.0
sVnonstop
p1505
F5.075949656443681e-05
sVcontinous
p1506
F0.0
sVsnf
p1507
F0.0
sVopana
p1508
F0.0
sVproduct
p1509
F0.001369413884285584
sV145
p1510
F0.0
sVirrational
p1511
F0.0
sV140
p1512
F5.075949656443681e-05
sV141
p1513
F0.0
sVmay
p1514
F0.00047002072773307647
sVmax
p1515
F0.00010151899312887363
sVdive
p1516
F5.075949656443681e-05
sVuse
p1517
F0.0011363138472667783
sVspot
p1518
F3.92729074795289e-05
sVuracil
p1519
F0.0
sVlaxative
p1520
F0.0
sVproduce
p1521
F0.00021786129977270654
sVmad
p1522
F1.1486589084907912e-05
sVdate
p1523
F6.224608564934473e-05
sVmah
p1524
F5.075949656443681e-05
sVsuck
p1525
F0.000778076070616809
sVdata
p1526
F0.00020303798625774725
sVgrow
p1527
F0.0001867382569480342
sVwhathaveyou
p1528
F0.0
sVman
p1529
F6.198075530546064e-05
sV120
p1530
F0.0
sVstress
p1531
F0.000342353471071396
sVnatural
p1532
F9.33691284740171e-05
sVneck
p1533
F3.112304282467236e-05
sVliquid
p1534
F0.0003553164759510577
sVconscious
p1535
F5.075949656443681e-05
sVwhenever
p1536
F9.33691284740171e-05
sVsr
p1537
F0.0
sVgoal
p1538
F0.0003045569793866209
sVibu
p1539
F0.0
sVq
p1540
F0.0
sVprovide
p1541
F0.0004060759725154945
sVswitch
p1542
F0.0010893064988635327
sVtailor
p1543
F0.0
sVsidewalk
p1544
F5.075949656443681e-05
sVghb
p1545
F0.0
sVunleash
p1546
F0.0
sVbunk
p1547
F5.075949656443681e-05
sVtalk
p1548
F0.0012960059468244537
sV2mg
p1549
F0.0
sVtachy
p1550
F0.0
sVunbind
p1551
F0.0
sVlsd
p1552
F0.0
sVdisclosure
p1553
F0.0
sVserve
p1554
F6.224608564934473e-05
sVgradual
p1555
F0.0
sVepilepsy
p1556
F0.0
sVmainly
p1557
F0.00015561521412336184
sVunacceptable
p1558
F3.112304282467236e-05
sVfeature
p1559
F3.112304282467236e-05
sVpreskorn
p1560
F0.0
sVcourse
p1561
F0.00022973178169815827
sVprogram
p1562
F0.00015561521412336184
sVshake
p1563
F6.224608564934473e-05
sVhorrify
p1564
F0.0
sVcold
p1565
F0.00037309262105552455
sVstill
p1566
F0.0
sVskeleton
p1567
F1.963645373976445e-05
sVtendency
p1568
F0.00015227848969331045
sVrapid
p1569
F0.0004060759725154945
sVvta
p1570
F0.0
sV86
p1571
F0.0
sVpolice
p1572
F3.112304282467236e-05
sVthank
p1573
F0.0007461852421110491
sVacknowledge
p1574
F0.0
sVtemporolimbical
p1575
F0.0
sVorganisation
p1576
F0.0
sVpresence
p1577
F1.1486589084907912e-05
sVideation
p1578
F0.0
sVwindow
p1579
F2.2973178169815824e-05
sVjiu
p1580
F0.0
sVpolicy
p1581
F0.00020303798625774725
sVsuspension
p1582
F0.0
sVtachycardia
p1583
F0.0
sVmain
p1584
F0.00014462176237940816
sVnortriptyline
p1585
F0.0
sVtoxin
p1586
F0.0
sVnon
p1587
F9.813619590031268e-05
sVfloat
p1588
F3.112304282467236e-05
sVopioids
p1589
F0.0
sVthereby
p1590
F0.0
sVremron
p1591
F0.0
sVnod
p1592
F0.0003553164759510577
sVbenzodiazepine_withdrawal_syndrome
p1593
F0.0
sVinsomnia
p1594
F0.0
sVsarcastic
p1595
F5.075949656443681e-05
sVlunch
p1596
F3.92729074795289e-05
sVexenatide
p1597
F0.0
sVadrenaline
p1598
F0.0
sVrexulti
p1599
F0.0
sVbase
p1600
F8.040612359435539e-05
sVgate
p1601
F0.00020303798625774725
sVprosource
p1602
F0.0
sVtricyclic
p1603
F0.0
sVuncontrolled
p1604
F0.0
sVbullshit
p1605
F0.00020303798625774725
sVoutweigh
p1606
F0.0
sVsusceptibility
p1607
F0.0
sVterm
p1608
F0.0006676394271519912
sVdeliriants
p1609
F0.0
sVname
p1610
F3.615544059485204e-05
sV_____________________________________________________
p1611
F0.0
sVstahl
p1612
F0.0
sVcognition
p1613
F0.00010151899312887363
sVprophylaxis
p1614
F0.0
sVdidn
p1615
F0.0004132050353697376
sVlithobid
p1616
F0.0
sVconcerta
p1617
F0.0
sVvendor
p1618
F6.224608564934473e-05
sVdysphoric
p1619
F0.0
sVgamble
p1620
F5.075949656443681e-05
sVdaytrana
p1621
F0.0
sVrock
p1622
F5.890936121929335e-05
sVantiepileptic
p1623
F0.0
sVanyeone
p1624
F0.0
sVentirely
p1625
F0.00013783906901889496
sVquarter
p1626
F3.112304282467236e-05
sVhumanish
p1627
F0.0
sVem
p1628
F1.1486589084907912e-05
sVel
p1629
F5.075949656443681e-05
sVen
p1630
F0.0010270604132141881
sVeyelid
p1631
F0.0
sVeh
p1632
F3.92729074795289e-05
sVreplication
p1633
F0.0
sVlam
p1634
F5.075949656443681e-05
sVed
p1635
F9.33691284740171e-05
sVbeloved
p1636
F5.075949656443681e-05
sVyeah
p1637
F0.000684706942142792
sVbreakthrough
p1638
F0.0
sVex
p1639
F0.0001867382569480342
sVsignage
p1640
F0.0
sVokay
p1641
F0.000591337813668775
sVgirl
p1642
F3.445976725472374e-05
sVsummary
p1643
F0.0
sVmedication
p1644
F0.0028932913041728983
sVfriggen
p1645
F0.0
sVdescription
p1646
F5.075949656443681e-05
sVtroll
p1647
F5.075949656443681e-05
sVhcp
p1648
F0.0
sVaccomplish
p1649
F0.0
sVjackson
p1650
F0.0
sVspace
p1651
F6.224608564934473e-05
sV100g
p1652
F0.0
sVirony
p1653
F6.224608564934473e-05
sVsitagliptin
p1654
F0.0
sVinterference
p1655
F0.0
sVstumble
p1656
F0.0
sVincrease
p1657
F0.002303105169025755
sVlad
p1658
F6.224608564934473e-05
sVseriously
p1659
F0.00017672808365788004
sVhallucinate
p1660
F0.0
sVtrauma
p1661
F0.0
sVrational
p1662
F0.0
sVinternet
p1663
F9.33691284740171e-05
sVpyridinylpiperazine
p1664
F0.0
sVbless
p1665
F3.112304282467236e-05
sV10pack
p1666
F0.0
sVhci
p1667
F0.0
sVcorrect
p1668
F9.33691284740171e-05
sVtangible
p1669
F0.0
sVscrew
p1670
F9.33691284740171e-05
sVneurotrophic
p1671
F0.0
sVearlier
p1672
F8.040612359435539e-05
sVmonster
p1673
F5.890936121929335e-05
sVampakines
p1674
F0.0
sVvariant
p1675
F0.0
sVmillion
p1676
F0.00010151899312887363
sVpossibility
p1677
F0.00012449217129868945
sVquite
p1678
F0.00016011695120577332
sVwal
p1679
F0.0
sVcalifornia
p1680
F0.0
sVbesides
p1681
F0.00021786129977270654
sVclozaril
p1682
F0.0
sVorg
p1683
F0.002436455835092967
sVvenlaflaxine
p1684
F0.0
sVcard
p1685
F6.224608564934473e-05
sVcare
p1686
F0.0002489843425973789
sVadvance
p1687
F9.818226869882226e-05
sV10ml
p1688
F0.0
sVcouldn
p1689
F0.0001837854253585266
sVlanguage
p1690
F1.963645373976445e-05
sVhypnogogic
p1691
F0.0
sVstandby
p1692
F0.0
sVdunno
p1693
F6.224608564934473e-05
sVdeprivation
p1694
F0.0
sVproperty
p1695
F8.040612359435539e-05
sV10mg
p1696
F0.0
sVmotion
p1697
F3.112304282467236e-05
sVthing
p1698
F0.0003150688394694249
sVmaprotiline
p1699
F0.0
sVplace
p1700
F4.648556647909548e-05
sVundesirable
p1701
F0.0
sVswing
p1702
F0.0002537974828221841
sVpromotion
p1703
F5.075949656443681e-05
sVview
p1704
F5.743294542453957e-05
sVthink
p1705
F0.0009400414554661529
sVfrequent
p1706
F0.00015227848969331045
sVfirst
p1707
F0.000516506294212172
sVexotic
p1708
F5.075949656443681e-05
sVsuspend
p1709
F0.0
sVxl
p1710
F0.0
sVlmaoooooooo
p1711
F0.0
sVnutritional
p1712
F0.0
sVrequirement
p1713
F3.112304282467236e-05
sVentheogens
p1714
F0.0
sVone
p1715
F0.0
sVspecifically
p1716
F0.0
sVdirectly
p1717
F7.85458149590578e-05
sVcarry
p1718
F3.099037765273032e-05
sVchubby
p1719
F5.075949656443681e-05
sVmessage
p1720
F0.0002749103523567023
sVdelirients
p1721
F0.0
sVcontraindicate
p1722
F0.0
sVtomorrow
p1723
F0.00010151899312887363
sVzap
p1724
F0.0002537974828221841
sVlanguish
p1725
F0.0
sVcity
p1726
F5.890936121929335e-05
sVlittle
p1727
F0.0
sVnecessarily
p1728
F9.33691284740171e-05
sVsheet
p1729
F3.92729074795289e-05
sVquality
p1730
F0.0005694571584531691
sV1x
p1731
F0.0
sVbite
p1732
F0.00047095015248122435
sVcarbonate
p1733
F0.0
sVremotely
p1734
F3.112304282467236e-05
sVanyone
p1735
F8.040612359435539e-05
sVpsychotic
p1736
F0.0006598734553376785
sV2
p1737
F0.0008057498189709884
sV1g
p1738
F0.0
sVrealization
p1739
F0.0
sVhumalog
p1740
F0.0
sVwhite
p1741
F3.445976725472374e-05
sVcite
p1742
F0.0
sVwilliams
p1743
F0.0
sVfma
p1744
F0.0
sVnutrition
p1745
F0.0
sVfexofenadine
p1746
F0.0
sVhug
p1747
F0.00010151899312887363
sVactivity
p1748
F0.0011167089244176098
sVmostly
p1749
F0.00025527389861693784
sVcontinuous
p1750
F5.075949656443681e-05
sVadrenergic
p1751
F0.0
sVaccurately
p1752
F3.112304282467236e-05
sVsupply
p1753
F5.075949656443681e-05
sVerectile
p1754
F0.0
sVridiculous
p1755
F0.00015227848969331045
sVbutt
p1756
F0.00015227848969331045
sVoccurence
p1757
F0.0
sVpeck
p1758
F0.0
sVspecify
p1759
F0.00010151899312887363
sVinventor
p1760
F0.0
sV11
p1761
F1.549518882636516e-05
sV10
p1762
F0.0002840784618166946
sV13
p1763
F7.85458149590578e-05
sV12
p1764
F0.00029440858770093806
sV15
p1765
F0.0002324278323954774
sV14
p1766
F0.0003141832598362312
sV17
p1767
F0.0005105477972338757
sV16
p1768
F0.0003141832598362312
sV19
p1769
F3.92729074795289e-05
sV18
p1770
F7.85458149590578e-05
sVgotta
p1771
F0.00015561521412336184
sV1800mg
p1772
F0.0
sVmetabolism
p1773
F0.0002537974828221841
sVrehab
p1774
F0.00015227848969331045
sVactively
p1775
F0.0
sVmagnesium
p1776
F0.0
sVcopay
p1777
F0.0
sVdarknet
p1778
F0.0
sVcollege
p1779
F0.0003553164759510577
sVinmediatly
p1780
F0.0
sVcounselor
p1781
F5.075949656443681e-05
sVdecompose
p1782
F0.0
sVprospect
p1783
F0.0
sVnifedipine
p1784
F0.0
sVtroublesome
p1785
F0.0
sVillness
p1786
F0.0
sVsan
p1787
F0.0
sVnicer
p1788
F3.112304282467236e-05
sVintolerance
p1789
F0.0
sVpro
p1790
F0.0
sVcymbalta
p1791
F0.0
sVmarijuana
p1792
F0.0003045569793866209
sVslap
p1793
F5.075949656443681e-05
sVsad
p1794
F0.0001178187224385867
sVinpatient
p1795
F0.0
sVsay
p1796
F0.0006198075530546063
sVpubmed
p1797
F0.0
sVcomedian
p1798
F5.075949656443681e-05
sVtetracyclic
p1799
F0.0
sVshitload
p1800
F0.0
sVbreakfast
p1801
F9.33691284740171e-05
sVrecover
p1802
F5.890936121929335e-05
sVsaw
p1803
F9.818226869882226e-05
sVcalendar
p1804
F3.112304282467236e-05
sVinvite
p1805
F5.075949656443681e-05
sVkush
p1806
F0.0
sVaspirate
p1807
F0.0
sVefficient
p1808
F0.0
sVisolate
p1809
F0.0
sVaside
p1810
F0.00013745517617835115
sV1000000
p1811
F0.0
sVstability
p1812
F0.0
sVnote
p1813
F0.00014932565810380286
sVrumination
p1814
F0.0
sVpotential
p1815
F0.0007106329519021154
sVtake
p1816
F0.0013325862390674036
sVfracture
p1817
F0.0
sVonline
p1818
F0.0002489843425973789
sVdestroy
p1819
F0.0003045569793866209
sVconcern
p1820
F0.0006091139587732418
sVimpairment
p1821
F0.0
sVchannel
p1822
F0.00015561521412336184
sV200
p1823
F0.00020303798625774725
sVbegin
p1824
F0.00025527389861693784
sVsure
p1825
F0.0007581148796039222
sVpain
p1826
F0.0004712748897543468
sVbotulinum
p1827
F0.0
sVopposite
p1828
F0.00015561521412336184
sVtrack
p1829
F0.0001867382569480342
sVprice
p1830
F0.0004516384360145823
sVcorrelation
p1831
F0.0
sVmolecule
p1832
F0.0
sVclearer
p1833
F0.0
sVovarian
p1834
F0.0
sVbeta
p1835
F0.0009644304347242995
sVimportantly
p1836
F0.0
sVpsychoactive
p1837
F0.0
sVcrochet
p1838
F0.0
sVpair
p1839
F3.112304282467236e-05
sVknee
p1840
F0.0
sV130
p1841
F3.112304282467236e-05
sVpersrcibed
p1842
F0.0
sVlatex
p1843
F0.00015227848969331045
sVforever
p1844
F0.00015561521412336184
sVespecially
p1845
F0.00033311108346232947
sVenamel
p1846
F0.0
sVenergize
p1847
F0.0
sVdream
p1848
F0.0008403221562661538
sVaverage
p1849
F9.33691284740171e-05
sVlater
p1850
F0.0004712748897543468
sVsteady
p1851
F0.0
sVsale
p1852
F0.0010659494278531729
sVtooth
p1853
F0.00010151899312887363
sVproperly
p1854
F3.445976725472374e-05
sVpdoc
p1855
F0.0
sVarguably
p1856
F0.0
sVhear
p1857
F0.0004364903852265007
sVsalt
p1858
F0.00015227848969331045
sVtrip_report_mirtazapine_remeron_225mg
p1859
F0.0
sVmasturbation
p1860
F5.075949656443681e-05
sVshop
p1861
F0.00010151899312887363
sVstimulator
p1862
F0.0
sVdrastically
p1863
F0.0
sVset
p1864
F6.714581824758236e-05
sV1x013o
p1865
F0.0
sVshow
p1866
F0.0001033012588424344
sVginseng
p1867
F0.0
sVable
p1868
F0.0004364903852265007
sVcheap
p1869
F0.00012449217129868945
sVlet
p1870
F0.00017044707709001677
sVfifty
p1871
F6.224608564934473e-05
sVmoderator
p1872
F0.0
sVelevate
p1873
F0.0
sVbright
p1874
F1.963645373976445e-05
sVtherapist
p1875
F0.000812151945030989
sVtiredness
p1876
F0.0
sVhack
p1877
F0.00010151899312887363
sVcorner
p1878
F1.1486589084907912e-05
sVaggressive
p1879
F0.0
sVnlm
p1880
F0.0
sVpromosing
p1881
F0.0
sV120mg
p1882
F0.0
sVlearntech
p1883
F0.0
sVfend
p1884
F0.0
sVslow
p1885
F0.00017229883627361867
sVsativa
p1886
F0.0
sVoffice
p1887
F1.963645373976445e-05
sVglucotrol
p1888
F0.0
sVtitle
p1889
F6.224608564934473e-05
sVconduction
p1890
F0.0
sVdick
p1891
F0.00010151899312887363
sV500mg
p1892
F0.0
sVpump
p1893
F5.075949656443681e-05
sVfluid
p1894
F0.00010151899312887363
sVconsiderable
p1895
F3.112304282467236e-05
sVamount
p1896
F0.0002945468060964667
sVstand
p1897
F9.18927126792633e-05
sVblack
p1898
F0.00011486589084907914
sVessence
p1899
F0.0
sVdoxepin
p1900
F0.0
sVextracellular
p1901
F0.0
sVawareness
p1902
F0.0
sVcarolina
p1903
F0.0
sVfda
p1904
F0.0
sVnootropics
p1905
F0.0
sVexaggeration
p1906
F0.0
sVpsychiatrist
p1907
F0.0002537974828221841
sVatypical
p1908
F0.0006598734553376785
sVhorrible
p1909
F0.0004045995567207407
sVexpectation
p1910
F0.0
sVtruly
p1911
F0.00015561521412336184
sVaim
p1912
F6.224608564934473e-05
sVunimportant
p1913
F5.075949656443681e-05
sVcannot
p1914
F8.040612359435539e-05
sVsoltab
p1915
F0.0
sVcheat
p1916
F0.00010151899312887363
sVrejection
p1917
F0.0
sVconjunction
p1918
F0.0
sVneither
p1919
F6.224608564934473e-05
sVstroll
p1920
F0.0
sVsecondary
p1921
F5.890936121929335e-05
sVprime
p1922
F5.075949656443681e-05
sVmaniacal
p1923
F0.0
sVinvestigational
p1924
F0.0
sVzofran
p1925
F0.0
sVexplore
p1926
F5.075949656443681e-05
sVobliterate
p1927
F0.0
sVmorning
p1928
F0.0013071677986362393
sVtdoc
p1929
F0.0
sVstupid
p1930
F0.0002945468060964667
sVcf
p1931
F0.00010151899312887363
sVepival
p1932
F0.0
sVgps
p1933
F0.0
sVvision
p1934
F0.0
sVwiki
p1935
F0.0
sVsmoothy
p1936
F0.0
sVallosteric
p1937
F0.0
sVlethargy
p1938
F0.0
sVconcert
p1939
F5.075949656443681e-05
sVburst
p1940
F3.112304282467236e-05
sVphysically
p1941
F0.0005075949656443682
sVgeometrical
p1942
F0.0
sVamtriptalyne
p1943
F0.0
sValcoholism
p1944
F0.00015227848969331045
sVmaximum
p1945
F0.00015227848969331045
sVrelative
p1946
F0.00015227848969331045
sVnamely
p1947
F0.0
sVunfit
p1948
F0.0
sVasleep
p1949
F0.0006535838993181197
sVanyways
p1950
F0.00012449217129868945
sVgroup
p1951
F0.00013783906901889496
sVprocoralan
p1952
F0.0
sVversus
p1953
F3.112304282467236e-05
sVstigma
p1954
F0.0
sVsurgery
p1955
F0.00015227848969331045
sVsport
p1956
F6.224608564934473e-05
sVwonder
p1957
F0.0002356374448771734
sVchronically
p1958
F0.0
sVinhibitory
p1959
F0.0
sVglipizide
p1960
F0.0
sVsubsequent
p1961
F0.00010151899312887363
sVreview
p1962
F0.0
sVdefinite
p1963
F5.075949656443681e-05
sVlabel
p1964
F0.0001178187224385867
sV3
p1965
F0.001183118675745515
sVjoy
p1966
F3.112304282467236e-05
sVherbal
p1967
F0.00020303798625774725
sVacross
p1968
F0.00017672808365788004
sVnutrical
p1969
F0.0
sVx4
p1970
F0.0
sVaffordable
p1971
F0.0
sVfight
p1972
F9.818226869882226e-05
sVnotice
p1973
F0.00032162449437742155
sVstims
p1974
F0.0
sVaugust
p1975
F0.0
sVparent
p1976
F0.0004979686851947578
sVsomnolence
p1977
F0.0
sVmarch
p1978
F5.075949656443681e-05
sVballsdeep
p1979
F0.0
sVbrokenly
p1980
F0.0
sVflow
p1981
F0.00010151899312887363
sVblame
p1982
F0.0001178187224385867
sVcardiologist
p1983
F0.0
sVsteroid
p1984
F0.0
sVseroqeul
p1985
F0.0
sVunusually
p1986
F0.0
sVvenlafaxine
p1987
F0.0
sVarticle
p1988
F0.0001178187224385867
sVtub
p1989
F0.0
sVinterfere
p1990
F0.00010151899312887363
sVcome
p1991
F0.0003822146577170073
sVtug
p1992
F0.0
sVguitar
p1993
F6.224608564934473e-05
sVcircumference
p1994
F0.0
sVncbi
p1995
F0.0
sVtopamax
p1996
F0.0
sVmany
p1997
F0.0
sVregion
p1998
F3.112304282467236e-05
sVsodium
p1999
F0.0
sVpsychedelics
p2000
F0.0
sVquiet
p2001
F3.445976725472374e-05
sVsomewhere
p2002
F3.445976725472374e-05
sVconcentrate
p2003
F0.00010151899312887363
sViv
p2004
F0.0
sVdisappointment
p2005
F3.112304282467236e-05
sVlatuda
p2006
F0.0
sVexpression
p2007
F1.963645373976445e-05
sVnoopept
p2008
F0.0
sVriddle
p2009
F0.0
sVamong
p2010
F0.00021786129977270654
sVprovocation
p2011
F0.0
sVcancer
p2012
F0.00010151899312887363
sV150
p2013
F0.0
sVcolor
p2014
F5.890936121929335e-05
sVeffective
p2015
F0.002334936841964093
sVpot
p2016
F0.000342353471071396
sVjog
p2017
F0.0
sVperiod
p2018
F0.00013783906901889496
sVpop
p2019
F0.00021786129977270654
sVthiazolidinediones
p2020
F0.0
sVcoma
p2021
F0.00010151899312887363
sVludiomil
p2022
F0.0
sVpanicy
p2023
F0.0
sV3000
p2024
F0.0
sVcomeback
p2025
F5.075949656443681e-05
sVcancel
p2026
F0.00015227848969331045
sVfreak
p2027
F5.075949656443681e-05
sVguesstimate
p2028
F0.0
sVactually
p2029
F0.0003150688394694249
sVspark
p2030
F0.0
sVboat
p2031
F0.00010151899312887363
sVturkey
p2032
F0.0006598734553376785
sVsynergize
p2033
F0.0
sVunusual
p2034
F3.112304282467236e-05
sVboil
p2035
F0.00010151899312887363
sVneurogenesis
p2036
F0.0
sVdspd
p2037
F0.0
sVstretch
p2038
F3.112304282467236e-05
sVwobble
p2039
F5.075949656443681e-05
sVskew
p2040
F0.0
sVcalisthenic
p2041
F0.0
sVvacation
p2042
F0.00015227848969331045
sVmark
p2043
F7.85458149590578e-05
sVmart
p2044
F0.0
sVwithdrawls
p2045
F0.0
sVsesh
p2046
F0.0
sVsedative
p2047
F0.0
sVhardly
p2048
F9.33691284740171e-05
sVmary
p2049
F0.0
sV15mg
p2050
F0.0
sVdirection
p2051
F5.16506294212172e-06
sVreligiously
p2052
F0.0
sVpioglitazone
p2053
F0.0
sVconflate
p2054
F0.0
sVreaction
p2055
F0.0004979686851947578
sVagranulocytosis
p2056
F0.0
sVunsafe
p2057
F5.075949656443681e-05
sVthousand
p2058
F1.963645373976445e-05
sVbmi
p2059
F0.0
sVcleave
p2060
F0.0
sVobserve
p2061
F3.112304282467236e-05
sVwake
p2062
F0.0009621862332484581
sV1ml
p2063
F0.0
sVoverdose
p2064
F0.0006598734553376785
sVhardcore
p2065
F5.075949656443681e-05
sVcareful
p2066
F0.00021786129977270654
sVirrelevant
p2067
F5.075949656443681e-05
sVformer
p2068
F4.594635633963165e-05
sV1mg
p2069
F0.0
sVcountless
p2070
F0.0
sVsound
p2071
F0.0004135172070566848
sVkappa
p2072
F0.0
sVzispin
p2073
F0.0
sV2894
p2074
F0.0
sVmegace
p2075
F0.0
sVsildenafil
p2076
F0.0
sVtrick
p2077
F5.890936121929335e-05
sVantidepressents
p2078
F0.0
sVongoing
p2079
F0.0
sVpizza
p2080
F5.075949656443681e-05
sVjoke
p2081
F6.224608564934473e-05
sVsituation
p2082
F0.0006535838993181197
sVpertain
p2083
F0.0
sVive
p2084
F0.0
sVcigs
p2085
F0.0
sVctrl
p2086
F5.075949656443681e-05
sVunwise
p2087
F0.0
sVside_effect
p2088
F0.0
sVbros
p2089
F0.0
sVjitsu
p2090
F0.0
sVblah
p2091
F6.224608564934473e-05
sVsomeone
p2092
F0.0
sVembrace
p2093
F5.075949656443681e-05
sVdangerously
p2094
F5.075949656443681e-05
sVprotein
p2095
F0.0
sVblab
p2096
F0.0
sVhelium
p2097
F0.0
sVeveryday
p2098
F0.00020303798625774725
sVworry
p2099
F0.0002067586035283424
sVantihistiminergic
p2100
F0.0
sVdead
p2101
F3.445976725472374e-05
sVdifferent
p2102
F0.0007466282905190143
sVpas
p2103
F0.00015561521412336184
sVritalin
p2104
F0.0
sVharsh
p2105
F6.224608564934473e-05
sVdoctor
p2106
F0.0010151899312887363
sVpay
p2107
F4.132050353697376e-05
sVdiarrhea
p2108
F0.0004568354690799313
sVperpetually
p2109
F0.00010151899312887363
sVrelaxant
p2110
F0.0
sVsupra
p2111
F0.0
sVtrip
p2112
F0.0008403221562661538
sVfood
p2113
F0.00035608426163214526
sVreboxetine
p2114
F0.0
sVpad
p2115
F3.112304282467236e-05
sVunderestimate
p2116
F5.075949656443681e-05
sVcoworkers
p2117
F0.00010151899312887363
sVacording
p2118
F0.0
sVjohnshopkinshealthalerts
p2119
F0.0
sVreminder
p2120
F5.075949656443681e-05
sVdocument
p2121
F3.112304282467236e-05
sVjitteriness
p2122
F0.0
sVmoronic
p2123
F0.0
sVbreakdown
p2124
F0.00020303798625774725
sVexhaust
p2125
F0.0
sVoil
p2126
F0.00015561521412336184
sVween
p2127
F0.0
sVclosest
p2128
F3.112304282467236e-05
sVsickness
p2129
F5.075949656443681e-05
sVenjoyment
p2130
F0.0
sV23921954
p2131
F0.0
sVfoam
p2132
F5.075949656443681e-05
sVness
p2133
F5.075949656443681e-05
sVsleepiness
p2134
F0.0
sVfruit
p2135
F1.1486589084907912e-05
sVanecdotal
p2136
F0.0
sVesmirtazapine
p2137
F0.0
sVunmanageable
p2138
F0.0
sVtoxicology
p2139
F0.0
sVtotally
p2140
F0.00014932565810380286
sVcouncilling
p2141
F0.0
sVmentally
p2142
F0.0004060759725154945
sVbooster
p2143
F0.0
sVcatastrophizing
p2144
F0.0
sVlargely
p2145
F0.0
sVminimize
p2146
F5.075949656443681e-05
sVantihistamine
p2147
F0.0
sVpage
p2148
F0.0001867382569480342
sVsevere
p2149
F0.000778076070616809
sVwithout
p2150
F0.0
sVsolve
p2151
F0.0001867382569480342
sVrelief
p2152
F0.0
sVbottle
p2153
F0.0018458266515378582
sVinability
p2154
F0.00010151899312887363
sVcialis
p2155
F0.0
sVreward
p2156
F9.33691284740171e-05
sVmotorskills
p2157
F0.0
sVjustify
p2158
F0.0
sVsummer
p2159
F0.00017672808365788004
sVescitalopram
p2160
F0.0
sVaffair
p2161
F3.112304282467236e-05
sVtightness
p2162
F0.0
sVbenzo
p2163
F0.0
sVmoney
p2164
F0.000342353471071396
sVslime
p2165
F5.075949656443681e-05
sVrest
p2166
F3.099037765273032e-05
sVdysautonomia
p2167
F0.0
sVfoot
p2168
F1.963645373976445e-05
sV5ht
p2169
F0.0
sVrelevant
p2170
F0.0
sVkill
p2171
F0.000264191548952882
sVaspect
p2172
F0.00012449217129868945
sVask_wikibot
p2173
F0.0
sVtouch
p2174
F9.18927126792633e-05
sVbehavioural
p2175
F0.0
sVreality
p2176
F0.0005075949656443682
sVspeed
p2177
F2.58253147106086e-05
sVwiki_laboratory_analysis
p2178
F0.0
sVplateau
p2179
F0.0
sVethyl
p2180
F0.0
sVketamine
p2181
F0.0
sVintolerable
p2182
F0.0
sVsixteen
p2183
F3.112304282467236e-05
sVasthma
p2184
F0.00010151899312887363
sVangiotensin
p2185
F0.0
sVnick
p2186
F5.075949656443681e-05
sVremember
p2187
F0.0001807772029742602
sVexcept
p2188
F0.00016081224718871078
sVimprovement
p2189
F0.0002801073854220513
sVwall
p2190
F0.00015561521412336184
sVverse
p2191
F0.0
sV4
p2192
F0.0002892435247588163
sVthrow
p2193
F0.0004357225995454131
sVghostly
p2194
F0.0
sVelectrical
p2195
F0.00015227848969331045
sVglyburide
p2196
F0.0
sVdisrupt
p2197
F0.0
sVpill
p2198
F0.007766202974358833
sVvicodin
p2199
F0.0
sVntioned
p2200
F0.0
sVaround
p2201
F0.00022726276945335568
sV4pm
p2202
F0.0
sVdesperately
p2203
F0.00012449217129868945
sVread
p2204
F0.00022973178169815827
sVtwitchy
p2205
F0.0
sVdiphenhydramine
p2206
F0.0
sVdiscontinue
p2207
F0.0
sVgonna
p2208
F0.0001570916299181156
sVdart
p2209
F5.075949656443681e-05
sVdark
p2210
F0.0
sVbury
p2211
F0.0
sVpsy
p2212
F0.0
sVtraffic
p2213
F5.075949656443681e-05
sVtingle
p2214
F0.0
sVmom
p2215
F0.0002537974828221841
sVworld
p2216
F0.00014932565810380286
sVmoa
p2217
F0.0
sVbodyweightfitness
p2218
F0.0
sVgrin
p2219
F3.112304282467236e-05
sVmod
p2220
F0.00010151899312887363
sVtegretol
p2221
F0.0
sV60
p2222
F0.00015561521412336184
sVfibromyalgia
p2223
F0.0
sVstranger
p2224
F0.00020303798625774725
sVbuspan
p2225
F0.0
sVhypersomnia
p2226
F0.0
sVpiece
p2227
F0.0004123655285350534
sVmiracle
p2228
F0.0
sVserver
p2229
F5.075949656443681e-05
sVsanity
p2230
F0.0
sVbenefit
p2231
F0.00126898741411092
sVidk
p2232
F0.0
sVeither
p2233
F0.00017044707709001677
sVneuronal
p2234
F0.0
sVfully
p2235
F0.00011486589084907914
sVcompletely
p2236
F0.00016081224718871078
sVpassionate
p2237
F1.963645373976445e-05
sVmirtazon
p2238
F0.0
sVgild
p2239
F0.0
sV0924
p2240
F0.0
sVnodd
p2241
F0.0
sVconditional
p2242
F0.0
sVpronounce
p2243
F0.00020303798625774725
sVl
p2244
F7.85458149590578e-05
sVplethora
p2245
F0.0
sVmeara
p2246
F0.0
sVerase
p2247
F5.075949656443681e-05
sVrefresh
p2248
F5.075949656443681e-05
sVibuprofen
p2249
F0.0
sVduration
p2250
F0.0
sV72
p2251
F5.075949656443681e-05
sVdivine
p2252
F5.075949656443681e-05
sVspasm
p2253
F0.0
sVexplode
p2254
F0.0
sV4mg
p2255
F0.0
sVslice
p2256
F5.075949656443681e-05
sVmood
p2257
F0.0016806443125323076
sVbenzodiazepine
p2258
F0.0
sVincredible
p2259
F0.00010151899312887363
sV28k465
p2260
F0.0
sVsize
p2261
F5.743294542453957e-05
sVcarb
p2262
F3.112304282467236e-05
sVoverly
p2263
F5.075949656443681e-05
sVlegal
p2264
F0.00015227848969331045
sVresonate
p2265
F0.0
sVcannabis
p2266
F0.0
sVcritical
p2267
F3.112304282467236e-05
sVexit
p2268
F1.963645373976445e-05
sVinject
p2269
F0.00015227848969331045
sVpropylthiouracil
p2270
F0.0
sVprovider
p2271
F0.0
sVmaoi
p2272
F0.0
sVmoderate
p2273
F0.0002537974828221841
sV911
p2274
F0.0
sVdecent
p2275
F9.818226869882226e-05
sVknife
p2276
F3.92729074795289e-05
sVrefer
p2277
F0.00020303798625774725
sVapocalyptic
p2278
F0.0
sVwilly
p2279
F0.0
sVmethamphetamine
p2280
F0.0
sVwelcome
p2281
F1.033012588424344e-05
sVscientific
p2282
F0.00010151899312887363
sVpower
p2283
F6.891953450944748e-05
sVintimate
p2284
F3.112304282467236e-05
sVthrob
p2285
F5.075949656443681e-05
sVequivalent
p2286
F3.112304282467236e-05
sVnotable
p2287
F0.00010151899312887363
sVmiscellaneous
p2288
F5.075949656443681e-05
sVnotably
p2289
F0.00015227848969331045
sVhectic
p2290
F0.0
sVdiagnostics
p2291
F0.0
sVstandpoint
p2292
F0.0
sVleftover
p2293
F3.112304282467236e-05
sVfinicky
p2294
F0.0
sVianavet
p2295
F0.0
sVstone
p2296
F9.818226869882226e-05
sVmuscanric
p2297
F0.0
sVtca
p2298
F0.0
sVoi
p2299
F0.0
sVpre
p2300
F6.224608564934473e-05
sVinstantaneously
p2301
F0.0
sVvoxra
p2302
F0.0
sVindustry
p2303
F5.075949656443681e-05
sVviolence
p2304
F6.224608564934473e-05
sVfavorite
p2305
F9.818226869882226e-05
sVob
p2306
F0.0
sVside
p2307
F6.198075530546064e-05
sVprone
p2308
F0.0
sVbenzos
p2309
F0.0
sV75mg
p2310
F0.0
sVgreatly
p2311
F0.00020303798625774725
sVact
p2312
F0.00016081224718871078
sVinternalize
p2313
F5.075949656443681e-05
sVbond
p2314
F6.224608564934473e-05
sVbackup
p2315
F5.075949656443681e-05
sVroad
p2316
F6.224608564934473e-05
sVop
p2317
F0.0005583544622088049
sVcevs
p2318
F0.0
sVoutlook
p2319
F3.112304282467236e-05
sVdesyrel
p2320
F0.0
sVlantus
p2321
F0.0
sVmethylone
p2322
F0.0
sVpotentiate
p2323
F0.0
sVimage
p2324
F9.33691284740171e-05
sVskilled
p2325
F0.0
sVlil
p2326
F5.075949656443681e-05
sVmarkedly
p2327
F0.0
sVspinal
p2328
F0.0
sV127lbs
p2329
F0.0
sV75g
p2330
F0.0
sVbedtime
p2331
F0.0
sVdetermine
p2332
F0.00010151899312887363
sVstrip
p2333
F0.0019918747407790312
sVsyringe
p2334
F0.0
sVsomnolent
p2335
F0.0
sVdank
p2336
F0.0
sVjanuvia
p2337
F0.0
sVfantasy
p2338
F0.0002537974828221841
sVtheoretically
p2339
F0.0
sVtechnically
p2340
F3.112304282467236e-05
sVpharmaceutical
p2341
F0.0
sVdetox
p2342
F0.0
sVprazosin
p2343
F0.0
sVaccelerator
p2344
F5.075949656443681e-05
sVprepare
p2345
F5.075949656443681e-05
sVarea
p2346
F2.066025176848688e-05
sVflatulence
p2347
F0.0
sVomega
p2348
F0.0
sVstrictly
p2349
F9.33691284740171e-05
sVprescriber
p2350
F0.0
sVhey
p2351
F0.0002489843425973789
sVpresyncope
p2352
F0.0
sVstart
p2353
F0.0007236551123491984
sVoutflow
p2354
F0.0
sVlow
p2355
F0.0005168965088208561
sVlot
p2356
F0.0
sVbrazilian
p2357
F0.0
sVzolpidem
p2358
F0.0
sVexceptional
p2359
F5.075949656443681e-05
sVmoclobemide
p2360
F0.0
sVpsychopharmacology
p2361
F0.0
sVfish
p2362
F5.743294542453957e-05
sVbargain
p2363
F5.075949656443681e-05
sVdowner
p2364
F0.0
sV2btoggle
p2365
F0.0
sVcomplete
p2366
F4.594635633963165e-05
sVenough
p2367
F0.0
sV3faj7m
p2368
F0.0
sVregard
p2369
F0.0
sVindependently
p2370
F0.0
sVaniracetam
p2371
F0.0
sVhiccup
p2372
F0.0
sV95ish
p2373
F0.0
sVbrain
p2374
F0.0012567330393449248
sVbusiprone
p2375
F0.0
sVcycle
p2376
F0.0004979686851947578
sVlymph
p2377
F0.0
sVpg
p2378
F0.0
sVorthostatic
p2379
F0.0
sVdownstairs
p2380
F9.33691284740171e-05
sVhandsome
p2381
F3.112304282467236e-05
sVfootball
p2382
F3.112304282467236e-05
sVpull
p2383
F3.445976725472374e-05
sVregimen
p2384
F0.0
sVwaste
p2385
F0.00013745517617835115
sVannihilate
p2386
F0.0
sVrage
p2387
F0.0002537974828221841
sVdefault
p2388
F5.075949656443681e-05
sVattenuate
p2389
F0.0
sVpractically
p2390
F5.075949656443681e-05
sVrewire
p2391
F0.0
sVmedrol
p2392
F0.0
sVdirty
p2393
F6.224608564934473e-05
sVnootropic
p2394
F0.0
sVgrasp
p2395
F0.0
sVgrass
p2396
F1.963645373976445e-05
sVagree
p2397
F0.00011486589084907914
sVaffection
p2398
F0.0
sVexpect
p2399
F0.00016011695120577332
sVaa
p2400
F0.0
sVnutmeg
p2401
F0.0
sVac
p2402
F0.0
sVab
p2403
F0.0
sVohh
p2404
F0.0
sVad
p2405
F0.0001867382569480342
sVcbd
p2406
F0.0
sVgeriatric
p2407
F0.0
sVtaste
p2408
F0.0001178187224385867
sVcertain
p2409
F9.297113295819095e-05
sVdivalproex
p2410
F0.0
sVdescribe
p2411
F0.00021786129977270654
sVcbn
p2412
F0.0
sVal
p2413
F5.075949656443681e-05
sVdeep
p2414
F0.00011486589084907914
sVgeneral
p2415
F0.0
sV225mg
p2416
F0.0
sVap
p2417
F0.0
sVexamine
p2418
F3.112304282467236e-05
sVhypertension
p2419
F0.0
sVtogether
p2420
F0.0
sVfile
p2421
F0.00015227848969331045
sVav
p2422
F0.0
sVgirlfriend
p2423
F0.00015227848969331045
sVmelatonin
p2424
F0.0
sVsyrian
p2425
F0.0
sVlonger
p2426
F0.00011879644766879956
sVfill
p2427
F5.890936121929335e-05
sVhit
p2428
F0.00013783906901889496
sVvetspecialistsofrochester
p2429
F0.0
sVmaybe
p2430
F0.0
sVyoga
p2431
F5.075949656443681e-05
sVbrighter
p2432
F5.075949656443681e-05
sVidiot
p2433
F5.075949656443681e-05
sVseizurish
p2434
F0.0
sV6g
p2435
F0.0
sVhybrid
p2436
F0.0
sVdepth
p2437
F3.92729074795289e-05
sVgraduate
p2438
F0.00010151899312887363
sVfield
p2439
F5.075949656443681e-05
sVmertazapine
p2440
F0.0
sV5
p2441
F0.00027374833593245116
sVburproprion
p2442
F0.0
sVinstantly
p2443
F5.075949656443681e-05
sVlinger
p2444
F0.0
sVpuppy
p2445
F0.0
sVpoor
p2446
F3.615544059485204e-05
sVpolar
p2447
F5.075949656443681e-05
sVpoop
p2448
F0.00015227848969331045
sVotc
p2449
F0.0
sVfor_moderators_switches_commands_and_css
p2450
F0.0
sVxanax
p2451
F0.0
sVsymbol
p2452
F3.112304282467236e-05
sVtime
p2453
F0.0
sVdrift
p2454
F0.0
sVanywhere
p2455
F5.743294542453957e-05
sVconsideration
p2456
F0.0
sVandrew
p2457
F0.0
sV5kg
p2458
F0.0
sVimportant
p2459
F0.000342353471071396
sVnucleus
p2460
F0.0
sVobsessively
p2461
F0.0
sVillusory
p2462
F0.0
sVcrappy
p2463
F9.33691284740171e-05
sVhernia
p2464
F0.0
sValcohol
p2465
F0.0007469530277921368
sVtricky
p2466
F5.075949656443681e-05
sVaday
p2467
F0.0
sVgastric
p2468
F0.0
sVzyrtec
p2469
F0.0
sVclinically
p2470
F0.0
sVreciprocate
p2471
F0.0
sVwife
p2472
F0.00012449217129868945
sVacutally
p2473
F0.0
sVmask
p2474
F0.00010151899312887363
sVtitration
p2475
F0.0
sVmimic
p2476
F0.00010151899312887363
sVu
p2477
F0.0008050946033303423
sVprocedure
p2478
F0.00010151899312887363
sVhugely
p2479
F0.0
sVbehavioral
p2480
F0.0
sValright
p2481
F9.33691284740171e-05
sVoral
p2482
F0.0004568354690799313
sVamaryl
p2483
F0.0
sVexternal
p2484
F3.112304282467236e-05
sVcatapres
p2485
F0.0
sVconsider
p2486
F0.00033311108346232947
sVembolism
p2487
F0.0
sV5htp
p2488
F0.0
sVaaaaalright
p2489
F0.0
sVcrucial
p2490
F0.0
sVallergy
p2491
F0.0002537974828221841
sVmonth
p2492
F0.0013898772792738574
sVshrooms
p2493
F0.00010151899312887363
sVsulfonylurea
p2494
F0.0
sVthoughtful
p2495
F5.075949656443681e-05
sVconcept
p2496
F5.075949656443681e-05
sVantagonize
p2497
F0.0
sVoxycodone
p2498
F0.0
sVassessment
p2499
F0.00010151899312887363
sVmessy
p2500
F5.075949656443681e-05
sVfollow
p2501
F0.00017229883627361867
sVmeditation
p2502
F0.0
sVfaster
p2503
F5.890936121929335e-05
sVpsychotherapy
p2504
F0.0
sVreluctant
p2505
F0.0
sVniacin
p2506
F0.0
sVresponsiveness
p2507
F0.0
sVattentive
p2508
F0.0
sVlexipro
p2509
F0.0
sVtv
p2510
F0.00015227848969331045
sVequivalence
p2511
F0.0
sVsulfate
p2512
F0.0
sVextraneous
p2513
F5.075949656443681e-05
sVdiffuse
p2514
F5.075949656443681e-05
sVtail
p2515
F1.963645373976445e-05
sVtm
p2516
F5.075949656443681e-05
sVfriday
p2517
F0.0
sVsthat
p2518
F0.0
sVbarely
p2519
F0.0003112304282467237
sVsmile
p2520
F3.112304282467236e-05
sVpresentation
p2521
F5.075949656443681e-05
sVdefintiley
p2522
F0.0
sV_pixiepudding_
p2523
F0.0
sVwoman
p2524
F4.594635633963165e-05
sVappointment
p2525
F0.0006091139587732418
sVok
p2526
F0.0001570916299181156
sVdeeper
p2527
F5.075949656443681e-05
sVsong
p2528
F1.1486589084907912e-05
sVfar
p2529
F0.0002014374547427471
sVtripdude
p2530
F0.0
sVhorror
p2531
F5.075949656443681e-05
sVfaq
p2532
F0.0
sVfav
p2533
F0.0
sViud
p2534
F0.0
sVfat
p2535
F0.0002489843425973789
sVunregulated
p2536
F0.0
sVblockade
p2537
F0.0
sVpsychologist
p2538
F0.0
sVhypotension
p2539
F0.0
sVdiary
p2540
F5.075949656443681e-05
sVcerenia
p2541
F0.0
sVdecide
p2542
F0.0006535838993181197
sVfall
p2543
F0.000684706942142792
sVawful
p2544
F0.00017672808365788004
sVdifference
p2545
F0.0004979686851947578
sVcombat
p2546
F0.0
sVcondition
p2547
F0.0001178187224385867
sVcapture
p2548
F0.0
sVenjoyable
p2549
F0.00010151899312887363
sVneurological
p2550
F0.0
sVheaven
p2551
F3.112304282467236e-05
sVpotentiation
p2552
F0.0
sVdampen
p2553
F0.0
sVcable
p2554
F3.92729074795289e-05
sVlist
p2555
F0.0008640039645496357
sVt3
p2556
F0.0
sVprogesterone
p2557
F0.0
sVclozapine
p2558
F0.0
sVcircuit
p2559
F0.0
sVadjust
p2560
F0.0005075949656443682
sVsedation
p2561
F0.0
sVsmall
p2562
F4.648556647909548e-05
sVinjectable
p2563
F0.0
sVpsychopharmacologist
p2564
F0.0
sVamnesiac
p2565
F0.0
sVteh
p2566
F5.075949656443681e-05
sVpopulation
p2567
F6.224608564934473e-05
sVquicker
p2568
F5.075949656443681e-05
sVantibiotic
p2569
F0.0
sVmodafinil
p2570
F0.0
sVten
p2571
F5.743294542453957e-05
sVphenibut
p2572
F0.0
sVhealthier
p2573
F0.0
sVtea
p2574
F7.85458149590578e-05
sVedu
p2575
F5.075949656443681e-05
sVunheard
p2576
F0.0
sVlack
p2577
F0.0001837854253585266
sVheadspace
p2578
F0.0
sVpast
p2579
F0.00032162449437742155
sVorgasm
p2580
F0.00015227848969331045
sVzero
p2581
F9.33691284740171e-05
sVdesign
p2582
F3.112304282467236e-05
sVperspective
p2583
F0.0
sVwyeth
p2584
F0.0
sVneuroskeptic
p2585
F0.0
sV200mic
p2586
F0.0
sVrecommended_routine
p2587
F0.0
sVdissertation
p2588
F0.00010151899312887363
sVruminate
p2589
F0.0
sVsub
p2590
F3.92729074795289e-05
sVclock
p2591
F3.112304282467236e-05
sVsun
p2592
F1.1486589084907912e-05
sVsection
p2593
F0.00012449217129868945
sVmetoclopramide
p2594
F0.0
sVstool
p2595
F0.00010151899312887363
sVcaffeine
p2596
F0.0007613924484665521
sVmirtzapine
p2597
F0.0
sVcrush
p2598
F5.075949656443681e-05
sVpublic
p2599
F3.92729074795289e-05
sVversion
p2600
F0.00012449217129868945
sVrun
p2601
F0.0001239615106109213
sVnoticeably
p2602
F0.0
sVslippery
p2603
F0.0
sVnurse
p2604
F0.00020303798625774725
sVperforate
p2605
F0.0
sVtrialing
p2606
F0.0
sVmethod
p2607
F0.00020303798625774725
sVhandy
p2608
F0.00010151899312887363
sVmovement
p2609
F1.963645373976445e-05
sVhasn
p2610
F5.743294542453957e-05
sVfull
p2611
F0.0
sVloose
p2612
F9.818226869882226e-05
sVcertainly
p2613
F0.00011486589084907914
sVvraylar
p2614
F0.0
sVshouldn
p2615
F0.0001963645373976445
sVselective
p2616
F0.0
sVwill
p2617
F4.132050353697376e-05
sVrelaxation
p2618
F0.0
sVeval
p2619
F5.075949656443681e-05
sVgrape
p2620
F3.112304282467236e-05
sVnovember
p2621
F0.0
sVstrong
p2622
F0.00025527389861693784
sVnewish
p2623
F0.0
sVlegend
p2624
F5.075949656443681e-05
sV20lbs
p2625
F0.0
sVpmwiki
p2626
F0.0
sV900
p2627
F0.0
sVdeductible
p2628
F0.0
sVahead
p2629
F3.92729074795289e-05
sVreuptaken
p2630
F0.0
sVmdma
p2631
F0.0
sVcompliance
p2632
F0.0
sVcyproheptadine
p2633
F0.0
sVexperience
p2634
F0.0023964742974997718
sVsignificantly
p2635
F0.0
sVprior
p2636
F0.00010151899312887363
sVairport
p2637
F5.075949656443681e-05
sVtemazepam
p2638
F0.0
sVsimply
p2639
F0.00013745517617835115
sVskyrocket
p2640
F0.0
sVmisery
p2641
F5.075949656443681e-05
sVcessation
p2642
F0.0
sVrestoril
p2643
F0.0
sVtoxicity
p2644
F0.0
sVextant
p2645
F0.0
sVunhealthy
p2646
F5.075949656443681e-05
sVtrainer
p2647
F5.075949656443681e-05
sVvia
p2648
F0.00020303798625774725
sVdiscourraging
p2649
F0.0
sVfamily
p2650
F0.00017672808365788004
sVperpetuate
p2651
F0.0
sVsuddenly
p2652
F6.891953450944748e-05
sVagomelatine
p2653
F0.0
sVpepcid
p2654
F0.0
sVask
p2655
F0.0002840784618166946
sVincredibly
p2656
F0.0002489843425973789
sVseroquel
p2657
F0.0
sVbenifited
p2658
F0.0
sVstraterra
p2659
F0.0
sVestablish
p2660
F5.075949656443681e-05
sVselect
p2661
F5.075949656443681e-05
sVeldepryl
p2662
F0.0
sVenvironment
p2663
F9.33691284740171e-05
sVmunchies
p2664
F0.0006091139587732418
sVeye
p2665
F0.000342353471071396
sVdpdr
p2666
F0.0
sVoccassion
p2667
F0.0
sValcoholic
p2668
F5.075949656443681e-05
sVtwo
p2669
F0.0
sVshite
p2670
F0.0
sVkamil330
p2671
F0.0
sVanger
p2672
F0.00015561521412336184
sV6
p2673
F0.00022209770651123394
sVswear
p2674
F0.0003045569793866209
sVinjury
p2675
F5.075949656443681e-05
sVmetformin
p2676
F0.0
sVminor
p2677
F5.890936121929335e-05
sVteen
p2678
F3.112304282467236e-05
sVmm
p2679
F0.0001867382569480342
sVdelusion
p2680
F0.0
sVdoor
p2681
F1.1486589084907912e-05
sVformality
p2682
F0.0
sVfurthermore
p2683
F5.075949656443681e-05
sVelicit
p2684
F0.0
sVsignpost
p2685
F0.0
sVconcomitantly
p2686
F0.0
sVenormous
p2687
F5.075949656443681e-05
sVsurprisingly
p2688
F5.075949656443681e-05
sVexcuse
p2689
F0.00013745517617835115
sVdood
p2690
F0.0
sVoxymorphone
p2691
F0.0
sVstick
p2692
F0.000342353471071396
sVimpulse
p2693
F5.075949656443681e-05
sVparticular
p2694
F9.18927126792633e-05
sVneurosci
p2695
F0.0
sVwound
p2696
F3.112304282467236e-05
sVmonoamine
p2697
F0.0
sVglad
p2698
F0.00011486589084907914
sVtown
p2699
F1.963645373976445e-05
sVnone
p2700
F0.0001178187224385867
sVinclude
p2701
F0.0015872751840582905
sVpill_testing
p2702
F0.0
sVhour
p2703
F0.0012960059468244537
sVstrain
p2704
F0.0
sVscience
p2705
F0.0003112304282467237
sVnovolog
p2706
F0.0
sVduty
p2707
F3.112304282467236e-05
sVplea
p2708
F0.0
sVremain
p2709
F0.00015561521412336184
sVtitrate
p2710
F0.0
sVlearn
p2711
F0.0006598734553376785
sVmale
p2712
F0.0001178187224385867
sVdef
p2713
F3.112304282467236e-05
sVhistory
p2714
F0.00013745517617835115
sVallegra
p2715
F0.0
sVcompare
p2716
F0.0004357225995454131
sVpsychonautwiki
p2717
F0.0
sVpusher
p2718
F0.0
sVshare
p2719
F0.00012635247993398704
sVaccept
p2720
F0.0001570916299181156
sVsocal
p2721
F0.0
sVnejmp0907708
p2722
F0.0
sVdxms
p2723
F0.0
sVminimum
p2724
F6.224608564934473e-05
sVsense
p2725
F7.231088118970408e-05
sVaxit
p2726
F0.0
sVsharp
p2727
F5.075949656443681e-05
sVscar
p2728
F0.0003045569793866209
sVaction
p2729
F0.0004979686851947578
sVaxis
p2730
F0.0
sVmapb
p2731
F0.0
sVhuge
p2732
F5.16506294212172e-05
sVstim
p2733
F0.0
sVearly
p2734
F6.891953450944748e-05
sVadvantage
p2735
F3.112304282467236e-05
sVawkward
p2736
F3.92729074795289e-05
sVdesperation
p2737
F0.0
sVrather
p2738
F0.000264191548952882
sVcomfort
p2739
F0.0
sVmilk
p2740
F5.075949656443681e-05
sVformulate
p2741
F0.0
sVsalvia
p2742
F0.0
sVheck
p2743
F0.00010151899312887363
sVcommercial
p2744
F5.075949656443681e-05
sVhopeless
p2745
F0.00015227848969331045
sVgrind
p2746
F0.0
sVplant
p2747
F0.00010151899312887363
sV89
p2748
F5.075949656443681e-05
sVcytokine
p2749
F0.0
sVfu
p2750
F0.0
sV2bdelete
p2751
F0.0
sVblotter
p2752
F0.0
sVadvice
p2753
F0.0008629114415954258
sVsympathize
p2754
F0.0
sVreuptake
p2755
F0.0
sVego
p2756
F0.0
sVupload
p2757
F5.075949656443681e-05
sVbrintellix
p2758
F0.0
sVdisable
p2759
F5.075949656443681e-05
sVwhilst
p2760
F0.00015561521412336184
sVblood
p2761
F0.0007069123346315202
sVnumb
p2762
F0.0
sVfaculty
p2763
F0.0
sVdevelop
p2764
F0.0003112304282467237
sVremeronwithdrawal
p2765
F0.0
sVsloppy
p2766
F5.075949656443681e-05
sVresponse
p2767
F0.0006598734553376785
sV150lbs
p2768
F0.0
sVrefuse
p2769
F0.0001570916299181156
sVmirtaz
p2770
F0.0
sVmorphine
p2771
F0.0004060759725154945
sVselegeline
p2772
F0.0
sVzyprexa
p2773
F0.0
sVshady
p2774
F0.0
sVdocumentation
p2775
F5.075949656443681e-05
sVovernight
p2776
F5.075949656443681e-05
sVstash
p2777
F0.0
sVperhaps
p2778
F6.224608564934473e-05
sVolanzipine
p2779
F0.0
sVresponsibility
p2780
F5.075949656443681e-05
sVreshape
p2781
F0.0
sVpleasure
p2782
F1.963645373976445e-05
sVneurosteroids
p2783
F0.0
sVegg
p2784
F5.075949656443681e-05
sVuninstall
p2785
F5.075949656443681e-05
sVhm
p2786
F0.0
sVmdmaish
p2787
F0.0
sVhelp
p2788
F0.0011518090360931436
sVpant
p2789
F5.075949656443681e-05
sVsertraline
p2790
F0.0
sVslouch
p2791
F0.0
sVmayoclinic
p2792
F0.0
sVsoon
p2793
F6.198075530546064e-05
sVtramadol
p2794
F0.0
sVtrade
p2795
F1.963645373976445e-05
sVbcuz
p2796
F0.0
sVattitude
p2797
F5.075949656443681e-05
sVpaper
p2798
F9.818226869882226e-05
sVffi
p2799
F0.0
sVpermenant
p2800
F0.0
sVhell
p2801
F0.0001178187224385867
sVmcdonalds
p2802
F0.0
sVsuffer
p2803
F0.0004045995567207407
sVjames_eagan_holmes
p2804
F0.0
sVlisinopril
p2805
F0.0
sV24
p2806
F0.0001963645373976445
sV25
p2807
F0.0003141832598362312
sV26
p2808
F1.963645373976445e-05
sVorexigenic
p2809
F0.0
sVrapidly
p2810
F5.890936121929335e-05
sV21
p2811
F5.890936121929335e-05
sV22
p2812
F5.890936121929335e-05
sV23
p2813
F3.92729074795289e-05
sVpray
p2814
F1.963645373976445e-05
sVtreat
p2815
F0.0008050946033303423
sVpcp
p2816
F0.0
sVnooooope
p2817
F0.0
sVcomplex
p2818
F1.963645373976445e-05
sVyohimbine
p2819
F0.0
sVlate
p2820
F4.594635633963165e-05
sV2hours
p2821
F0.0
sVhtml
p2822
F0.00020303798625774725
sVbypass
p2823
F0.00010151899312887363
sVamitriptyline
p2824
F0.0
sVbout
p2825
F0.00015227848969331045
sVmethylfolate
p2826
F0.0
sValter
p2827
F0.0
sVally
p2828
F0.0
sVsuboxone
p2829
F0.0
sVwouldn
p2830
F0.0002527049598679741
sVgood
p2831
F0.0
sVreturn
p2832
F6.891953450944748e-05
sVyo
p2833
F6.224608564934473e-05
sVseverely
p2834
F0.00015227848969331045
sVya
p2835
F6.224608564934473e-05
sVpropose
p2836
F0.00010151899312887363
sVlibido
p2837
F0.0
sVsocially
p2838
F0.0002537974828221841
sVflonase
p2839
F0.0
sVslight
p2840
F6.224608564934473e-05
sVprimary
p2841
F0.00012449217129868945
sVsnowball
p2842
F0.0
sVrespire
p2843
F0.0
sVvomit
p2844
F0.0003045569793866209
sVintermezzo
p2845
F0.0
sVcompound
p2846
F0.0
sVmisuse
p2847
F0.0
sVsuffice
p2848
F5.075949656443681e-05
sVcomplain
p2849
F3.112304282467236e-05
sVbigger
p2850
F3.92729074795289e-05
sVseoquel
p2851
F0.0
sVmystery
p2852
F0.0
sVeasily
p2853
F0.00012635247993398704
sVerection
p2854
F0.00010151899312887363
sVholiday
p2855
F3.112304282467236e-05
sVeverytime
p2856
F5.075949656443681e-05
sValways
p2857
F0.0
sVnauseous
p2858
F0.0
sV2x
p2859
F0.0
sVevade
p2860
F5.075949656443681e-05
sVcapability
p2861
F0.0
sVtransmission
p2862
F0.0
sVeager
p2863
F0.0
sV2c
p2864
F0.0
sVdifficult
p2865
F0.0003141832598362312
sVfriendship
p2866
F6.224608564934473e-05
sVheavy
p2867
F5.743294542453957e-05
sVweek
p2868
F0.0010210955944677514
sVharm
p2869
F0.0
sVeveryone
p2870
F0.00043200198227481785
sVcost
p2871
F3.92729074795289e-05
sVmental
p2872
F0.001624303890061978
sV300mg
p2873
F0.0
sVvisually
p2874
F3.112304282467236e-05
sVshort
p2875
F0.0001239615106109213
sVhouse
p2876
F8.040612359435539e-05
sVenergy
p2877
F0.0012182279175464836
sVhard
p2878
F0.0005168965088208561
sVreduce
p2879
F0.000684706942142792
sVidea
p2880
F0.000129126573553043
sVgun
p2881
F6.224608564934473e-05
sVnutritionist
p2882
F0.0
sVneurology
p2883
F0.0
sVconnect
p2884
F5.075949656443681e-05
sVkazmierczak
p2885
F0.0
sVbeyond
p2886
F3.099037765273032e-05
sVinsurance
p2887
F0.0004568354690799313
sVterrify
p2888
F0.0
sVdecline
p2889
F0.00010151899312887363
sVanxious
p2890
F0.0008629114415954258
sVditch
p2891
F0.0
sVpsychology
p2892
F0.00010151899312887363
sVp
p2893
F0.00017672808365788004
sVchildish
p2894
F0.0
sVsince
p2895
F0.00029957365064305975
sVpublish
p2896
F0.0
sVresearch
p2897
F0.001624303890061978
sVcrazymeds
p2898
F0.0
sVhealth
p2899
F0.0011167089244176098
sVcarpet
p2900
F5.075949656443681e-05
sV7
p2901
F0.00017229883627361867
sVpristiq
p2902
F0.0
sVissue
p2903
F0.001178187224385867
sVass
p2904
F6.224608564934473e-05
sVnervously
p2905
F5.075949656443681e-05
sVbelief
p2906
F0.0
sVsingularly
p2907
F0.0
sVcircumstance
p2908
F0.00010151899312887363
sVhydroxyzine
p2909
F0.0
sVgut
p2910
F5.075949656443681e-05
sVdiffer
p2911
F5.075949656443681e-05
sVtbh
p2912
F0.0
sVpleasant
p2913
F0.00015227848969331045
sVdifficulty
p2914
F0.00020303798625774725
sVqualify
p2915
F0.0
sVheroin
p2916
F0.00015227848969331045
sVunsightly
p2917
F0.0
sVimagine
p2918
F0.00013745517617835115
sVput
p2919
F0.0003563893430063987
sVteach
p2920
F5.075949656443681e-05
sVweed
p2921
F0.0013705064072397938
sVbeginning
p2922
F5.16506294212172e-06
sVgenerate
p2923
F0.00010151899312887363
sVtransdermal
p2924
F0.0
sVblister
p2925
F0.0
sVdmt
p2926
F0.0
sVunconfident
p2927
F0.0
sVthread
p2928
F0.0004060759725154945
sVinappropriately
p2929
F0.0
sVterrible
p2930
F0.0004123655285350534
sVamerican
p2931
F0.0
sVrocknroll
p2932
F0.0
sVdue
p2933
F0.0010270604132141881
sVw
p2934
F0.0001570916299181156
sVanecdote
p2935
F0.0
sVconsequence
p2936
F0.0
sVundergo
p2937
F0.0
sVhabit
p2938
F0.0
sVbupropion
p2939
F0.0
sVfeed
p2940
F0.00012449217129868945
sVmajor
p2941
F0.00016081224718871078
sVdont
p2942
F0.0002489843425973789
sVprobability
p2943
F0.0
sVpurport
p2944
F0.0
sVfeel
p2945
F0.0010794981549034394
sVrelate
p2946
F0.0
sVnach
p2947
F0.0
sVmisc
p2948
F5.075949656443681e-05
sVnumber
p2949
F0.0002749103523567023
sVfancy
p2950
F0.00010151899312887363
sVmature
p2951
F1.963645373976445e-05
sVdysthymia
p2952
F0.0
sVig
p2953
F0.0
sVfrequently
p2954
F0.0003045569793866209
sV40mg
p2955
F0.0
sVmiss
p2956
F5.16506294212172e-05
sVpropranolol
p2957
F0.0
sVhiatal
p2958
F0.0
sVguess
p2959
F0.0003534561673157601
sVtemperature
p2960
F3.112304282467236e-05
sVscript
p2961
F0.0005583544622088049
sVtwenty
p2962
F1.963645373976445e-05
sVinteract
p2963
F0.00020303798625774725
sVdemonstrate
p2964
F5.075949656443681e-05
sVleast
p2965
F0.0
sVpaint
p2966
F3.92729074795289e-05
sVregulation
p2967
F0.0
sVassumption
p2968
F0.0002537974828221841
sVstatement
p2969
F3.112304282467236e-05
sVracemic
p2970
F0.0
sVton
p2971
F0.0004060759725154945
sVkor
p2972
F0.0
sVbanana
p2973
F1.963645373976445e-05
sVcraziest
p2974
F0.00010151899312887363
sVheadache
p2975
F0.000812151945030989
sVcatapult
p2976
F0.0
sVhivemind
p2977
F0.0
sVrelationship
p2978
F0.0001963645373976445
sVsynthetic
p2979
F0.00015227848969331045
sVbowel
p2980
F0.0
sVsensitization
p2981
F0.0
sVpark
p2982
F0.00020303798625774725
sVimmediate
p2983
F3.112304282467236e-05
sVchristpsychosis
p2984
F0.0
sVserotonin
p2985
F0.0
sVanalgesic
p2986
F0.0
sVluckily
p2987
F0.0
sVawesomeness
p2988
F0.0
sVnigga
p2989
F5.075949656443681e-05
sVagitate
p2990
F0.0
sVconsult
p2991
F0.0
sVetsy
p2992
F0.0
sVrampant
p2993
F5.075949656443681e-05
sVselegiline
p2994
F0.0
sVcenter
p2995
F1.963645373976445e-05
sVneurontin
p2996
F0.0
sVb
p2997
F6.891953450944748e-05
sVaaa
p2998
F0.0
sVkindly
p2999
F5.075949656443681e-05
sVcyclic
p3000
F0.0
sVbitter
p3001
F5.075949656443681e-05
sVinstruction
p3002
F5.075949656443681e-05
sVadditionally
p3003
F5.075949656443681e-05
sVnorthern_illinois_university_shooting
p3004
F0.0
sVyouth
p3005
F3.112304282467236e-05
sVmedicate
p3006
F0.0
sVstressor
p3007
F0.0
sVcontrary
p3008
F5.075949656443681e-05
sVstore
p3009
F3.112304282467236e-05
sVsedate
p3010
F0.000684706942142792
sVmacro
p3011
F0.0
sVkindle
p3012
F0.0
sVglucose
p3013
F0.0
sVdeclare
p3014
F0.0
sVrisky
p3015
F5.075949656443681e-05
sVtofranil
p3016
F0.0
sVmotivation
p3017
F0.0
sVoutta
p3018
F5.075949656443681e-05
sVexert
p3019
F0.0
sVwasnt
p3020
F0.0
sVhtp
p3021
F0.0
sVbeforehand
p3022
F0.0
sVdefect
p3023
F0.00012449217129868945
sVearflap
p3024
F0.0
sVultra
p3025
F0.0
sVsitatuation
p3026
F0.0
sVincidentally
p3027
F0.0
sVsubstantial
p3028
F5.075949656443681e-05
sVprefrontal
p3029
F0.0
sVintestine
p3030
F0.0
sVconcentration
p3031
F0.00015561521412336184
sVoption
p3032
F0.0014212659038042308
sVsell
p3033
F1.1486589084907912e-05
sVlie
p3034
F0.00013745517617835115
sVgabaergics
p3035
F0.0
sVbake
p3036
F0.0
sVcheck
p3037
F0.002334228211850427
sVself
p3038
F7.231088118970408e-05
sVsuicidally
p3039
F0.0
sVfa
p3040
F0.0
sVcouch
p3041
F5.075949656443681e-05
sVmajority
p3042
F9.33691284740171e-05
sVinternal
p3043
F3.112304282467236e-05
sVbuild
p3044
F6.891953450944748e-05
sVeffexor
p3045
F0.0
sVtool
p3046
F0.0003553164759510577
sVeff
p3047
F0.0
sVplay
p3048
F0.0002749103523567023
sVrisperidone
p3049
F0.0
sValleviate
p3050
F0.00010151899312887363
sVneedle
p3051
F6.224608564934473e-05
sVfirsthand
p3052
F0.0
sV12mg
p3053
F0.0
sVreach
p3054
F0.0001178187224385867
sVchart
p3055
F0.00012449217129868945
sVbloat
p3056
F5.075949656443681e-05
sVplat
p3057
F0.0
sVperceptive
p3058
F0.0
sVyawn
p3059
F0.0
sVvirus
p3060
F0.00020303798625774725
sVcharm
p3061
F5.075949656443681e-05
sVplan
p3062
F0.0002356374448771734
sVsignificant
p3063
F0.0003045569793866209
sV70
p3064
F3.92729074795289e-05
sVnothing
p3065
F0.00017561214003213846
sVnp
p3066
F0.0
sVinformation
p3067
F0.000342353471071396
sVextremely
p3068
F0.0005602147708441026
sVnumerous
p3069
F9.33691284740171e-05
sVfunnier
p3070
F5.075949656443681e-05
sVsalary
p3071
F0.0
sV45mg
p3072
F0.0
sVbreaker
p3073
F0.0
sVkg
p3074
F5.075949656443681e-05
sVmineral
p3075
F5.075949656443681e-05
sV1918
p3076
F0.0
sVclear
p3077
F5.681569236333892e-05
sVsometimes
p3078
F0.0005054099197359482
sVko
p3079
F0.0
sVinstitutionalize
p3080
F0.0
sVnefazodone
p3081
F0.0
sVtraditional
p3082
F6.224608564934473e-05
sVpart
p3083
F0.00032162449437742155
sVartistic
p3084
F0.0
sVclean
p3085
F1.033012588424344e-05
sVweigh
p3086
F9.33691284740171e-05
sVlatest
p3087
F3.112304282467236e-05
sVblend
p3088
F3.112304282467236e-05
sVassistance
p3089
F0.0
sVgaba
p3090
F0.0
sVstoner
p3091
F0.0003045569793866209
sVniggle
p3092
F0.0
sVugh
p3093
F0.0
sVparticularly
p3094
F0.0002489843425973789
sVamaze
p3095
F0.0
sVgold
p3096
F3.92729074795289e-05
sVagonize
p3097
F0.0
sVlay
p3098
F0.00012449217129868945
sVblindly
p3099
F0.0
sVtranquilizer
p3100
F0.0
sVbritain
p3101
F0.0
sVsession
p3102
F0.00015227848969331045
sVvynase
p3103
F0.0
sVstalker
p3104
F5.075949656443681e-05
sVse
p3105
F6.224608564934473e-05
sVfluoxetine
p3106
F0.0
sVmarinol
p3107
F0.0
sVfine
p3108
F0.0
sVfind
p3109
F0.0
sV4ish
p3110
F0.0
sVcollaborate
p3111
F0.0
sVimpact
p3112
F0.0
sVaccess
p3113
F0.00021786129977270654
sVbelieve
p3114
F0.00031013790529251363
sVchicro
p3115
F0.0
sVnorthern
p3116
F0.00010151899312887363
sValprazolam
p3117
F0.0
sVparanoid
p3118
F0.0002537974828221841
sVnervous
p3119
F3.112304282467236e-05
sVruin
p3120
F0.00020303798625774725
sVtablet
p3121
F0.0004060759725154945
sVparanoia
p3122
F0.0
sVunhappy
p3123
F5.075949656443681e-05
sVaren
p3124
F0.00014978682532152987
sVincreasingly
p3125
F5.075949656443681e-05
sVenzyme
p3126
F0.0
sVexperiment
p3127
F0.0001867382569480342
sVpositively
p3128
F5.075949656443681e-05
sVcondom
p3129
F0.00010151899312887363
sVfactor
p3130
F0.0003553164759510577
sV8
p3131
F0.000258253147106086
sVcircle
p3132
F0.0
sVjunk
p3133
F6.224608564934473e-05
sVdevastate
p3134
F0.0
sVhiv
p3135
F0.0
sVmeanwhile
p3136
F0.0
sVdependent
p3137
F0.00015227848969331045
sVbluelight
p3138
F0.0
sVkind
p3139
F0.0
sVfamous
p3140
F3.112304282467236e-05
sVremedy
p3141
F0.0
sV150mg
p3142
F0.0
sVlongest
p3143
F0.00010151899312887363
sVreply
p3144
F6.224608564934473e-05
sVvalporic
p3145
F0.0
sVsill
p3146
F0.0
sVrestart
p3147
F3.112304282467236e-05
sVtarget
p3148
F5.075949656443681e-05
sVsuspicious
p3149
F0.00010151899312887363
sVcrp
p3150
F0.0
sVresolve
p3151
F1.963645373976445e-05
sVblocker
p3152
F0.0012182279175464836
sVprogressive
p3153
F0.0
sVbet
p3154
F2.2973178169815824e-05
sVchildhood
p3155
F0.0
sVcry
p3156
F9.33691284740171e-05
sValteration
p3157
F0.0
sVremove
p3158
F0.0001178187224385867
sVproclaim
p3159
F0.0
sVcoincidence
p3160
F5.075949656443681e-05
sVinfectedmethod
p3161
F0.0
sVinvestigate
p3162
F0.0001867382569480342
sVcrf
p3163
F0.0
sVcommon
p3164
F0.0005105477972338757
sVdouble
p3165
F3.112304282467236e-05
sVsustainable
p3166
F0.0
sVcease
p3167
F5.075949656443681e-05
sVdizziness
p3168
F0.0003553164759510577
sVcalifornian
p3169
F0.0
sVinsane
p3170
F0.0002537974828221841
sVautoreceptors
p3171
F0.0
sVcramp
p3172
F0.0
sVcorticosteroid
p3173
F0.0
sVart
p3174
F5.890936121929335e-05
sVabilify
p3175
F0.0
sVdump
p3176
F6.224608564934473e-05
sVcocktail
p3177
F0.0004060759725154945
sVbrake
p3178
F0.0
sVpotent
p3179
F0.0
sVsex
p3180
F0.0004357225995454131
sVschizophrenic
p3181
F0.0
sVculture
p3182
F5.075949656443681e-05
sVsee
p3183
F0.0005578267977491458
sVindividual
p3184
F3.92729074795289e-05
sVdumb
p3185
F0.00012449217129868945
sVrtms
p3186
F0.0
sVovereat
p3187
F0.0
sVfellow
p3188
F5.075949656443681e-05
sVclose
p3189
F0.00037309262105552455
sVchangeable
p3190
F0.0
sVcurvilinear
p3191
F0.0
sVdynakids
p3192
F0.0
sVpractice
p3193
F0.0
sVglue
p3194
F5.075949656443681e-05
sVexpert
p3195
F0.00020303798625774725
sVmovie
p3196
F0.00012449217129868945
sVuser
p3197
F0.0014316599699349289
sVcurrently
p3198
F0.0004712748897543468
sVplease
p3199
F0.00016011695120577332
sVgrogginess
p3200
F0.0
sVcase
p3201
F0.0004020306179717769
sVrefrain
p3202
F0.0
sVsmallest
p3203
F5.075949656443681e-05
sVmyriad
p3204
F0.0
sVwok
p3205
F0.0
sVmodulators
p3206
F0.0
sVweekly
p3207
F5.075949656443681e-05
sVnope
p3208
F0.00015227848969331045
sVhypochondria
p3209
F0.0
sVblurb
p3210
F0.0
sVpiss
p3211
F5.075949656443681e-05
sVeurope
p3212
F0.0
sVmilder
p3213
F0.0
sVanticholinergic
p3214
F0.0
sVstatistically
p3215
F0.0
sVexcessive
p3216
F1.963645373976445e-05
sVinitially
p3217
F0.00012449217129868945
sVvisteril
p3218
F0.0
sVcomplement
p3219
F0.0
sVattention
p3220
F4.594635633963165e-05
sVirratic
p3221
F0.0
sVworst
p3222
F0.0004357225995454131
sVincident
p3223
F0.0
sVdeath
p3224
F9.818226869882226e-05
sVselectively
p3225
F0.0
sV400mg
p3226
F0.0
sVrecreantional
p3227
F0.0
sVsolu
p3228
F0.0
sVavidly
p3229
F0.0
sVtotal
p3230
F0.0001178187224385867
sVc
p3231
F1.549518882636516e-05
sVcompazine
p3232
F0.0
sVlast
p3233
F0.0002685832729903294
sVreverse
p3234
F7.85458149590578e-05
sVhesitant
p3235
F0.0
sVannual
p3236
F5.075949656443681e-05
sVevent
p3237
F5.890936121929335e-05
sVpiracetam
p3238
F0.0
sVconnection
p3239
F6.224608564934473e-05
sVutterance
p3240
F0.0
sValot
p3241
F0.00010151899312887363
sVbuzz
p3242
F0.00012449217129868945
sVgoverment
p3243
F0.0
sVpdf
p3244
F0.0003045569793866209
sVdepartment
p3245
F5.075949656443681e-05
sVmean
p3246
F0.0003790574398019611
sVwhole
p3247
F0.0003338197135759956
sVdepersonalisation
p3248
F0.0
sVexperimental
p3249
F0.0
sVload
p3250
F3.92729074795289e-05
sVdysphagia
p3251
F0.0
sVconsume
p3252
F9.33691284740171e-05
sVstudy
p3253
F0.0009025682419154986
sVbell
p3254
F0.00010151899312887363
sVsimple
p3255
F2.066025176848688e-05
sVsweet
p3256
F5.890936121929335e-05
sVsweep
p3257
F0.0
sVcommunity
p3258
F0.0
sVreccomend
p3259
F0.0
sV100mg
p3260
F0.0
sVbiiiiig
p3261
F0.0
sVdietary
p3262
F0.0
sVreupping
p3263
F0.0
sVadaptation
p3264
F0.0
sVshutdown
p3265
F5.075949656443681e-05
sVsing
p3266
F3.112304282467236e-05
sVthroughout
p3267
F0.0001570916299181156
sVcyp3a4
p3268
F0.0
sVexpensive
p3269
F0.0001178187224385867
sV30mg
p3270
F0.0
sVraise
p3271
F0.0001178187224385867
sVpt
p3272
F0.00010151899312887363
sVcreate
p3273
F0.0005290917280194302
sVoverlook
p3274
F0.0
sVcreativity
p3275
F0.0
sVcurve
p3276
F6.224608564934473e-05
sVstrategy
p3277
F5.075949656443681e-05
sVpc
p3278
F5.075949656443681e-05
sVsecret
p3279
F9.33691284740171e-05
sVdamn
p3280
F0.0003045569793866209
sVamnesia
p3281
F5.075949656443681e-05
sVireland
p3282
F0.0
sVmetronidazole
p3283
F0.0
sVintrusive
p3284
F0.0003553164759510577
sVextreme
p3285
F0.0001570916299181156
sVfogginess
p3286
F0.0
sVempty
p3287
F2.066025176848688e-05
sVblob
p3288
F0.0
sVgtg
p3289
F0.0
sVaddison
p3290
F0.0
sVnri
p3291
F0.0
sValongside
p3292
F6.224608564934473e-05
sVflight
p3293
F5.890936121929335e-05
sVsobriety
p3294
F0.0
sV0003
p3295
F0.0
sVfire
p3296
F4.594635633963165e-05
sVgas
p3297
F5.075949656443681e-05
sVconvert
p3298
F5.075949656443681e-05
sVgap
p3299
F0.00015227848969331045
sVamlodipine
p3300
F0.0
sVusage
p3301
F6.224608564934473e-05
sVpricey
p3302
F5.075949656443681e-05
sVgal
p3303
F5.075949656443681e-05
sVunderstand
p3304
F7.747594413182579e-05
sVliver
p3305
F0.00021786129977270654
sVsnfis
p3306
F0.0
sVdemand
p3307
F1.963645373976445e-05
sVgag
p3308
F0.0
sVdespite
p3309
F5.743294542453957e-05
sVgad
p3310
F0.0
sVlamotrigine
p3311
F0.0
sVhonest
p3312
F0.0001963645373976445
sVscottish
p3313
F0.0
sVtrojan
p3314
F0.0
sVuncertain
p3315
F5.075949656443681e-05
sVlook
p3316
F0.0003512242800642769
sVsolid
p3317
F0.00012449217129868945
sVzonegran
p3318
F0.0
sVstraight
p3319
F0.00015495188826365159
sVtip
p3320
F0.00013745517617835115
sVtolerate
p3321
F0.0
sVrat
p3322
F0.00012449217129868945
sVcrutch
p3323
F0.0
sVrecall
p3324
F0.0003553164759510577
sVhealthy
p3325
F0.0005105477972338757
sVmatch
p3326
F5.890936121929335e-05
sVbehavior
p3327
F0.0002489843425973789
sVerror
p3328
F0.00015227848969331045
sVfun
p3329
F0.00019527201444343448
sVfleet
p3330
F5.075949656443681e-05
sV3am
p3331
F0.0
sVrobin
p3332
F0.0
sVdepakote
p3333
F0.0
sVpack
p3334
F0.000264191548952882
sVgrip
p3335
F1.1486589084907912e-05
sVpound
p3336
F0.0010893064988635327
sVstopdrinking
p3337
F0.0
sVagitation
p3338
F0.0
sVhyperactivity
p3339
F0.0
sV400
p3340
F3.112304282467236e-05
sVeverywhere
p3341
F3.92729074795289e-05
sVdemon
p3342
F5.075949656443681e-05
sVastound
p3343
F0.0
sVjpg
p3344
F0.00015561521412336184
sVssri
p3345
F0.0
sVhydrocodone
p3346
F0.0
sVterminator
p3347
F0.0
sVtriple
p3348
F3.112304282467236e-05
sVready
p3349
F3.099037765273032e-05
sVhydromorphone
p3350
F0.0
sVrid
p3351
F0.00012449217129868945
sVneutral
p3352
F0.0004060759725154945
sVblissful
p3353
F0.0
sVcorpse
p3354
F3.112304282467236e-05
sVfunny
p3355
F4.594635633963165e-05
sVregulate
p3356
F0.0
sVbaseline
p3357
F0.0002537974828221841
sVanymore
p3358
F0.0002356374448771734
sVmigraine
p3359
F0.0
sVmethoxetamine
p3360
F0.0
sVapdb
p3361
F0.0
sVshorten
p3362
F5.075949656443681e-05
sVsubmission
p3363
F5.075949656443681e-05
sVshorter
p3364
F6.224608564934473e-05
sVbenign
p3365
F5.075949656443681e-05
sVruta
p3366
F0.0
sVprescribe
p3367
F0.004822152173621497
sVvirtually
p3368
F0.0
sVdeletion
p3369
F5.075949656443681e-05
sV9
p3370
F8.040612359435539e-05
sVadvise
p3371
F0.0
sVrelatively
p3372
F0.00015227848969331045
sV100x
p3373
F0.0
sVevidence
p3374
F0.0002801073854220513
sVhigher
p3375
F0.0002986513162076057
sVdevelopment
p3376
F6.224608564934473e-05
sVlid
p3377
F0.0
sVliterature
p3378
F0.00010151899312887363
sVtemporary
p3379
F0.0004568354690799313
sVdime
p3380
F5.075949656443681e-05
sVbonus
p3381
F0.00010151899312887363
sVdepersonalization
p3382
F0.0
sVpainless
p3383
F0.0
sVoverweight
p3384
F0.0
sVyesterday
p3385
F0.00020303798625774725
sValert
p3386
F6.224608564934473e-05
sVinterpersonal
p3387
F0.0
sVveeery
p3388
F0.0
sVmoment
p3389
F9.297113295819095e-05
sV000
p3390
F0.00020303798625774725
sVpurpose
p3391
F5.743294542453957e-05
sVdopamin
p3392
F0.0
sVillinois
p3393
F0.0
sV009
p3394
F0.0
sVboredom
p3395
F0.0
sVclimb
p3396
F6.224608564934473e-05
sVinfamous
p3397
F0.0
sVbuspirone
p3398
F0.0
sVexpend
p3399
F0.0
sVgene
p3400
F0.00015227848969331045
sVneverending
p3401
F0.0
sVolder
p3402
F6.891953450944748e-05
sVmemantine
p3403
F0.0
sVcortisol
p3404
F0.0
sVampa
p3405
F0.0
sVcodeine
p3406
F0.0
sViffy
p3407
F0.0
sVobviously
p3408
F0.00025527389861693784
sVbali
p3409
F0.0
sVperson
p3410
F0.0002871647271226978
sVcheer
p3411
F0.0
sVedge
p3412
F5.743294542453957e-05
sVrozerem
p3413
F0.0
sVwithdraw
p3414
F0.0011674684209820466
sVkelly
p3415
F0.0
sV60mgs
p3416
F0.0
sVskill
p3417
F0.0
sVchemistry
p3418
F0.0
sVspend
p3419
F0.0003141832598362312
sVprevention
p3420
F0.0
sVthrowaway
p3421
F0.0
sVchore
p3422
F0.0
sVabstain
p3423
F0.0
sVreliant
p3424
F0.0
sVtolerability
p3425
F0.0
sVludicrous
p3426
F0.0
sVsuffolk
p3427
F0.0
sVshape
p3428
F0.00015561521412336184
sVflexeril
p3429
F0.0
sVbehind
p3430
F1.033012588424344e-05
sVregardless
p3431
F0.00020303798625774725
sValternative
p3432
F0.00021786129977270654
sVpocinki_nonrestorative_sleep_2013_s
p3433
F0.0
sVwage
p3434
F0.00010151899312887363
sVcut
p3435
F9.297113295819095e-05
sVremission
p3436
F0.0
sVresearcher
p3437
F0.0
sVcup
p3438
F5.075949656443681e-05
sVfentanyl
p3439
F0.0
sVcuz
p3440
F0.00010151899312887363
sVtryptophan
p3441
F0.0
sVtripsit
p3442
F0.0
sVsource
p3443
F0.0002945468060964667
sVcue
p3444
F0.0
sVlocation
p3445
F6.224608564934473e-05
sVaps
p3446
F0.0
sVsnap
p3447
F3.92729074795289e-05
sVinput
p3448
F5.075949656443681e-05
sVriboflavin
p3449
F0.0
sVtransformation
p3450
F0.0
sVfrustrate
p3451
F0.0
sVluxury
p3452
F0.0
sVridiculously
p3453
F5.075949656443681e-05
sVbio
p3454
F5.075949656443681e-05
sVfubinaca
p3455
F0.0
sVapnea
p3456
F0.0
sVemergency
p3457
F0.00015227848969331045
sVformat
p3458
F5.075949656443681e-05
sV11229449
p3459
F0.0
sVbig
p3460
F5.16506294212172e-05
sVrebound
p3461
F0.0
sVadvocate
p3462
F0.0
sVadrafinil
p3463
F0.0
sVfolk
p3464
F0.00010151899312887363
sVshitty
p3465
F0.0004568354690799313
sVgame
p3466
F9.18927126792633e-05
sVquest
p3467
F5.075949656443681e-05
sVabound
p3468
F0.0
sVguide
p3469
F5.075949656443681e-05
sVnecessary
p3470
F4.594635633963165e-05
sVbit
p3471
F5.16506294212172e-06
sVawaken
p3472
F0.0
sVrenin
p3473
F0.0
sVlike
p3474
F0.0
sVknock
p3475
F0.0004357225995454131
sVcognitive
p3476
F0.0
sVsemi
p3477
F1.963645373976445e-05
sVspine
p3478
F5.075949656443681e-05
sVconfront
p3479
F5.075949656443681e-05
sVinterestingly
p3480
F5.075949656443681e-05
sVptst
p3481
F0.0
sVmanifest
p3482
F0.00015227848969331045
sVconstipate
p3483
F0.0
sVcollect
p3484
F0.0
sVzoloft
p3485
F0.0
sVcontinue
p3486
F0.0002527049598679741
sVunstable
p3487
F5.075949656443681e-05
sValternatively
p3488
F5.075949656443681e-05
sVpopular
p3489
F0.00010151899312887363
sVeeg
p3490
F0.0
sVdisorder
p3491
F0.002182658352270783
sVptsd
p3492
F0.0
sVterminology
p3493
F0.0
sVgoogle
p3494
F0.0003112304282467237
sVproscaline
p3495
F0.0
sVoften
p3496
F0.0006480029734122269
sVmetabolic
p3497
F0.0
sVabsolutely
p3498
F0.00016081224718871078
sVgoddamn
p3499
F0.00020303798625774725
sV1st
p3500
F3.112304282467236e-05
sVunloved
p3501
F0.0
sVback
p3502
F0.0003718845318327638
sVphone
p3503
F0.0002489843425973789
sVblow
p3504
F3.445976725472374e-05
sVpaxil
p3505
F0.0
sVbouncy
p3506
F0.0
sVtowards
p3507
F1.033012588424344e-05
sVoxcarbazepine
p3508
F0.0
sVb2
p3509
F0.0
sVb3
p3510
F0.0
sVcurious
p3511
F3.445976725472374e-05
sVlightning
p3512
F5.075949656443681e-05
sVamicable
p3513
F0.0
sVelectric
p3514
F6.224608564934473e-05
sVgradually
p3515
F0.0
sVculprit
p3516
F0.0
sVantichollinergic
p3517
F0.0
sVpet
p3518
F5.075949656443681e-05
sVdecision
p3519
F0.0001570916299181156
sVper
p3520
F0.0003112304282467237
sVcrisis
p3521
F0.0
sVmiddle
p3522
F5.743294542453957e-05
sVreligion
p3523
F0.0004568354690799313
sVeliminate
p3524
F0.0
sVquote
p3525
F6.224608564934473e-05
sVpee
p3526
F5.075949656443681e-05
sVmethylphenidate
p3527
F0.0
sVminimal
p3528
F0.0
sVbuspar
p3529
F0.0
sVbd
p3530
F0.0
sVbf
p3531
F0.0
sVpatient
p3532
F0.002182658352270783
sV300
p3533
F6.224608564934473e-05
sVclonazapam
p3534
F0.0
sVtetracyclic_antidepressant
p3535
F0.0
sVbi
p3536
F1.963645373976445e-05
sVstem
p3537
F0.0
sVzombie
p3538
F0.0005583544622088049
sVrestrictive
p3539
F0.0
sVstep
p3540
F5.743294542453957e-05
sVturkeying
p3541
F0.0
sVnowhere
p3542
F5.075949656443681e-05
sVviibryd
p3543
F0.0
sVtaboo
p3544
F0.0
sVintense
p3545
F0.000342353471071396
sVvivid
p3546
F0.0
sVjeezus
p3547
F0.0
sVreact
p3548
F0.0003112304282467237
sVpipeline
p3549
F0.0
sVcautious
p3550
F0.00010151899312887363
sV1snri
p3551
F0.0
sVgerd
p3552
F0.0
sVanything
p3553
F0.00034089415418003355
sVnetflix
p3554
F0.0
sVreappear
p3555
F0.0
sVgod
p3556
F0.0004979686851947578
sV75
p3557
F0.0002537974828221841
sVoatmeal
p3558
F5.075949656443681e-05
sVsimulation
p3559
F0.0
sVlifeless
p3560
F0.0
sVrange
p3561
F3.445976725472374e-05
sVnicotine
p3562
F0.0
sVpediatrician
p3563
F5.075949656443681e-05
sVpsychonaut
p3564
F0.0
sV5yrs
p3565
F0.0
sVwanna
p3566
F9.33691284740171e-05
sVblock
p3567
F0.0006535838993181197
sVdissociatives
p3568
F0.0
sVppl
p3569
F0.0
sVrepair
p3570
F0.0
sVtegretal
p3571
F0.0
sVreal
p3572
F0.0
sVplenty
p3573
F0.00012449217129868945
sVgarbage
p3574
F6.224608564934473e-05
sV1056
p3575
F0.0
sVvisit
p3576
F9.818226869882226e-05
sVabusive
p3577
F0.00020303798625774725
sVwithin
p3578
F0.00012635247993398704
sVnonsense
p3579
F0.0
sVdrain
p3580
F5.075949656443681e-05
sVantidepresant
p3581
F0.0
sVappropriate
p3582
F0.0004060759725154945
sVetizolam
p3583
F0.0
sVimbalance
p3584
F0.0
sVappendix
p3585
F0.0
sVprimarily
p3586
F0.0
sVsteven
p3587
F0.0
sVcontradictory
p3588
F5.075949656443681e-05
sVgreenies
p3589
F0.0
sVdelusional
p3590
F0.00010151899312887363
sVspan
p3591
F5.075949656443681e-05
sVpalinopsia
p3592
F0.0
sVdph
p3593
F0.0
sVcchrint
p3594
F0.0
sVache
p3595
F0.0
sVquestion
p3596
F0.00022973178169815827
sVlong
p3597
F0.0
sVcustom
p3598
F0.0011674684209820466
sVoverpower
p3599
F0.0
sVconsultation
p3600
F0.0
sVhumous
p3601
F0.0
sVsuit
p3602
F9.33691284740171e-05
sVforward
p3603
F0.0
sVerasmus
p3604
F0.0
sVanalyze
p3605
F0.0
sVconsiderably
p3606
F5.075949656443681e-05
sVelsewhere
p3607
F5.075949656443681e-05
sVkb
p3608
F0.0
sVposter
p3609
F5.075949656443681e-05
sVinept
p3610
F0.0
sVheart
p3611
F0.0005890936121929335
sVmanipulate
p3612
F0.0
sVdoi
p3613
F0.0
sVlink
p3614
F0.0004045995567207407
sVrepeatedly
p3615
F3.112304282467236e-05
sVnewer
p3616
F0.0004568354690799313
sVpilling
p3617
F0.0
sVlifesaver
p3618
F0.0
sVline
p3619
F0.00011486589084907914
sVdull
p3620
F3.112304282467236e-05
sVinfo
p3621
F0.00020303798625774725
sV115
p3622
F0.0
sVcig
p3623
F0.0
sVconsist
p3624
F0.0
sVflubpam
p3625
F0.0
sVsomedays
p3626
F0.0
sVup
p3627
F0.0
sV2gram
p3628
F0.0
sVwork
p3629
F0.0
sVgeneralize
p3630
F0.0
sVuh
p3631
F1.963645373976445e-05
sVuk
p3632
F0.00015227848969331045
sVsum
p3633
F5.075949656443681e-05
sVcontinuously
p3634
F5.075949656443681e-05
sVincidence
p3635
F0.0
sVz
p3636
F0.0003045569793866209
sVsimilar
p3637
F0.0002871647271226978
sVmedical
p3638
F0.00025527389861693784
sVdocusate
p3639
F0.0
sVinmate
p3640
F0.0
sVnucleuspf3izq7o6
p3641
F0.0
sVparoxetine
p3642
F0.0
sVimpared
p3643
F0.0
sVconstant
p3644
F0.0004668456423700854
sVexaminer
p3645
F0.0
sVlikewise
p3646
F0.0
sVinfluence
p3647
F5.890936121929335e-05
sVhaunt
p3648
F0.0
sVdoesn
p3649
F0.00034089415418003355
sVdeprive
p3650
F0.0
sVsingle
p3651
F3.099037765273032e-05
sVcure
p3652
F0.0005583544622088049
sVcurb
p3653
F0.00020303798625774725
sVchat
p3654
F5.890936121929335e-05
sVappetizing
p3655
F5.075949656443681e-05
sVbitch
p3656
F0.00010151899312887363
sVtransg
p3657
F0.0
sVkidney
p3658
F0.00015227848969331045
sVintact
p3659
F3.112304282467236e-05
sVpageid
p3660
F0.0
sVpanax
p3661
F0.0
sVinsomniac
p3662
F0.0
sVnah
p3663
F5.075949656443681e-05
sVpeace
p3664
F5.075949656443681e-05
sVoccasional
p3665
F0.0
sVclub
p3666
F0.00010151899312887363
sVnap
p3667
F0.0
sVbracket
p3668
F0.0
sVb12
p3669
F0.0
sVunscheduled
p3670
F0.0
sVincome
p3671
F0.0
sVmoron
p3672
F0.00010151899312887363
sVaunt
p3673
F0.0
sVnice
p3674
F0.0
sVunderweight
p3675
F0.0
sVdraw
p3676
F1.549518882636516e-05
sVenergetic
p3677
F0.0
sVhypomanic
p3678
F0.0
sVlucid
p3679
F0.0
sVativan
p3680
F0.0
sVresign
p3681
F0.0
sVhelpful
p3682
F0.0009136709381598626
sVdrag
p3683
F1.1486589084907912e-05
sVoregon
p3684
F0.0
sVutterly
p3685
F5.075949656443681e-05
sVclue
p3686
F3.112304282467236e-05
sVamphetamine
p3687
F0.0
sVdesert
p3688
F3.112304282467236e-05
sVstructure
p3689
F0.00010151899312887363
sVlane
p3690
F0.0
sVland
p3691
F5.16506294212172e-06
sVe
p3692
F8.780607001606923e-05
sVvice
p3693
F0.00010151899312887363
sVsvg
p3694
F0.0
sVage
p3695
F0.0001033793017641712
sVconfirm
p3696
F0.00012449217129868945
sVwellbeing
p3697
F0.0
sVvisual
p3698
F0.00010151899312887363
sVteca
p3699
F0.0
sVimpatient
p3700
F5.075949656443681e-05
sVlogical
p3701
F0.0
sVhella
p3702
F0.0
sV2007
p3703
F0.0
sVnarrative
p3704
F0.0
sVpsychiatry
p3705
F0.0
sVfresh
p3706
F0.0004516384360145823
sV2008
p3707
F0.0
sV2009
p3708
F0.0
sVhello
p3709
F0.00012449217129868945
sVpartial
p3710
F5.075949656443681e-05
sVendocrinologist
p3711
F0.0
sVgp
p3712
F0.0
sVscratch
p3713
F9.33691284740171e-05
sVresistance
p3714
F5.075949656443681e-05
sVnoobs
p3715
F0.0
sVpsilocybin
p3716
F0.0
sVtoggle
p3717
F0.00010151899312887363
sVhyper
p3718
F0.0
sVfreakin
p3719
F5.075949656443681e-05
sVscreen
p3720
F6.224608564934473e-05
sVflashback
p3721
F0.0
sVadjustment
p3722
F0.0
sVcompose
p3723
F0.0002537974828221841
sVimproperly
p3724
F5.075949656443681e-05
sVstave
p3725
F0.0
sVyoung
p3726
F5.16506294212172e-06
sVsend
p3727
F9.18927126792633e-05
sVnose
p3728
F1.1486589084907912e-05
sVintensive
p3729
F5.075949656443681e-05
sVaaaaand
p3730
F0.0
sVchristpsychotics
p3731
F0.0
sVblaze
p3732
F0.0
sVstable
p3733
F0.0005075949656443682
sVweather
p3734
F1.963645373976445e-05
sVworred
p3735
F0.0
sVdislike
p3736
F0.00015227848969331045
sVfatal
p3737
F3.112304282467236e-05
sVdramatically
p3738
F5.075949656443681e-05
sVwenlafaxine
p3739
F0.0
sVrag
p3740
F0.00010151899312887363
sVfwiw
p3741
F0.0
sVrandom
p3742
F9.33691284740171e-05
sVknowledgebase
p3743
F0.0
sVtorture
p3744
F5.075949656443681e-05
sVoutside
p3745
F4.132050353697376e-05
sVgenius
p3746
F5.075949656443681e-05
sVwave
p3747
F1.963645373976445e-05
sVunstructured
p3748
F0.0
sVfacebook
p3749
F0.0
sValcar
p3750
F0.0
sVdihydracodiene
p3751
F0.0
sVexhaustion
p3752
F5.075949656443681e-05
sVsurgeon
p3753
F0.0
sVenfp
p3754
F0.0
sVvapes
p3755
F0.0
sVwipe
p3756
F3.112304282467236e-05
sVnausea
p3757
F0.0
sVentire
p3758
F0.0001178187224385867
sVcompulsion
p3759
F0.0
sVmagic
p3760
F6.224608564934473e-05
sVaugment
p3761
F0.0
sVantihistaminergic
p3762
F0.0
sVarray
p3763
F0.0
sVshock
p3764
F6.224608564934473e-05
sVmichael
p3765
F0.0
sVeve
p3766
F0.0
sVfewer
p3767
F0.00020303798625774725
sVonion
p3768
F0.0030963292904306453
sVtry
p3769
F0.0007437690636655276
sVbrutal
p3770
F0.0
sVqueencoyote
p3771
F0.0
sVrace
p3772
F0.00015227848969331045
sVlamatrogine
p3773
F0.0
sVimgur
p3774
F0.0
sVobesity
p3775
F0.0
sVchallenge
p3776
F5.075949656443681e-05
sVpuke
p3777
F0.00010151899312887363
sVdisclaimer
p3778
F5.075949656443681e-05
sVflash
p3779
F3.112304282467236e-05
sVcap
p3780
F0.00010151899312887363
sVvisuals
p3781
F0.0
sVibd
p3782
F0.0
sVveeeeeery
p3783
F0.0
sVsurefire
p3784
F0.0
sVsensation
p3785
F0.0
sVmaintain
p3786
F0.00015561521412336184
sVjump
p3787
F3.92729074795289e-05
sVbevery
p3788
F0.0
sVtoday
p3789
F0.0001837854253585266
sVvideo
p3790
F6.224608564934473e-05
sVuncomfortable
p3791
F0.00010151899312887363
sVhppd
p3792
F0.0
sVacid
p3793
F0.000342353471071396
sVodd
p3794
F4.594635633963165e-05
sVclick
p3795
F1.963645373976445e-05
sVsoulcrushing
p3796
F0.0
sVcq10
p3797
F0.0
sVindex
p3798
F5.075949656443681e-05
sVturn
p3799
F0.0002986513162076057
sV3x
p3800
F0.0
sVbusiness
p3801
F1.033012588424344e-05
sVrate
p3802
F0.0004045995567207407
sVcarthage
p3803
F0.0
sVfianc
p3804
F3.112304282467236e-05
sVasap
p3805
F0.0
sVexacerbate
p3806
F0.0
sVpostsynaptic
p3807
F0.0
sVcell
p3808
F5.890936121929335e-05
sVconsistently
p3809
F5.075949656443681e-05
sVredhaired
p3810
F0.0
sVbismol
p3811
F0.0
sVnonrecreational
p3812
F0.0
sVexercise
p3813
F0.001624303890061978
sVstabilizer
p3814
F0.0
sVbody
p3815
F0.0002014374547427471
sVdiazepam
p3816
F0.0
sVproliferation
p3817
F0.0
sVdegree
p3818
F0.00015561521412336184
sVleg
p3819
F0.00013745517617835115
sVmistake
p3820
F3.445976725472374e-05
sVescitralopram
p3821
F0.0
sVsuicidality
p3822
F0.0
sVmajor_depressive_disorder
p3823
F0.0
sVpunch
p3824
F0.00010151899312887363
sVnonexistent
p3825
F5.075949656443681e-05
sVhighly
p3826
F0.00012449217129868945
sVdisinhibiting
p3827
F0.0
sVaggravate
p3828
F0.0
sVpoverty
p3829
F5.075949656443681e-05
sVzopiclone
p3830
F0.0
sVothers
p3831
F0.0002986513162076057
sVlex
p3832
F0.0
sVtremor
p3833
F0.0
sVsafer
p3834
F0.0
sVfifteen
p3835
F0.00020303798625774725
sVmindset
p3836
F0.0
sVimmune
p3837
F5.075949656443681e-05
sVvoracious
p3838
F0.0
sVgreat
p3839
F0.0
sVibs
p3840
F0.0
sVoleptro
p3841
F0.0
sVnumbness
p3842
F0.0
sVreceive
p3843
F0.00010151899312887363
sV32
p3844
F1.963645373976445e-05
sV30
p3845
F0.0004020306179717769
sV37
p3846
F3.112304282467236e-05
sVscientology
p3847
F0.0
sV35
p3848
F0.0007158299849674644
sV34
p3849
F1.963645373976445e-05
sVpreferentially
p3850
F0.0
sVinsulin
p3851
F0.0
sVprincipally
p3852
F0.0
sVopinion
p3853
F0.00020303798625774725
sVimplement
p3854
F5.075949656443681e-05
sVdepressant
p3855
F0.0
sVexcercise
p3856
F0.0
sVthats
p3857
F3.112304282467236e-05
sVholmes
p3858
F0.0
sValtho
p3859
F0.0
sVstabilization
p3860
F0.0
sVcalmer
p3861
F0.0
sVvalproic
p3862
F0.0
sVdanger
p3863
F3.445976725472374e-05
sVforbid
p3864
F5.075949656443681e-05
sVwin
p3865
F0.0003534561673157601
sVmanage
p3866
F0.0003338197135759956
sVimpulsivity
p3867
F0.0
sVprivate
p3868
F1.963645373976445e-05
sVocd
p3869
F0.0
sVsixty
p3870
F0.0
sVthiamine
p3871
F0.0
sVdecrease
p3872
F0.0005583544622088049
sVprivately
p3873
F0.0
sVmotor
p3874
F5.075949656443681e-05
sVrutaecarpine
p3875
F0.0
sVlimb
p3876
F0.0
sVapply
p3877
F0.0001867382569480342
sVcanada
p3878
F0.0
sVgateway
p3879
F3.112304282467236e-05
sVcloud
p3880
F0.0
sVtrimipramine
p3881
F0.0
sVconfidence
p3882
F5.075949656443681e-05
sVimpotency
p3883
F0.0
sVfeb
p3884
F0.0
sVtar
p3885
F6.224608564934473e-05
sVusa
p3886
F0.00010151899312887363
sVvilazodone
p3887
F0.0
sVpainkiller
p3888
F0.0
sVviagra
p3889
F5.075949656443681e-05
sVflat
p3890
F2.2973178169815824e-05
sVnext
p3891
F0.0001033012588424344
sVprocess
p3892
F0.00012449217129868945
sVdoubt
p3893
F4.594635633963165e-05
sVtypical
p3894
F0.0001867382569480342
sVbottomless
p3895
F0.0
sVnoisy
p3896
F5.075949656443681e-05
sVweirdest
p3897
F5.075949656443681e-05
sVchip
p3898
F5.075949656443681e-05
sVnimodipine
p3899
F0.0
sVbetray
p3900
F0.0
sVsort
p3901
F6.714581824758236e-05
sVconfiscate
p3902
F0.0
sVsupposedly
p3903
F5.075949656443681e-05
sVdysfunctional
p3904
F0.0
sVmusician
p3905
F0.0
sVfrighten
p3906
F5.075949656443681e-05
sVtemazapam
p3907
F0.0
sVinfection
p3908
F0.00010151899312887363
sVweened
p3909
F0.0
sVlodge
p3910
F0.0
sVnearly
p3911
F4.648556647909548e-05
sVtrain
p3912
F0.0002537974828221841
sVim_just_curious_how_many_pills_do_you_take_on_a
p3913
F0.0
sVidra21
p3914
F0.0
sVrubbish
p3915
F5.075949656443681e-05
sV90mg
p3916
F0.0
sVbaby
p3917
F6.224608564934473e-05
sV4am
p3918
F0.0
sVharvest
p3919
F5.075949656443681e-05
sVincline
p3920
F0.0
sVannoy
p3921
F0.0003553164759510577
sVtopic
p3922
F0.00012449217129868945
sVaccount
p3923
F6.224608564934473e-05
sVgeodon
p3924
F0.0
sVlopressor
p3925
F0.0
sVf
p3926
F6.224608564934473e-05
sVlapse
p3927
F0.0
sVoh
p3928
F0.000591337813668775
sVstroke
p3929
F0.00010151899312887363
sVmodalert
p3930
F0.0
sVoutlet
p3931
F0.0
sVdonut
p3932
F5.075949656443681e-05
sVunreal
p3933
F0.0
sVobvious
p3934
F7.85458149590578e-05
sVthin
p3935
F3.92729074795289e-05
sVpraise
p3936
F0.0
sVintrovert
p3937
F0.0
sVmeet
p3938
F0.0002489843425973789
sVpozac
p3939
F0.0
sVpersonality
p3940
F6.224608564934473e-05
sVdidnt
p3941
F0.0003553164759510577
sVdissolve
p3942
F0.0
sVsublingually
p3943
F0.0
sVrefine
p3944
F0.0
sVcontrol
p3945
F0.0012449217129868947
sVweaker
p3946
F5.075949656443681e-05
sVtab
p3947
F0.00012449217129868945
sVwaaaay
p3948
F0.0
sVamoxapine
p3949
F0.0
sVcalculation
p3950
F0.00020303798625774725
sVdrugsdb
p3951
F0.0
sVpharmacologically
p3952
F0.0
sVslim
p3953
F3.112304282467236e-05
sVhalloween
p3954
F0.0
sVdependence
p3955
F0.0
sVhigh
p3956
F0.0
sVprofessor
p3957
F5.075949656443681e-05
sVtobacco
p3958
F3.112304282467236e-05
sVcarrot
p3959
F5.075949656443681e-05
sVsomething
p3960
F0.0003150688394694249
sVslip
p3961
F0.00015227848969331045
sVdietician
p3962
F0.0
sVwonderful
p3963
F7.85458149590578e-05
sVmjne
p3964
F0.0
sVvoice
p3965
F9.33691284740171e-05
sVrape
p3966
F5.075949656443681e-05
sVlamb
p3967
F5.075949656443681e-05
sVcitalapram
p3968
F0.0
sVsyndrome
p3969
F0.0004668456423700854
sVlame
p3970
F0.00015227848969331045
sVstrongest
p3971
F5.075949656443681e-05
sVtrazadone
p3972
F0.0
sVsix
p3973
F0.00015561521412336184
sVawake
p3974
F0.0004568354690799313
sVdelay
p3975
F3.112304282467236e-05
sVneed
p3976
F0.0008005847560288666
sVaurorix
p3977
F0.0
sVamtriptyline
p3978
F0.0
sVattachment
p3979
F5.075949656443681e-05
sVanimal
p3980
F2.2973178169815824e-05
sVwolf
p3981
F0.0
sVcomedy
p3982
F5.075949656443681e-05
sVintelligent
p3983
F3.112304282467236e-05
sVstock
p3984
F3.92729074795289e-05
sVprofile
p3985
F0.0014316599699349289
sVcupboard
p3986
F0.0
sVattend
p3987
F6.224608564934473e-05
sVbyetta
p3988
F0.0
sVwatch
p3989
F0.0
sVyouve
p3990
F0.0
sVcollection
p3991
F3.112304282467236e-05
sVdc
p3992
F0.0
sVnullify
p3993
F0.0
sVdoze
p3994
F0.0
sVdiscomfort
p3995
F0.0
sVabuse
p3996
F0.0003045569793866209
sVfatigue
p3997
F0.0
sVht1a
p3998
F0.0
sVnejm
p3999
F0.0
sVpopcorn
p4000
F5.075949656443681e-05
sVphysic
p4001
F0.0
sVdatura
p4002
F0.0
sVstatus
p4003
F1.963645373976445e-05
sVdrop
p4004
F0.0002356374448771734
sVxyrem
p4005
F0.0
sVbind
p4006
F0.0
sVcounter
p4007
F0.00012449217129868945
sVcapsule
p4008
F0.0011674684209820466
sVelement
p4009
F1.963645373976445e-05
sV9am
p4010
F0.0
sVredditor
p4011
F0.0
sVharshly
p4012
F0.0
sVallow
p4013
F0.0004568354690799313
sVaddiction
p4014
F0.0
sVserotonergic
p4015
F0.0
sVha
p4016
F3.92729074795289e-05
sVevolutionary
p4017
F0.0
sVmute
p4018
F5.075949656443681e-05
sVmove
p4019
F0.0004909113434941112
sV800mg
p4020
F0.0
sVpropylhexedrine
p4021
F0.0
sVreport
p4022
F0.0001867382569480342
sVemsam
p4023
F0.0
sVselftext
p4024
F0.0
sVsleepier
p4025
F0.0
sVtreshold
p4026
F0.0
sVbrittle
p4027
F0.0
sVhorny
p4028
F5.075949656443681e-05
sVbunch
p4029
F0.0001178187224385867
sVperfect
p4030
F0.00012449217129868945
sV1
p4031
F0.0002685832729903294
sVle
p4032
F0.00253797482822184
sVlb
p4033
F0.0
sVantipsychotic
p4034
F0.0
sVla
p4035
F5.16506294212172e-06
sVdr
p4036
F0.00020303798625774725
sVll
p4037
F0.0004132050353697376
sVent
p4038
F0.0
sVcriticize
p4039
F0.0
sVmeantime
p4040
F5.075949656443681e-05
sVvital
p4041
F5.075949656443681e-05
sVfirmly
p4042
F5.075949656443681e-05
sVchoose
p4043
F0.00017672808365788004
sVcommunication
p4044
F0.0
sV2015
p4045
F0.0
sV2014
p4046
F0.0
sV2017
p4047
F0.0
sVbye
p4048
F5.075949656443681e-05
sV2011
p4049
F0.0
sV2010
p4050
F0.0
sVfibrymyalgia
p4051
F0.0
sV2012
p4052
F0.0
sVdad
p4053
F0.0001178187224385867
sVhalflife
p4054
F0.0
sVcrash
p4055
F0.0001570916299181156
sVgreater
p4056
F6.224608564934473e-05
sVunclear
p4057
F3.112304282467236e-05
sVanticonvulsant
p4058
F0.0
sVspell
p4059
F9.33691284740171e-05
sVfluff
p4060
F0.0
sVship
p4061
F1.1486589084907912e-05
sVmras
p4062
F0.0
sVmention
p4063
F0.0004123655285350534
sVsonata
p4064
F0.0
sVmandate
p4065
F5.075949656443681e-05
sVfront
p4066
F4.594635633963165e-05
sVliable
p4067
F0.0
sVcircadian
p4068
F0.0
sVday
p4069
F0.0
sVemotion
p4070
F0.0004568354690799313
sVsynaptic
p4071
F0.0
sVurge
p4072
F0.0
sVexcitability
p4073
F0.0
sVedit
p4074
F0.0011167089244176098
sVpanic
p4075
F0.0
sVuniversity
p4076
F0.0004060759725154945
sVdextromethorphan
p4077
F0.0
sVale
p4078
F0.0
sVmesolimbic
p4079
F0.0
sVunpredictable
p4080
F0.00010151899312887363
sVziggy
p4081
F0.0
sVlamictal
p4082
F0.0
sVtruth
p4083
F0.0004045995567207407
sVtoke
p4084
F0.0
sVpromise
p4085
F6.224608564934473e-05
sVtoxic
p4086
F0.0
sVdeteriorate
p4087
F0.0
sVerratic
p4088
F3.112304282467236e-05
sVtraz
p4089
F0.0
sV5am
p4090
F0.00015227848969331045
sVunwind
p4091
F5.075949656443681e-05
sVactivate
p4092
F0.00021786129977270654
sVbump
p4093
F0.0
sVdensity
p4094
F9.33691284740171e-05
sVcelexa
p4095
F0.0
sVuwe
p4096
F0.0
sVconstitute
p4097
F0.0
sVdeficiency
p4098
F0.0
sVmeta
p4099
F6.224608564934473e-05
sVstatic
p4100
F0.00015227848969331045
sVidiotic
p4101
F0.0
sVmeasure
p4102
F1.963645373976445e-05
sVmeth
p4103
F0.0
sVbay
p4104
F6.224608564934473e-05
sVsexual
p4105
F0.0019796203660130355
sVwander
p4106
F5.075949656443681e-05
sVagoraphobia
p4107
F0.0
sVmight
p4108
F0.0003770495947748855
sVirritability
p4109
F0.0
sVlicense
p4110
F3.112304282467236e-05
sVklonipin
p4111
F0.0
sVlastly
p4112
F0.0
sVfundamentally
p4113
F5.075949656443681e-05
sVborderline
p4114
F5.075949656443681e-05
sVtwice
p4115
F7.85458149590578e-05
sVtriazolam
p4116
F0.0
sVpointless
p4117
F0.00020303798625774725
sVrep
p4118
F5.075949656443681e-05
sVyup
p4119
F0.0
sVreboot
p4120
F5.075949656443681e-05
sVupset
p4121
F0.00010151899312887363
sVmate
p4122
F1.963645373976445e-05
sVsituational
p4123
F0.0
sVsever
p4124
F5.075949656443681e-05
sVrem
p4125
F0.0
sVlecture
p4126
F0.0
sVbrilliantly
p4127
F0.0
sVcause
p4128
F0.000645632867765215
sVreg
p4129
F0.0
sVred
p4130
F2.066025176848688e-05
sVshut
p4131
F5.743294542453957e-05
sVphilosophy
p4132
F5.075949656443681e-05
sVspectrum
p4133
F0.0
sVwithdrawal
p4134
F0.0
sV8g
p4135
F0.0
sVban
p4136
F0.0
sVunipolar
p4137
F0.0
sVect
p4138
F0.0
sVtempt
p4139
F0.0
sVregulatory
p4140
F0.0
sVanyhow
p4141
F0.0
sVimpulsive
p4142
F0.0
sVlikelihood
p4143
F0.0
sVafterward
p4144
F0.0
sVlog
p4145
F5.075949656443681e-05
sVscary
p4146
F0.0003553164759510577
sV50mg
p4147
F0.0
sVbackwards
p4148
F2.2973178169815824e-05
sVorganic
p4149
F0.0
sVpun
p4150
F5.075949656443681e-05
sVg
p4151
F0.0002356374448771734
sVfart
p4152
F3.112304282467236e-05
sVcould
p4153
F0.0
sVcompulsive
p4154
F0.00010151899312887363
sVlitterbox
p4155
F5.075949656443681e-05
sVfeasible
p4156
F5.075949656443681e-05
sVconversation
p4157
F5.743294542453957e-05
sVsleeplessness
p4158
F0.0
sV4th
p4159
F5.075949656443681e-05
sVstickler
p4160
F0.0
sVwrist
p4161
F5.075949656443681e-05
sVretail
p4162
F0.0
sVscare
p4163
F5.075949656443681e-05
sVsouth
p4164
F1.963645373976445e-05
sVdexedrine
p4165
F0.0
sVconsciously
p4166
F0.0
sVexam
p4167
F0.0002537974828221841
sVbenzodiazepenes
p4168
F0.0
sVunwanted
p4169
F0.00020303798625774725
sVsuffix
p4170
F5.075949656443681e-05
sVimovane
p4171
F0.0
sVpowerful
p4172
F0.00015227848969331045
sVscene
p4173
F3.92729074795289e-05
sVjesus
p4174
F0.0
sVsorority
p4175
F5.075949656443681e-05
sVspeedball
p4176
F5.075949656443681e-05
sVhurdle
p4177
F0.0
sVsubmit
p4178
F6.224608564934473e-05
sVdrastic
p4179
F0.0
sVdrinker
p4180
F5.075949656443681e-05
sVprobation
p4181
F0.0
sVstabilize
p4182
F0.0
sVmanagement
p4183
F5.075949656443681e-05
sVsadly
p4184
F0.0
sVmonkey
p4185
F3.112304282467236e-05
sVfuckery
p4186
F0.0
sVstrict
p4187
F0.00015227848969331045
sVunknown
p4188
F3.112304282467236e-05
sVrockstar
p4189
F0.0
sVaccent
p4190
F1.963645373976445e-05
sVsystem
p4191
F0.00013783906901889496
sVclomipramine
p4192
F0.0
sVattach
p4193
F5.075949656443681e-05
sVattack
p4194
F0.0002756781380377899
sVintermediate
p4195
F0.0
sVnbome
p4196
F0.0
sVpsychedelic
p4197
F0.0
sVhighest
p4198
F0.00010151899312887363
sVdrool
p4199
F0.0
sVneurotransmitter
p4200
F0.0
sVperfectly
p4201
F3.92729074795289e-05
sVsensitivity
p4202
F0.0
sVpainful
p4203
F0.0
sVbeard
p4204
F6.224608564934473e-05
sVshell
p4205
F3.112304282467236e-05
sVstomach
p4206
F0.0003112304282467237
sVgear
p4207
F0.0
sVdoexpin
p4208
F0.0
sVexplanation
p4209
F5.075949656443681e-05
sVnobody
p4210
F0.00012449217129868945
sVunaffected
p4211
F0.0
sVsupervision
p4212
F0.0
sVmyfitnesspal
p4213
F0.0
sVsporadically
p4214
F5.075949656443681e-05
sVclearnet
p4215
F0.0
sVdiminish
p4216
F0.0
sVbotox
p4217
F0.0
sVhaven
p4218
F0.00045946356339631654
sVblind
p4219
F3.112304282467236e-05
sVwaist
p4220
F3.112304282467236e-05
sVsteel
p4221
F6.224608564934473e-05
sVben
p4222
F0.0
sVpregab
p4223
F0.0
sV10x
p4224
F0.0
sVpinelake
p4225
F0.0
sVbother
p4226
F9.33691284740171e-05
sVschizophrenia
p4227
F0.0003045569793866209
sVbed
p4228
F0.0013382908414609116
sVhalcyon
p4229
F0.0
sVopiate
p4230
F0.0
sVlight
p4231
F0.00014932565810380286
sVanytime
p4232
F5.075949656443681e-05
sVdoctorate
p4233
F0.0
sVtyrosine
p4234
F0.0
sVmisunderstand
p4235
F0.0
sVitchy
p4236
F0.0
sVexhibit
p4237
F5.075949656443681e-05
sVhavr
p4238
F0.0
sVfalse
p4239
F7.85458149590578e-05
sVmflb
p4240
F0.0
sVcomfortable
p4241
F0.00015561521412336184
sVtide
p4242
F5.075949656443681e-05
sVunlikely
p4243
F0.0
sVreligiouspsychotics
p4244
F0.0
sVthroat
p4245
F3.445976725472374e-05
sVinduce
p4246
F0.0
sVdementia
p4247
F0.0
sVapparently
p4248
F0.00017672808365788004
sVclearly
p4249
F9.818226869882226e-05
sVlisdexamfetamine
p4250
F0.0
sVmianserin
p4251
F0.0
sVtale
p4252
F3.112304282467236e-05
sVhypnagogic
p4253
F0.0
sVangle
p4254
F5.075949656443681e-05
sVpsyche
p4255
F0.0
sVmin
p4256
F0.00020303798625774725
sVrout
p4257
F0.0
sVagency
p4258
F5.075949656443681e-05
sVphysique
p4259
F0.0
sVmid
p4260
F3.92729074795289e-05
sVmechanism
p4261
F0.0
sVarm
p4262
F1.963645373976445e-05
sVmix
p4263
F0.0004516384360145823
sVlope
p4264
F0.0
sVahold
p4265
F5.075949656443681e-05
sVhonestly
p4266
F0.0004357225995454131
sVpharmacist
p4267
F0.0
sVcoke
p4268
F0.00010151899312887363
sVaccuracy
p4269
F0.0
sVphonecalls
p4270
F0.0
sVnorepenphrine
p4271
F0.0
sVmileage
p4272
F0.0
sVunless
p4273
F0.0001570916299181156
sVprednisone
p4274
F0.0
sVsfx
p4275
F0.0
sVcentre
p4276
F5.075949656443681e-05
sVflipside
p4277
F0.0
sVsfw
p4278
F0.0
sVprocure
p4279
F0.0
sVharmful
p4280
F0.0
sVuseful
p4281
F0.0004568354690799313
sVamazon435hm6h3ye
p4282
F0.0
sVht
p4283
F0.0
sVlunesta
p4284
F0.0
sVdevice
p4285
F3.92729074795289e-05
sVcabinet
p4286
F0.00010151899312887363
sVclass
p4287
F0.00047095015248122435
sVstarve
p4288
F0.00010151899312887363
sV07
p4289
F3.112304282467236e-05
sVdeny
p4290
F0.00015227848969331045
sVplacement
p4291
F5.075949656443681e-05
sVhyperthyroidism
p4292
F0.0
sVcounteract
p4293
F0.0
sVgather
p4294
F6.224608564934473e-05
sVstronger
p4295
F0.00010151899312887363
sVdisease
p4296
F0.00012449217129868945
sVface
p4297
F9.18927126792633e-05
sVpipe
p4298
F1.963645373976445e-05
sVgeneration
p4299
F0.0
sVballons
p4300
F0.0
sVdesvenlafaxine
p4301
F0.0
sVguinea
p4302
F0.0
sVoccasion
p4303
F9.33691284740171e-05
sVskinny
p4304
F0.0002537974828221841
sVmonotherapy
p4305
F0.0
sVnormally
p4306
F0.0002801073854220513
sVnortryptiline
p4307
F0.0
sVfact
p4308
F0.0004123655285350534
sV50
p4309
F0.0006202758105850273
sVdrunken
p4310
F0.00010151899312887363
sVatmosphere
p4311
F5.075949656443681e-05
sVtext
p4312
F0.0001867382569480342
sVindoor
p4313
F0.0011167089244176098
sVanyway
p4314
F0.0003141832598362312
sVsublingual
p4315
F0.0
sVbrother
p4316
F6.224608564934473e-05
sVvistaril
p4317
F0.0
sVbring
p4318
F6.714581824758236e-05
sVbedroom
p4319
F5.075949656443681e-05
sVrough
p4320
F0.00012449217129868945
sV2013
p4321
F0.0
sVtrivial
p4322
F0.0
sVdbt
p4323
F0.0
sVdecade
p4324
F6.224608564934473e-05
sVstaff
p4325
F5.075949656443681e-05
sVlitigation
p4326
F0.0
sVpause
p4327
F1.1486589084907912e-05
sVknowledge
p4328
F6.224608564934473e-05
sVtire
p4329
F0.0009959373703895156
sVellaborate
p4330
F0.0
sVwelbutrin
p4331
F0.0
sVnitrous
p4332
F0.0
sVclomiphene
p4333
F0.0
sVemployer
p4334
F0.0
sVprolong
p4335
F0.0
sVreactive
p4336
F0.0
sV60mg
p4337
F0.0
sVjam
p4338
F1.1486589084907912e-05
sVcombo
p4339
F0.0007613924484665521
sVfuel
p4340
F0.0
sVvarious
p4341
F0.00017672808365788004
sVamplify
p4342
F0.0
sVlocal
p4343
F6.224608564934473e-05
sVhope
p4344
F0.00013945669943728645
sVregularly
p4345
F0.00015227848969331045
sVinsight
p4346
F5.075949656443681e-05
sVhandle
p4347
F0.0001033793017641712
sV2013conference
p4348
F0.0
sVpharmacology
p4349
F0.0
sVantagonism
p4350
F0.0
sVbeat
p4351
F9.818226869882226e-05
sVfamiliar
p4352
F9.33691284740171e-05
sVdope
p4353
F5.075949656443681e-05
sVcranky
p4354
F0.0
sVlucky
p4355
F9.818226869882226e-05
sVgeneralise
p4356
F0.0
sVpathophysiology
p4357
F0.0
sVjoint
p4358
F0.0002537974828221841
sVholster
p4359
F0.0
sVmolasses
p4360
F0.0
sV125
p4361
F0.0
sVprobably
p4362
F0.0004364903852265007
sVclondine
p4363
F0.0
sVymmv
p4364
F0.0
sVsimpler
p4365
F5.075949656443681e-05
sVtecas
p4366
F0.0
sVantagonist
p4367
F0.0
sVendless
p4368
F3.112304282467236e-05
sVsmash
p4369
F0.00010151899312887363
sVarmodafinil
p4370
F0.0
sVmetabolite
p4371
F0.0
sVorgan
p4372
F0.00015227848969331045
sVht2a
p4373
F0.0
sVupper
p4374
F5.075949656443681e-05
sVapproach
p4375
F0.00015561521412336184
sVstanford
p4376
F0.0
sVthalamic
p4377
F0.0
sVoptimally
p4378
F0.0
sVstuff
p4379
F0.0007069123346315202
sVblogspot
p4380
F0.0
sVgram
p4381
F0.0
sVavoidable
p4382
F0.0
sVdangerous
p4383
F0.00021600099113740893
sV2990008
p4384
F0.0
sV11am
p4385
F0.0
sVnadolol
p4386
F0.0
sVopiod
p4387
F0.0
sVgabapentin
p4388
F0.0
sVenhancer
p4389
F0.0
sVavailable
p4390
F0.0002749103523567023
sVbtw
p4391
F0.0
sVtemporarily
p4392
F5.075949656443681e-05
sVresort
p4393
F0.0
sVexpel
p4394
F0.0
sVremeronfeels
p4395
F0.0
sVframe
p4396
F3.112304282467236e-05
sVgroggy
p4397
F0.0
sVreddit
p4398
F0.0
sVcbt
p4399
F0.0
sVintensity
p4400
F0.00015227848969331045
sVwd
p4401
F0.0
sVpowder
p4402
F0.00015561521412336184
sVdesperate
p4403
F5.075949656443681e-05
sVrecently
p4404
F0.00011486589084907914
sVdysmorphia
p4405
F0.0
sVminature
p4406
F0.0
sVbth
p4407
F0.0
sVcloser
p4408
F6.224608564934473e-05
sVinterview
p4409
F5.075949656443681e-05
sVcomputer
p4410
F0.00012449217129868945
sVdeltasone
p4411
F0.0
sVglucophage
p4412
F0.0
sVlux
p4413
F0.0
sVpattern
p4414
F0.0
sVnightmare
p4415
F0.00017672808365788004
sVhorribly
p4416
F0.0
sVsadness
p4417
F0.0
sVwillpower
p4418
F0.0
sVtend
p4419
F0.0014720254003686675
sVinvega
p4420
F0.0
sVfavor
p4421
F3.112304282467236e-05
sVstate
p4422
F0.0005694571584531691
sVlel
p4423
F0.0
sVcorrectly
p4424
F1.963645373976445e-05
sVroutine
p4425
F0.0001867382569480342
sVprogress
p4426
F2.2973178169815824e-05
sVboundary
p4427
F0.00010151899312887363
sVemail
p4428
F6.224608564934473e-05
sVmidnight
p4429
F0.00015561521412336184
sVethic
p4430
F0.0
sVcomparable
p4431
F0.0
sVsole
p4432
F0.0
sVaddin
p4433
F0.0
sVsuperior
p4434
F0.0
sVwk
p4435
F0.0
sVcourt
p4436
F3.112304282467236e-05
sVhowever
p4437
F0.0015872751840582905
sVmarley
p4438
F0.0
sVnegligible
p4439
F0.0
sVpsycho
p4440
F0.00010151899312887363
sVcomplicate
p4441
F0.0
sVhypothesis
p4442
F5.075949656443681e-05
sVdibilitating
p4443
F0.0
sVkey
p4444
F1.963645373976445e-05
sVdeliriant
p4445
F0.0
sVparadoxically
p4446
F0.00010151899312887363
sVlegit
p4447
F0.00010151899312887363
sVmonitor
p4448
F5.075949656443681e-05
sVintubate
p4449
F0.0
sVketo
p4450
F0.0
sVinstant
p4451
F6.224608564934473e-05
sVcareer
p4452
F3.112304282467236e-05
sVdissonance
p4453
F0.0
sVpurple
p4454
F0.00010151899312887363
sVescape
p4455
F4.594635633963165e-05
sVequal
p4456
F0.00020303798625774725
sVdrug
p4457
F5.075949656443681e-05
sVcortef
p4458
F0.0
sVetc
p4459
F0.0001807772029742602
sVdeter
p4460
F0.0
sVeta
p4461
F0.0
sVgrain
p4462
F0.0
sVcover
p4463
F0.00013783906901889496
sVcatastrophic
p4464
F0.0
sVbehaviour
p4465
F3.112304282467236e-05
sVswallow
p4466
F9.33691284740171e-05
sVplacebo
p4467
F0.0
sVsafely
p4468
F5.075949656443681e-05
sVjourney
p4469
F0.0
sVotherwise
p4470
F0.0002945468060964667
sVcomment
p4471
F0.0004668456423700854
sVstrongly
p4472
F0.0
sVinflammatory
p4473
F0.0
sVco
p4474
F0.00012449217129868945
sVwtf
p4475
F0.0
sVindica
p4476
F0.0
sVafaik
p4477
F0.0
sVpmc3894718
p4478
F0.0
sVinvasive
p4479
F0.0
sVca
p4480
F5.075949656443681e-05
sVhaloperidol
p4481
F0.0
sVwalk
p4482
F0.00037309262105552455
sVsubscribe
p4483
F0.0
sVprojector
p4484
F5.075949656443681e-05
sVlaugh
p4485
F1.963645373976445e-05
sVstabile
p4486
F0.0
sVrespect
p4487
F0.0001178187224385867
sVpulmonary
p4488
F0.0
sVrosiglitazone
p4489
F0.0
sVprebiotics
p4490
F0.0
sV600
p4491
F3.112304282467236e-05
sVapril
p4492
F0.0
sVshudder
p4493
F0.0
sVhawkins
p4494
F0.0
sVinhale
p4495
F0.00010151899312887363
sVyay
p4496
F0.0
sVsecond
p4497
F8.264100707394752e-05
sVaddition
p4498
F0.0003553164759510577
sVoxidase
p4499
F0.0
sVspike
p4500
F0.00010151899312887363
sVbbc
p4501
F5.075949656443681e-05
sVcon
p4502
F0.0
sVcent
p4503
F5.075949656443681e-05
sVsnort
p4504
F5.075949656443681e-05
sVshame
p4505
F3.112304282467236e-05
sVimmense
p4506
F0.0
sVgenetic
p4507
F0.0
sVpermanent
p4508
F7.85458149590578e-05
sVslowly
p4509
F0.0001178187224385867
sVdrowsy
p4510
F0.0
sVah
p4511
F0.0
sVsars
p4512
F0.0
sVkitchen
p4513
F5.075949656443681e-05
sVsoma
p4514
F0.0
sVleague
p4515
F0.0
sVroute
p4516
F5.890936121929335e-05
sVcruddy
p4517
F0.0
sVinformative
p4518
F5.075949656443681e-05
sVanorgasmia
p4519
F0.0
sV1200
p4520
F0.0
sVbulk
p4521
F0.0
sVdecaf
p4522
F5.075949656443681e-05
sVcontroller
p4523
F0.0
sVplanner
p4524
F3.112304282467236e-05
sVminneapolis
p4525
F0.0
sVhobby
p4526
F0.00010151899312887363
sVprescription
p4527
F0.0
sVan
p4528
F0.0
sVgunpowder
p4529
F5.075949656443681e-05
sVcruel
p4530
F3.112304282467236e-05
sVspain
p4531
F0.0
sVmulti
p4532
F1.963645373976445e-05
sVoregon_sheriff_wrote_gun_control_is_not_the
p4533
F0.0
sVirregular
p4534
F5.075949656443681e-05
sVunlike
p4535
F0.00013745517617835115
sVkava
p4536
F0.0
sVoveruse
p4537
F0.0
sVplain
p4538
F1.963645373976445e-05
sVappearance
p4539
F3.92729074795289e-05
sVas
p4540
F0.0
sVvalue
p4541
F5.743294542453957e-05
sVchalk
p4542
F0.0
sV160mg
p4543
F0.0
sVcannabinoids
p4544
F0.0
sVerowid
p4545
F0.0
sVfault
p4546
F2.2973178169815824e-05
sVvenlaxfine
p4547
F0.0
sVbathtub
p4548
F5.075949656443681e-05
sVrestless
p4549
F0.0
sVdiscontinuation
p4550
F0.0
sVbcguidelines
p4551
F0.0
sVmanicy
p4552
F0.0
sVtimolol
p4553
F0.0
sVaw
p4554
F0.0
sVhome
p4555
F0.00022973178169815827
sValmost
p4556
F0.00019627239180062536
sVvape
p4557
F0.0
sVinsanely
p4558
F0.0
sVthus
p4559
F0.00012449217129868945
sVsite
p4560
F0.0001570916299181156
sVencouragement
p4561
F0.0
sVsustenance
p4562
F0.0
sVavm
p4563
F0.0
sVinform
p4564
F5.075949656443681e-05
sVdual
p4565
F9.33691284740171e-05
sVlightweight
p4566
F5.075949656443681e-05
sVpartner
p4567
F0.00015561521412336184
sVconserve
p4568
F0.0
sVmirtazapine2dacs
p4569
F0.0
sVhappy
p4570
F0.0002067586035283424
sVpresent
p4571
F3.615544059485204e-05
sVimpossible
p4572
F0.00021786129977270654
sVgeneric
p4573
F0.0005583544622088049
sVtemptation
p4574
F3.112304282467236e-05
sVadministration
p4575
F5.075949656443681e-05
sVcross
p4576
F2.066025176848688e-05
sVunite
p4577
F0.0
sVmember
p4578
F0.00010151899312887363
sVadverse
p4579
F0.0
sVstrange
p4580
F0.00014932565810380286
sVflower
p4581
F0.0
sVinfarction
p4582
F0.0
sV1996
p4583
F5.075949656443681e-05
sVparty
p4584
F0.0007469530277921368
sVdisorient
p4585
F0.0
sVmildly
p4586
F0.0
sVtighten
p4587
F0.0
sVball
p4588
F1.963645373976445e-05
sVpractitioner
p4589
F0.0
sVcontext
p4590
F6.224608564934473e-05
sVemotionally
p4591
F0.0003045569793866209
sVdusk
p4592
F0.0
sVfluoxoetine
p4593
F0.0
sVdrink
p4594
F0.00019627239180062536
sVupon
p4595
F2.2973178169815824e-05
sVeffect
p4596
F0.000774759441318258
sVfucker
p4597
F5.075949656443681e-05
sVphd
p4598
F0.0
sVberberine
p4599
F0.0
sV80
p4600
F0.0
sVtragically
p4601
F0.0
sVpsychothropic
p4602
F0.0
sVstudent
p4603
F0.00015561521412336184
sVvariance
p4604
F0.0
sVovertake
p4605
F0.0
sVdelsym
p4606
F0.0
sVphp
p4607
F0.00010151899312887363
sVbroccoli
p4608
F0.0
sVidentity
p4609
F0.0003045569793866209
sVdiabetes
p4610
F0.000812151945030989
sVretard
p4611
F0.00015227848969331045
sVfascinate
p4612
F0.0
sVneural
p4613
F0.0
sVapprove
p4614
F0.00015227848969331045
sVespeciallyl
p4615
F0.0
sVnonetheless
p4616
F3.112304282467236e-05
sVwell
p4617
F0.0
sVcave
p4618
F5.075949656443681e-05
sVhistamine
p4619
F0.0
sVthought
p4620
F0.0002986513162076057
sVoops
p4621
F5.075949656443681e-05
sVdeadly
p4622
F0.0
sVfirstly
p4623
F0.0
sVposition
p4624
F1.1486589084907912e-05
sVmuscle
p4625
F0.00015227848969331045
sVloss
p4626
F0.000591337813668775
sVrush
p4627
F1.963645373976445e-05
sVusual
p4628
F0.0005583544622088049
sVreligiouspsychotic
p4629
F0.0
sVmeathead
p4630
F5.075949656443681e-05
sVnewest
p4631
F5.075949656443681e-05
sVrocket
p4632
F0.0
sVheavily
p4633
F3.112304282467236e-05
sVbiological
p4634
F0.0
sVpercent
p4635
F0.0002489843425973789
sVhalf
p4636
F0.00013945669943728645
sVobtain
p4637
F0.0
sVdose
p4638
F0.006751013043070095
sVclinic
p4639
F0.0
sVrecollection
p4640
F5.075949656443681e-05
sVdistant
p4641
F6.224608564934473e-05
sVloperamide
p4642
F0.0
sVlocalize
p4643
F5.075949656443681e-05
sVpaul
p4644
F0.0
sVcitalorpram
p4645
F0.0
sVtcas
p4646
F0.0
sVcoordination
p4647
F0.0
sVdistress
p4648
F5.075949656443681e-05
sVdisturbance
p4649
F5.075949656443681e-05
sVoversleep
p4650
F0.0
sVrepetitious
p4651
F0.0
sVbowl
p4652
F0.00015227848969331045
sVtheroadback
p4653
F0.0
sVpoint
p4654
F0.0002840784618166946
sVvyvanse
p4655
F0.0
sVrealize
p4656
F0.000812151945030989
sVadd
p4657
F0.000392729074795289
sVlower
p4658
F0.000528383097905764
sVcombine
p4659
F0.000342353471071396
sVhydrate
p4660
F0.0
sVexempt
p4661
F0.0
sVreason
p4662
F0.0003790574398019611
sVreenact
p4663
F0.0
sVsmart
p4664
F3.112304282467236e-05
sVkick
p4665
F0.0002945468060964667
sVidentical
p4666
F3.112304282467236e-05
sVwont
p4667
F0.0002537974828221841
sVmyth
p4668
F5.075949656443681e-05
sVgovernment
p4669
F3.112304282467236e-05
sVadmit
p4670
F0.0
sVcpap
p4671
F0.0
sVfyi
p4672
F0.0
sVfoster
p4673
F5.075949656443681e-05
sVinderall
p4674
F0.0
sVfive
p4675
F2.066025176848688e-05
sVknow
p4676
F0.0010020222107716137
sVimmediately
p4677
F5.890936121929335e-05
sVnvm
p4678
F0.0
sV2nd
p4679
F9.33691284740171e-05
sVprominent
p4680
F5.075949656443681e-05
sVbenadryl
p4681
F0.0
sVtl
p4682
F0.0
sVcrisp
p4683
F5.075949656443681e-05
sVemetophobia
p4684
F0.0
sVsuccess
p4685
F0.0003112304282467237
sVsafest
p4686
F0.0
sVsofa
p4687
F0.0
sVring
p4688
F0.00012449217129868945
sV3grams
p4689
F0.0
sVcandy
p4690
F5.075949656443681e-05
sVworky
p4691
F0.0
sVrozerm
p4692
F0.0
sVtranscranial
p4693
F0.0
sVheed
p4694
F5.075949656443681e-05
sVlose
p4695
F0.0002066025176848688
sVamitryptiline
p4696
F0.0
sVbecome
p4697
F0.00016011695120577332
sVsoft
p4698
F1.1486589084907912e-05
sVconversely
p4699
F0.0
sVpersist
p4700
F0.00020303798625774725
sVtherapeutic
p4701
F0.0
sVopioid
p4702
F0.0
sVklonopin
p4703
F0.0
sVstimulate
p4704
F0.0
sVstereoisomers
p4705
F0.0
sVhereis
p4706
F0.0
sVfeast
p4707
F3.112304282467236e-05
sVchurch
p4708
F3.112304282467236e-05
sVbriefly
p4709
F5.075949656443681e-05
sValive
p4710
F2.2973178169815824e-05
sVphenylalanine
p4711
F0.0
sVhydrocortisone
p4712
F0.0
sVdaylight
p4713
F5.075949656443681e-05
sVfrisbee
p4714
F0.0
sVstory
p4715
F0.0004668456423700854
sVflush
p4716
F0.00010151899312887363
sVproper
p4717
F0.00011486589084907914
sVfaint
p4718
F0.00010151899312887363
sVsupportive
p4719
F0.0
sVmodulate
p4720
F0.0
sVrecognition
p4721
F5.075949656443681e-05
sVpsychoanalyst
p4722
F0.0
sVprojection
p4723
F0.0
sVpropofol
p4724
F0.0
sVlead
p4725
F0.00032162449437742155
sVesp
p4726
F0.0
sVliterally
p4727
F0.0004045995567207407
sVavoid
p4728
F0.0002527049598679741
sVextra
p4729
F9.818226869882226e-05
sVconstantly
p4730
F0.00013745517617835115
sVtad
p4731
F0.0
sVsustain
p4732
F0.0
sVpassion
p4733
F1.963645373976445e-05
sVinflammation
p4734
F0.0
sVpatricia
p4735
F0.0
sVwhereas
p4736
F0.00015227848969331045
sVtrap
p4737
F0.0
sVgratitude
p4738
F5.075949656443681e-05
sVrealise
p4739
F0.0
sVproud
p4740
F3.112304282467236e-05
sVschedule
p4741
F0.0005075949656443682
sVjournal
p4742
F0.0
sV136lbs
p4743
F0.0
sVability
p4744
F0.0003734765138960684
sVoverall
p4745
F0.0004060759725154945
sVpressure
p4746
F0.0011674684209820466
sVhost
p4747
F1.963645373976445e-05
sVimmature
p4748
F0.0
sValthough
p4749
F0.0002871647271226978
sVworthy
p4750
F3.112304282467236e-05
sVorganon_international
p4751
F0.0
sVstay
p4752
F0.0003790574398019611
sVperiodically
p4753
F3.112304282467236e-05
sVcarbamazepine
p4754
F0.0
sVstage
p4755
F1.963645373976445e-05
sV250mics
p4756
F0.0
sVmirtazepine
p4757
F0.0
sVlifestyle
p4758
F0.00020303798625774725
sVsocket
p4759
F0.0
sV6am
p4760
F0.0
sVcolumn
p4761
F0.00010151899312887363
sVhaired
p4762
F0.00010151899312887363
sVdilaudid
p4763
F0.0
sVharder
p4764
F0.0001867382569480342
sVingest
p4765
F0.0
sVsurge
p4766
F0.0
sVdependency
p4767
F0.0002537974828221841
sVfear
p4768
F0.0001178187224385867
sVa2
p4769
F0.0
sVsweat
p4770
F0.00015227848969331045
sVgainer
p4771
F0.0
sVatheist
p4772
F0.0004060759725154945
sVtongue
p4773
F3.92729074795289e-05
sVtuesday
p4774
F0.0
sV30ml
p4775
F0.0
sVduloxetine
p4776
F0.0
sVowl
p4777
F0.0
sVequally
p4778
F0.0
sVown
p4779
F5.16506294212172e-06
sVrestorative
p4780
F0.0
sVfinal
p4781
F2.2973178169815824e-05
sVwilderness
p4782
F5.075949656443681e-05
sVperfusion
p4783
F0.0
sVpreviously
p4784
F0.00020303798625774725
sVh1
p4785
F0.0
sVyear
p4786
F0.0006249726159967281
sVfunctional
p4787
F0.00020303798625774725
sVcyclobenzaprine
p4788
F0.0
sVchronic
p4789
F0.0005583544622088049
sVdoesnt
p4790
F0.00015561521412336184
sVreceptor
p4791
F0.0
sVesteem
p4792
F5.075949656443681e-05
sVfemale
p4793
F3.92729074795289e-05
sVilegally
p4794
F0.0
sVunproductive
p4795
F0.0
sVforget
p4796
F0.0002356374448771734
sVndri
p4797
F0.0
sVwack
p4798
F5.075949656443681e-05
sVprozac
p4799
F0.0
sVcarbon
p4800
F0.0
sVadditional
p4801
F9.33691284740171e-05
sVvolinanserin
p4802
F0.0
sVtransfer
p4803
F3.112304282467236e-05
sVoutline
p4804
F5.075949656443681e-05
sVreduction
p4805
F0.00010151899312887363
sVrcs
p4806
F0.0
sVoverestimate
p4807
F0.0
sVintention
p4808
F0.0
sVlonely
p4809
F0.00015561521412336184
sVinner
p4810
F3.92729074795289e-05
sVfrustration
p4811
F0.0
sVbiggest
p4812
F0.00015561521412336184
sVexposure
p4813
F0.0
sVuncontrollable
p4814
F0.0
sVnaturally
p4815
F5.075949656443681e-05
sVfunction
p4816
F0.000812151945030989
sVbuy
p4817
F0.0001963645373976445
sVnorth
p4818
F1.963645373976445e-05
sVpd
p4819
F0.0
sVdextroamphetamine
p4820
F0.0
sVpersistent
p4821
F0.00012449217129868945
sVhr
p4822
F0.00010151899312887363
sVbus
p4823
F5.075949656443681e-05
sVbrand
p4824
F5.890936121929335e-05
sVfuture
p4825
F4.594635633963165e-05
sVcarbs
p4826
F0.00020303798625774725
sVweight
p4827
F0.002125018980707964
sVescrow
p4828
F0.0
sVvolume
p4829
F5.075949656443681e-05
sVbuh
p4830
F0.0
sVhi
p4831
F0.00010151899312887363
sVvalerian
p4832
F0.0
sVgain
p4833
F0.004824071637824216
sVnut
p4834
F0.00010151899312887363
sVlarger
p4835
F3.92729074795289e-05
sVphenelzineu
p4836
F0.0
sVear
p4837
F0.00010151899312887363
sVeat
p4838
F0.0011256857303209755
sVbud
p4839
F0.0
sVpartially
p4840
F3.112304282467236e-05
sVcount
p4841
F0.0004045995567207407
sVweening
p4842
F0.0
sVlovely
p4843
F1.963645373976445e-05
sVwise
p4844
F0.00015227848969331045
sVevident
p4845
F0.00020303798625774725
sVwhether
p4846
F4.648556647909548e-05
sVwish
p4847
F0.0001570916299181156
sVsmooth
p4848
F1.963645373976445e-05
sVflip
p4849
F0.00010151899312887363
sVdistract
p4850
F0.0
sVambien
p4851
F0.0
sVrecord
p4852
F0.00012449217129868945
sVetifoxine
p4853
F0.0
sVconvince
p4854
F7.85458149590578e-05
sVlimit
p4855
F0.00015561521412336184
sVhand
p4856
F0.0
sVinvest
p4857
F0.0
sVadderall
p4858
F0.0
sVproblem
p4859
F0.0009189271267926331
sVpm
p4860
F0.0
sVantidepressives
p4861
F0.0
sVinstead
p4862
F0.0002945468060964667
sVobese
p4863
F0.00010151899312887363
sVwhatever
p4864
F0.00016081224718871078
sVrecognize
p4865
F3.112304282467236e-05
sVeesh
p4866
F0.0
sVcontribute
p4867
F0.00010151899312887363
sVpig
p4868
F3.112304282467236e-05
sVedronax
p4869
F0.0
sVwiki_test_kit__suppliers
p4870
F0.0
sVjudgemental
p4871
F5.075949656443681e-05
sVsneak
p4872
F0.00010151899312887363
sVeducation
p4873
F5.075949656443681e-05
sVpit
p4874
F5.075949656443681e-05
sVautism
p4875
F0.0
sVworse
p4876
F0.0002871647271226978
sVhospitalization
p4877
F0.0
sVescitlopram
p4878
F0.0
sVefficacy
p4879
F0.0
sV48
p4880
F3.112304282467236e-05
sVvariety
p4881
F0.00012449217129868945
sVtenth
p4882
F3.112304282467236e-05
sV45
p4883
F0.0001178187224385867
sVoffensive
p4884
F3.112304282467236e-05
sVdetail
p4885
F0.00012449217129868945
sV40
p4886
F0.0002945468060964667
sVlately
p4887
F9.33691284740171e-05
sVsurreal
p4888
F0.0
sVfinish
p4889
F0.0001178187224385867
sVbook
p4890
F0.00015561521412336184
sVguarantee
p4891
F0.0002537974828221841
sVspecial
p4892
F1.033012588424344e-05
sVsick
p4893
F0.0010151899312887363
sVziprasidone
p4894
F0.0
sVhpa
p4895
F0.0
sVer
p4896
F9.818226869882226e-05
sVstimulant
p4897
F0.0
sVconclusion
p4898
F3.112304282467236e-05
sVloner
p4899
F0.0
sVcategory
p4900
F6.224608564934473e-05
sVbooze
p4901
F0.00010151899312887363
sVfrancisco
p4902
F0.0
sVstar
p4903
F1.963645373976445e-05
sVmonday
p4904
F0.0
sVtraumatic
p4905
F0.0
sVworker
p4906
F0.00015227848969331045
sVthereafter
p4907
F0.0
sVjune
p4908
F0.0
sVultimately
p4909
F0.00015227848969331045
sVinherently
p4910
F0.0
sVvalproate
p4911
F0.0
sVmargaret
p4912
F0.0
sVchance
p4913
F0.0001033793017641712
sVaugmentation
p4914
F0.0
sVkinda
p4915
F0.0002537974828221841
sVidiopathic
p4916
F0.0
sVgodsend
p4917
F0.0
sVsilenor
p4918
F0.0
sVmatrix
p4919
F5.075949656443681e-05
sVcontraceptive
p4920
F0.0
sVramble
p4921
F0.0
sVrisperdal
p4922
F0.0
sVresolution
p4923
F3.112304282467236e-05
sVmoderation
p4924
F0.0
sVrule
p4925
F0.0002801073854220513
sVaetna
p4926
F0.0
sVportion
p4927
F5.075949656443681e-05
sV_apasserby_
p4928
F0.0
sVstirrer
p4929
F0.0
sVsimpson
p4930
F0.0
sVdiagnosis
p4931
F0.0
sVnorepherine
p4932
F0.0
sVyell
p4933
F0.0002537974828221841
sVindirectly
p4934
F0.0
sVgrocery
p4935
F0.00010151899312887363
s.