(dp0
Vsuicidal
p1
F0.0007144461378954724
sVevalyn
p2
F0.0
sVpardon
p3
F4.380606438327325e-05
sVsimilarity
p4
F0.0
sVmagnetic
p5
F0.0
sVchild
p6
F8.08375748849963e-05
sVyellow
p7
F5.5277098812547974e-05
sVnarcotic
p8
F0.0
sVfour
p9
F7.996878363305956e-05
sVcatapres
p10
F0.0
sVsleep
p11
F0.015035370877013048
sVasian
p12
F0.0
sVgrandparent
p13
F0.0
sVappetite
p14
F0.0005001122965268306
sVflomax
p15
F0.0
sVhate
p16
F0.00042866768273728336
sVforget
p17
F0.0003593011422815618
sVwhose
p18
F1.616751497699926e-05
sVinstructor
p19
F0.0
sVallll
p20
F0.0
sVhealthland
p21
F0.0
sVphysiological
p22
F0.0
sVheighten
p23
F0.0
sVdisability
p24
F7.144461378954724e-05
sVboundless
p25
F0.0
sVmediation
p26
F0.0
sVhallucinate
p27
F0.0
sVswap
p28
F4.380606438327325e-05
sVwhatsoever
p29
F0.00013141819314981974
sVlord
p30
F4.380606438327325e-05
sVsorry
p31
F0.00017784266474699182
sVdependency
p32
F0.00021433384136864168
sV348
p33
F0.0
sVworth
p34
F0.00046985533990665776
sVdigit
p35
F0.00014288922757909448
sVhormone
p36
F0.0
sVrisk
p37
F0.00027638549406273986
sVdownstream
p38
F0.0
sVappal
p39
F0.0
sVhypertensive
p40
F0.0
sVdispense
p41
F0.0
sVblanket
p42
F8.76121287665465e-05
sVdutch
p43
F0.0
sVrelatively
p44
F0.00028577845515818896
sVafaik
p45
F0.0
sVredact
p46
F0.0
sVmania
p47
F0.0
sVtrileptal
p48
F0.0
sVjack
p49
F7.144461378954724e-05
sVsaari
p50
F0.0
sVaffect
p51
F0.001214558434422303
sVcipralex
p52
F0.0
sV12hrs
p53
F0.0
sVschool
p54
F0.003500786075687814
sVcontinous
p55
F0.0
sVsolution
p56
F0.0
sVviable
p57
F0.0
sVunrelated
p58
F0.00021433384136864168
sVcrotch
p59
F7.144461378954724e-05
sVenhance
p60
F0.00013819274703136993
sVcloudiness
p61
F0.0
sVreliable
p62
F4.380606438327325e-05
sVenjoy
p63
F0.0003593011422815618
sVnuvigil
p64
F0.0
sVforce
p65
F0.0003316625928752878
sVpragmatic
p66
F0.0
sVnigh
p67
F0.0
sVconcise
p68
F0.0
sVtolerate
p69
F0.0
sVconsistent
p70
F0.00021433384136864168
sVlavender
p71
F0.0
sVempirical
p72
F0.0
sVnail
p73
F0.00013141819314981974
sVmessy
p74
F0.00021433384136864168
sVsecond
p75
F0.0001599375672661191
sVstreet
p76
F0.00028577845515818896
sVtangential
p77
F0.0
sVfollow
p78
F0.0001616751497699926
sVkratom
p79
F0.0
sVemptiness
p80
F0.0
sVworthlessness
p81
F0.0
sVeven
p82
F0.0006760997161704126
sVbromantane
p83
F0.0
sVhide
p84
F5.5277098812547974e-05
sVpace
p85
F0.0
sVworsen
p86
F0.0
sVrevolver
p87
F0.0
sVliberty
p88
F7.144461378954724e-05
sVwouldnt
p89
F0.0
sVhaze
p90
F0.0
sVblur
p91
F7.144461378954724e-05
sVnew
p92
F0.0
sVmetadate
p93
F0.0
sVever
p94
F0.00022536657205680417
sVsuccumb
p95
F0.0
sVmed
p96
F0.0005694788369825523
sVjoin
p97
F1.616751497699926e-05
sVnever
p98
F0.0
sVmeh
p99
F0.0
sVhere
p100
F7.2698894211872325e-06
sVjon
p101
F0.0
sVprotection
p102
F7.144461378954724e-05
sVstudio
p103
F7.144461378954724e-05
sVactive
p104
F5.5277098812547974e-05
sVaftermath
p105
F0.0
sV100
p106
F0.00030402404346901383
sVdiagnostic
p107
F0.0
sVin_our_own_voice
p108
F0.0
sVsubstance
p109
F0.0
sVdaughter
p110
F3.233502995399852e-05
sVforum
p111
F0.00014288922757909448
sVtaper
p112
F0.0
sVphenelzine
p113
F0.0
sVelaborate
p114
F0.0
sVgraze
p115
F0.0
sV3nkz1u
p116
F0.0
sVcredit
p117
F3.233502995399852e-05
sVharass
p118
F0.0
sVsominex
p119
F0.0
sVsexually
p120
F7.144461378954724e-05
sVmilitary
p121
F7.144461378954724e-05
sVaka
p122
F0.0
sVapart
p123
F5.5277098812547974e-05
sVclonidine
p124
F0.0
sVgolden
p125
F0.00013141819314981974
sVfantastic
p126
F4.380606438327325e-05
sVhunch
p127
F0.0
sVclassification
p128
F4.380606438327325e-05
sVscold
p129
F0.0
sVimplode
p130
F0.0
sVtreatment
p131
F0.0020718937998968697
sVhighly
p132
F0.0002628363862996395
sVpsychological
p133
F7.144461378954724e-05
sVhahahahah
p134
F0.0
sValpha
p135
F7.144461378954724e-05
sVvivid
p136
F0.0
sVtremens
p137
F0.0
sVidiosyncratic
p138
F0.0
sVfixable
p139
F0.0
sVcocaine
p140
F0.00021433384136864168
sVunit
p141
F0.0
sVtrazodone
p142
F0.0
sVplot
p143
F0.0
sVquasi
p144
F0.0
sVwould
p145
F0.0
sVarmy
p146
F4.380606438327325e-05
sVbrowse
p147
F7.144461378954724e-05
sVhospital
p148
F0.0009199273520487382
sVhungry
p149
F0.000175224257533093
sVnegative
p150
F0.00030664245068291274
sVinsult
p151
F7.144461378954724e-05
sVconquer
p152
F0.0
sVprogram
p153
F0.00030664245068291274
sVcall
p154
F0.0002035569037932425
sVcalm
p155
F0.0007144461378954724
sVcentre
p156
F7.144461378954724e-05
sVrecommend
p157
F0.002429116868844606
sVsurvive
p158
F7.144461378954724e-05
sVantagonism
p159
F0.0
sVtype
p160
F0.0003593011422815618
sVtell
p161
F0.0008245432638269621
sVnyquil
p162
F0.0
sVbeyond
p163
F2.1809668263561696e-05
sVpaperwork
p164
F0.0
sVcomorbid
p165
F0.0
sVholy
p166
F2.7638549406273987e-05
sVrelax
p167
F0.000350448515066186
sVsuccessful
p168
F5.5277098812547974e-05
sV7h45m
p169
F0.0
sVhurt
p170
F0.0005715569103163779
sVwarn
p171
F0.0001934698458439179
sVglass
p172
F2.1809668263561696e-05
sVwarm
p173
F3.233502995399852e-05
sVadult
p174
F0.00042866768273728336
sVhurl
p175
F0.0
sV91
p176
F4.380606438327325e-05
sV90
p177
F0.00030664245068291274
sVward
p178
F0.0003572230689477362
sVhold
p179
F9.700508986199554e-05
sVoutdated
p180
F4.380606438327325e-05
sV97
p181
F4.380606438327325e-05
sV96
p182
F7.144461378954724e-05
sVshoot
p183
F0.0012703758671149242
sVmd
p184
F0.0
sVmg
p185
F0.0
sVcystocentesis
p186
F0.0
sVclonazapam
p187
F0.0
sVroom
p188
F0.00012934011981599407
sVpursue
p189
F0.0
sV1998
p190
F0.0
sVnoots
p191
F0.0
sVwork
p192
F0.0
sVworm
p193
F0.00014288922757909448
sVadvocacy
p194
F0.0
sVwhack
p195
F0.0
sVcuddle
p196
F7.144461378954724e-05
sVwort
p197
F7.144461378954724e-05
sVflare
p198
F0.0
sVroot
p199
F8.76121287665465e-05
sVexample
p200
F0.00012934011981599407
sVaddictive
p201
F0.0
sVvivitrol
p202
F0.0
sVhuperzin
p203
F0.0
sVvodka
p204
F7.144461378954724e-05
sV600
p205
F4.380606438327325e-05
sVunmarked
p206
F0.0
sVgive
p207
F0.0005452417065890424
sVsuicidewatch
p208
F0.0
sVhousehold
p209
F0.0
sVtable
p210
F7.2698894211872325e-06
sVfax
p211
F0.0
sVinvolve
p212
F0.0
sVtitanium
p213
F0.0
sVquetiapine
p214
F0.0
sVwant
p215
F0.0
sVhonest
p216
F5.5277098812547974e-05
sVlexapro
p217
F0.0
sVabsolute
p218
F8.76121287665465e-05
sVpreferably
p219
F7.144461378954724e-05
sVend
p220
F0.00021082679321442972
sVrecovery
p221
F0.0002628363862996395
sVfarce
p222
F0.0
sVjanuary
p223
F0.0
sVsertaline
p224
F0.0
sVverify
p225
F0.00028577845515818896
sVhangover
p226
F0.0014288922757909447
sVfeature
p227
F0.00013141819314981974
sVrevisit
p228
F7.144461378954724e-05
sVmachine
p229
F0.000175224257533093
sVcitalopram
p230
F0.0
sVhot
p231
F0.0002487469446564659
sVsate
p232
F0.0
sVhop
p233
F0.0005715569103163779
sVanswer
p234
F0.00014550763479299333
sVpreferable
p235
F0.0
sVwahluke
p236
F0.0
sVmassive
p237
F0.0
sVbadly
p238
F4.850254493099777e-05
sVfever
p239
F0.0
sVelizabeth
p240
F0.0
sVmess
p241
F0.00039425457944945925
sVearlier
p242
F8.08375748849963e-05
sVabdomen
p243
F0.0
sVlab
p244
F0.0
sVwholesale
p245
F0.0
sVcommander
p246
F0.0
sVhypnogogic
p247
F0.0
sVwrong
p248
F0.00019401017972399108
sVmesh
p249
F0.0
sVtackle
p250
F5.5277098812547974e-05
sVlay
p251
F0.000350448515066186
sVcuriosity
p252
F0.00013141819314981974
sVready
p253
F3.6349447105936164e-05
sVpresident
p254
F7.144461378954724e-05
sVlaw
p255
F7.144461378954724e-05
sVlap
p256
F7.144461378954724e-05
sVsmoke
p257
F0.0008323152232821917
sVattempt
p258
F0.0001616751497699926
sVeffective
p259
F0.0014288922757909447
sVmanic
p260
F0.000643001524105925
sVtetra
p261
F0.0
sVspout
p262
F0.0
sVappreciate
p263
F0.00013141819314981974
sVhypnotic
p264
F0.0
sVscare
p265
F7.144461378954724e-05
sVwink
p266
F0.0
sV89
p267
F7.144461378954724e-05
sVmaintain
p268
F0.000175224257533093
sVbedtime
p269
F0.0
sVultimate
p270
F0.0
sVgoodbye
p271
F0.0
sVenter
p272
F4.850254493099777e-05
sVevery
p273
F0.000407113807586485
sVpreventive
p274
F0.0
sVoperate
p275
F0.00014288922757909448
sVskyping
p276
F0.0
sVorder
p277
F0.00010904834131780848
sVwind
p278
F0.0001658312964376439
sVwine
p279
F1.616751497699926e-05
sVblind
p280
F4.380606438327325e-05
sVfetter
p281
F0.0
sVkick
p282
F0.0003869396916878358
sVoffice
p283
F0.00011055419762509595
sVcheese
p284
F4.380606438327325e-05
sVmuffin
p285
F7.144461378954724e-05
sVvary
p286
F0.00039425457944945925
sVrxconnect
p287
F0.0
sVbefall
p288
F0.0
sVbuproprion
p289
F0.0
sVhypoapnea
p290
F0.0
sVresponsive
p291
F7.144461378954724e-05
sVshorter
p292
F4.380606438327325e-05
sVbenzodiazapine
p293
F0.0
sVime
p294
F0.00014288922757909448
sVpharma
p295
F0.0
sVfit
p296
F4.850254493099777e-05
sVauditory
p297
F0.0
sVpersonal
p298
F4.850254493099777e-05
sVfix
p299
F0.0004818667082160057
sVrecreational
p300
F0.0003572230689477362
sVimo
p301
F0.0
sVcomprehend
p302
F0.0
sVbetter
p303
F0.0004870825912195445
sVawfulness
p304
F0.0
sVcomplex
p305
F8.291564821882195e-05
sVdifferently
p306
F0.000175224257533093
sVaccusatory
p307
F0.0
sVpharms
p308
F0.0
sVprecipitate
p309
F0.0
sVyohre
p310
F0.0
sVeasier
p311
F0.0001934698458439179
sVovercome
p312
F7.144461378954724e-05
sVpleasurable
p313
F0.0
sVversus
p314
F4.380606438327325e-05
sVeventually
p315
F0.000928779979264114
sVcoffee
p316
F0.00021903032191636625
sVcombination
p317
F0.0005527709881254797
sVpowerful
p318
F0.00014288922757909448
sVunemployed
p319
F0.0
sVdrowsiness
p320
F0.0
sVtheanine
p321
F0.0
sVhypomania
p322
F0.0
sVbreak
p323
F0.00039425457944945925
sVhypomanias
p324
F0.0
sVbang
p325
F4.380606438327325e-05
sVtherapy
p326
F0.0019290045723177752
sVjesus
p327
F0.0
sVlifelong
p328
F0.0
sVitchy
p329
F0.0
sVcolumbine
p330
F0.0
sVelavil
p331
F0.0
sVmeat
p332
F4.380606438327325e-05
sVusage
p333
F4.380606438327325e-05
sVedge
p334
F1.616751497699926e-05
sVreasonably
p335
F7.144461378954724e-05
sVsleepless
p336
F0.0
sVl
p337
F5.5277098812547974e-05
sVneuroscientist
p338
F0.0
sVexplode
p339
F0.0
sVfrantically
p340
F4.380606438327325e-05
sVmead
p341
F0.0
sVreasonable
p342
F4.380606438327325e-05
sVfitness
p343
F7.144461378954724e-05
sVside
p344
F5.815911536949786e-05
sVbone
p345
F2.7638549406273987e-05
sVmean
p346
F0.0004850254493099777
sVcandy
p347
F7.144461378954724e-05
sVsomnolent
p348
F0.0
sVconstipation
p349
F7.144461378954724e-05
sVevolve
p350
F4.380606438327325e-05
sVstabiliser
p351
F0.0
sVseries
p352
F0.00021433384136864168
sVmdd
p353
F0.0
sVaide
p354
F0.0
sVvote
p355
F7.144461378954724e-05
sVunexplained
p356
F7.144461378954724e-05
sVextract
p357
F7.144461378954724e-05
sVslew
p358
F0.0
sVclothe
p359
F0.0
sVnetwork
p360
F7.144461378954724e-05
sVgod
p361
F8.76121287665465e-05
sVcrucial
p362
F0.0
sVenviroment
p363
F0.0
sVcontent
p364
F0.00014288922757909448
sVmethaphinidate
p365
F0.0
sVdsm
p366
F0.0
sVrare
p367
F0.00028577845515818896
sVrc
p368
F7.144461378954724e-05
sVmedicine
p369
F0.0016432261171595863
sVsurprise
p370
F0.00011055419762509595
sVrn
p371
F0.0
sVgov
p372
F0.00021433384136864168
sVsluggish
p373
F7.144461378954724e-05
sVgrease
p374
F7.144461378954724e-05
sVcomedown
p375
F0.0
sVassociate
p376
F0.0002628363862996395
sVfree
p377
F0.00012934011981599407
sVstandard
p378
F2.7638549406273987e-05
sVnti
p379
F0.0
sVmanagement
p380
F7.144461378954724e-05
sVformation
p381
F7.144461378954724e-05
sVstruggle
p382
F0.000350448515066186
sVnmda
p383
F0.0
sVstereotypical
p384
F0.0
sVestimate
p385
F7.144461378954724e-05
sVheat
p386
F4.380606438327325e-05
sVchlorine
p387
F0.0
sVdroop
p388
F0.0
sVdrench
p389
F0.0
sVhorseshit
p390
F0.0
sVlongterm
p391
F0.0
sVtolerant
p392
F0.0
sVfilter
p393
F4.380606438327325e-05
sValcohol
p394
F0.0008323152232821917
sVish
p395
F0.00028577845515818896
sVoppose
p396
F0.0
sVisn
p397
F0.0002907955768474893
sVsoda
p398
F0.00014288922757909448
sVregress
p399
F0.0
sVscheme
p400
F4.380606438327325e-05
sVonto
p401
F2.7638549406273987e-05
sVhire
p402
F0.00014288922757909448
sVfuckin
p403
F0.00028577845515818896
sVstewart
p404
F0.0
sVlaggy
p405
F0.0
sValready
p406
F0.0001599375672661191
sVcigarette
p407
F0.000175224257533093
sVgrade
p408
F0.0005001122965268306
sVreassure
p409
F0.0
sVprimary
p410
F0.000175224257533093
sVthereof
p411
F0.0
sVrestrict
p412
F0.0
sVhook
p413
F2.7638549406273987e-05
sVkurzgesagt
p414
F0.0
sVdeplete
p415
F0.0
sVdownside
p416
F0.0
sVanother
p417
F0.00034895469221698713
sVwasn
p418
F0.00025444612974155314
sVsober
p419
F0.00042866768273728336
sVkazmierczak
p420
F0.0
sVcalorie
p421
F7.144461378954724e-05
sVpassionflower
p422
F0.0
sVelectronic
p423
F0.0
sVphych
p424
F0.0
sVillustrate
p425
F7.144461378954724e-05
sVstimulation
p426
F0.00021433384136864168
sVfence
p427
F4.380606438327325e-05
sVservice
p428
F8.291564821882195e-05
sVsimilarly
p429
F0.0
sVneurochemical
p430
F0.0
sVfluvoxamine
p431
F0.0
sVtraumatize
p432
F0.0
sVton
p433
F0.00028577845515818896
sVfumble
p434
F0.0
sVtea
p435
F0.00013819274703136993
sVunderlie
p436
F0.0
sVinconvenient
p437
F0.0
sVjohn
p438
F0.0
sVbitter
p439
F0.00021433384136864168
sVspazzing
p440
F0.0
sVlisten
p441
F0.0001658312964376439
sVmurder
p442
F7.144461378954724e-05
sVgrowth
p443
F7.144461378954724e-05
sVcollapse
p444
F0.00014288922757909448
sVanafranil
p445
F0.0
sVgym
p446
F4.380606438327325e-05
sV2am
p447
F0.0
sVlower
p448
F0.0002748477546089874
sVtrippy
p449
F0.00014288922757909448
sVdirect
p450
F7.144461378954724e-05
sVnoodle
p451
F7.144461378954724e-05
sVpredictable
p452
F0.0
sVsomewhat
p453
F0.0005001122965268306
sVhorn
p454
F4.380606438327325e-05
sVcrawl
p455
F2.7638549406273987e-05
sVsymptom
p456
F0.0
sVtoronto
p457
F0.0
sVapproximation
p458
F0.0
sVtrek
p459
F0.0
sVanxiety
p460
F0.010430913613273895
sVtarget
p461
F0.00021433384136864168
sV5ht2a
p462
F0.0
sVhike
p463
F0.0
sVolder
p464
F4.850254493099777e-05
sVcrave
p465
F0.0
sVaztec
p466
F0.0
sVfinal
p467
F1.616751497699926e-05
sVshower
p468
F0.000643001524105925
sVmatter
p469
F0.00017784266474699182
sVsolomon
p470
F0.0
sVsilly
p471
F2.7638549406273987e-05
sV1600
p472
F0.0
sVhallucination
p473
F0.0
sVsupplement
p474
F0.0
sVbridge
p475
F2.7638549406273987e-05
sVfashion
p476
F0.00014288922757909448
sVentail
p477
F0.0
sVminn
p478
F0.0
sVrattle
p479
F0.0
sVprozac
p480
F0.0
sVmind
p481
F0.0006909637351568496
sVmine
p482
F0.0001616751497699926
sVreturn
p483
F4.850254493099777e-05
sVrat
p484
F4.380606438327325e-05
sVrap
p485
F7.144461378954724e-05
sVadhd
p486
F0.0
sVstomach
p487
F8.76121287665465e-05
sVseem
p488
F0.000407113807586485
sVregulate
p489
F0.0
sVseek
p490
F6.467005990799704e-05
sVdozen
p491
F0.00013141819314981974
sVlatency
p492
F0.0
sVponder
p493
F0.0
sVstrength
p494
F5.5277098812547974e-05
sVrealm
p495
F4.380606438327325e-05
sVrelapse
p496
F0.0
sVlatter
p497
F7.144461378954724e-05
sVresponsible
p498
F0.000175224257533093
sVsnow
p499
F7.144461378954724e-05
sVthorough
p500
F0.0
sVpredominantly
p501
F0.0
sVchest
p502
F0.00011055419762509595
sVclient
p503
F4.380606438327325e-05
sVsleeper
p504
F7.144461378954724e-05
sVdelirious
p505
F7.144461378954724e-05
sVeffectiveness
p506
F0.0
sVgotcha
p507
F0.0
sVblue
p508
F0.0001934698458439179
sVexactly
p509
F0.00012934011981599407
sVclonazepam
p510
F0.0
sVmethylphenidate
p511
F0.0
sVobject
p512
F1.616751497699926e-05
sVneuroskeptic
p513
F0.0
sVdanysh
p514
F0.0
sVnorepinephrine
p515
F0.0
sVregular
p516
F0.0010002245930536612
sVmouth
p517
F8.291564821882195e-05
sVaddict
p518
F0.00042866768273728336
sVletter
p519
F5.5277098812547974e-05
sVphase
p520
F0.00042866768273728336
sVcontain
p521
F0.00014288922757909448
sVunknowingly
p522
F0.0
sVsub
p523
F8.291564821882195e-05
sV7am
p524
F0.0
sVolanzapine
p525
F0.0
sVepisode
p526
F0.000643001524105925
sVheartworm
p527
F0.0
sVdoc
p528
F0.0013141819314981974
sVmedical
p529
F0.0003869396916878358
sVlose
p530
F0.00010904834131780848
sVflow
p531
F0.00021433384136864168
sVdog
p532
F0.0005251324387192057
sV4hrs
p533
F0.0
sVmoisturize
p534
F7.144461378954724e-05
sVdefinitely
p535
F0.0005251324387192057
sVtech
p536
F0.0008573353654745667
sVdeeply
p537
F8.76121287665465e-05
sVtoxic
p538
F0.0
sVurgency
p539
F0.0
sVbomb
p540
F7.144461378954724e-05
sVhunger
p541
F7.144461378954724e-05
sVretire
p542
F0.0
sVsubreddit
p543
F0.0
sVdaze
p544
F0.0
sVlyrica
p545
F0.0
sVdopey
p546
F0.0
sVparticipate
p547
F0.0
sVanalogue
p548
F0.0
sVrandomize
p549
F0.0
sVwisest
p550
F0.0
sVw8klnx9
p551
F0.0
sVbusy
p552
F4.850254493099777e-05
sVchamomile
p553
F0.0
sVexplain
p554
F0.00041457824109410976
sVocd
p555
F0.0
sVcripple
p556
F0.0
sVsugar
p557
F0.00021903032191636625
sVupstairs
p558
F4.380606438327325e-05
sVbush
p559
F0.0
sVbliss
p560
F0.0
sVadequate
p561
F0.0
sVboyfriend
p562
F0.00021433384136864168
sVpersonality
p563
F4.380606438327325e-05
sVdo
p564
F0.00015266767784493187
sVmixture
p565
F0.00014288922757909448
sVwide
p566
F6.467005990799704e-05
sVuhhh
p567
F0.0
sVstop
p568
F0.00038530413932292326
sVtelevision
p569
F7.144461378954724e-05
sVpsychiatric
p570
F0.0
sVpocket
p571
F7.144461378954724e-05
sVamazon
p572
F7.144461378954724e-05
sVfuuuuuuckk
p573
F0.0
sVchristopher
p574
F0.0
sValtogether
p575
F8.76121287665465e-05
sVanxiolytic
p576
F0.0
sVnasty
p577
F4.380606438327325e-05
sVdr
p578
F0.0003572230689477362
sVibotenic
p579
F0.0
sVcomply
p580
F0.0
sVunfortunately
p581
F0.0005001122965268306
sVprofoundly
p582
F0.0
sVbar
p583
F8.291564821882195e-05
sVnicely
p584
F4.380606438327325e-05
sVofficially
p585
F0.0
sVhospitalize
p586
F0.0
sVidiotic
p587
F0.0
sVpatch
p588
F0.000175224257533093
sVbaf
p589
F0.0
sVbag
p590
F0.00013141819314981974
sVbad
p591
F0.0003416848027957999
sVerupt
p592
F0.0
sVarchitecture
p593
F0.0
sVisolation
p594
F0.0
sVrelease
p595
F0.0001658312964376439
sVidentify
p596
F8.76121287665465e-05
sVautomatic
p597
F4.380606438327325e-05
sVrequire
p598
F0.0007858907516850195
sVfarther
p599
F7.144461378954724e-05
sVrespond
p600
F0.0002628363862996395
sVdeprenyl
p601
F0.0
sVnortryptaline
p602
F0.0
sVmandatory
p603
F0.0
sVvictim
p604
F7.144461378954724e-05
sVspecialist
p605
F0.0
sVliquor
p606
F5.5277098812547974e-05
sVresist
p607
F7.144461378954724e-05
sVanalytics
p608
F0.0
sVimho
p609
F0.0
sVnontraditional
p610
F0.0
sVfail
p611
F6.467005990799704e-05
sVmiserable
p612
F0.000350448515066186
sVdepressive
p613
F0.0
sV93
p614
F4.380606438327325e-05
sVbest
p615
F0.00021082679321442972
sV00
p616
F0.0007858907516850195
sV01
p617
F0.00014288922757909448
sV06
p618
F7.144461378954724e-05
sV07
p619
F4.380606438327325e-05
sVinappropriate
p620
F4.380606438327325e-05
sVscrap
p621
F0.0
sViirc
p622
F0.0
sVwikipedia
p623
F0.0
sVimipramine
p624
F0.0
sVgrandmother
p625
F7.144461378954724e-05
sVcarneal
p626
F0.0
sVstartle
p627
F0.0
sVscore
p628
F5.5277098812547974e-05
sVfinger
p629
F2.7638549406273987e-05
sVomeprazole
p630
F0.0
sVhopefully
p631
F0.0
sVtolerance
p632
F0.0011431138206327558
sVlethargic
p633
F0.0
sVpreserve
p634
F7.144461378954724e-05
sVwarrior
p635
F7.144461378954724e-05
sVreddit
p636
F0.0
sVmen
p637
F2.7638549406273987e-05
sVomg
p638
F7.144461378954724e-05
sVextend
p639
F0.000175224257533093
sVnature
p640
F7.2698894211872325e-06
sVleared
p641
F0.0
sVhandful
p642
F0.0
sVweak
p643
F0.00021433384136864168
sVvitamin
p644
F0.0
sVtoothbrush
p645
F7.144461378954724e-05
sVwear
p646
F0.0004818667082160057
sVcontamination
p647
F0.0
sVcousin
p648
F7.144461378954724e-05
sVdebt
p649
F7.144461378954724e-05
sVlaze
p650
F0.0
sVimprove
p651
F0.0005694788369825523
sVpity
p652
F7.144461378954724e-05
sVcop
p653
F0.00030664245068291274
sVessentially
p654
F0.0
sVaccident
p655
F7.144461378954724e-05
sVagonist
p656
F0.0
sVresistant
p657
F0.0
sVcountry
p658
F1.616751497699926e-05
sVill
p659
F0.00011055419762509595
sVjelly
p660
F0.0
sVbrag
p661
F0.0
sVcod
p662
F7.144461378954724e-05
sVcrank
p663
F0.0
sVwoodham
p664
F0.0
sVargue
p665
F7.144461378954724e-05
sVpeacefully
p666
F0.0
sVtough
p667
F0.00011055419762509595
sVrelaxation
p668
F0.0
sVwaaay
p669
F0.0
sV2nd
p670
F4.380606438327325e-05
sVhygiene
p671
F0.00028577845515818896
sVforay
p672
F0.0
sVrotundness
p673
F0.0
sVchlorpheniramine
p674
F0.0
sVnews
p675
F8.291564821882195e-05
sVrefill
p676
F0.0008573353654745667
sVtrust
p677
F0.000175224257533093
sVwakefulness
p678
F0.0
sVmatti
p679
F0.0
sVspeak
p680
F0.0005694788369825523
sVaccustom
p681
F0.0
sVbathroom
p682
F0.00028577845515818896
sViraq
p683
F0.0
sVabdominal
p684
F0.0
sVdrugsdb
p685
F0.0
sVrecur
p686
F0.0
sVbasis
p687
F0.0001131726048389948
sVunion
p688
F7.144461378954724e-05
sVbinge
p689
F0.0
sVsubside
p690
F0.0
sVthree
p691
F0.00014539778842374466
sVquickly
p692
F9.700508986199554e-05
sVconfident
p693
F0.0
sVbeer
p694
F0.00042866768273728336
sVtrigger
p695
F0.00042866768273728336
sVinterest
p696
F0.0008323152232821917
sVbasic
p697
F2.7638549406273987e-05
sVfry
p698
F0.00014288922757909448
sVwarmth
p699
F0.0
sVteenager
p700
F0.00014288922757909448
sVdry
p701
F0.00013141819314981974
sVlife
p702
F0.00042165358642885943
sVprn
p703
F0.0
sVdeeper
p704
F7.144461378954724e-05
sVefficacy
p705
F0.0
sV900mg
p706
F0.0
sVsuppress
p707
F0.0
sVworker
p708
F0.00014288922757909448
sVuncommon
p709
F0.000175224257533093
sVdecrepit
p710
F0.0
sVlift
p711
F0.000175224257533093
sVpersonally
p712
F0.00017784266474699182
sVcatch
p713
F0.00013141819314981974
sVdeepen
p714
F0.0
sVspin
p715
F0.0
sVxyrem
p716
F0.0
sVchill
p717
F7.144461378954724e-05
sVphysician
p718
F0.0
sVexception
p719
F8.76121287665465e-05
sVpublicly
p720
F0.0
sVlsd_health3
p721
F0.0
sVneal
p722
F0.0
sVkentucky
p723
F0.0
sVair
p724
F4.850254493099777e-05
sVcalcium
p725
F0.0
sVnear
p726
F3.6349447105936164e-05
sVsuppose
p727
F0.000525672772599279
sVmotorist
p728
F0.0
sVaid
p729
F0.0
sVbalance
p730
F0.0003572230689477362
sVstudy
p731
F0.0009637334164320114
sVmistake
p732
F3.233502995399852e-05
sVpessimistic
p733
F0.0
sVseven
p734
F0.000175224257533093
sVir
p735
F0.0
sVsymbyax
p736
F0.0
sViv
p737
F0.0
sVii
p738
F0.0
sVshame
p739
F0.000175224257533093
sVcant
p740
F0.00014288922757909448
sVdizzy
p741
F0.0
sVim
p742
F0.0003572230689477362
sVmarch
p743
F0.00014288922757909448
sVuplift
p744
F0.0
sVie
p745
F7.144461378954724e-05
sVid
p746
F0.00014288922757909448
sVdisappear
p747
F4.380606438327325e-05
sVamitryptaline
p748
F0.0
sV20049305
p749
F0.0
sVseverity
p750
F0.0
sVperform
p751
F5.5277098812547974e-05
sVsuggest
p752
F0.0014288922757909447
sVmake
p753
F0.0012940403169713274
sVrecurrent
p754
F0.0
sVwound
p755
F0.0010075394808152847
sVnardil
p756
F0.0
sVtemazepam
p757
F0.0
sVpotentially
p758
F0.00028577845515818896
sVbelly
p759
F7.144461378954724e-05
sVincorrectly
p760
F7.144461378954724e-05
sVvegetable
p761
F7.144461378954724e-05
sVseveral
p762
F0.0006570909657490987
sVambien
p763
F0.0
sVeuropean
p764
F0.0
sVwheel
p765
F2.7638549406273987e-05
sVfairly
p766
F0.0005694788369825523
sVnih
p767
F0.0
sVadvocate
p768
F0.0
sVallready
p769
F0.0
sVinadvertently
p770
F7.144461378954724e-05
sVunbearable
p771
F0.0
sVpick
p772
F0.0001934698458439179
sVhang
p773
F6.467005990799704e-05
sVevil
p774
F5.5277098812547974e-05
sVhand
p775
F0.0
sVcessation
p776
F0.0
sVzaleplon
p777
F0.0
sVsupper
p778
F0.0
sVjealous
p779
F0.00014288922757909448
sVkid
p780
F0.00028577845515818896
sVbutter
p781
F7.144461378954724e-05
sVdylan
p782
F0.0
sVshortly
p783
F0.00014288922757909448
sVmirtazipine
p784
F0.0
sVprioritize
p785
F0.00014288922757909448
sVyoure
p786
F0.0
sVdeal
p787
F0.00038802035944798216
sVtho
p788
F0.00021433384136864168
sVacademic
p789
F7.144461378954724e-05
sVcontact
p790
F8.291564821882195e-05
sVmother
p791
F3.6349447105936164e-05
sV800
p792
F8.76121287665465e-05
sVcorporate
p793
F4.380606438327325e-05
sVseasonal
p794
F0.0
sVetiquette
p795
F0.0
sVsentence
p796
F0.0003572230689477362
sVyea
p797
F0.0
sVisolate
p798
F0.0
sVlaptop
p799
F8.76121287665465e-05
sVsleepy
p800
F0.0020004491861073223
sVunfair
p801
F7.144461378954724e-05
sVdisguise
p802
F7.144461378954724e-05
sVpsych
p803
F0.0
sVdramamine
p804
F0.0
sVhuman
p805
F0.0002211083952501919
sVdopamine
p806
F0.0
sVyep
p807
F0.00021433384136864168
sVyes
p808
F8.723867305424678e-05
sVcaregiver
p809
F0.0
sVyet
p810
F7.269889421187233e-05
sVelectronically
p811
F0.0
sVprevious
p812
F3.6349447105936164e-05
sVthyroid
p813
F0.0
sVvisualization
p814
F0.0
sVunable
p815
F0.00039425457944945925
sVantidopaminergic
p816
F0.0
sVinstance
p817
F5.5277098812547974e-05
sV27th
p818
F0.0
sVease
p819
F8.76121287665465e-05
sVsnus
p820
F0.0
sVelf
p821
F7.144461378954724e-05
sVsubutex
p822
F0.0
sVxr
p823
F0.0
sVpharmacy
p824
F0.0008573353654745667
sVbp1
p825
F0.0
sVhydroxozine
p826
F0.0
sVn
p827
F2.907955768474893e-05
sVunwanted
p828
F7.144461378954724e-05
sVboard
p829
F0.00011055419762509595
sVeasy
p830
F0.0
sVprison
p831
F4.380606438327325e-05
sVweise
p832
F0.0
sVcomplainer
p833
F0.0
sVsave
p834
F0.0001934698458439179
sVhat
p835
F5.5277098812547974e-05
sVtolerable
p836
F0.0
sVopt
p837
F7.144461378954724e-05
sVbrotizolam
p838
F0.0
sVelevation
p839
F0.0
sVfracture
p840
F0.0
sVinvoluntary
p841
F0.0
sVonline
p842
F0.00013141819314981974
sVpossible
p843
F0.00029101526958598666
sVpossibly
p844
F8.08375748849963e-05
sVfusion
p845
F0.0
sV3pm
p846
F0.0
sVjudge
p847
F8.76121287665465e-05
sVclickable
p848
F7.144461378954724e-05
sVshadow
p849
F4.380606438327325e-05
sVunique
p850
F0.000175224257533093
sVmassively
p851
F0.0
sVcognitive
p852
F0.0
sVstint
p853
F0.0
sVfioricet
p854
F0.0
sVbpd
p855
F0.0
sVgift
p856
F7.144461378954724e-05
sVconcious
p857
F0.0
sVdishonest
p858
F7.144461378954724e-05
sV50
p859
F0.0003233502995399852
sVunbearably
p860
F0.0
sVintermittently
p861
F7.144461378954724e-05
sVremind
p862
F8.76121287665465e-05
sVpavement
p863
F7.144461378954724e-05
sVindoors
p864
F0.0
sVfastest
p865
F7.144461378954724e-05
sVofficer
p866
F4.380606438327325e-05
sVsparse
p867
F0.0
sVnight
p868
F0.0010541339660721486
sVinvaluable
p869
F0.0
sVaccuracy
p870
F0.0
sVprepping
p871
F0.0
sVbeneficial
p872
F0.00021433384136864168
sVright
p873
F0.0003998439181652978
sVold
p874
F0.0
sVcrowd
p875
F4.380606438327325e-05
sVurge
p876
F0.0
sVbpm
p877
F0.0
sVhindsight
p878
F0.0
sVsomehow
p879
F0.00011055419762509595
sVelderly
p880
F0.00014288922757909448
sVreevaluate
p881
F0.0
sVmileage
p882
F0.0
sVusher
p883
F7.144461378954724e-05
sVflatten
p884
F0.0
sVmarplan
p885
F0.0
sVescape
p886
F3.233502995399852e-05
sVmultiple
p887
F0.00021903032191636625
sVserquol
p888
F0.0
sVmanifest
p889
F7.144461378954724e-05
sVcreep
p890
F7.144461378954724e-05
sVwha
p891
F0.0
sVspecific
p892
F0.0002211083952501919
sVsociology
p893
F0.0
sVbottom
p894
F3.6349447105936164e-05
sVear
p895
F7.144461378954724e-05
sVopposite
p896
F0.000175224257533093
sVjolt
p897
F0.0
sVdaytime
p898
F0.0005001122965268306
sVcreative
p899
F8.76121287665465e-05
sVforever
p900
F0.000350448515066186
sVeverything
p901
F0.00015266767784493187
sVicy
p902
F4.380606438327325e-05
sVfog
p903
F0.0
sVimodium
p904
F0.0
sVchristmas
p905
F0.0
sVbold
p906
F2.7638549406273987e-05
sVburn
p907
F0.000175224257533093
sVdiscount
p908
F0.00042866768273728336
sVbinder
p909
F0.0
sVxanex
p910
F0.0
sVmemorable
p911
F0.0
sVfastime
p912
F0.0
sVsuper
p913
F0.0005694788369825523
sVcory
p914
F0.0
sVvalium
p915
F0.0
sVfierce
p916
F0.0
sVrestlessness
p917
F0.0
sVlightheaded
p918
F0.0
sVconceal
p919
F0.0
sVinjure
p920
F0.0
sVv
p921
F0.0007858907516850195
sVo
p922
F7.2698894211872325e-06
sVessential
p923
F0.0
sVsnri
p924
F0.0
sVdinner
p925
F0.0001658312964376439
sV8yrs
p926
F0.0
sVafternoon
p927
F0.0003572230689477362
sVcommit
p928
F0.000175224257533093
sVtwitch
p929
F0.00014288922757909448
sVslightly
p930
F3.233502995399852e-05
sVbook
p931
F0.00039425457944945925
sVautomatically
p932
F0.00013141819314981974
sVmatch
p933
F5.5277098812547974e-05
sVnerve
p934
F7.144461378954724e-05
sVprilosec
p935
F0.0
sVod
p936
F0.0
sVpuzzle
p937
F7.144461378954724e-05
sVhyperventilate
p938
F0.0
sVbath
p939
F7.144461378954724e-05
sVadminister
p940
F0.0
sVthankful
p941
F0.0
sVobligate
p942
F0.0
sVadventure
p943
F0.00014288922757909448
sVshite
p944
F0.0
sVdean
p945
F0.0
sVcubicle
p946
F7.144461378954724e-05
sVstumble
p947
F0.0
sVbenadryll
p948
F0.0
sVquit
p949
F0.000700897030132372
sVrely
p950
F4.380606438327325e-05
sVprovigil
p951
F0.0
sVfairyland
p952
F0.0
sVvaccination
p953
F0.0
sVamazingly
p954
F7.144461378954724e-05
sVsupport
p955
F0.000175224257533093
sVinitial
p956
F0.00011055419762509595
sVfight
p957
F0.00013819274703136993
sVfulminant
p958
F0.0
sVcarthage_nursing_home_shooting
p959
F0.0
sVway
p960
F0.000407113807586485
sVmusic
p961
F1.4539778842374465e-05
sVmetabolism
p962
F0.00021433384136864168
sVhappy
p963
F0.00025868023963198815
sVlowest
p964
F7.144461378954724e-05
sVstarve
p965
F7.144461378954724e-05
sVhead
p966
F0.0001599375672661191
sVsuccessfully
p967
F0.00014288922757909448
sVform
p968
F0.0003071827845629859
sVoffer
p969
F0.0001658312964376439
sVlorazepam
p970
F0.0
sVdepakote
p971
F0.0
sVbleargh
p972
F0.0
sVtendon
p973
F0.0
sVfailure
p974
F8.76121287665465e-05
sVdesipramine
p975
F0.0
sVhear
p976
F0.0003395178145169844
sVidgaf
p977
F0.0
sVsleepapnea
p978
F0.0
sVsignificantly
p979
F0.0
sVtrue
p980
F6.467005990799704e-05
sVareata
p981
F0.0
sVreset
p982
F0.00021433384136864168
sVcounsel
p983
F0.0
sVinjury
p984
F0.00021433384136864168
sVhappen
p985
F0.0005011929642869769
sVmartial
p986
F0.00014288922757909448
sVinside
p987
F2.1809668263561696e-05
sVmaximum
p988
F0.00014288922757909448
sVnicest
p989
F7.144461378954724e-05
sVentitlement
p990
F7.144461378954724e-05
sVemotional
p991
F0.00028577845515818896
sVdelete
p992
F8.76121287665465e-05
sVdiagnose
p993
F0.0016432261171595863
sV150
p994
F0.0
sVmedication
p995
F0.0032150076205296253
sV122
p996
F0.0
sVselegiline
p997
F0.0
sVturbo
p998
F7.144461378954724e-05
sVtoss
p999
F0.00014288922757909448
sV49
p1000
F7.144461378954724e-05
sVreligiously
p1001
F0.0
sVtextbook
p1002
F7.144461378954724e-05
sVevidence
p1003
F0.00030664245068291274
sVgland
p1004
F0.0
sVsometime
p1005
F2.7638549406273987e-05
sVmostly
p1006
F0.0003316625928752878
sVcandle
p1007
F7.144461378954724e-05
sVrequest
p1008
F0.0001658312964376439
sVengeldinger
p1009
F0.0
sVawhile
p1010
F0.00014288922757909448
sVcheck
p1011
F0.0007885091588989185
sVshit
p1012
F0.0010951516095818313
sVphysical
p1013
F0.0
sVhypomanic
p1014
F0.0
sVapartment
p1015
F0.0005001122965268306
sV200mg
p1016
F0.0
sVnl
p1017
F7.144461378954724e-05
sVfloor
p1018
F0.00021903032191636625
sVnoooooope
p1019
F0.0
sVna
p1020
F0.0
sVwhereas
p1021
F0.00028577845515818896
sVwary
p1022
F0.0
sVgenerally
p1023
F0.00030402404346901383
sVjokela
p1024
F0.0
sVtil
p1025
F5.5277098812547974e-05
sVgrammatical
p1026
F0.0
sVsetting
p1027
F1.616751497699926e-05
sVrole
p1028
F0.00014288922757909448
sVsoundly
p1029
F0.0
sVtest
p1030
F0.00041457824109410976
sVdur
p1031
F0.0
sVsmell
p1032
F8.76121287665465e-05
sVroll
p1033
F0.0002211083952501919
sVcortex
p1034
F0.0
sVsue
p1035
F7.144461378954724e-05
sVpicture
p1036
F5.5277098812547974e-05
sVintend
p1037
F7.144461378954724e-05
sVtruncate
p1038
F7.144461378954724e-05
sVcanto
p1039
F0.0
sVhaha
p1040
F7.144461378954724e-05
sVfelt
p1041
F0.0011331805256572336
sVupdate
p1042
F7.144461378954724e-05
sVdiet
p1043
F0.00028577845515818896
sVdependence
p1044
F0.0
sVfell
p1045
F0.00013819274703136993
sVprofessional
p1046
F8.76121287665465e-05
sVvariable
p1047
F8.76121287665465e-05
sVneuroscience
p1048
F0.0
sVaware
p1049
F0.0
sVweekend
p1050
F0.00021903032191636625
sV125
p1051
F0.0
sVbillion
p1052
F0.00014288922757909448
sVyounger
p1053
F0.00011055419762509595
sVlonger
p1054
F0.00014539778842374466
sVbullet
p1055
F4.380606438327325e-05
sVphone
p1056
F0.0002628363862996395
sVassume
p1057
F0.0005001122965268306
sVinterval
p1058
F0.0
sVdaily
p1059
F0.001214558434422303
sVsafe
p1060
F0.0003869396916878358
sVclassmate
p1061
F0.0
sVtime
p1062
F0.0
sVpush
p1063
F0.0004422167905003838
sVserious
p1064
F0.0001934698458439179
sVsomeplace
p1065
F7.144461378954724e-05
sVoverdue
p1066
F0.0
sVroh
p1067
F0.0
sVurinary
p1068
F0.0
sVlexipro
p1069
F0.0
sVskip
p1070
F0.000350448515066186
sVexcellent
p1071
F0.00014288922757909448
sVrod
p1072
F0.0
sVfocus
p1073
F0.0015003368895804919
sVinvent
p1074
F7.144461378954724e-05
sVmild
p1075
F0.0
sVmile
p1076
F0.000175224257533093
sVasymptomatic
p1077
F0.0
sVmodafinil
p1078
F0.0
sVskin
p1079
F7.2698894211872325e-06
sVosa
p1080
F0.0
sVapollo
p1081
F0.0
sVmilk
p1082
F0.00021433384136864168
sVretention
p1083
F0.00014288922757909448
sVvet
p1084
F0.000643001524105925
sVsuicide
p1085
F0.0010002245930536612
sVdepend
p1086
F0.0007144461378954724
sVzone
p1087
F0.00011055419762509595
sVzonk
p1088
F0.0
sV95
p1089
F1.616751497699926e-05
sVpromote
p1090
F0.00028577845515818896
sVapril
p1091
F0.0
sVfather
p1092
F8.291564821882195e-05
sVlactolose
p1093
F0.0
sVenvironment
p1094
F0.00013141819314981974
sV0
p1095
F0.00039425457944945925
sVfinally
p1096
F0.00039425457944945925
sVcompensate
p1097
F0.0
sVrhythm
p1098
F0.0003572230689477362
sVterror
p1099
F0.0
sVgaaaahhhh
p1100
F0.0
sVmust
p1101
F0.0
sVaspx
p1102
F7.144461378954724e-05
sVbrown
p1103
F2.7638549406273987e-05
sVsmartphone
p1104
F0.0
sVstring
p1105
F1.616751497699926e-05
sVjerk
p1106
F0.00014288922757909448
sVrecipe
p1107
F0.0
sVglycemic
p1108
F0.0
sVstory
p1109
F0.0004380606438327325
sVseemingly
p1110
F7.144461378954724e-05
sVchoice
p1111
F0.0002211083952501919
sVmourn
p1112
F0.0
sVanonymous
p1113
F4.380606438327325e-05
sVcook
p1114
F4.380606438327325e-05
sVword
p1115
F7.269889421187233e-05
sVtrouble
p1116
F0.00014539778842374466
sVminipress
p1117
F0.0
sVexact
p1118
F0.0001934698458439179
sVcoon
p1119
F0.0
sVminute
p1120
F0.00041457824109410976
sVcool
p1121
F0.00014288922757909448
sVaggressively
p1122
F0.0
sV39621
p1123
F0.0
sVsucky
p1124
F0.0
sVlevel
p1125
F5.815911536949786e-05
sVcooky
p1126
F0.0
sVdie
p1127
F9.700508986199554e-05
sVdig
p1128
F0.00014288922757909448
sVaccidentally
p1129
F2.7638549406273987e-05
sVadderal
p1130
F0.0
sVleave
p1131
F0.00038802035944798216
sVitem
p1132
F2.7638549406273987e-05
sVsettle
p1133
F2.7638549406273987e-05
sVapathetic
p1134
F0.0
sVteam
p1135
F0.00014288922757909448
sVquick
p1136
F5.815911536949786e-05
sVguy
p1137
F8.291564821882195e-05
sVdip
p1138
F7.144461378954724e-05
sVround
p1139
F4.850254493099777e-05
sVwellbutrin
p1140
F0.0
sVshoe
p1141
F0.00014288922757909448
sVprevent
p1142
F0.00021903032191636625
sVspiritual
p1143
F7.144461378954724e-05
sVtremendously
p1144
F0.0
sVslower
p1145
F4.380606438327325e-05
sVregret
p1146
F8.76121287665465e-05
sVpeds
p1147
F0.0
sVporn
p1148
F0.00028577845515818896
sVsigh
p1149
F4.380606438327325e-05
sVdiscover
p1150
F0.000175224257533093
sVagitate
p1151
F0.0
sVmilligram
p1152
F0.0
sVnorthern_illinois_university_shooting
p1153
F0.0
sVcost
p1154
F2.7638549406273987e-05
sVgummies
p1155
F0.0
sVscarce
p1156
F0.0
sVetizolam
p1157
F0.0
sVhelpless
p1158
F0.0
sVcuddly
p1159
F7.144461378954724e-05
sVfear
p1160
F8.291564821882195e-05
sVsubstitute
p1161
F0.0
sVafghanistan
p1162
F0.0
sVeducate
p1163
F0.0
sVfistful
p1164
F0.0
sVappear
p1165
F0.00021903032191636625
sVpsychotropic
p1166
F0.0
sVfiller
p1167
F0.0
sVassistance
p1168
F0.0
sVmelt
p1169
F0.0
sV25mg
p1170
F0.0
sVcurrent
p1171
F0.00030402404346901383
sVacademically
p1172
F0.0
sVhealth
p1173
F0.0008573353654745667
sVsuspect
p1174
F8.76121287665465e-05
sVtemplate
p1175
F0.0
sVreply
p1176
F0.00013141819314981974
sVboost
p1177
F0.0
sVthc
p1178
F0.0
sValertness
p1179
F0.0
sVparadoxical
p1180
F0.0
sVfocalin
p1181
F0.0
sVpose
p1182
F0.0
sVmeth
p1183
F0.0
sVfuneral
p1184
F7.144461378954724e-05
sVinvoluntarily
p1185
F0.0
sVfrench
p1186
F4.380606438327325e-05
sVrug
p1187
F0.0
sVwater
p1188
F0.0001934698458439179
sVhall
p1189
F7.144461378954724e-05
sVpause
p1190
F1.616751497699926e-05
sVtopiramate
p1191
F0.0
sVaddress
p1192
F0.00021903032191636625
sValone
p1193
F0.0004422167905003838
sVpdoc
p1194
F0.0
sValong
p1195
F7.269889421187233e-05
sVteacher
p1196
F0.0010002245930536612
sVchange
p1197
F0.0006356866363443017
sVwait
p1198
F9.700508986199554e-05
sVbox
p1199
F3.233502995399852e-05
sVboy
p1200
F2.7638549406273987e-05
sVtianeptine
p1201
F0.0
sVincoming
p1202
F0.0
sVnoticeable
p1203
F0.00014288922757909448
sVcanadian
p1204
F0.0
sVhealthy
p1205
F0.0002211083952501919
sVshift
p1206
F0.00028577845515818896
sVhadn
p1207
F0.00013819274703136993
sVguilty
p1208
F0.00021433384136864168
sVfinnish
p1209
F0.0
sVcommonly
p1210
F0.0
sVqueue
p1211
F0.0
sVtrial
p1212
F0.0004380606438327325
sVineffective
p1213
F0.0003572230689477362
sVtotal
p1214
F0.00030402404346901383
sVsuggestion
p1215
F0.00021903032191636625
sVusually
p1216
F0.0010226263280321375
sVweird
p1217
F0.0004974938893129318
sVhistory
p1218
F0.0001934698458439179
sVpillow
p1219
F7.144461378954724e-05
sV20mg
p1220
F0.0
sVpepto
p1221
F0.0
sVteenage
p1222
F7.144461378954724e-05
sVfibro
p1223
F0.0
sVlove
p1224
F0.0001616751497699926
sVconfidentiality
p1225
F7.144461378954724e-05
sVsign
p1226
F1.4539778842374465e-05
sVdefer
p1227
F0.0
sVtweak
p1228
F0.0
sVmerely
p1229
F0.0
sVprefer
p1230
F0.00013819274703136993
sVlogical
p1231
F0.0
sVbloody
p1232
F2.7638549406273987e-05
sVmobic
p1233
F0.0
sVcvp06t4
p1234
F0.0
sVverge
p1235
F0.0
sVfake
p1236
F0.00014288922757909448
sVtrazodon
p1237
F0.0
sVtuesday
p1238
F0.0
sVrarely
p1239
F0.0
sVpost
p1240
F0.0007447030945156452
sVmarket
p1241
F4.380606438327325e-05
sVsympathetic
p1242
F0.0
sVterminal
p1243
F4.380606438327325e-05
sVseraquel
p1244
F0.0
sVdiscus
p1245
F0.0
sVflatline
p1246
F0.0
sVperk
p1247
F0.0
sVpositive
p1248
F0.0001658312964376439
sVangry
p1249
F0.00013141819314981974
sVvisit
p1250
F0.0002211083952501919
sVlive
p1251
F0.00021809668263561696
sVapproach
p1252
F4.380606438327325e-05
sVandy
p1253
F0.0
sVahhh
p1254
F0.0
sVtachycardia
p1255
F0.0
sVpregabalin
p1256
F0.0
sVtheoretical
p1257
F0.0
sVtoday
p1258
F0.0002263452096779896
sVaspirin
p1259
F0.0
sVdismay
p1260
F0.0
sVstrap
p1261
F7.144461378954724e-05
sVafford
p1262
F0.00014288922757909448
sVacceptable
p1263
F0.00021433384136864168
sVasa
p1264
F0.0
sVenvelope
p1265
F0.0
sVvalidity
p1266
F0.0
sVclue
p1267
F8.76121287665465e-05
sVemployee
p1268
F7.144461378954724e-05
sVvisual
p1269
F7.144461378954724e-05
sVtandem
p1270
F0.0
sVeverywhere
p1271
F5.5277098812547974e-05
sVclonozapan
p1272
F0.0
sVsunscreen
p1273
F0.0
sVeffort
p1274
F7.144461378954724e-05
sVopaque
p1275
F7.144461378954724e-05
sVfly
p1276
F5.5277098812547974e-05
sVimpair
p1277
F0.0
sVedible
p1278
F7.144461378954724e-05
sVopioids
p1279
F0.0
sVcar
p1280
F0.00011055419762509595
sVoriginally
p1281
F0.00021903032191636625
sVelectroconvulsive
p1282
F0.0
sVreflux
p1283
F0.0
sVsoul
p1284
F4.380606438327325e-05
sVatypical
p1285
F7.144461378954724e-05
sVhardest
p1286
F0.0003572230689477362
sVachieve
p1287
F0.00014288922757909448
sV9th
p1288
F0.0
sVcarolina
p1289
F0.0
sVdosage
p1290
F0.001857559958528228
sVoverpass
p1291
F0.0
sVcrazy
p1292
F0.000525672772599279
sVfigure
p1293
F0.00030664245068291274
sVawesome
p1294
F7.144461378954724e-05
sVfuck
p1295
F0.0020004491861073223
sVagent
p1296
F0.00011055419762509595
sVsample
p1297
F3.233502995399852e-05
sV7pm
p1298
F0.0
sVdxm
p1299
F0.0
sVsurround
p1300
F0.0
sVbelsomra
p1301
F0.0
sVserum
p1302
F0.0
sVpink
p1303
F8.76121287665465e-05
sVproductive
p1304
F0.00028577845515818896
sVwinter
p1305
F4.380606438327325e-05
sVdiscussion
p1306
F4.380606438327325e-05
sVget
p1307
F0.0
sVwarfarin
p1308
F0.0
sVfph
p1309
F0.0
sVnyu
p1310
F0.0
sVchemical
p1311
F0.0005001122965268306
sVimmune
p1312
F7.144461378954724e-05
sVounce
p1313
F0.00021433384136864168
sVcriterion
p1314
F0.0
sVactual
p1315
F7.144461378954724e-05
sVpure
p1316
F1.616751497699926e-05
sVplus
p1317
F0.0002487469446564659
sVguarantee
p1318
F0.00014288922757909448
sVnye
p1319
F0.0
sVunbelievable
p1320
F0.0
sVmat
p1321
F0.0
sVcocktail
p1322
F0.0005001122965268306
sVinformation
p1323
F8.76121287665465e-05
sVmay
p1324
F0.00042165358642885943
sVmax
p1325
F0.00014288922757909448
sVwonderful
p1326
F5.5277098812547974e-05
sVspot
p1327
F0.00013819274703136993
sVgrog
p1328
F0.0
sVbrazen
p1329
F0.0
sVemdr
p1330
F0.0
sV4th
p1331
F0.00021433384136864168
sVmad
p1332
F1.616751497699926e-05
sVdate
p1333
F0.00013141819314981974
sVlessen
p1334
F0.0
sVsuck
p1335
F0.0004380606438327325
sVdestructive
p1336
F7.144461378954724e-05
sVdata
p1337
F0.000928779979264114
sVgrow
p1338
F0.00039425457944945925
sVman
p1339
F7.996878363305956e-05
sVstress
p1340
F0.0010075394808152847
sVnatural
p1341
F0.00021903032191636625
sVneck
p1342
F8.76121287665465e-05
sVjohnson
p1343
F0.0
sVconscious
p1344
F0.00028577845515818896
sVwhenever
p1345
F8.76121287665465e-05
sVmaybe
p1346
F0.0
sVgoal
p1347
F7.144461378954724e-05
sVexplicit
p1348
F7.144461378954724e-05
sVrxed
p1349
F0.0
sVst
p1350
F0.0
sVtale
p1351
F4.380606438327325e-05
sVprovide
p1352
F0.0003572230689477362
sVswitch
p1353
F0.0007885091588989185
sVjail
p1354
F4.380606438327325e-05
sVprogressively
p1355
F0.0
sVlong
p1356
F0.0
sVoffend
p1357
F0.00014288922757909448
sVsa
p1358
F0.0003572230689477362
sVtalk
p1359
F0.001741228612595261
sVnearly
p1360
F6.542900479068509e-05
sVcute
p1361
F8.76121287665465e-05
sVlsd
p1362
F0.0
sVfeb
p1363
F0.0
sVindeed
p1364
F5.5277098812547974e-05
sVmianserin
p1365
F0.0
sVmidnight
p1366
F4.380606438327325e-05
sVimmodium
p1367
F0.0
sVdamage
p1368
F0.00030664245068291274
sVcourse
p1369
F0.0002748477546089874
sVshake
p1370
F8.76121287665465e-05
sVttc
p1371
F0.0
sVequip
p1372
F0.0
sVcold
p1373
F0.0002487469446564659
sVstill
p1374
F0.0
sVft
p1375
F7.144461378954724e-05
sVcola
p1376
F0.0
sVgrout
p1377
F0.0
sVderive
p1378
F0.0
sVgroup
p1379
F0.0001616751497699926
sVthank
p1380
F0.0006356866363443017
sVinternationally
p1381
F0.0
sVlackluster
p1382
F0.0
sVotherresources
p1383
F0.0
sVspy
p1384
F7.144461378954724e-05
sVstupidity
p1385
F0.0
sVhepatotoxic
p1386
F0.0
sVwindow
p1387
F3.233502995399852e-05
sVoccasionally
p1388
F0.00013819274703136993
sVsuspicion
p1389
F7.144461378954724e-05
sVmain
p1390
F2.1809668263561696e-05
sVuptake
p1391
F0.0
sVdeviant
p1392
F0.0
sVideal
p1393
F8.76121287665465e-05
sVcorrespondence
p1394
F0.0
sVnon
p1395
F0.00010904834131780848
sVgerd
p1396
F0.0
sVchalk
p1397
F0.0
sV3
p1398
F0.0010832235034589502
sVnod
p1399
F0.00014288922757909448
sVsmarter
p1400
F4.380606438327325e-05
sVkiller
p1401
F5.5277098812547974e-05
sVinsomnia
p1402
F0.0
sVsooner
p1403
F7.144461378954724e-05
sVbound
p1404
F4.380606438327325e-05
sVunderneath
p1405
F1.616751497699926e-05
sVinterview
p1406
F7.144461378954724e-05
sVrexulti
p1407
F0.0
sVunimpressive
p1408
F0.0
sVhalf
p1409
F0.00028352568742630205
sVmetabolite
p1410
F0.0
sVbullshit
p1411
F0.00014288922757909448
sVwont
p1412
F0.00014288922757909448
sVdown
p1413
F0.0
sVrehabbbb
p1414
F0.0
sVname
p1415
F8.723867305424678e-05
sVstabilize
p1416
F0.0
sVstahl
p1417
F0.0
sVcognition
p1418
F7.144461378954724e-05
sVdidn
p1419
F0.0005379718171678551
sVconcerta
p1420
F0.0
sVrealistic
p1421
F0.0
sVdysphoric
p1422
F0.0
sVrock
p1423
F8.291564821882195e-05
sVantiepileptic
p1424
F0.0
sVinstability
p1425
F0.0
sVhijack
p1426
F0.0
sVmirtazepine
p1427
F0.0
sVindividually
p1428
F4.380606438327325e-05
sVel
p1429
F7.144461378954724e-05
sVgerontology
p1430
F0.0
sVen
p1431
F0.000350448515066186
sVeh
p1432
F2.7638549406273987e-05
sVoperant
p1433
F0.0
sVed
p1434
F0.00013141819314981974
sVeg
p1435
F0.00014288922757909448
sVnightlight
p1436
F0.0
sVyeah
p1437
F0.0009637334164320114
sVreplay
p1438
F0.0
sVsponsor
p1439
F0.0
sVsignage
p1440
F0.0
sVgtfo
p1441
F0.0
sVgirl
p1442
F8.08375748849963e-05
sVmorning
p1443
F0.0018836607684807496
sVsunrise
p1444
F4.380606438327325e-05
sVrelive
p1445
F7.144461378954724e-05
sVcanada
p1446
F0.0
sVultimately
p1447
F7.144461378954724e-05
sVaccomplish
p1448
F0.0
sVjackson
p1449
F0.0
sV3rd
p1450
F8.76121287665465e-05
sVspace
p1451
F0.00013141819314981974
sVfurthermore
p1452
F7.144461378954724e-05
sVsunburnt
p1453
F0.0
sVtingly
p1454
F0.0
sVincrease
p1455
F0.0011827637383483778
sVseriously
p1456
F0.00013819274703136993
sVinvestigation
p1457
F7.144461378954724e-05
sVtrauma
p1458
F0.0
sVinternet
p1459
F0.00030664245068291274
sVbless
p1460
F8.76121287665465e-05
sVpocd
p1461
F0.0
sVincredibly
p1462
F0.00021903032191636625
sVcorrect
p1463
F0.000175224257533093
sVhcl
p1464
F0.0
sVchemically
p1465
F0.0
sVmaneuver
p1466
F0.0
sVneurotrophic
p1467
F0.0
sVfacedown
p1468
F0.0
sVtheory
p1469
F0.00028577845515818896
sVampakines
p1470
F0.0
sVmiracle
p1471
F0.0
sVhoffman
p1472
F0.0
sVmillion
p1473
F0.0005715569103163779
sVromano
p1474
F0.0
sVpossibility
p1475
F0.00013141819314981974
sVquite
p1476
F0.00019628701437205526
sVcalifornia
p1477
F0.0
sVbesides
p1478
F0.000350448515066186
sVorg
p1479
F0.0011431138206327558
sVcough
p1480
F5.5277098812547974e-05
sVcard
p1481
F0.00013141819314981974
sVcare
p1482
F0.0010951516095818313
sVadvance
p1483
F2.7638549406273987e-05
sVcouldn
p1484
F0.00046885793433297843
sVlanguage
p1485
F5.5277098812547974e-05
sVwaiter
p1486
F0.00014288922757909448
sVdunno
p1487
F4.380606438327325e-05
sVdeprivation
p1488
F0.0
sVmodest
p1489
F7.144461378954724e-05
sVbritish
p1490
F0.0
sV10mg
p1491
F0.0
sVmotion
p1492
F4.380606438327325e-05
sVthing
p1493
F0.00032714502395342544
sVlivable
p1494
F0.0
sVplace
p1495
F0.00013085800958137018
sVundesirable
p1496
F0.0
sVlactation
p1497
F7.144461378954724e-05
sVswing
p1498
F0.00014288922757909448
sVnetherlands
p1499
F0.0
sVview
p1500
F0.0001131726048389948
sVthink
p1501
F0.0008723867305424678
sVfirst
p1502
F0.0006397502690644764
sVemotion
p1503
F0.00014288922757909448
sVgunshot
p1504
F0.0
sVconstantly
p1505
F0.00013819274703136993
sVxl
p1506
F0.0
sVsafety
p1507
F0.00013141819314981974
sVquantity
p1508
F0.0
sVone
p1509
F0.0
sVunisom
p1510
F0.0
sVspecifically
p1511
F0.0
sVdirectly
p1512
F5.5277098812547974e-05
sVcarry
p1513
F2.1809668263561696e-05
sVimpossible
p1514
F0.00021903032191636625
sVmessage
p1515
F0.00011055419762509595
sVopen
p1516
F0.0
sVtomorrow
p1517
F0.00014288922757909448
sVzap
p1518
F0.00014288922757909448
sVsize
p1519
F1.616751497699926e-05
sVcity
p1520
F0.0001934698458439179
sVlittle
p1521
F0.0
sVnecessarily
p1522
F0.000175224257533093
sVsheet
p1523
F5.5277098812547974e-05
sVsilent
p1524
F4.380606438327325e-05
sVoccupy
p1525
F0.0
sVbite
p1526
F0.0004850254493099777
sVcarbonate
p1527
F0.0
sVanyone
p1528
F0.00021017769470099034
sVindicate
p1529
F0.00021433384136864168
sV2
p1530
F0.0004725428123771701
sV1g
p1531
F0.0
sV300mcg
p1532
F0.0
sVwhite
p1533
F3.233502995399852e-05
sVcite
p1534
F0.0
sVfriend
p1535
F0.00021809668263561696
sVapproriate
p1536
F0.0
sVspiral
p1537
F0.00014288922757909448
sVhub
p1538
F0.0
sVseason
p1539
F7.144461378954724e-05
sVprescribers
p1540
F0.0
sVoutcome
p1541
F0.0
sVshort
p1542
F0.00010904834131780848
sVprobably
p1543
F0.000759873203918965
sVcopy
p1544
F5.5277098812547974e-05
sVcleanse
p1545
F0.0
sVspecify
p1546
F0.00028577845515818896
sVinventor
p1547
F0.0
sV11
p1548
F5.0889225948310626e-05
sV10
p1549
F0.0002471762403203659
sV13
p1550
F0.0001934698458439179
sV12
p1551
F0.00013812789900255742
sV15
p1552
F0.00013085800958137018
sV14
p1553
F0.0006080480869380277
sV17
p1554
F0.0001658312964376439
sV16
p1555
F0.00027638549406273986
sV19
p1556
F8.291564821882195e-05
sV18
p1557
F0.0004422167905003838
sVgotta
p1558
F0.000175224257533093
sVunmedicated
p1559
F0.0
sVwar
p1560
F0.00013141819314981974
sVrehab
p1561
F0.00028577845515818896
sVfuture
p1562
F0.0001131726048389948
sVmagnesium
p1563
F0.0
sVcollege
p1564
F0.0005001122965268306
sVcounselor
p1565
F0.00014288922757909448
sVintraocular
p1566
F0.0
sVpre
p1567
F8.76121287665465e-05
sVillness
p1568
F0.0
sVpiece
p1569
F2.7638549406273987e-05
sVsan
p1570
F0.0
sVpro
p1571
F0.0
sVcymbalta
p1572
F0.0
sVmarijuana
p1573
F0.00028577845515818896
sVinterpretation
p1574
F7.144461378954724e-05
sVinpatient
p1575
F0.0
sVsay
p1576
F0.0004943524806407318
sVpubmed
p1577
F0.0
sVtetracyclic
p1578
F0.0
sVtylenol
p1579
F0.0
sVbreakfast
p1580
F8.76121287665465e-05
sVrecover
p1581
F8.291564821882195e-05
sVsaw
p1582
F0.0002211083952501919
sVworst
p1583
F0.0004818667082160057
sVkevin
p1584
F0.0
sVshtml
p1585
F0.0
sVsandwich
p1586
F7.144461378954724e-05
sVcheerful
p1587
F0.0
sVveteran
p1588
F7.144461378954724e-05
sVdropcam
p1589
F0.0
sVforeigner
p1590
F0.0
sVaside
p1591
F0.00011055419762509595
sVnote
p1592
F0.00012934011981599407
sVrumination
p1593
F0.0
sVpotential
p1594
F0.0005001122965268306
sVtake
p1595
F0.0015848358938188164
sVdisadvantage
p1596
F0.0
sVsnris
p1597
F0.0
sVobjective
p1598
F0.0
sVdestroy
p1599
F0.00014288922757909448
sVconcern
p1600
F0.00042866768273728336
sVluvox
p1601
F0.0
sVchannel
p1602
F8.76121287665465e-05
sV200
p1603
F0.00021433384136864168
sVironically
p1604
F0.0
sVsure
p1605
F0.000630533084102971
sVpain
p1606
F0.00030402404346901383
sVstrattera
p1607
F0.0
sVtrace
p1608
F0.0
sVnormal
p1609
F0.0004422167905003838
sVtrack
p1610
F0.00013141819314981974
sVhit
p1611
F9.700508986199554e-05
sVcorrelation
p1612
F0.0
sVmolecule
p1613
F0.0
sVclearer
p1614
F0.0
sVimportantly
p1615
F0.0
sVpair
p1616
F4.380606438327325e-05
sVgrateful
p1617
F0.0
sVamerica
p1618
F0.0
sVserequel
p1619
F0.0
sVunknowable
p1620
F0.0
sVespecially
p1621
F0.0002748477546089874
sVspirulina
p1622
F0.0
sVmarinara
p1623
F0.0
sVbore
p1624
F0.00014288922757909448
sVexciteable
p1625
F0.0
sVaverage
p1626
F0.00039425457944945925
sVlater
p1627
F0.0006633251857505756
sVsteady
p1628
F0.0
sVdrive
p1629
F0.0004380606438327325
sVproperly
p1630
F3.233502995399852e-05
sVmri
p1631
F0.0
sVuncle
p1632
F7.144461378954724e-05
sVtypically
p1633
F0.0003572230689477362
sVmasturbation
p1634
F0.00021433384136864168
sVshop
p1635
F0.00014288922757909448
sVstimulator
p1636
F0.0
sVdrastically
p1637
F0.0
sVshot
p1638
F1.616751497699926e-05
sVshow
p1639
F5.815911536949786e-05
sVcheat
p1640
F7.144461378954724e-05
sVable
p1641
F0.0010993910184359495
sVcheap
p1642
F0.00013141819314981974
sVmassage
p1643
F0.00014288922757909448
sVbright
p1644
F5.5277098812547974e-05
sVtherapist
p1645
F0.0010716692068432083
sVinconsistent
p1646
F4.380606438327325e-05
sVmazing
p1647
F0.0
sVhack
p1648
F7.144461378954724e-05
sVvenlafaxin
p1649
F0.0
sVcorner
p1650
F3.233502995399852e-05
sVpercs
p1651
F0.0
sVnlm
p1652
F0.0
sVinjection
p1653
F0.0
sVfifth
p1654
F0.00014288922757909448
sVground
p1655
F5.5277098812547974e-05
sVrecollect
p1656
F0.0
sVslow
p1657
F0.00012934011981599407
sVsativa
p1658
F0.0
sVaripiprazole
p1659
F0.0
sVtitle
p1660
F8.76121287665465e-05
sVdick
p1661
F0.00021433384136864168
sVlopram
p1662
F0.0
sVtexture
p1663
F4.380606438327325e-05
sVconsiderable
p1664
F4.380606438327325e-05
sVwood
p1665
F3.233502995399852e-05
sVblack
p1666
F6.467005990799704e-05
sVteary
p1667
F0.0
sVclinically
p1668
F0.0
sVawareness
p1669
F0.0
sVdispute
p1670
F0.0
sVfda
p1671
F0.0
sVnootropics
p1672
F0.0
sVpsychiatrist
p1673
F0.00028577845515818896
sVhostage
p1674
F0.0
sVffs
p1675
F0.0
sVhorrible
p1676
F0.0004818667082160057
sVmtx
p1677
F0.0
sVtruly
p1678
F8.76121287665465e-05
sVcannot
p1679
F0.0001131726048389948
sV2mg
p1680
F0.0
sVdistinctly
p1681
F0.0
sVsse
p1682
F0.0
sVconjunction
p1683
F0.0
sVrequip
p1684
F0.0
sVhyphenate
p1685
F0.0
sVcelebrate
p1686
F7.144461378954724e-05
sVprime
p1687
F7.144461378954724e-05
sVmanager
p1688
F4.380606438327325e-05
sVzofran
p1689
F0.0
sV5h
p1690
F0.0
sVartist
p1691
F7.144461378954724e-05
sVexplore
p1692
F0.00014288922757909448
sVseldom
p1693
F7.144461378954724e-05
sVpaducah
p1694
F0.0
sVklebold
p1695
F0.0
sVabsurdly
p1696
F0.0
sVsummary
p1697
F0.0
sVtdoc
p1698
F0.0
sVstupid
p1699
F0.00027638549406273986
sVdeferral
p1700
F0.0
sVuncover
p1701
F0.0
sVvision
p1702
F0.0
sVwiki
p1703
F0.0
sVpsychedelics
p1704
F0.0
sVallosteric
p1705
F0.0
sVhighest
p1706
F0.00021433384136864168
sVhonesty
p1707
F0.0
sVbuuuuut
p1708
F0.0
sVphysically
p1709
F0.00042866768273728336
sVpercocet
p1710
F0.0
sVactively
p1711
F0.0
sVasleep
p1712
F0.002146497154780389
sVanyways
p1713
F8.76121287665465e-05
sVangina
p1714
F0.0
sVstigma
p1715
F0.0
sVsurgery
p1716
F0.00021433384136864168
sVsandoz
p1717
F0.0
sVbreenwood
p1718
F0.0
sVwonder
p1719
F0.0003869396916878358
sVkurt
p1720
F0.0
sVdetect
p1721
F7.144461378954724e-05
sVautoincorrects
p1722
F0.0
sVsubsequent
p1723
F7.144461378954724e-05
sVreview
p1724
F0.0
sVlabel
p1725
F0.0003869396916878358
sVenough
p1726
F0.0
sVherbal
p1727
F0.00042866768273728336
sVunprescribed
p1728
F0.0
sVacross
p1729
F0.00011055419762509595
sVverification
p1730
F0.0003572230689477362
sVaffordable
p1731
F0.0
sVnotice
p1732
F0.00025868023963198815
sVmature
p1733
F2.7638549406273987e-05
sVparent
p1734
F0.000525672772599279
sVsomnolence
p1735
F0.0
sVscreen
p1736
F0.00021903032191636625
sVwednesday
p1737
F0.0
sVconcentrate
p1738
F7.144461378954724e-05
sVheal
p1739
F0.0
sVcoma
p1740
F7.144461378954724e-05
sVarticle
p1741
F2.7638549406273987e-05
sVgauntlet
p1742
F0.0
sVinterfere
p1743
F0.00014288922757909448
sVcome
p1744
F0.0003416848027957999
sVreaction
p1745
F0.00039425457944945925
sVrugby
p1746
F0.0
sVncbi
p1747
F0.0
sVtopamax
p1748
F0.0
sVmany
p1749
F0.0
sVdedicate
p1750
F0.0
sV8mg
p1751
F0.0
sVndri
p1752
F0.0
sVsomewhere
p1753
F0.0001131726048389948
sVloudly
p1754
F4.380606438327325e-05
sVtout
p1755
F0.0
sVdelirium
p1756
F0.0
sVlatuda
p1757
F0.0
sVexpression
p1758
F2.7638549406273987e-05
sVbackpack
p1759
F7.144461378954724e-05
sVnearby
p1760
F4.380606438327325e-05
sVamong
p1761
F0.00013141819314981974
sVcancer
p1762
F0.0003572230689477362
sVzopidem
p1763
F0.0
sVcolor
p1764
F8.291564821882195e-05
sVpot
p1765
F0.000175224257533093
sVperiod
p1766
F0.0001616751497699926
sVinsist
p1767
F0.00014288922757909448
sVadjudication
p1768
F0.0
sV60
p1769
F0.00030664245068291274
sVvenlafaxine
p1770
F0.0
sVlevomepromazine
p1771
F0.0
sVdiffer
p1772
F7.144461378954724e-05
sV65
p1773
F2.7638549406273987e-05
sVapproval
p1774
F0.0
sVfreak
p1775
F0.00021433384136864168
sVbizarre
p1776
F0.00014288922757909448
sVactually
p1777
F0.00034895469221698713
sVhydrate
p1778
F0.0
sVboat
p1779
F7.144461378954724e-05
sVworthwhile
p1780
F7.144461378954724e-05
sVturkey
p1781
F0.00028577845515818896
sVcholestatic
p1782
F0.0
sVneurogenesis
p1783
F0.0
sVconyers
p1784
F0.0
sVwest
p1785
F0.00014288922757909448
sVskew
p1786
F0.0
sVcertify
p1787
F0.0
sVvacation
p1788
F0.00014288922757909448
sVpouch
p1789
F0.0
sVwobbly
p1790
F0.0
sVdurkheim
p1791
F0.0
sVmarx
p1792
F0.0
sV15mg
p1793
F0.0
sVdirection
p1794
F1.4539778842374465e-05
sVfade
p1795
F4.380606438327325e-05
sV400
p1796
F4.380606438327325e-05
sVandrew
p1797
F0.0
sV6p
p1798
F0.0
sVdramatic
p1799
F4.380606438327325e-05
sVwake
p1800
F0.002072891205470549
sVmuscular
p1801
F4.380606438327325e-05
sV8h
p1802
F0.0
sVoverdose
p1803
F0.0005001122965268306
sVhardcore
p1804
F7.144461378954724e-05
sVcareful
p1805
F0.00021903032191636625
sVirrelevant
p1806
F7.144461378954724e-05
sVdiffuse
p1807
F7.144461378954724e-05
sV1mg
p1808
F0.0
sVcountless
p1809
F0.0
sVsound
p1810
F0.00038802035944798216
sVpredicament
p1811
F0.0
sVkappa
p1812
F0.0
sVsit
p1813
F0.0002211083952501919
sVwashington
p1814
F0.0
sVcompartmentalize
p1815
F0.0
sVpocatello
p1816
F0.0
sVmight
p1817
F0.00035622458163817435
sValter
p1818
F0.0
sVtrick
p1819
F0.0001658312964376439
sVcast
p1820
F4.850254493099777e-05
sVongoing
p1821
F0.0
sVpizza
p1822
F7.144461378954724e-05
sVcoca
p1823
F0.0
sVsituation
p1824
F0.0007885091588989185
sVsmenu_otherresources
p1825
F0.0
sVambian
p1826
F0.0
sVive
p1827
F0.0
sVviagra
p1828
F7.144461378954724e-05
sValcoholic
p1829
F0.00042866768273728336
sVprayer
p1830
F0.0
sVside_effect
p1831
F0.0
sVquiet
p1832
F8.08375748849963e-05
sVblah
p1833
F4.380606438327325e-05
sVsomeone
p1834
F0.0
sVhammad
p1835
F0.0
sVsomebody
p1836
F2.7638549406273987e-05
sVprotein
p1837
F0.0
sVproperty
p1838
F8.08375748849963e-05
sVeveryday
p1839
F0.00042866768273728336
sVworry
p1840
F0.0003071827845629859
sVupregulation
p1841
F0.0
sVdead
p1842
F6.467005990799704e-05
sVdifferent
p1843
F0.000759873203918965
sVpas
p1844
F0.000525672772599279
sVritalin
p1845
F0.0
sVharsh
p1846
F4.380606438327325e-05
sVdoctor
p1847
F0.0013574476620013974
sVpay
p1848
F6.542900479068509e-05
sVtrip
p1849
F0.000175224257533093
sVeverday
p1850
F0.0
sVheartbreak
p1851
F0.0
sVsuboxone
p1852
F0.0
sVacording
p1853
F0.0
sVserotinergic
p1854
F0.0
sVdocument
p1855
F8.76121287665465e-05
sVpal
p1856
F0.0
sVpan
p1857
F7.144461378954724e-05
sVstatus
p1858
F5.5277098812547974e-05
sVexhaust
p1859
F0.0
sVoil
p1860
F4.380606438327325e-05
sVween
p1861
F0.0
sVsleepiness
p1862
F0.0
sVharris
p1863
F0.0
sVanecdotal
p1864
F0.0
sVdelicate
p1865
F7.144461378954724e-05
sVvalerian
p1866
F0.0
sVtotally
p1867
F0.0001131726048389948
sVfoggy
p1868
F7.144461378954724e-05
sVbooster
p1869
F0.0
sVbehaviorist
p1870
F0.0
sVdrain
p1871
F7.144461378954724e-05
sVrec
p1872
F7.144461378954724e-05
sVinsomniac
p1873
F0.0
sVminimize
p1874
F7.144461378954724e-05
sVantihistamine
p1875
F0.0
sVclotty
p1876
F0.0
sVroughly
p1877
F0.0
sVantianxiety
p1878
F0.0
sVaccountable
p1879
F0.0
sVwithout
p1880
F0.0
sVsolve
p1881
F0.00013141819314981974
sVrelief
p1882
F0.0
sVbottle
p1883
F0.0003869396916878358
sVbehaviorism
p1884
F0.0
sVgrumpy
p1885
F0.0
sVotherwise
p1886
F0.0001934698458439179
sVwean
p1887
F0.0
sVnah
p1888
F7.144461378954724e-05
sVsummer
p1889
F8.291564821882195e-05
sVescitalopram
p1890
F0.0
sVbenzo
p1891
F0.0
sVya
p1892
F4.380606438327325e-05
sVmoney
p1893
F0.00030664245068291274
sVtyphus
p1894
F0.0
sVgroinal
p1895
F0.0
sVrest
p1896
F0.00010904834131780848
sVfoot
p1897
F0.00011055419762509595
sVviolent
p1898
F7.144461378954724e-05
sVkill
p1899
F0.0007275381739649666
sVaspect
p1900
F8.76121287665465e-05
sVtouch
p1901
F1.616751497699926e-05
sVbehavioural
p1902
F0.0
sVspeed
p1903
F7.2698894211872325e-06
sVhomeostasis
p1904
F0.0
sVketamine
p1905
F0.0
sVdeath
p1906
F0.0001658312964376439
sVhepatotoxicity
p1907
F0.0
sVapplication
p1908
F4.380606438327325e-05
sVconclude
p1909
F0.0
sVexcept
p1910
F0.00021017769470099034
sVimprovement
p1911
F4.380606438327325e-05
sVsaver
p1912
F0.0
sV4
p1913
F0.00026171601916274035
sVghostly
p1914
F0.0
sVplenty
p1915
F4.380606438327325e-05
sVcogentin
p1916
F0.0
sVdisrupt
p1917
F0.0
sVpill
p1918
F0.0025720060964237
sVreal
p1919
F0.0
sVaround
p1920
F0.00021809668263561696
sVintermezzo
p1921
F0.0
sVread
p1922
F0.00043652290437897997
sVdiphenhydramine
p1923
F0.0
sVdiscontinue
p1924
F0.0
sVfridge
p1925
F7.144461378954724e-05
sVgonna
p1926
F8.291564821882195e-05
sVdark
p1927
F0.0
sVinhibition
p1928
F0.0
sVpop
p1929
F0.00013141819314981974
sVmom
p1930
F0.0003572230689477362
sVworld
p1931
F0.00019401017972399108
sVresentment
p1932
F0.0
sVlady
p1933
F1.616751497699926e-05
sVoverate
p1934
F0.0
sVdare
p1935
F4.380606438327325e-05
sVtegretol
p1936
F0.0
sVacute
p1937
F0.0
sVfibromyalgia
p1938
F0.0
sVstranger
p1939
F7.144461378954724e-05
sVpregnant
p1940
F7.144461378954724e-05
sVlggs1tg
p1941
F0.0
sVshrink
p1942
F8.76121287665465e-05
sVchamber
p1943
F0.0
sVbenefit
p1944
F0.0010002245930536612
sVeither
p1945
F0.0001817472355296808
sVneuronal
p1946
F0.0
sVfully
p1947
F9.700508986199554e-05
sVcompletely
p1948
F0.00019401017972399108
sVsubstandard
p1949
F7.144461378954724e-05
sVstationary
p1950
F0.0
sVwuling
p1951
F0.0
sVauditorium
p1952
F0.00014288922757909448
sVfulfil
p1953
F0.0
sVsymptomatology
p1954
F0.0
sVnodd
p1955
F0.0
sVdebilitate
p1956
F0.0
sVpronounce
p1957
F7.144461378954724e-05
sVpresentation
p1958
F0.0005715569103163779
sVparnate
p1959
F0.0
sVerase
p1960
F0.00014288922757909448
sVibuprofen
p1961
F0.0
sVduration
p1962
F0.0
sVrivotril
p1963
F0.0
sVdivine
p1964
F7.144461378954724e-05
sVbigger
p1965
F2.7638549406273987e-05
sVpod
p1966
F0.0
sVgross
p1967
F0.00021433384136864168
sVwristband
p1968
F0.0
sVbenzodiazepine
p1969
F0.0
sVpoorly
p1970
F0.0003572230689477362
sVnoon
p1971
F0.00021433384136864168
sVextensively
p1972
F0.0
sVlegal
p1973
F0.00042866768273728336
sVabusable
p1974
F0.0
sVcannabis
p1975
F0.0
sVcritical
p1976
F4.380606438327325e-05
sVexit
p1977
F2.7638549406273987e-05
sVinject
p1978
F7.144461378954724e-05
sVmaoi
p1979
F0.0
sVmoderate
p1980
F7.144461378954724e-05
sVsituate
p1981
F0.0
sVrefer
p1982
F7.144461378954724e-05
sVpriapism
p1983
F0.0
sVmethamphetamine
p1984
F0.0
sVdiscongruency
p1985
F0.0
sVscientific
p1986
F7.144461378954724e-05
sVpower
p1987
F3.233502995399852e-05
sVintimate
p1988
F4.380606438327325e-05
sVliquid
p1989
F7.144461378954724e-05
sVbreastfeed
p1990
F0.0
sVought
p1991
F0.00014288922757909448
sVflosser
p1992
F0.0
sVcalmer
p1993
F0.0
sVheroin
p1994
F0.00028577845515818896
sVthrow
p1995
F0.0002628363862996395
sVcomparison
p1996
F8.76121287665465e-05
sVstone
p1997
F8.291564821882195e-05
sVol
p1998
F4.380606438327325e-05
sVok
p1999
F0.00030402404346901383
sVoh
p2000
F0.000350448515066186
sVcraft
p2001
F0.0
sVviolence
p2002
F8.76121287665465e-05
sVfavorite
p2003
F8.291564821882195e-05
sVob
p2004
F0.0
sVwaster
p2005
F0.0
sVmeal
p2006
F0.00011055419762509595
sVstretch
p2007
F0.000175224257533093
sVsnack
p2008
F7.144461378954724e-05
sVbenzos
p2009
F0.0
sVtopeka
p2010
F0.0
sVstand
p2011
F3.233502995399852e-05
sVneighbor
p2012
F4.380606438327325e-05
sVact
p2013
F9.700508986199554e-05
sVdoze
p2014
F0.0
sVmirtazpine
p2015
F0.0
sVluck
p2016
F0.0006080480869380277
sVbackup
p2017
F7.144461378954724e-05
sVroad
p2018
F8.76121287665465e-05
sVop
p2019
F0.0003572230689477362
sVamber
p2020
F0.00042866768273728336
sVbitty
p2021
F0.0
sVoutlook
p2022
F4.380606438327325e-05
sVlocally
p2023
F7.144461378954724e-05
sVcoupon
p2024
F7.144461378954724e-05
sVimage
p2025
F0.000175224257533093
sVskilled
p2026
F0.0
sVsnooze
p2027
F0.0
sVnicotine
p2028
F0.0
sVinbox
p2029
F0.0
sVhomeless
p2030
F7.144461378954724e-05
sVapologize
p2031
F0.00014288922757909448
sVelementary
p2032
F0.0
sVpivot
p2033
F0.0
sVlastly
p2034
F0.0
sVtheoretically
p2035
F0.0
sVtechnically
p2036
F0.00021903032191636625
sVauvinen
p2037
F0.0
sVdetox
p2038
F0.0
sVprazosin
p2039
F0.0
sVlog
p2040
F0.00021433384136864168
sVsubstitutable
p2041
F0.0
sVarea
p2042
F3.6349447105936164e-05
sVaren
p2043
F0.00010177845189662125
sVjigsaw
p2044
F0.0
sVhey
p2045
F0.00030664245068291274
sVlol
p2046
F0.00014288922757909448
sVstart
p2047
F0.0007437056889419659
sVcompliant
p2048
F7.144461378954724e-05
sVimpromptu
p2049
F0.0
sVlow
p2050
F0.0005820305391719733
sVlot
p2051
F0.0
sVzolpidem
p2052
F0.0
sVhealthinsurance
p2053
F0.0
sVheh
p2054
F2.7638549406273987e-05
sVfish
p2055
F1.616751497699926e-05
sVdowner
p2056
F0.0
sVcomplete
p2057
F8.08375748849963e-05
sVnightshift
p2058
F0.0
sVcipro
p2059
F0.0
sVbuggy
p2060
F7.144461378954724e-05
sVunderdiagnosed
p2061
F0.0
sVmedium
p2062
F5.5277098812547974e-05
sVcompassionate
p2063
F0.0
sVbrain
p2064
F0.0008015179327819455
sVcycle
p2065
F0.0002628363862996395
sVtexted
p2066
F7.144461378954724e-05
sVneuroleptic
p2067
F0.0
sVamplify
p2068
F0.0
sVcarthage
p2069
F0.0
sVpull
p2070
F4.850254493099777e-05
sVregimen
p2071
F0.0
sVwaste
p2072
F0.0001658312964376439
sVannihilate
p2073
F0.0
sVrage
p2074
F7.144461378954724e-05
sVhardly
p2075
F4.380606438327325e-05
sVbucket
p2076
F0.0
sVflirt
p2077
F0.0
sVdirty
p2078
F0.00013141819314981974
sVsuitcase
p2079
F0.0
sVreferral
p2080
F0.0
sVinform
p2081
F7.144461378954724e-05
sVrozerm
p2082
F0.0
sVtorso
p2083
F0.0
sVagree
p2084
F0.0001131726048389948
sVhaldol
p2085
F0.0
sVmisery
p2086
F7.144461378954724e-05
sVaa
p2087
F0.0
sVsedative
p2088
F0.0
sVad
p2089
F0.000175224257533093
sVsubdue
p2090
F0.0
sVaf
p2091
F0.0
sVtaste
p2092
F2.7638549406273987e-05
sVcertain
p2093
F7.269889421187233e-05
sVdescribe
p2094
F0.000350448515066186
sVdeep
p2095
F0.00017784266474699182
sVgeneral
p2096
F0.0
sVap
p2097
F0.0
sVexamine
p2098
F4.380606438327325e-05
sVintro
p2099
F0.0
sVau
p2100
F7.144461378954724e-05
sVtogether
p2101
F0.0
sVcbt
p2102
F0.0
sVgirlfriend
p2103
F0.0005715569103163779
sVmelatonin
p2104
F0.0
sVjoyful
p2105
F4.380606438327325e-05
sVperscription
p2106
F0.0
sVfill
p2107
F0.0005251324387192057
sVtedious
p2108
F0.0
sVhasnt
p2109
F0.0
sVyoga
p2110
F7.144461378954724e-05
sVhydralazine
p2111
F0.0
sVyoh
p2112
F0.0
sVbiochemistry
p2113
F0.0
sVcrunch
p2114
F0.0
sVdepth
p2115
F8.291564821882195e-05
sVgraduate
p2116
F0.00014288922757909448
sVtight
p2117
F2.7638549406273987e-05
sVhousework
p2118
F0.0
sV5
p2119
F0.00032714502395342544
sVdoxylamine
p2120
F0.0
sVpuppy
p2121
F0.0
sVpoor
p2122
F7.2698894211872325e-06
sVfourth
p2123
F4.380606438327325e-05
sVpoop
p2124
F0.00014288922757909448
sVstandardize
p2125
F0.0
sVvocabulary
p2126
F0.0
sVxanax
p2127
F0.0
sVteeth
p2128
F0.00013141819314981974
sVdrift
p2129
F0.0
sVimportant
p2130
F0.0004818667082160057
sVpeak
p2131
F8.76121287665465e-05
sVparamedic
p2132
F0.0
sVchris
p2133
F0.0
sVspouse
p2134
F0.00014288922757909448
sVdeadline
p2135
F7.144461378954724e-05
sVunresponsive
p2136
F7.144461378954724e-05
sVbulk
p2137
F0.0
sVcarbs
p2138
F7.144461378954724e-05
sVremote
p2139
F4.380606438327325e-05
sVwife
p2140
F0.00021903032191636625
sVmask
p2141
F0.00014288922757909448
sVmash
p2142
F0.0
sVobserve
p2143
F8.76121287665465e-05
sVu
p2144
F0.0003869396916878358
sVrinse
p2145
F7.144461378954724e-05
sVbehavioral
p2146
F0.0
sVoverseas
p2147
F0.0
sVoral
p2148
F7.144461378954724e-05
sVoriginal
p2149
F3.233502995399852e-05
sVexternal
p2150
F4.380606438327325e-05
sVheartrate
p2151
F0.0
sVconsider
p2152
F0.00046885793433297843
sVslowly
p2153
F0.00027638549406273986
sVrx
p2154
F0.0
sVallergy
p2155
F7.144461378954724e-05
sVmonth
p2156
F0.0011640610783439467
sVgeneralize
p2157
F0.0
sVoxycodone
p2158
F0.0
sVzinc
p2159
F0.0
sVfairness
p2160
F0.0
sVdish
p2161
F7.144461378954724e-05
sVjason
p2162
F0.0
sVmeditation
p2163
F0.0
sVfaster
p2164
F0.00013819274703136993
sVreluctant
p2165
F0.0
sVextra
p2166
F0.00011055419762509595
sVresponsiveness
p2167
F0.0
sVice
p2168
F4.380606438327325e-05
sVtv
p2169
F0.00021433384136864168
sVmicrowave
p2170
F7.144461378954724e-05
sVthursday
p2171
F0.0
sVtl
p2172
F0.0
sVdaniel
p2173
F0.0
sVtj
p2174
F0.0
sVpresent
p2175
F2.1809668263561696e-05
sVsmile
p2176
F4.380606438327325e-05
sVc4
p2177
F0.0
sVmidwest
p2178
F0.0
sV_pixiepudding_
p2179
F0.0
sVtrim
p2180
F7.144461378954724e-05
sVwoman
p2181
F4.850254493099777e-05
sVappointment
p2182
F0.0003572230689477362
sVworse
p2183
F0.0003233502995399852
sVstraightforward
p2184
F0.0
sVfar
p2185
F0.00026171601916274035
sVperoxide
p2186
F0.0
sVpseudoephedrine
p2187
F0.0
sVfat
p2188
F0.00013141819314981974
sVutis
p2189
F0.0
sVhepatocellular
p2190
F0.0
sVfan
p2191
F0.0001658312964376439
sVdecide
p2192
F0.0005694788369825523
sVfall
p2193
F0.0013579879958814706
sVfloater
p2194
F0.0
sVdifference
p2195
F0.00039425457944945925
sVcondition
p2196
F0.0002487469446564659
sVenjoyable
p2197
F7.144461378954724e-05
sVdampen
p2198
F0.0
sVrecommit
p2199
F0.0
sVlist
p2200
F0.0002487469446564659
sVt3
p2201
F0.0
sVprogesterone
p2202
F0.0
sVlarge
p2203
F0.0
sVadjust
p2204
F7.144461378954724e-05
sVmodulators
p2205
F0.0
sVsedation
p2206
F0.0
sVsmall
p2207
F8.723867305424678e-05
sVinjectable
p2208
F0.0
sVanal
p2209
F0.0
sVpsychopharmacologist
p2210
F0.0
sVblackout
p2211
F0.0
sVquicker
p2212
F0.00014288922757909448
sVneighborhood
p2213
F7.144461378954724e-05
sVremeron
p2214
F0.0
sVten
p2215
F4.850254493099777e-05
sVphenibut
p2216
F0.0
sV2012_minneapolis_workplace_shooting
p2217
F0.0
sV196
p2218
F0.0
sVdofferent
p2219
F0.0
sV190
p2220
F0.0
sVaps
p2221
F0.0
sVpast
p2222
F0.00035568532949398365
sVbattle
p2223
F0.00021433384136864168
sVrate
p2224
F0.00013141819314981974
sVperception
p2225
F0.00028577845515818896
sVperspective
p2226
F0.0
sVlawyer
p2227
F7.144461378954724e-05
sVwyeth
p2228
F0.0
sVhealer
p2229
F0.0
sVinvestment
p2230
F0.0
sVwill
p2231
F2.1809668263561696e-05
sVdial
p2232
F4.380606438327325e-05
sVadjustment
p2233
F0.0
sVdarkness
p2234
F7.144461378954724e-05
sVsun
p2235
F3.233502995399852e-05
sVsection
p2236
F8.76121287665465e-05
sVbarbiturate
p2237
F0.0
sVcaffeine
p2238
F0.0008573353654745667
sVadinfinitim
p2239
F0.0
sVpublic
p2240
F8.291564821882195e-05
sVversion
p2241
F4.380606438327325e-05
sVrun
p2242
F0.00011631823073899572
sVnoticeably
p2243
F0.0
sVpaxil
p2244
F0.0
sVnurse
p2245
F0.0005715569103163779
sVrow
p2246
F5.5277098812547974e-05
sVmethod
p2247
F0.00014288922757909448
sVeverybody
p2248
F8.76121287665465e-05
sVmovement
p2249
F5.5277098812547974e-05
sVhasn
p2250
F8.08375748849963e-05
sVfull
p2251
F0.0
sVma
p2252
F7.144461378954724e-05
sVhungover
p2253
F0.0
sVloose
p2254
F2.7638549406273987e-05
sVcertainly
p2255
F9.700508986199554e-05
sVlack
p2256
F0.00024251272465498886
sVshouldn
p2257
F0.0002211083952501919
sVselective
p2258
F0.0
sVindiscriminately
p2259
F0.0
sVgabab
p2260
F0.0
sVexcess
p2261
F4.380606438327325e-05
sVnovember
p2262
F0.0
sVstrong
p2263
F0.0001658312964376439
sVrespect
p2264
F2.7638549406273987e-05
sVbacklash
p2265
F0.0
sVsearch
p2266
F0.00030402404346901383
sVbible
p2267
F0.0
sVextraordinary
p2268
F0.0
sVmdma
p2269
F0.0
sVcompliance
p2270
F0.0
sVprion
p2271
F0.0
sVexperience
p2272
F0.002672169927379668
sVwhiny
p2273
F0.0
sVprior
p2274
F0.00021433384136864168
sVamount
p2275
F0.0004974938893129318
sVhealthier
p2276
F0.0
sVdiscontinuation
p2277
F0.0
sVprofessor
p2278
F0.00014288922757909448
sVsocial
p2279
F9.700508986199554e-05
sVaction
p2280
F0.000350448515066186
sVrestoril
p2281
F0.0
sVtoxicity
p2282
F0.0
sVweirder
p2283
F7.144461378954724e-05
sV240
p2284
F0.0
sVmemon
p2285
F0.0
sVvia
p2286
F0.00014288922757909448
sVtightness
p2287
F0.0
sVthankfully
p2288
F0.0
sVnooooooooo
p2289
F0.0
sVsuddenly
p2290
F1.616751497699926e-05
sVagomelatine
p2291
F0.0
sVmmj
p2292
F0.0
sVput
p2293
F0.00038530413932292326
sVsemester
p2294
F7.144461378954724e-05
sVregiment
p2295
F0.0
sVseroquel
p2296
F0.0
sVresident
p2297
F0.0
sVestablish
p2298
F0.00014288922757909448
sVeldepryl
p2299
F0.0
sVmunchies
p2300
F0.00014288922757909448
sVeye
p2301
F0.00039425457944945925
sVoccassion
p2302
F0.0
sVpup
p2303
F0.0
sVfaint
p2304
F7.144461378954724e-05
sVtwo
p2305
F0.0
sVirritate
p2306
F0.0
sVchaotic
p2307
F0.0
sVanger
p2308
F8.76121287665465e-05
sV6
p2309
F0.00017447734610849357
sVweren
p2310
F8.291564821882195e-05
sVminor
p2311
F0.00011055419762509595
sVflat
p2312
F1.616751497699926e-05
sVflaw
p2313
F0.0
sVdiamond
p2314
F4.380606438327325e-05
sVdoor
p2315
F8.08375748849963e-05
sVsplosh
p2316
F0.0
sVcompany
p2317
F1.4539778842374465e-05
sVconcomitantly
p2318
F0.0
sVoutpatient
p2319
F0.0
sVexcuse
p2320
F2.7638549406273987e-05
sVflag
p2321
F2.7638549406273987e-05
sVoxymorphone
p2322
F0.0
sVstick
p2323
F0.000525672772599279
sVimpulse
p2324
F0.0003572230689477362
sVparticular
p2325
F0.00012934011981599407
sVdoom
p2326
F0.0
sVglad
p2327
F0.00012934011981599407
sVtown
p2328
F2.7638549406273987e-05
sVnone
p2329
F0.00011055419762509595
sVguanfacine
p2330
F0.0
sVhour
p2331
F0.002736216391221125
sVstrain
p2332
F0.0
sVscience
p2333
F0.00013141819314981974
sVremain
p2334
F0.00013141819314981974
sVparagraph
p2335
F0.0
sVtitrate
p2336
F0.0
sVlearn
p2337
F0.0013574476620013974
sVabandon
p2338
F7.144461378954724e-05
sVmale
p2339
F2.7638549406273987e-05
sVmo
p2340
F7.144461378954724e-05
sVmirtazapine
p2341
F0.0
sVbeautiful
p2342
F3.233502995399852e-05
sVallegra
p2343
F0.0
sVcompare
p2344
F0.00021903032191636625
sVatrocious
p2345
F7.144461378954724e-05
sVpsychonautwiki
p2346
F0.0
sVscan
p2347
F0.000350448515066186
sVraisin
p2348
F7.144461378954724e-05
sVshare
p2349
F3.233502995399852e-05
sVretest
p2350
F0.0
sVaccept
p2351
F0.00013819274703136993
sVcaffeinated
p2352
F0.0
sVminimum
p2353
F0.00013141819314981974
sVsense
p2354
F7.269889421187233e-05
sVpond
p2355
F7.144461378954724e-05
sVscar
p2356
F0.0008573353654745667
sVlongest
p2357
F0.00021433384136864168
sVgarden
p2358
F4.380606438327325e-05
sVhomicide
p2359
F0.0
sVhuge
p2360
F8.723867305424678e-05
sVcourt
p2361
F0.000175224257533093
sVadvantage
p2362
F4.380606438327325e-05
sVrather
p2363
F0.00017784266474699182
sVimminent
p2364
F0.0
sVfluoxetine
p2365
F0.0
sVutilize
p2366
F0.00014288922757909448
sVquesadilla
p2367
F7.144461378954724e-05
sVsalvia
p2368
F0.0
sVheck
p2369
F7.144461378954724e-05
sVweed
p2370
F0.00021433384136864168
sVreject
p2371
F0.0005001122965268306
sVoccur
p2372
F0.00021433384136864168
sVryu
p2373
F0.0
sViproniazid
p2374
F0.0
sVhopeless
p2375
F0.00014288922757909448
sVtinfoil
p2376
F0.0
sVsemax
p2377
F0.0
sVokay
p2378
F0.0004818667082160057
sVgiant_post_of_medications_that_really_help
p2379
F0.0
sVadvice
p2380
F0.0005715569103163779
sVreuptake
p2381
F0.0
sVbrintellix
p2382
F0.0
sVdisable
p2383
F7.144461378954724e-05
sVblood
p2384
F0.0004422167905003838
sVnumb
p2385
F0.0
sVproductivity
p2386
F0.0
sVresponse
p2387
F0.0005001122965268306
sVrefuse
p2388
F8.291564821882195e-05
sVimagery
p2389
F0.0
sVmorphine
p2390
F7.144461378954724e-05
sVresemble
p2391
F7.144461378954724e-05
sVmeticulous
p2392
F0.0
sVovernight
p2393
F0.00014288922757909448
sVanytime
p2394
F0.00014288922757909448
sVassign
p2395
F0.0
sVmislead
p2396
F0.0
sVperhaps
p2397
F0.000175224257533093
sVshore
p2398
F4.380606438327325e-05
sVolanzipine
p2399
F0.0
sVresponsibility
p2400
F7.144461378954724e-05
sVdread
p2401
F0.0
sVmethadone
p2402
F0.0
sV10mgs
p2403
F0.0
sVstuffiness
p2404
F0.0
sVpleasure
p2405
F5.5277098812547974e-05
sVdream
p2406
F0.0012703758671149242
sVowsley
p2407
F0.0
sVmasturbate
p2408
F7.144461378954724e-05
sVconversation
p2409
F6.467005990799704e-05
sVpant
p2410
F0.00014288922757909448
sVseptember
p2411
F0.0
sVsertraline
p2412
F0.0
sVmayoclinic
p2413
F0.0
sVsoon
p2414
F9.450856247543402e-05
sVtramadol
p2415
F0.0
sVtrade
p2416
F2.7638549406273987e-05
sVattitude
p2417
F7.144461378954724e-05
sVpaper
p2418
F0.00011055419762509595
sVffi
p2419
F0.0
sVhell
p2420
F0.0001934698458439179
sVmcdonalds
p2421
F0.0
sVsuffer
p2422
F0.0004380606438327325
sVjames_eagan_holmes
p2423
F0.0
sVlisinopril
p2424
F0.0
sV24
p2425
F0.0001934698458439179
sV25
p2426
F0.00030402404346901383
sV26
p2427
F5.5277098812547974e-05
sV27
p2428
F0.00011055419762509595
sV20
p2429
F0.00010177845189662125
sV21
p2430
F0.00013819274703136993
sV22
p2431
F0.0001934698458439179
sV23
p2432
F0.00011055419762509595
sVsusceptible
p2433
F0.0
sVtreat
p2434
F0.0007738793833756716
sVpcp
p2435
F0.0
sVgreatly
p2436
F0.00014288922757909448
sV28
p2437
F8.76121287665465e-05
sVmattress
p2438
F7.144461378954724e-05
sVlate
p2439
F0.0001131726048389948
sVresort
p2440
F0.0
sVabsence
p2441
F0.0
sVhtml
p2442
F7.144461378954724e-05
sVbummer
p2443
F0.0
sVfeasible
p2444
F7.144461378954724e-05
sVamitriptyline
p2445
F0.0
sVbout
p2446
F0.00014288922757909448
sVnausea
p2447
F0.0
sVsauce
p2448
F7.144461378954724e-05
sVpolypharmacy
p2449
F0.0
sVpittman
p2450
F0.0
sVwouldn
p2451
F0.00037185284447098293
sVgood
p2452
F0.0
sVtoiletry
p2453
F0.0
sVevaluate
p2454
F0.0
sVseverely
p2455
F0.00021433384136864168
sVfood
p2456
F0.00019401017972399108
sVmisc
p2457
F7.144461378954724e-05
sVlibido
p2458
F0.0
sVsocially
p2459
F7.144461378954724e-05
sVslight
p2460
F0.00013141819314981974
sVarsenal
p2461
F0.0
sVvomit
p2462
F0.00014288922757909448
sVrank
p2463
F0.0
sVdosulepin
p2464
F0.0
sVcompound
p2465
F0.0
sVmisuse
p2466
F0.0
sVdetach
p2467
F0.0
sVassociation
p2468
F7.144461378954724e-05
sVmystery
p2469
F0.0
sVeasily
p2470
F3.233502995399852e-05
sVerection
p2471
F0.00021433384136864168
sVwash
p2472
F7.144461378954724e-05
sValways
p2473
F0.0
sVnauseous
p2474
F0.0
sV2x
p2475
F0.0
sVrefresh
p2476
F0.00028577845515818896
sVcapability
p2477
F0.0
sVtear
p2478
F3.233502995399852e-05
sV2a
p2479
F7.144461378954724e-05
sVfiber
p2480
F0.0
sV1am
p2481
F0.0
sVmouse
p2482
F0.00013141819314981974
sVout
p2483
F0.0
sVcaliber
p2484
F0.0
sVphysiologically
p2485
F0.0
sVheavy
p2486
F0.00012934011981599407
sVweek
p2487
F0.0012160961738760553
sVharm
p2488
F0.0
sVeveryone
p2489
F0.0003316625928752878
sVknowledgeable
p2490
F0.0
sVmental
p2491
F0.0010716692068432083
sV300mg
p2492
F0.0
sVvisually
p2493
F4.380606438327325e-05
sVorgasm
p2494
F7.144461378954724e-05
sVhouse
p2495
F0.00017784266474699182
sVenergy
p2496
F0.0007144461378954724
sVhard
p2497
F0.000565863024194974
sVreduce
p2498
F0.0004818667082160057
sVidea
p2499
F0.0002035569037932425
sVbrother
p2500
F4.380606438327325e-05
sVbland
p2501
F0.0
sVfinish
p2502
F8.291564821882195e-05
sVexpect
p2503
F2.907955768474893e-05
sVmeasurement
p2504
F0.0
sVkansa
p2505
F0.0
sVorient
p2506
F0.0
sVterrify
p2507
F0.0
sVapprove
p2508
F0.0005001122965268306
sVanxious
p2509
F0.001214558434422303
sVditch
p2510
F0.0
sVpsychology
p2511
F0.00028577845515818896
sVftw
p2512
F0.0
sVkrokodil
p2513
F0.0
sVrobert
p2514
F0.0
sVsince
p2515
F0.00030533535568986374
sVresearch
p2516
F0.000643001524105925
sVsociological
p2517
F0.0
sVsustain
p2518
F0.0
sVhill
p2519
F4.380606438327325e-05
sV7
p2520
F0.0003071827845629859
sVprint
p2521
F4.380606438327325e-05
sVdysfunction
p2522
F0.0
sVissue
p2523
F0.0012990118220948773
sVeszopiclone
p2524
F0.0
sVpun
p2525
F7.144461378954724e-05
sVbald
p2526
F7.144461378954724e-05
sVsolvent
p2527
F0.0
sVbully
p2528
F0.0
sVlibrium
p2529
F0.0
sVtimeline
p2530
F0.0
sVfriday
p2531
F0.0
sVmotherfucker
p2532
F7.144461378954724e-05
sVdifficulty
p2533
F0.00028577845515818896
sVqualify
p2534
F0.0
sVbase
p2535
F0.00014550763479299333
sVhousebound
p2536
F0.0
sVimagine
p2537
F0.00027638549406273986
sVbuspirone
p2538
F0.0
sVteach
p2539
F0.00028577845515818896
sVinhalant
p2540
F0.0
sVbeginning
p2541
F7.2698894211872325e-06
sVdmt
p2542
F0.0
sVthread
p2543
F0.00028577845515818896
sVlaunch
p2544
F7.144461378954724e-05
sVterrible
p2545
F0.00046985533990665776
sVamerican
p2546
F0.0
sVelective
p2547
F0.0
sVw
p2548
F5.5277098812547974e-05
sVanecdote
p2549
F0.0
sVconsequence
p2550
F0.0
sVexistential
p2551
F7.144461378954724e-05
sVundergo
p2552
F0.0
sVzyprexa
p2553
F0.0
sVtop
p2554
F0.0003071827845629859
sVbupropion
p2555
F0.0
sVfeed
p2556
F4.380606438327325e-05
sVmajor
p2557
F0.00021017769470099034
sV05am
p2558
F0.0
sVdont
p2559
F0.00013141819314981974
sVpurport
p2560
F0.0
sVfeel
p2561
F0.0012140715333382676
sVrelate
p2562
F0.0
sVpatience
p2563
F7.144461378954724e-05
sVnumber
p2564
F0.00027638549406273986
sVhappier
p2565
F0.00028577845515818896
sVv8
p2566
F0.0
sVsmaller
p2567
F2.7638549406273987e-05
sVnotify
p2568
F7.144461378954724e-05
sV40mg
p2569
F0.0
sVmiss
p2570
F5.815911536949786e-05
sVpropranolol
p2571
F0.0
sVseparation
p2572
F0.0
sVguess
p2573
F0.00046985533990665776
sVhalcion
p2574
F0.0
sVtemperature
p2575
F4.380606438327325e-05
sVscript
p2576
F0.0010716692068432083
sVdivorce
p2577
F7.144461378954724e-05
sV5th
p2578
F7.144461378954724e-05
sVsmoother
p2579
F0.0
sVmoderately
p2580
F0.00013141819314981974
sVleast
p2581
F0.0
sVstation
p2582
F0.00014288922757909448
sVpixiepudding
p2583
F0.0
sVmentally
p2584
F0.00014288922757909448
sVcompromise
p2585
F4.380606438327325e-05
sVhundred
p2586
F3.233502995399852e-05
sVsyrup
p2587
F0.0
sVstore
p2588
F0.00039425457944945925
sVwonderment
p2589
F0.0
sVoption
p2590
F0.0017861153447386808
sVrelationship
p2591
F0.0001658312964376439
sVbehind
p2592
F2.1809668263561696e-05
sVchecklist
p2593
F0.0
sVneedle
p2594
F8.76121287665465e-05
sVpark
p2595
F0.00028577845515818896
sVscarcely
p2596
F0.0
sVimmediate
p2597
F4.380606438327325e-05
sVserotonin
p2598
F0.0
sVdentist
p2599
F7.144461378954724e-05
sVpart
p2600
F0.0005496955092179748
sVdrunkenness
p2601
F0.0
sVconsult
p2602
F0.0
sVbelieve
p2603
F0.00024251272465498886
sVreliever
p2604
F0.0
sVfascinate
p2605
F0.0
sValbeit
p2606
F0.0
sVneurontin
p2607
F0.0
sVcrazyboards
p2608
F0.0
sVvalporic
p2609
F0.0
sVkindly
p2610
F7.144461378954724e-05
sVvial
p2611
F0.0
sVdouble
p2612
F0.0002628363862996395
sVanticipate
p2613
F0.0
sVinstruction
p2614
F7.144461378954724e-05
sVintuniv
p2615
F0.0
sVexcitability
p2616
F0.0
sVvocal
p2617
F0.0
sVungodly
p2618
F0.0
sVyouth
p2619
F0.00013141819314981974
sVpennsylvania
p2620
F0.0
sVgrogginess
p2621
F0.0
sVsedate
p2622
F0.0010075394808152847
sVdts
p2623
F0.0
sVheadache
p2624
F0.00042866768273728336
sVrestful
p2625
F0.0
sVpriority
p2626
F0.0
sVsilence
p2627
F2.7638549406273987e-05
sVmotivation
p2628
F0.0
sVbasically
p2629
F0.0014288922757909447
sVwasnt
p2630
F0.0
sVhtp
p2631
F0.0
sV5x
p2632
F0.0
sV7h
p2633
F0.0
sVrandomly
p2634
F0.00028577845515818896
sVdownload
p2635
F4.380606438327325e-05
sVsubstantial
p2636
F7.144461378954724e-05
sVsquinty
p2637
F0.0
sVprefrontal
p2638
F0.0
sVmeltdown
p2639
F7.144461378954724e-05
sVlorazapam
p2640
F0.0
sVsell
p2641
F8.08375748849963e-05
sVmountain
p2642
F0.0
sVwilson
p2643
F0.0
sVbake
p2644
F0.0
sVspaghetti
p2645
F7.144461378954724e-05
sVself
p2646
F9.450856247543402e-05
sVeric
p2647
F0.0
sVsevere
p2648
F0.0006132849013658255
sVnondepressed
p2649
F0.0
sVcouch
p2650
F0.00014288922757909448
sVonset
p2651
F0.0
sVmajority
p2652
F8.76121287665465e-05
sVempirically
p2653
F0.0
sVbreeze
p2654
F7.144461378954724e-05
sVbuild
p2655
F0.00019401017972399108
sVobviously
p2656
F0.0001658312964376439
sVk9
p2657
F0.0
sVtool
p2658
F0.0003572230689477362
sVzucchini
p2659
F0.0
sVplay
p2660
F0.00013819274703136993
sVrisperidone
p2661
F0.0
sValleviate
p2662
F0.00021433384136864168
sVpopulate
p2663
F7.144461378954724e-05
sVyhat
p2664
F0.0
sV12mg
p2665
F0.0
sVreach
p2666
F0.00013819274703136993
sVwellbutrun
p2667
F0.0
sVperceptive
p2668
F0.0
sVinability
p2669
F0.00014288922757909448
sV75
p2670
F0.00014288922757909448
sV74
p2671
F0.0
sVcharm
p2672
F7.144461378954724e-05
sVplan
p2673
F0.0003316625928752878
sVsignificant
p2674
F0.0007144461378954724
sV70
p2675
F8.291564821882195e-05
sVnothing
p2676
F0.0002035569037932425
sVstressful
p2677
F0.00021433384136864168
sVextremely
p2678
F0.0006132849013658255
sVmedicate
p2679
F0.0
sVreward
p2680
F4.380606438327325e-05
sV16mg
p2681
F0.0
sVseize
p2682
F7.144461378954724e-05
sVmobile
p2683
F7.144461378954724e-05
sVdoggie
p2684
F4.380606438327325e-05
sVclear
p2685
F5.0889225948310626e-05
sVsometimes
p2686
F0.0005820305391719733
sVcover
p2687
F8.08375748849963e-05
sVluckily
p2688
F0.0
sVnefazodone
p2689
F0.0
sVtraditional
p2690
F0.00013141819314981974
sV10am
p2691
F0.0
sVoverdrive
p2692
F0.0
sVclean
p2693
F6.542900479068509e-05
sVweigh
p2694
F8.76121287665465e-05
sVfwiw
p2695
F0.0
sVsubgroup
p2696
F0.0
sVorganism
p2697
F0.0
sVclinician
p2698
F0.0
sVgaba
p2699
F0.0
sVsluggishness
p2700
F7.144461378954724e-05
sVantibiotic
p2701
F0.0
sVugh
p2702
F0.0
sVparticularly
p2703
F0.00030664245068291274
sVamaze
p2704
F0.0
sVgold
p2705
F2.7638549406273987e-05
sVrifle
p2706
F7.144461378954724e-05
sVtranquilizer
p2707
F0.0
sVbooze
p2708
F7.144461378954724e-05
sVsession
p2709
F0.00014288922757909448
sVrts
p2710
F0.0
sVcarefully
p2711
F7.144461378954724e-05
sVwalgreen
p2712
F0.0
sVfine
p2713
F0.0
sVfind
p2714
F0.0
sVimpact
p2715
F0.0
sVaccess
p2716
F4.380606438327325e-05
sVgiant
p2717
F4.380606438327325e-05
sVbff
p2718
F0.0
sVnorthern
p2719
F0.00021433384136864168
sValprazolam
p2720
F0.0
sVparanoid
p2721
F0.00021433384136864168
sVnervous
p2722
F4.380606438327325e-05
sVruin
p2723
F0.00014288922757909448
sV211
p2724
F0.0
sVassertion
p2725
F7.144461378954724e-05
sVenzyme
p2726
F0.0
sVexperiment
p2727
F0.0002628363862996395
sVcentral
p2728
F0.0
sVfactor
p2729
F0.00021433384136864168
sVinitally
p2730
F0.0
sV8
p2731
F0.00017447734610849357
sVinsurance
p2732
F0.0005715569103163779
sVdevastate
p2733
F0.0
sVdependent
p2734
F0.00028577845515818896
sVluke
p2735
F0.0
sVioov
p2736
F0.0
sVsunny
p2737
F4.380606438327325e-05
sVkind
p2738
F0.0
sVcheaper
p2739
F4.380606438327325e-05
sVreprocess
p2740
F0.0
sVfamous
p2741
F4.380606438327325e-05
sVremedy
p2742
F0.0
sV150mg
p2743
F0.0
sVvaluable
p2744
F0.000175224257533093
sVclosely
p2745
F0.0
sVtreshold
p2746
F0.0
sVdose
p2747
F0.006787238310006987
sVrestart
p2748
F4.380606438327325e-05
sV5ht2c
p2749
F0.0
sVcrp
p2750
F0.0
sVresolve
p2751
F5.5277098812547974e-05
sVbet
p2752
F4.850254493099777e-05
sVcry
p2753
F0.000175224257533093
sValteration
p2754
F0.0
sVremove
p2755
F2.7638549406273987e-05
sVinvestigate
p2756
F4.380606438327325e-05
sVbrush
p2757
F5.5277098812547974e-05
sVcommon
p2758
F0.0003869396916878358
sVimmflamatories
p2759
F0.0
sVactivity
p2760
F0.0005001122965268306
sVsustainable
p2761
F0.0
sVx
p2762
F0.00021433384136864168
sVdizziness
p2763
F7.144461378954724e-05
sVriver
p2764
F2.7638549406273987e-05
sVemployer
p2765
F0.0
sVinsane
p2766
F0.00014288922757909448
sVset
p2767
F5.815911536949786e-05
sVart
p2768
F8.291564821882195e-05
sVser
p2769
F0.00014288922757909448
sVcynical
p2770
F0.0
sVcollateral
p2771
F0.0
sVoverwhelm
p2772
F0.0
sVimpersonal
p2773
F0.0
sVgrandfather
p2774
F0.00028577845515818896
sVpotent
p2775
F0.0
sVsex
p2776
F0.0002628363862996395
sVschizophrenic
p2777
F0.0
sVculture
p2778
F0.00014288922757909448
sVsee
p2779
F0.0005088922594831063
sVdefense
p2780
F0.0
sVhydroxyzine
p2781
F0.0
sVrtms
p2782
F0.0
sVbarf
p2783
F0.0
sVclose
p2784
F0.0002487469446564659
sVexcusable
p2785
F0.0
sVhole
p2786
F3.233502995399852e-05
sVarm
p2787
F0.00013819274703136993
sVproject
p2788
F8.291564821882195e-05
sVpractice
p2789
F0.0
sVvisualize
p2790
F7.144461378954724e-05
sVexpert
p2791
F7.144461378954724e-05
sVmovie
p2792
F4.380606438327325e-05
sVwow
p2793
F0.00014288922757909448
sVcurrently
p2794
F0.00046985533990665776
sVplease
p2795
F4.361933652712339e-05
sV5mg
p2796
F0.0
sVbaadsgaard
p2797
F0.0
sVcase
p2798
F0.0003395178145169844
sVsmallest
p2799
F0.00014288922757909448
sVvarious
p2800
F0.00011055419762509595
sVguilt
p2801
F0.00021433384136864168
sVnumerous
p2802
F8.76121287665465e-05
sV9h15m
p2803
F0.0
sVeurope
p2804
F0.0
sVmilder
p2805
F0.0
sVanticholinergic
p2806
F0.0
sVunconscious
p2807
F4.380606438327325e-05
sVinitially
p2808
F0.0002628363862996395
sVattention
p2809
F0.0001131726048389948
sVincident
p2810
F0.0
sVrapid
p2811
F0.00021433384136864168
sVcodiagnosed
p2812
F0.0
sVabruptly
p2813
F0.00014288922757909448
sVineffectiveness
p2814
F0.0
sVmanerix
p2815
F0.0
sVc
p2816
F1.4539778842374465e-05
sVcompazine
p2817
F0.0
sVlast
p2818
F0.0003780342499017361
sVreverse
p2819
F5.5277098812547974e-05
sVlicense
p2820
F4.380606438327325e-05
sVbarely
p2821
F0.0002628363862996395
sVevent
p2822
F0.0002211083952501919
sVpreviously
p2823
F0.00042866768273728336
sVsensitive
p2824
F6.467005990799704e-05
sVconnection
p2825
F0.000175224257533093
sVzilch
p2826
F7.144461378954724e-05
sValot
p2827
F0.00014288922757909448
sVbuzz
p2828
F0.00013141819314981974
sVtoxicology
p2829
F0.0
sVbond
p2830
F4.380606438327325e-05
sVwhole
p2831
F0.0004974938893129318
sVhistamine
p2832
F0.0
sVpda
p2833
F0.0
sVload
p2834
F8.291564821882195e-05
sVchildhood
p2835
F0.0
sVconsume
p2836
F8.76121287665465e-05
sVoversleep
p2837
F0.0
sVpoint
p2838
F0.00035622458163817435
sVsimple
p2839
F2.907955768474893e-05
sVsweet
p2840
F2.7638549406273987e-05
sVwhatever
p2841
F0.0002748477546089874
sVvyvanse
p2842
F0.0
sV100mg
p2843
F0.0
sVsimply
p2844
F2.7638549406273987e-05
sVshutdown
p2845
F7.144461378954724e-05
sVchurch
p2846
F4.380606438327325e-05
sVthroughout
p2847
F0.00030402404346901383
sVlithium
p2848
F0.0
sVexpensive
p2849
F5.5277098812547974e-05
sVbelt
p2850
F0.00042866768273728336
sVhorticulture
p2851
F0.0
sV30mg
p2852
F0.0
sVworthless
p2853
F7.144461378954724e-05
sVraise
p2854
F2.7638549406273987e-05
sVpt
p2855
F7.144461378954724e-05
sVmonthly
p2856
F0.0
sVhelp
p2857
F0.0014612477736586336
sVcreate
p2858
F0.00030664245068291274
sVacceptance
p2859
F0.0
sVcreativity
p2860
F0.0
sVverse
p2861
F0.0
sVvelveeta
p2862
F0.0
sVstrategy
p2863
F0.00014288922757909448
sVstrengthen
p2864
F0.0
sVreduction
p2865
F0.00028577845515818896
sVinitiation
p2866
F0.0
sVmaintenance
p2867
F0.0
sVclinical
p2868
F0.0
sVbrick
p2869
F0.0
sVmindset
p2870
F0.0
sVempty
p2871
F2.1809668263561696e-05
sVfreshman
p2872
F7.144461378954724e-05
sVfirm
p2873
F2.7638549406273987e-05
sVsuspicious
p2874
F7.144461378954724e-05
sVflight
p2875
F5.5277098812547974e-05
sVsobriety
p2876
F0.0
sVfire
p2877
F0.00014550763479299333
sVgap
p2878
F7.144461378954724e-05
sVfund
p2879
F4.380606438327325e-05
sVmoderation
p2880
F0.0
sVsleepwalk
p2881
F0.0
sVawake
p2882
F0.000928779979264114
sVliver
p2883
F0.000350448515066186
sVdemand
p2884
F2.7638549406273987e-05
sVoleptro
p2885
F0.0
sVdespite
p2886
F0.0001131726048389948
sVgad
p2887
F0.0
sVlamotrigine
p2888
F0.0
sVunnecessarily
p2889
F0.0
sVfurrow
p2890
F0.0
sVbile
p2891
F7.144461378954724e-05
sVgeorgia
p2892
F0.0
sVuncertain
p2893
F7.144461378954724e-05
sVlook
p2894
F0.00032714502395342544
sVsolid
p2895
F0.00013141819314981974
sVshitton
p2896
F0.0
sVbill
p2897
F4.380606438327325e-05
sVconvo
p2898
F0.0
sVbatch
p2899
F0.0
sVcrutch
p2900
F0.0
sVmedically
p2901
F0.0
sVsmart
p2902
F8.76121287665465e-05
sVbehavior
p2903
F4.380606438327325e-05
sVerror
p2904
F0.00014288922757909448
sVfun
p2905
F9.700508986199554e-05
sVmitchell
p2906
F0.0
sVguide
p2907
F0.00028577845515818896
sVpack
p2908
F8.08375748849963e-05
sVswim
p2909
F4.380606438327325e-05
sVpound
p2910
F0.000175224257533093
sVagitation
p2911
F0.0
sVklonipin
p2912
F0.0
sV37
p2913
F8.76121287665465e-05
sVdemon
p2914
F0.00014288922757909448
sVdecline
p2915
F0.00014288922757909448
sVrip
p2916
F7.144461378954724e-05
sVssri
p2917
F0.0
sVhydrocodone
p2918
F0.0
sVtriple
p2919
F0.00013141819314981974
sVpromethazine
p2920
F0.0
sVhydromorphone
p2921
F0.0
sVrid
p2922
F8.76121287665465e-05
sV34
p2923
F2.7638549406273987e-05
sVdysthymia
p2924
F0.0
sVconcentration
p2925
F0.00013141819314981974
sVfunny
p2926
F8.08375748849963e-05
sVlengthy
p2927
F7.144461378954724e-05
sVdrug_interactions
p2928
F0.0
sVshirt
p2929
F4.380606438327325e-05
sVanymore
p2930
F0.00027638549406273986
sVgrant
p2931
F0.0
sVmigraine
p2932
F0.0
sVmint
p2933
F4.380606438327325e-05
sVbelong
p2934
F7.144461378954724e-05
sVkinkel
p2935
F0.0
sVbenign
p2936
F7.144461378954724e-05
sVemphasize
p2937
F0.0
sVwidely
p2938
F0.0
sVgrand
p2939
F4.380606438327325e-05
sV9
p2940
F0.0002263452096779896
sVadvise
p2941
F0.0
sVray
p2942
F7.144461378954724e-05
sVcpap
p2943
F0.0
sVconflict
p2944
F0.00021433384136864168
sVhigher
p2945
F0.00021017769470099034
sVdevelopment
p2946
F8.76121287665465e-05
sVliterature
p2947
F7.144461378954724e-05
sVtemporary
p2948
F0.00021433384136864168
sVlie
p2949
F2.7638549406273987e-05
sVassignment
p2950
F7.144461378954724e-05
sVoverweight
p2951
F0.0
sVyesterday
p2952
F0.00021433384136864168
sVairway
p2953
F0.0
sValert
p2954
F8.76121287665465e-05
sVmoment
p2955
F8.723867305424678e-05
sVwalmart
p2956
F0.0
sVmedicaid
p2957
F0.0
sVpurpose
p2958
F3.233502995399852e-05
sVbromo
p2959
F0.0
sVawful
p2960
F0.0002211083952501919
sVgenuine
p2961
F4.380606438327325e-05
sVstack
p2962
F7.144461378954724e-05
sVinfamous
p2963
F0.0
sVrecent
p2964
F0.00013141819314981974
sVearly
p2965
F9.700508986199554e-05
sVbacopa
p2966
F0.0
sVtask
p2967
F0.0001658312964376439
sVdeny
p2968
F0.00014288922757909448
sVinfertility
p2969
F0.0
sVdatabase
p2970
F7.144461378954724e-05
sVmemantine
p2971
F0.0
sVcortisol
p2972
F0.0
sVcodeine
p2973
F0.0
sVanybody
p2974
F7.144461378954724e-05
sVanalysis
p2975
F7.144461378954724e-05
sVgrind
p2976
F0.0
sVperson
p2977
F0.0004526904193559792
sVanime
p2978
F0.0
sVrozerem
p2979
F0.0
sVwithdraw
p2980
F0.00042866768273728336
sVy
p2981
F1.616751497699926e-05
sVentry
p2982
F4.380606438327325e-05
sVchemistry
p2983
F0.0
sVspend
p2984
F0.00027638549406273986
sVtemperamental
p2985
F0.0
sVknow
p2986
F0.0008287673940153446
sVcajon
p2987
F0.0
sVcatiously
p2988
F0.0
sVhomegroup
p2989
F0.0
sVbirthday
p2990
F4.380606438327325e-05
sVabbreviation
p2991
F0.0
sVopenly
p2992
F0.0
sVirritable
p2993
F7.144461378954724e-05
sVvigilant
p2994
F0.0
sVregardless
p2995
F0.00028577845515818896
sValternative
p2996
F0.000350448515066186
sVdiscipline
p2997
F0.0
sVsuperficial
p2998
F4.380606438327325e-05
sVcut
p2999
F6.542900479068509e-05
sVremission
p3000
F0.0
sVtablet
p3001
F0.000643001524105925
sVcup
p3002
F0.00042866768273728336
sVadmission
p3003
F0.0
sValternate
p3004
F0.00013141819314981974
sVcuz
p3005
F7.144461378954724e-05
sVcontractor
p3006
F0.0
sVsource
p3007
F0.0002211083952501919
sVdeliberately
p3008
F0.0
sVproblematic
p3009
F7.144461378954724e-05
sVinput
p3010
F0.001214558434422303
sVdelerium
p3011
F0.0
sVuseless
p3012
F0.0005001122965268306
sVridiculously
p3013
F0.00014288922757909448
sVaustralia
p3014
F0.0
sVapnea
p3015
F0.0
sVemergency
p3016
F0.00021433384136864168
sVloss
p3017
F0.0004380606438327325
sVbig
p3018
F0.00015266767784493187
sVrebound
p3019
F0.0
sVeducator
p3020
F0.0
sVshitty
p3021
F0.00021433384136864168
sVgame
p3022
F3.233502995399852e-05
sVquest
p3023
F7.144461378954724e-05
sVwestroads_mall_shooting
p3024
F0.0
sVwiser
p3025
F0.0
sVstep
p3026
F8.08375748849963e-05
sVawaken
p3027
F0.0
sVeffexor
p3028
F0.0
sVhelpful
p3029
F0.0007144461378954724
sVknock
p3030
F0.0012703758671149242
sVoutright
p3031
F0.0
sVd
p3032
F0.0
sVsemi
p3033
F2.7638549406273987e-05
sVuniversity
p3034
F0.0005001122965268306
sVadmittedly
p3035
F0.0
sVinterestingly
p3036
F0.00014288922757909448
sVpsychedelic
p3037
F0.0
sVrider
p3038
F4.380606438327325e-05
sVconstipate
p3039
F0.0
sVcollect
p3040
F0.0
sVzoloft
p3041
F0.0
sVcontinue
p3042
F0.00014550763479299333
sV80
p3043
F0.0
sVentice
p3044
F0.0
sVfuriously
p3045
F0.0
sVpopular
p3046
F7.144461378954724e-05
sVmode
p3047
F4.380606438327325e-05
sVfault
p3048
F1.616751497699926e-05
sVdisorder
p3049
F0.0022862276412655117
sVptsd
p3050
F0.0
sVhallmark
p3051
F0.0
sVgoogle
p3052
F0.00030664245068291274
sVoften
p3053
F0.0009397106798133155
sVpresenter
p3054
F0.0
sVabsolutely
p3055
F8.08375748849963e-05
sVspring
p3056
F5.5277098812547974e-05
sVapsychiatrist
p3057
F0.0
sVback
p3058
F0.0004434632546924212
sVbounce
p3059
F7.144461378954724e-05
sVblow
p3060
F3.233502995399852e-05
sVurgent
p3061
F0.0
sVtowards
p3062
F2.1809668263561696e-05
sVoxcarbazepine
p3063
F0.0
sVmirror
p3064
F8.76121287665465e-05
sVcurious
p3065
F1.616751497699926e-05
sVsprint
p3066
F7.144461378954724e-05
sVmispelled
p3067
F0.0
sVscale
p3068
F4.380606438327325e-05
sVweirdo
p3069
F7.144461378954724e-05
sVculprit
p3070
F0.0
sVdecision
p3071
F0.0001658312964376439
sVper
p3072
F0.00039425457944945925
sVcrisis
p3073
F0.0
sVfirsthand
p3074
F0.0
sVdischarge
p3075
F0.0
sVbehave
p3076
F8.76121287665465e-05
sVroommate
p3077
F0.00021433384136864168
sVworkup
p3078
F0.0
sVscalp
p3079
F0.0
sVquote
p3080
F4.380606438327325e-05
sVtemple
p3081
F0.0
sVminimal
p3082
F0.0
sVbuspar
p3083
F0.0
sVsledgehammer
p3084
F7.144461378954724e-05
sVruh
p3085
F0.0
sVpatient
p3086
F0.003072118392950531
sVbc
p3087
F0.0
sV300
p3088
F4.380606438327325e-05
sVbm
p3089
F0.0
sVodor
p3090
F4.380606438327325e-05
sV4mg
p3091
F0.0
sVagreement
p3092
F2.7638549406273987e-05
sV306
p3093
F0.0
sVstem
p3094
F0.0
sVzombie
p3095
F0.00014288922757909448
sVotherside
p3096
F0.0
sVbp
p3097
F0.0
sVtwenty
p3098
F5.5277098812547974e-05
sVviibryd
p3099
F0.0
sVtaboo
p3100
F0.0
sVintense
p3101
F0.0004380606438327325
sVmentalhealth
p3102
F0.0
sVwalk
p3103
F0.00041457824109410976
sVreact
p3104
F0.000175224257533093
sVpipeline
p3105
F0.0
sVcautious
p3106
F7.144461378954724e-05
sVusa
p3107
F7.144461378954724e-05
sVanything
p3108
F0.0003780342499017361
sVnetflix
p3109
F0.0
sVprove
p3110
F0.0
sVgraduation
p3111
F0.0
sVpage
p3112
F0.00021903032191636625
sVailment
p3113
F0.0
sVunimpressed
p3114
F0.0
sVrange
p3115
F6.467005990799704e-05
sVcatnip
p3116
F0.0
sVidk
p3117
F0.0
sVblock
p3118
F0.000175224257533093
sVrepair
p3119
F0.0
sVjimmy
p3120
F0.0
sVcolorado
p3121
F0.0
sVparalysis
p3122
F0.0
sVdude
p3123
F7.144461378954724e-05
sVnortriptyline
p3124
F0.0
sVwithin
p3125
F0.0001616751497699926
sVappropriate
p3126
F0.0003572230689477362
sVprimarily
p3127
F0.0
sVsteven
p3128
F0.0
sVlesson
p3129
F7.144461378954724e-05
sVdelusional
p3130
F0.00014288922757909448
sVconnexus
p3131
F0.0
sVspan
p3132
F7.144461378954724e-05
sVpalinopsia
p3133
F0.0
sVppao
p3134
F0.0
sVprobabilistic
p3135
F0.0
sVache
p3136
F0.0
sVquestion
p3137
F0.0003071827845629859
sVfast
p3138
F0.00012934011981599407
sVaccountability
p3139
F0.0
sVthirdly
p3140
F0.0
sVconsultation
p3141
F0.0
sVfaso
p3142
F0.0
sVsuit
p3143
F4.380606438327325e-05
sVforward
p3144
F0.0
sVwonderfully
p3145
F0.0
sVtranslate
p3146
F7.144461378954724e-05
sVmundane
p3147
F0.0
sVelsewhere
p3148
F0.00021433384136864168
sVwnd
p3149
F0.0
sVjewish
p3150
F0.0
sVposter
p3151
F7.144461378954724e-05
sVmemory
p3152
F0.00030402404346901383
sVmitigate
p3153
F0.0
sVpsychoactive
p3154
F0.0
sVpotency
p3155
F0.0
sVlink
p3156
F0.0002628363862996395
sVlibrary
p3157
F0.00013141819314981974
sVpromazine
p3158
F0.0
sV3am
p3159
F0.0
sVtryptophan
p3160
F0.0
sVline
p3161
F8.08375748849963e-05
sVharangue
p3162
F0.0
sVmineral
p3163
F7.144461378954724e-05
sVinfo
p3164
F0.00021433384136864168
sVmych
p3165
F0.0
sVuti
p3166
F0.0
sVup
p3167
F0.0
sVpsychosis
p3168
F0.0
sVum
p3169
F4.380606438327325e-05
sVun
p3170
F1.616751497699926e-05
sVcautiously
p3171
F7.144461378954724e-05
sVuh
p3172
F8.291564821882195e-05
sVuk
p3173
F0.00021433384136864168
sVpineal
p3174
F0.0
sVhighlight
p3175
F7.144461378954724e-05
sVz
p3176
F0.0005715569103163779
sVsimilar
p3177
F0.00021017769470099034
sValarm
p3178
F0.0002628363862996395
sVparoxetine
p3179
F0.0
sVtricyclic
p3180
F0.0
sVconstant
p3181
F8.76121287665465e-05
sVmohltc
p3182
F0.0
sVmindful
p3183
F0.0
sVbarbituate
p3184
F0.0
sVnepotism
p3185
F0.0
sVrecommendation
p3186
F0.00014288922757909448
sVunsafe
p3187
F7.144461378954724e-05
sVhaunt
p3188
F0.0
sVdoesn
p3189
F0.000407113807586485
sVdeprive
p3190
F0.0
sVsingle
p3191
F5.0889225948310626e-05
sVcure
p3192
F0.00042866768273728336
sV10hours
p3193
F0.0
sVkidney
p3194
F0.00014288922757909448
sV87
p3195
F0.0
sVshaky
p3196
F0.0
sV6th
p3197
F7.144461378954724e-05
sVadjudicate
p3198
F0.0
sVuser
p3199
F0.00013141819314981974
sVoccasional
p3200
F0.0
sVclub
p3201
F0.00014288922757909448
sVnap
p3202
F0.0
sVelectrical
p3203
F7.144461378954724e-05
sVnaw
p3204
F7.144461378954724e-05
sVaunt
p3205
F0.0
sVmaisonikkoku
p3206
F0.0
sVnice
p3207
F0.0
sVunderweight
p3208
F0.0
sVdraw
p3209
F1.4539778842374465e-05
sVprozasin
p3210
F0.0
sVenergetic
p3211
F0.0
sV450mg
p3212
F0.0
sVmisfill
p3213
F0.0
sVlucid
p3214
F0.0
sVunderstatement
p3215
F0.0
sVativan
p3216
F0.0
sVresign
p3217
F0.0
sVluxurious
p3218
F7.144461378954724e-05
sVinflame
p3219
F0.0
sVdrag
p3220
F8.08375748849963e-05
sVvisibility
p3221
F7.144461378954724e-05
sVutterly
p3222
F7.144461378954724e-05
sVruthlessly
p3223
F0.0
sVamphetamine
p3224
F0.0
sVstructure
p3225
F7.144461378954724e-05
sVmood
p3226
F0.001051345545198558
sVfurthest
p3227
F0.0
sVindependently
p3228
F0.0
sVland
p3229
F2.1809668263561696e-05
sVe
p3230
F7.996878363305956e-05
sVmetabolize
p3231
F0.0
sVconfirm
p3232
F0.0002628363862996395
sValongside
p3233
F4.380606438327325e-05
sV2002
p3234
F4.380606438327325e-05
sVasap
p3235
F0.0
sVbeverage
p3236
F0.00021433384136864168
sV2007
p3237
F0.0
sV2005
p3238
F7.144461378954724e-05
sVpsychiatry
p3239
F0.0
sVfresh
p3240
F2.7638549406273987e-05
sV2008
p3241
F0.0
sV2009
p3242
F0.0
sVkip
p3243
F0.0
sVgeuss
p3244
F0.0
sVcode
p3245
F8.76121287665465e-05
sVpartial
p3246
F0.00014288922757909448
sVgp
p3247
F0.0
sVpsychotic
p3248
F0.0005715569103163779
sVproduce
p3249
F8.76121287665465e-05
sVoverly
p3250
F7.144461378954724e-05
sVpsyche
p3251
F0.0
sVpsilocybin
p3252
F0.0
sVaddyi
p3253
F0.0
sVhyper
p3254
F0.0
sVhypothyroidism
p3255
F0.0
sVaugust
p3256
F0.0
sVgo
p3257
F0.0
sVflashback
p3258
F0.0
sVmoon
p3259
F0.00013141819314981974
sVgi
p3260
F0.0
sVphenomenon
p3261
F0.0
sVcruiser
p3262
F7.144461378954724e-05
sVbehoove
p3263
F7.144461378954724e-05
sVflexeril
p3264
F0.0
sVpeanut
p3265
F7.144461378954724e-05
sVyoung
p3266
F2.907955768474893e-05
sVsend
p3267
F0.0002263452096779896
sVintensive
p3268
F7.144461378954724e-05
sVculinary
p3269
F0.0
sVyuck
p3270
F0.0
sVstable
p3271
F0.00021433384136864168
sVbreach
p3272
F0.0
sVinclude
p3273
F0.000525672772599279
sVdeficit
p3274
F0.0
sVpekka
p3275
F0.0
sVfamily
p3276
F0.0005251324387192057
sVrandom
p3277
F0.0002628363862996395
sVdebilitatingly
p3278
F0.0
sVoutside
p3279
F7.269889421187233e-05
sVwave
p3280
F5.5277098812547974e-05
sVspoon
p3281
F7.144461378954724e-05
sVhomeosthasis
p3282
F0.0
sVsurgeon
p3283
F0.0
sVsyntax
p3284
F7.144461378954724e-05
sVwipe
p3285
F4.380606438327325e-05
sVarrange
p3286
F7.144461378954724e-05
sVtimely
p3287
F0.0
sVentire
p3288
F0.0001658312964376439
sVmagic
p3289
F4.380606438327325e-05
sVschoolwork
p3290
F0.0
sVantihistaminergic
p3291
F0.0
sVmarry
p3292
F2.7638549406273987e-05
sVshock
p3293
F0.000175224257533093
sVmichael
p3294
F0.0
sVfewer
p3295
F0.00021433384136864168
sVracy
p3296
F0.0
sVtry
p3297
F0.0008651168411212806
sVtenderness
p3298
F0.0
sVrace
p3299
F0.0005001122965268306
sVcongrats
p3300
F0.0
sVblabbity
p3301
F0.0
sVaffective
p3302
F0.0
sVimgur
p3303
F0.0
sVhavent
p3304
F0.0
sVride
p3305
F5.5277098812547974e-05
sVdisclaimer
p3306
F7.144461378954724e-05
sVsomeday
p3307
F7.144461378954724e-05
sVcfm
p3308
F7.144461378954724e-05
sVstockpile
p3309
F0.0
sVvisuals
p3310
F0.0
sVcptsd
p3311
F0.0
sVsensation
p3312
F0.0
sVcrop
p3313
F0.0
sVdisolvable
p3314
F0.0
sVjump
p3315
F0.00011055419762509595
sVvideo
p3316
F0.00021903032191636625
sVuncomfortable
p3317
F0.00028577845515818896
sVsleepytime
p3318
F0.0
sVhppd
p3319
F0.0
sVdispensary
p3320
F0.0
sVacid
p3321
F0.000175224257533093
sVodd
p3322
F1.616751497699926e-05
sVclick
p3323
F5.5277098812547974e-05
sVfolk
p3324
F0.00014288922757909448
sVindex
p3325
F0.00021433384136864168
sVturn
p3326
F0.0001616751497699926
sV3x
p3327
F0.0
sVbusiness
p3328
F2.1809668263561696e-05
sVjunior
p3329
F0.0
sVshowcase
p3330
F0.0
sVsadden
p3331
F0.0
sVexacerbate
p3332
F0.0
sVhomwork
p3333
F0.0
sVconsistently
p3334
F0.00021433384136864168
sV500
p3335
F0.00014288922757909448
sVexercise
p3336
F0.001571781503370039
sVthin
p3337
F2.7638549406273987e-05
sVbody
p3338
F0.0001599375672661191
sVdiazepam
p3339
F0.0
sVhypothesis
p3340
F0.00014288922757909448
sVsept
p3341
F0.0
sVdegree
p3342
F0.00021903032191636625
sVleg
p3343
F0.0001658312964376439
sVbackstory
p3344
F0.0
sVdarknet
p3345
F0.0
sVprescribe
p3346
F0.006787238310006987
sVnonexistent
p3347
F7.144461378954724e-05
sVyoungest
p3348
F7.144461378954724e-05
sVgm
p3349
F0.0
sVpoverty
p3350
F7.144461378954724e-05
sVzopiclone
p3351
F0.0
sVothers
p3352
F0.0003233502995399852
sVtremor
p3353
F0.0
sVsafer
p3354
F0.0
sVphysiology
p3355
F0.0
sVextreme
p3356
F8.291564821882195e-05
sVgreat
p3357
F0.0
sVtalent
p3358
F4.380606438327325e-05
sVperscribe
p3359
F0.0
sVnumbness
p3360
F0.0
sVreceive
p3361
F0.00028577845515818896
sVaweful
p3362
F0.0
sV31
p3363
F8.76121287665465e-05
sV30
p3364
F0.000565863024194974
sVleavenworth
p3365
F0.0
sV36
p3366
F8.76121287665465e-05
sV12am
p3367
F0.0
sVdefeat
p3368
F7.144461378954724e-05
sVprincipally
p3369
F0.0
sVopinion
p3370
F0.00028577845515818896
sVclimb
p3371
F8.76121287665465e-05
sVdepressant
p3372
F0.0
sVpajama
p3373
F0.0
sVthats
p3374
F4.380606438327325e-05
sVholmes
p3375
F0.0
sValtho
p3376
F0.0
sVstabilization
p3377
F0.0
sVheart
p3378
F0.0001934698458439179
sVwin
p3379
F0.0005804095375317537
sVcharge
p3380
F4.380606438327325e-05
sVmanage
p3381
F0.0001658312964376439
sVminnesota
p3382
F0.0
sVannoy
p3383
F0.00028577845515818896
sVdecrease
p3384
F0.000643001524105925
sVapply
p3385
F4.380606438327325e-05
sVthick
p3386
F2.7638549406273987e-05
sVcloud
p3387
F0.0
sVminuteclinic
p3388
F0.0
sVuse
p3389
F0.0010832135237568974
sVtcas
p3390
F0.0
sVcrap
p3391
F0.000175224257533093
sVstream
p3392
F7.144461378954724e-05
sVconsumption
p3393
F7.144461378954724e-05
sVreadyfill
p3394
F0.0
sVillegal
p3395
F7.144461378954724e-05
sVdruggies
p3396
F7.144461378954724e-05
sVnext
p3397
F0.00028352568742630205
sVmodicum
p3398
F0.0
sVdoubt
p3399
F9.700508986199554e-05
sVlength
p3400
F7.2698894211872325e-06
sVdishevel
p3401
F0.0
sVchip
p3402
F7.144461378954724e-05
sVsort
p3403
F0.00011631823073899572
sVpfc
p3404
F0.0
sVfrighten
p3405
F7.144461378954724e-05
sVinfection
p3406
F0.00028577845515818896
sVtrail
p3407
F7.144461378954724e-05
sVtrain
p3408
F0.0003572230689477362
sV90mg
p3409
F0.0
sVbaby
p3410
F0.000175224257533093
sV4am
p3411
F0.0
sVinattentive
p3412
F0.00014288922757909448
sViii
p3413
F0.0
sVamygdala
p3414
F0.0
sVcustomer
p3415
F7.144461378954724e-05
sVtopic
p3416
F0.000175224257533093
sVaccount
p3417
F4.380606438327325e-05
sVgeodon
p3418
F0.0
sVf
p3419
F4.380606438327325e-05
sVchallenge
p3420
F0.00014288922757909448
sVexacerbation
p3421
F0.0
sVstroke
p3422
F7.144461378954724e-05
sVanywhere
p3423
F1.616751497699926e-05
sVobvious
p3424
F8.291564821882195e-05
sVstabilizer
p3425
F0.0
sVretreat
p3426
F7.144461378954724e-05
sVmeet
p3427
F0.000350448515066186
sVinhibitor
p3428
F0.0
sVdidnt
p3429
F7.144461378954724e-05
sVscatter
p3430
F0.0
sVproof
p3431
F0.0
sVcontrol
p3432
F0.0016208243821811102
sVweaker
p3433
F7.144461378954724e-05
sVchlorphenimine
p3434
F0.0
sVprocess
p3435
F0.00030664245068291274
sVlock
p3436
F2.7638549406273987e-05
sVmegapost
p3437
F0.0
sVhigh
p3438
F0.0
sVeffectively
p3439
F0.0
sVsomething
p3440
F0.0005888610431161658
sVslip
p3441
F0.00021433384136864168
sVdietician
p3442
F0.0
sVboner
p3443
F0.0
sVperma
p3444
F0.0
sVvoice
p3445
F0.0004380606438327325
sVdominant
p3446
F0.0
sVhesitate
p3447
F0.0
sVeducational
p3448
F0.0
sVsip
p3449
F7.144461378954724e-05
sVsyndrome
p3450
F0.000350448515066186
sVlame
p3451
F0.00014288922757909448
sVtrazadone
p3452
F0.0
sVsix
p3453
F0.0004818667082160057
sVfortunate
p3454
F0.0
sVdelay
p3455
F8.76121287665465e-05
sVarthritis
p3456
F0.0
sVoveranalyzing
p3457
F0.0
sVaurorix
p3458
F0.0
sVamtriptyline
p3459
F0.0
sVanimal
p3460
F3.233502995399852e-05
sVinstead
p3461
F0.0002487469446564659
sVcomedy
p3462
F7.144461378954724e-05
sVintelligent
p3463
F4.380606438327325e-05
sVstock
p3464
F5.5277098812547974e-05
sVprofile
p3465
F0.00039425457944945925
sVde
p3466
F7.2698894211872325e-06
sVlesion
p3467
F0.0
sVitty
p3468
F0.0
sVwatch
p3469
F0.0
sVphilosophy
p3470
F7.144461378954724e-05
sVneurotin
p3471
F0.0
sVhaziness
p3472
F0.0
sVnullify
p3473
F0.0
sVfart
p3474
F0.00013141819314981974
sVindependent
p3475
F4.380606438327325e-05
sVabuse
p3476
F0.00042866768273728336
sVfatigue
p3477
F0.0
sVtier
p3478
F0.0
sVdufreine
p3479
F0.0
sVphysic
p3480
F0.0
sVdrape
p3481
F0.0
sVdaycare
p3482
F7.144461378954724e-05
sVbind
p3483
F0.0
sVcounter
p3484
F0.0005694788369825523
sVcorrespond
p3485
F0.0
sVelement
p3486
F5.5277098812547974e-05
sVhonestly
p3487
F0.00039425457944945925
sVhitter
p3488
F0.0
sVallow
p3489
F0.000928779979264114
sVtamper
p3490
F0.0
sVsubsequently
p3491
F0.0
sVcampral
p3492
F0.0
sVfuckup
p3493
F0.0
sVirregularity
p3494
F0.0
sVcr
p3495
F0.00021433384136864168
sVserotonergic
p3496
F0.0
sVhouston
p3497
F0.0
sVunderstate
p3498
F0.0
sVdiminish
p3499
F0.0
sVyoun
p3500
F0.0
sVinsight
p3501
F0.00014288922757909448
sVreport
p3502
F0.0006570909657490987
sVemsam
p3503
F0.0
sVgunman
p3504
F0.0
sV135
p3505
F0.0
sVarrangement
p3506
F0.0
sVhappiest
p3507
F0.0
sVbunch
p3508
F8.291564821882195e-05
sVperfect
p3509
F4.380606438327325e-05
sVwrite
p3510
F0.00025868023963198815
sVle
p3511
F0.0026434507102132475
sVantipsychotic
p3512
F0.0
sVla
p3513
F2.907955768474893e-05
sVll
p3514
F0.0005815911536949786
sVshudder
p3515
F0.0
sVage
p3516
F0.0006467005990799704
sVdigoxin
p3517
F0.0
sVchoose
p3518
F0.0001934698458439179
sV2015
p3519
F0.0
sV2014
p3520
F0.0
sVholiday
p3521
F4.380606438327325e-05
sV2011
p3522
F0.0
sVerowid
p3523
F0.0
sV2012
p3524
F0.0
sVdad
p3525
F2.7638549406273987e-05
sVflex
p3526
F7.144461378954724e-05
sVcrash
p3527
F0.00013819274703136993
sVgreater
p3528
F0.000350448515066186
sVdab
p3529
F0.0
sVauto
p3530
F0.00042866768273728336
sVspell
p3531
F0.00013141819314981974
sVship
p3532
F1.616751497699926e-05
sVfunctional
p3533
F7.144461378954724e-05
sVdat
p3534
F2.7638549406273987e-05
sVmention
p3535
F0.0005804095375317537
sVdaw
p3536
F0.0
sVsonata
p3537
F0.0
sVambition
p3538
F7.144461378954724e-05
sVfront
p3539
F9.700508986199554e-05
sVcircadian
p3540
F0.0
sVday
p3541
F0.0
sVfebruary
p3542
F0.0
sVprofound
p3543
F7.144461378954724e-05
sVedit
p3544
F0.0008573353654745667
sVpanic
p3545
F0.0
sVpreclude
p3546
F0.0
sVdextromethorphan
p3547
F0.0
sVflunitrazepam
p3548
F0.0
sVsufficiently
p3549
F0.0
sVcondense
p3550
F0.0
sVweather
p3551
F2.7638549406273987e-05
sVtrap
p3552
F0.0
sVtruth
p3553
F0.000175224257533093
sVreceptor
p3554
F0.0
sVpint
p3555
F0.00014288922757909448
sVtraz
p3556
F0.0
sVactivate
p3557
F4.380606438327325e-05
sVp
p3558
F5.5277098812547974e-05
sVdetermine
p3559
F7.144461378954724e-05
sVmultivitamin
p3560
F0.0
sVbump
p3561
F0.0
sVcelexa
p3562
F0.0
sVstrip
p3563
F8.76121287665465e-05
sVproduct
p3564
F0.000175224257533093
sVweening
p3565
F0.0
sVsociety
p3566
F0.00013141819314981974
sVjunkie
p3567
F7.144461378954724e-05
sVmeta
p3568
F4.380606438327325e-05
sVstatic
p3569
F0.00014288922757909448
sVmeasure
p3570
F0.00013819274703136993
sVprogrammer
p3571
F0.0
sVbay
p3572
F4.380606438327325e-05
sVsexual
p3573
F0.00042866768273728336
sVwander
p3574
F7.144461378954724e-05
sVspecial
p3575
F2.907955768474893e-05
sVirrational
p3576
F0.0
sVillegitimate
p3577
F7.144461378954724e-05
sVtwice
p3578
F0.0003316625928752878
sVspectrum
p3579
F0.0
sVkeystroke
p3580
F7.144461378954724e-05
sVrep
p3581
F7.144461378954724e-05
sVyup
p3582
F0.0
sVhypo
p3583
F0.0
sVplethora
p3584
F0.0
sVupset
p3585
F0.00014288922757909448
sVescalate
p3586
F0.0
sVhorizonal
p3587
F0.0
sVsituational
p3588
F0.0
sVrem
p3589
F0.0
sVlecture
p3590
F0.0
sVelectronics
p3591
F0.00014288922757909448
sVweeknight
p3592
F0.0
sVcause
p3593
F0.0004943524806407318
sVred
p3594
F2.907955768474893e-05
sVshut
p3595
F4.850254493099777e-05
sVworkflow
p3596
F0.0
sVwithdrawal
p3597
F0.0
sV8g
p3598
F0.0
sVpromptly
p3599
F0.0
sVfourteen
p3600
F7.144461378954724e-05
sVban
p3601
F0.0
sVunipolar
p3602
F0.0
sVect
p3603
F0.0
sVsurely
p3604
F7.144461378954724e-05
sVyork
p3605
F0.0
sVtempt
p3606
F0.0
sVafterward
p3607
F0.0
sVadditional
p3608
F4.380606438327325e-05
sVscary
p3609
F0.00021433384136864168
sV50mg
p3610
F0.0
sVinteraction
p3611
F0.0008573353654745667
sVyard
p3612
F0.0
sVg
p3613
F2.7638549406273987e-05
sVcould
p3614
F0.0
sVask
p3615
F0.0004652729229559829
sVstereotype
p3616
F7.144461378954724e-05
sVkeep
p3617
F0.00038530413932292326
sVcounterpart
p3618
F0.0
sVkeen
p3619
F4.380606438327325e-05
sVsleeplessness
p3620
F0.0
sVshred
p3621
F0.0
sVneed
p3622
F0.0006106707113797275
sVfacilitate
p3623
F0.0
sVstimulate
p3624
F0.0
sVsouth
p3625
F8.291564821882195e-05
sVdexedrine
p3626
F0.0
sVconsciously
p3627
F0.0
sVexam
p3628
F0.00021433384136864168
sVthird
p3629
F7.269889421187233e-05
sVconfuse
p3630
F0.00021903032191636625
sVscene
p3631
F2.7638549406273987e-05
sVmadden
p3632
F0.0
sVhurdle
p3633
F0.0
sVbitch
p3634
F0.00028577845515818896
sVmglur
p3635
F0.0
sVquality
p3636
F0.0003593011422815618
sVstraight
p3637
F6.542900479068509e-05
sVpilate
p3638
F0.0
sVsadly
p3639
F0.0
sVdump
p3640
F4.380606438327325e-05
sV10x
p3641
F0.0
sVstrict
p3642
F0.00028577845515818896
sVprostate
p3643
F7.144461378954724e-05
sVhabit
p3644
F0.0
sVaccent
p3645
F5.5277098812547974e-05
sVsystem
p3646
F0.0002748477546089874
sVoffset
p3647
F0.00014288922757909448
sVeighth
p3648
F7.144461378954724e-05
sVclomipramine
p3649
F0.0
sVattach
p3650
F7.144461378954724e-05
sVattack
p3651
F0.0003071827845629859
sVnbome
p3652
F0.0
sVsergeant
p3653
F0.0
sVintelligence
p3654
F0.0
sVdrool
p3655
F0.0
sVperfectly
p3656
F5.5277098812547974e-05
sVenantomers
p3657
F0.0
sVpainful
p3658
F0.0
sVprone
p3659
F0.0
sVprivatehealth
p3660
F0.0
sVshell
p3661
F4.380606438327325e-05
sVaccompany
p3662
F0.0
sVmisspell
p3663
F0.0
sValopecia
p3664
F0.0
sVacademy
p3665
F7.144461378954724e-05
sVexplanation
p3666
F7.144461378954724e-05
sVnobody
p3667
F4.380606438327325e-05
sVvouch
p3668
F0.0
sVndc
p3669
F0.0
sVfuzzy
p3670
F0.0
sV192lbs
p3671
F0.0
sVhaven
p3672
F0.0003395178145169844
sVremember
p3673
F0.0002471762403203659
sVdevelop
p3674
F0.0002628363862996395
sVslack
p3675
F0.0
sVpinelake
p3676
F0.0
sVsplit
p3677
F2.7638549406273987e-05
sVbother
p3678
F4.380606438327325e-05
sVyoutube
p3679
F0.0
sVclonodine
p3680
F0.0
sVopiate
p3681
F0.0
sVlight
p3682
F0.0002748477546089874
sVspurt
p3683
F0.0
sVvendor
p3684
F4.380606438327325e-05
sVtyrosine
p3685
F0.0
sVsteer
p3686
F0.0
sVresult
p3687
F0.0005694788369825523
sVbeter
p3688
F0.0
sVfalse
p3689
F2.7638549406273987e-05
sVlightly
p3690
F7.144461378954724e-05
sVunchanged
p3691
F0.0
sVbipolar
p3692
F0.0007144461378954724
sVgently
p3693
F0.00014288922757909448
sVcomfortable
p3694
F0.00013141819314981974
sVtonight
p3695
F0.00021903032191636625
sVgentle
p3696
F0.00011055419762509595
sVcomfortably
p3697
F4.380606438327325e-05
sVunlikely
p3698
F0.0
sVhave
p3699
F0.0
sVthroat
p3700
F4.850254493099777e-05
sVinduce
p3701
F0.0
sVdementia
p3702
F0.0
sVapparently
p3703
F8.291564821882195e-05
sVclearly
p3704
F8.291564821882195e-05
sVscrew
p3705
F0.00013141819314981974
sVafraid
p3706
F9.700508986199554e-05
sVmin
p3707
F0.00028577845515818896
sVagency
p3708
F7.144461378954724e-05
sVcleveland
p3709
F0.0
sVmid
p3710
F8.291564821882195e-05
sVmechanism
p3711
F0.0
sVadjunct
p3712
F0.0
sVmix
p3713
F0.0003593011422815618
sVasshole
p3714
F0.00014288922757909448
sVpharmacist
p3715
F0.0
sVcoke
p3716
F0.00014288922757909448
sVtoughest
p3717
F0.0
sVlecturer
p3718
F0.0
sVregard
p3719
F0.0
sVunless
p3720
F0.0003869396916878358
sVprednisone
p3721
F0.0
sVcombat
p3722
F0.0
sVtaker
p3723
F7.144461378954724e-05
sVhealthcare
p3724
F0.0
sVminneapolis
p3725
F0.0
sVharmful
p3726
F0.0
sVuseful
p3727
F0.0003572230689477362
sVnarcolepsy
p3728
F7.144461378954724e-05
sVeight
p3729
F0.00011055419762509595
sVlidocaine
p3730
F0.0
sVlunesta
p3731
F0.0
sVdevice
p3732
F2.7638549406273987e-05
sVaddiction
p3733
F0.0
sVpolice
p3734
F0.00021903032191636625
sVduloxetine
p3735
F0.0
sVdiscourage
p3736
F0.0
sVhyperthyroidism
p3737
F0.0
sVgather
p3738
F8.76121287665465e-05
sVstronger
p3739
F0.00042866768273728336
sVdisease
p3740
F0.00039425457944945925
sVface
p3741
F3.233502995399852e-05
sVdesvenlafaxine
p3742
F0.0
sVdistinctive
p3743
F0.0
sVnorth
p3744
F2.7638549406273987e-05
sVoccasion
p3745
F8.76121287665465e-05
sVskinny
p3746
F7.144461378954724e-05
sVtypical
p3747
F0.00021903032191636625
sVnormally
p3748
F0.000175224257533093
sVaway
p3749
F0.0
sVfact
p3750
F0.0003316625928752878
sV30pm
p3751
F0.0
sVtext
p3752
F8.76121287665465e-05
sVanyway
p3753
F0.0004422167905003838
sVsublingual
p3754
F0.0
sVvistaril
p3755
F0.0
sVbring
p3756
F7.996878363305956e-05
sVbedroom
p3757
F7.144461378954724e-05
sVrough
p3758
F8.76121287665465e-05
sV2013
p3759
F0.0
sVtrivial
p3760
F0.0
sVdbt
p3761
F0.0
sVdecade
p3762
F0.00021903032191636625
sVcostco
p3763
F0.0
sVknowledge
p3764
F8.76121287665465e-05
sVtire
p3765
F0.0007447030945156452
sVprescriber
p3766
F0.0
sVnitrous
p3767
F0.0
sVhopeful
p3768
F0.0
sVclomiphene
p3769
F0.0
sVeat
p3770
F0.0004526904193559792
sVprolong
p3771
F0.0
sV60mg
p3772
F0.0
sVjam
p3773
F4.850254493099777e-05
sVcombo
p3774
F0.0005715569103163779
sVfuel
p3775
F0.0
sVb
p3776
F8.08375748849963e-05
sVlocal
p3777
F0.00021903032191636625
sVhope
p3778
F0.00013812789900255742
sVregularly
p3779
F0.00014288922757909448
sVmove
p3780
F0.0003316625928752878
sVhandle
p3781
F0.00021017769470099034
sVpharmacology
p3782
F0.0
sVundivided
p3783
F0.0
sVbeat
p3784
F5.5277098812547974e-05
sVfamiliar
p3785
F0.000175224257533093
sVwhatnot
p3786
F0.0
sVoverall
p3787
F0.0005715569103163779
sVlucky
p3788
F0.00013819274703136993
sVbear
p3789
F8.76121287665465e-05
sVlikely
p3790
F0.0007144461378954724
sV120
p3791
F0.0
sVjoint
p3792
F0.00014288922757909448
sVlittleton
p3793
F0.0
sVmalaise
p3794
F0.0
sVnonfatal
p3795
F0.0
sVjpg
p3796
F8.76121287665465e-05
sVabilify
p3797
F0.0
sVymmv
p3798
F0.0
sVhydroxizine
p3799
F0.0
sVantagonist
p3800
F0.0
sVht2b
p3801
F0.0
sVqt
p3802
F7.144461378954724e-05
sVtobacco
p3803
F8.76121287665465e-05
sVht2a
p3804
F0.0
sVupper
p3805
F0.00014288922757909448
sVh
p3806
F2.7638549406273987e-05
sVsummon
p3807
F7.144461378954724e-05
sVstuff
p3808
F0.0009673492292195895
sVblogspot
p3809
F0.0
sVdallas
p3810
F0.0
sVwish
p3811
F0.00030402404346901383
sVgrab
p3812
F2.7638549406273987e-05
sVpiss
p3813
F0.0003572230689477362
sVgrad
p3814
F7.144461378954724e-05
sVconduct
p3815
F0.0
sVgabapentin
p3816
F0.0
sVenhancer
p3817
F0.0
sVavailable
p3818
F0.0004974938893129318
sVbtw
p3819
F0.0
sVtemporarily
p3820
F7.144461378954724e-05
sVgroggy
p3821
F0.0
sVaccord
p3822
F0.0
sVbreathe
p3823
F0.00042866768273728336
sVintensity
p3824
F7.144461378954724e-05
sVcomputer
p3825
F0.00030664245068291274
sVrecently
p3826
F0.0002263452096779896
sVdysmorphia
p3827
F0.0
sVbth
p3828
F0.0
sVdanger
p3829
F4.850254493099777e-05
sVcloset
p3830
F0.00014288922757909448
sVpattern
p3831
F0.0
sVnightmare
p3832
F0.00046985533990665776
sVillusory
p3833
F0.0
sVtend
p3834
F0.0007858907516850195
sVstate
p3835
F0.0003593011422815618
sVdoxepin
p3836
F0.0
sVcorrectly
p3837
F8.291564821882195e-05
sVroutine
p3838
F0.00030664245068291274
sVprogress
p3839
F4.850254493099777e-05
sVneither
p3840
F4.380606438327325e-05
sVsabotage
p3841
F0.0
sVmainly
p3842
F0.00013141819314981974
sVpbrs
p3843
F0.0
sVexplosive
p3844
F0.0
sVbed
p3845
F0.0025845577986131217
sVparadoxically
p3846
F7.144461378954724e-05
sVimportance
p3847
F0.0
sVjoy
p3848
F8.76121287665465e-05
sVdeliver
p3849
F4.380606438327325e-05
sVhowever
p3850
F0.0013141819314981974
sVcourtyard
p3851
F0.0
sVefficiency
p3852
F0.0
sVjob
p3853
F0.00027638549406273986
sVcomplicate
p3854
F0.0
sVshittiest
p3855
F7.144461378954724e-05
sVmerry
p3856
F0.0
sVdemonstrate
p3857
F7.144461378954724e-05
sVdisconnect
p3858
F7.144461378954724e-05
sVnutreal
p3859
F0.0
sVsuccesful
p3860
F0.0
sVmonitor
p3861
F0.00014288922757909448
sVempathy
p3862
F0.0
sVakathisia
p3863
F0.0
sVcareer
p3864
F4.380606438327325e-05
sVjoke
p3865
F8.76121287665465e-05
sVgram
p3866
F0.0
sVramp
p3867
F0.0
sVdrug
p3868
F0.00021433384136864168
sVetc
p3869
F0.0001817472355296808
sVadmit
p3870
F0.0
sVpredispose
p3871
F0.0
sVbehaviour
p3872
F4.380606438327325e-05
sVswallow
p3873
F0.00013141819314981974
sVplacebo
p3874
F0.0
sVsafely
p3875
F7.144461378954724e-05
sVjourney
p3876
F0.0
sVreactivity
p3877
F0.0
sVcomment
p3878
F0.00039425457944945925
sVrelevant
p3879
F0.0
sVindica
p3880
F0.0
sVperiodic
p3881
F7.144461378954724e-05
sVwall
p3882
F0.00013141819314981974
sVca
p3883
F7.144461378954724e-05
sVcf
p3884
F0.00014288922757909448
sVmidazolam
p3885
F0.0
sVlaugh
p3886
F5.5277098812547974e-05
sV00pm
p3887
F0.0
sVrph
p3888
F0.0
sVpulmonary
p3889
F0.0
sVcv
p3890
F0.0
sVscanner
p3891
F0.0
sVmeantime
p3892
F0.00014288922757909448
sVhawkins
p3893
F0.0
sVsari
p3894
F0.0
sVyay
p3895
F0.0
sVstupor
p3896
F0.0
sVaddition
p3897
F0.0003572230689477362
sVdecent
p3898
F5.5277098812547974e-05
sVnaltrexone
p3899
F0.0
sVbbc
p3900
F7.144461378954724e-05
sVbbb
p3901
F0.0
sVcent
p3902
F0.00014288922757909448
sVsnort
p3903
F7.144461378954724e-05
sVrestless
p3904
F0.0
sVpermanent
p3905
F5.5277098812547974e-05
sVhellish
p3906
F0.0
sVdrowsy
p3907
F0.0
sVah
p3908
F0.0
sVcurtain
p3909
F0.0
sVkitchen
p3910
F7.144461378954724e-05
sVpsychotherapist
p3911
F0.0
sVsufficient
p3912
F0.0
sVotc
p3913
F0.0
sVanorgasmia
p3914
F0.0
sV250mg
p3915
F0.0
sVcontroller
p3916
F0.0
sVperscribed
p3917
F0.0
sVao
p3918
F0.0
sVgun
p3919
F8.76121287665465e-05
sVhobby
p3920
F7.144461378954724e-05
sVprescription
p3921
F0.0
sVfellow
p3922
F0.00021433384136864168
sVspain
p3923
F0.0
sVvolunteer
p3924
F7.144461378954724e-05
sVmulti
p3925
F8.291564821882195e-05
sVoregon_sheriff_wrote_gun_control_is_not_the
p3926
F0.0
sVcouple
p3927
F0.0003233502995399852
sVirregular
p3928
F7.144461378954724e-05
sVunlike
p3929
F5.5277098812547974e-05
sVkava
p3930
F0.0
sVplain
p3931
F2.7638549406273987e-05
sVappearance
p3932
F2.7638549406273987e-05
sVas
p3933
F0.0
sVvalue
p3934
F0.00014550763479299333
sVmiddle
p3935
F0.00019401017972399108
sVplateaued
p3936
F0.0
sVweber
p3937
F0.0
sVhahaha
p3938
F0.0
sVhypertension
p3939
F0.0
sVultra
p3940
F0.0
sVdecongestant
p3941
F0.0
sVwatson
p3942
F7.144461378954724e-05
sVsupply
p3943
F7.144461378954724e-05
sVva
p3944
F0.00030664245068291274
sVcell
p3945
F2.7638549406273987e-05
sVmanually
p3946
F0.00021433384136864168
sValmost
p3947
F0.00013085800958137018
sVneuron
p3948
F0.0
sVthus
p3949
F8.76121287665465e-05
sVsurprisingly
p3950
F7.144461378954724e-05
sVencouragement
p3951
F0.0
sVzombified
p3952
F0.0
sVexcessively
p3953
F7.144461378954724e-05
sVdexxing
p3954
F0.0
sVpartner
p3955
F0.00013141819314981974
sVconserve
p3956
F0.0
sVavb
p3957
F0.0
sVdenial
p3958
F0.0
sVlet
p3959
F0.00023263646147799144
sVgeneric
p3960
F0.00042866768273728336
sVpristiq
p3961
F0.0
sVcross
p3962
F2.907955768474893e-05
sVcampus
p3963
F0.00014288922757909448
sVmember
p3964
F0.00021433384136864168
sVadverse
p3965
F0.0
sVstrange
p3966
F4.850254493099777e-05
sVflower
p3967
F0.0
sVparty
p3968
F0.0004380606438327325
sVdisorient
p3969
F0.0
sVdifficult
p3970
F0.00027638549406273986
sVball
p3971
F2.7638549406273987e-05
sVpractitioner
p3972
F0.0
sVemotionally
p3973
F0.00014288922757909448
sV3qotsj
p3974
F0.0
sVdrink
p3975
F0.00027625579800511483
sVupon
p3976
F8.08375748849963e-05
sVeffect
p3977
F0.0004870825912195445
sVphd
p3978
F0.0
sVnightly
p3979
F0.00021433384136864168
sVapp
p3980
F0.00021433384136864168
sVstudent
p3981
F0.001051345545198558
sVdust
p3982
F7.144461378954724e-05
sVfrequently
p3983
F0.00014288922757909448
sVphp
p3984
F0.00014288922757909448
sVjudgment
p3985
F0.00014288922757909448
sVidentity
p3986
F7.144461378954724e-05
sVretard
p3987
F7.144461378954724e-05
sVcenter
p3988
F8.291564821882195e-05
sVlunch
p3989
F5.5277098812547974e-05
sVshotgun
p3990
F0.00014288922757909448
sVusual
p3991
F0.00028577845515818896
sVwell
p3992
F0.0
sVthought
p3993
F0.00021017769470099034
sVidiot
p3994
F7.144461378954724e-05
sVinsurmountable
p3995
F0.0
sV1
p3996
F0.000312605245111051
sVsecrete
p3997
F0.0
sVposition
p3998
F3.233502995399852e-05
sVpublicize
p3999
F0.0
sVaudio
p4000
F7.144461378954724e-05
sVrush
p4001
F2.7638549406273987e-05
sVfetal
p4002
F0.0
sVrestore
p4003
F7.144461378954724e-05
sVnewest
p4004
F7.144461378954724e-05
sVrocket
p4005
F0.0
sVheavily
p4006
F0.00021903032191636625
sVbiological
p4007
F0.0
sVobtain
p4008
F0.0
sVdetail
p4009
F0.00021903032191636625
sVrecollection
p4010
F7.144461378954724e-05
sVskill
p4011
F0.0
sVillinois
p4012
F0.0
sVhappiness
p4013
F7.144461378954724e-05
sVtca
p4014
F0.0
sVbegin
p4015
F0.00041457824109410976
sVgenerous
p4016
F4.380606438327325e-05
sVdisturbance
p4017
F0.00014288922757909448
sV750mg
p4018
F0.0
sVfield
p4019
F7.144461378954724e-05
sVpodcast
p4020
F0.0
sVjeff
p4021
F0.0
sVsky
p4022
F4.380606438327325e-05
sVlake
p4023
F0.00014288922757909448
sVrealize
p4024
F0.0007858907516850195
sVarrest
p4025
F4.380606438327325e-05
sVadd
p4026
F0.0007186022845631237
sVkwan
p4027
F0.0
sVcombine
p4028
F0.00039425457944945925
sVcrack
p4029
F4.380606438327325e-05
sVreason
p4030
F0.0003233502995399852
sVramelteon
p4031
F0.0
sVpractise
p4032
F0.0
sVhomework
p4033
F0.00021433384136864168
sVbenzodiazepams
p4034
F0.0
sVcalarifuvatiob
p4035
F0.0
sVallforms
p4036
F0.0
sVterm
p4037
F0.0007738793833756716
sVcrux
p4038
F0.0
sVfive
p4039
F5.815911536949786e-05
sVseizure
p4040
F0.0
sVburden
p4041
F0.0
sVimmediately
p4042
F0.0001658312964376439
sVsimilair
p4043
F0.0
sVheight
p4044
F2.7638549406273987e-05
sVmuscle
p4045
F0.0003572230689477362
sVbenadryl
p4046
F0.0
sVtail
p4047
F2.7638549406273987e-05
sVnecessary
p4048
F0.0001131726048389948
sVlike
p4049
F0.0
sVsuccess
p4050
F0.0002628363862996395
sVsafest
p4051
F0.0
sValternatively
p4052
F0.00021433384136864168
sVring
p4053
F4.380606438327325e-05
sV11pm
p4054
F0.0
sVopenmenu
p4055
F0.0
sVloser
p4056
F0.0
sV28f
p4057
F0.0
sV24362450
p4058
F0.0
sVtranscranial
p4059
F0.0
sVnami
p4060
F0.0
sVamitryptiline
p4061
F0.0
sVbecome
p4062
F0.00018901712495086805
sVsoft
p4063
F4.850254493099777e-05
sVsprain
p4064
F0.0
sVtherapeutic
p4065
F0.0
sVdeviation
p4066
F0.0
sVklonopin
p4067
F0.0
sVdrop
p4068
F0.0002487469446564659
sVinteract
p4069
F0.00021433384136864168
sVstimulatin
p4070
F0.0
sVbriefly
p4071
F0.00021433384136864168
sValive
p4072
F1.616751497699926e-05
sVhair
p4073
F0.00013819274703136993
sVpregnancy
p4074
F0.00014288922757909448
sVrepeat
p4075
F0.00021433384136864168
sVpsyc
p4076
F0.0
sVproper
p4077
F3.233502995399852e-05
sVhome
p4078
F0.0003395178145169844
sVsupportive
p4079
F0.0
sVwerent
p4080
F0.0
sVpsychoanalyst
p4081
F0.0
sVpropofol
p4082
F0.0
sVlead
p4083
F0.0001131726048389948
sVunpredictable
p4084
F0.00021433384136864168
sVliterally
p4085
F0.0004380606438327325
sVavoid
p4086
F0.0002748477546089874
sVseparate
p4087
F0.00013141819314981974
sVinhibit
p4088
F0.0
sVpassion
p4089
F2.7638549406273987e-05
sVsnuggle
p4090
F0.0
sVlamictal
p4091
F0.0
sVlocate
p4092
F7.144461378954724e-05
sVnoise
p4093
F4.850254493099777e-05
sVinaccurate
p4094
F7.144461378954724e-05
sVschedule
p4095
F0.001214558434422303
sVslur
p4096
F0.0
sVjournal
p4097
F0.0
sVslut
p4098
F7.144461378954724e-05
sVability
p4099
F0.00013141819314981974
sVtae
p4100
F0.0
sVpressure
p4101
F0.0007858907516850195
sVhost
p4102
F2.7638549406273987e-05
sVexpire
p4103
F7.144461378954724e-05
sValthough
p4104
F0.0002748477546089874
sVworthy
p4105
F4.380606438327325e-05
sVpasta
p4106
F7.144461378954724e-05
sVentirely
p4107
F3.233502995399852e-05
sVstage
p4108
F2.7638549406273987e-05
sVsister
p4109
F0.00013141819314981974
sVlifestyle
p4110
F7.144461378954724e-05
sV6am
p4111
F0.0
sVfreedom
p4112
F2.7638549406273987e-05
sVteepa
p4113
F0.0
sVharder
p4114
F0.00021903032191636625
sVingest
p4115
F0.0
sV125mg
p4116
F0.0
sVaminotransferase
p4117
F0.0
sVswear
p4118
F7.144461378954724e-05
sVsweat
p4119
F0.00028577845515818896
sVupward
p4120
F7.144461378954724e-05
sVnsaid
p4121
F0.0
sVsoftware
p4122
F8.76121287665465e-05
sVequally
p4123
F0.0
sVoverlook
p4124
F0.0
sV88
p4125
F7.144461378954724e-05
sVpreform
p4126
F0.0
sVblindly
p4127
F0.0
sVowe
p4128
F4.380606438327325e-05
sVpussy
p4129
F4.380606438327325e-05
sVyear
p4130
F0.0007342588315399104
sVcommitment
p4131
F7.144461378954724e-05
sVdue
p4132
F0.000700897030132372
sVchronic
p4133
F0.00021433384136864168
sVdoesnt
p4134
F8.76121287665465e-05
sVpromise
p4135
F0.0002628363862996395
sVdividose
p4136
F0.0
sVfemale
p4137
F0.00013819274703136993
sVcouldnt
p4138
F0.0
sVpointless
p4139
F7.144461378954724e-05
sVagin
p4140
F0.0
sV1987
p4141
F0.0
sVssristories
p4142
F0.0
sVendorse
p4143
F0.0
sVcoherent
p4144
F0.0
sVaarp
p4145
F0.0
sVtransfer
p4146
F8.76121287665465e-05
sVbuckle
p4147
F7.144461378954724e-05
sVoutline
p4148
F7.144461378954724e-05
sVsleepover
p4149
F7.144461378954724e-05
sVtracker
p4150
F7.144461378954724e-05
sVfrustration
p4151
F0.0
sVbiggest
p4152
F0.00013141819314981974
sVdamn
p4153
F0.0003572230689477362
sVnaturally
p4154
F0.00021433384136864168
sVfunction
p4155
F0.0016432261171595863
sVmylan
p4156
F0.0
sVbuy
p4157
F0.0001658312964376439
sVcapsule
p4158
F0.00021433384136864168
sVgluten
p4159
F0.0
sVdextroamphetamine
p4160
F0.0
sVhr
p4161
F0.00042866768273728336
sVbus
p4162
F7.144461378954724e-05
sVbrand
p4163
F8.291564821882195e-05
sVmiraculously
p4164
F0.0
sVweight
p4165
F0.0004526904193559792
sVsubjective
p4166
F0.0
sVneutral
p4167
F0.00014288922757909448
sVhi
p4168
F0.00014288922757909448
sVbun
p4169
F7.144461378954724e-05
sVgain
p4170
F0.000876121287665465
sVnut
p4171
F7.144461378954724e-05
sVthreaten
p4172
F0.00021433384136864168
sVdomiciliary
p4173
F0.0
sVha
p4174
F0.00013819274703136993
sVsignal
p4175
F4.380606438327325e-05
sVbug
p4176
F0.00013141819314981974
sVpartially
p4177
F8.76121287665465e-05
sVcount
p4178
F0.00013141819314981974
sVpi
p4179
F0.0
sVwise
p4180
F0.00014288922757909448
sVtab
p4181
F4.380606438327325e-05
sVwhether
p4182
F6.542900479068509e-05
sVdangerous
p4183
F0.0002211083952501919
sVofficial
p4184
F4.380606438327325e-05
sVflip
p4185
F7.144461378954724e-05
sVdistract
p4186
F0.0
sVrecord
p4187
F0.00030664245068291274
sVconvince
p4188
F0.00013819274703136993
sVlimit
p4189
F0.000175224257533093
sVentrainment
p4190
F0.0
sV3mg
p4191
F0.0
sVadderall
p4192
F0.0
sVproblem
p4193
F0.0006467005990799704
sVpm
p4194
F0.0
sVex
p4195
F0.00013141819314981974
sVhorticulturist
p4196
F0.0
sVpin
p4197
F7.144461378954724e-05
sVrecognize
p4198
F4.380606438327325e-05
sVcontribute
p4199
F7.144461378954724e-05
sVpersistent
p4200
F4.380606438327325e-05
sVfitbit
p4201
F0.0
sVjudgemental
p4202
F7.144461378954724e-05
sVsneak
p4203
F7.144461378954724e-05
sVcounteract
p4204
F0.0
sVhospitalization
p4205
F0.0
sVmushroom
p4206
F0.00021433384136864168
sVvariety
p4207
F0.00013141819314981974
sVdeadly
p4208
F0.0
sV45
p4209
F0.0001934698458439179
sVboot
p4210
F7.144461378954724e-05
sV43
p4211
F8.76121287665465e-05
sV40
p4212
F8.291564821882195e-05
sVlately
p4213
F0.000175224257533093
sVingestion
p4214
F0.0
sVsandy
p4215
F4.380606438327325e-05
sVsick
p4216
F0.000643001524105925
sVziprasidone
p4217
F0.0
sVoutlet
p4218
F0.0
sVer
p4219
F5.5277098812547974e-05
sVstimulant
p4220
F0.0
sVconclusion
p4221
F8.76121287665465e-05
sVfrancisco
p4222
F0.0
sVstar
p4223
F8.291564821882195e-05
sVmonday
p4224
F0.0
sVtraumatic
p4225
F0.0
sVexcite
p4226
F4.380606438327325e-05
sVclass
p4227
F0.0005335279942409756
sVjune
p4228
F0.0
sVcircumspection
p4229
F0.0
sVbundle
p4230
F7.144461378954724e-05
sVstay
p4231
F0.0005820305391719733
sVchance
p4232
F0.00021017769470099034
sVaugmentation
p4233
F0.0
sVkinda
p4234
F0.00028577845515818896
sVidiopathic
p4235
F0.0
sVelse
p4236
F0.00021082679321442972
sVcontraceptive
p4237
F0.0
sVstunt
p4238
F0.0
sVrisperdal
p4239
F0.0
sVresolution
p4240
F0.000175224257533093
sVunbridle
p4241
F0.0
sV25x
p4242
F0.0
sVrule
p4243
F0.000175224257533093
sVtriazolam
p4244
F0.0
sVportion
p4245
F0.00014288922757909448
sV_apasserby_
p4246
F0.0
sVdiagnosis
p4247
F0.0
sVunderstand
p4248
F6.542900479068509e-05
sVtexazepam
p4249
F0.0
s.