(dp0
Vsecondly
p1
F0.0
sVsuicidal
p2
F0.0006263579211452335
sVsimilarity
p3
F0.0
sVsaver
p4
F0.0
sVchild
p5
F4.2522384266394926e-05
sVdesirable
p6
F0.0
sVfoul
p7
F7.680992020332167e-05
sVnarcotic
p8
F0.0
sVfour
p9
F5.098834001089411e-05
sVtmd
p10
F0.0
sVsleep
p11
F0.004070779778160904
sVmshc
p12
F0.0
sVcontroversial
p13
F6.263579211452336e-05
sVpreface
p14
F0.0
sV6pm
p15
F0.0
sVacetylserotonin
p16
F0.0
sVhate
p17
F0.0005637221290307102
sVforget
p18
F0.00033923164818007527
sVwhose
p19
F1.4174128088798308e-05
sVcalculate
p20
F6.263579211452336e-05
sVswab
p21
F0.0
sVphysiological
p22
F0.0
sVheighten
p23
F0.0
sV30min
p24
F0.0
sVreferal
p25
F0.0
sVwizardry
p26
F0.0
sVdisfit
p27
F0.0
sVbike
p28
F3.840496010166083e-05
sVteaspoon
p29
F0.0
sVwhatsoever
p30
F3.840496010166083e-05
sVsorry
p31
F0.0003543532022199577
sVdependency
p32
F0.0004384505448016634
sVrestock
p33
F0.0
sVworth
p34
F0.000508847472270113
sVplasma
p35
F0.00012527158422904672
sVsoftener
p36
F0.0
sVconjecture
p37
F0.0
sVhormone
p38
F0.0
sVrescue
p39
F3.840496010166083e-05
sVphysician
p40
F0.0
sVhypertensive
p41
F0.0
sVdispense
p42
F0.0
sVblanket
p43
F7.680992020332167e-05
sVregional
p44
F6.263579211452336e-05
sVglimepiride
p45
F0.0
sVrelatively
p46
F0.00025054316845809344
sVphenelzineu
p47
F0.0
sVreplication
p48
F0.0
sVmania
p49
F0.0
sVevery
p50
F0.00040790672008715286
sVcbt
p51
F0.0
sVkick
p52
F0.00019384665610290019
sVaffect
p53
F0.0015032590107485605
sVcipralex
p54
F0.0
sVvast
p55
F0.0
sVstiffness
p56
F0.0
sVtheanine
p57
F0.0
sVmedline
p58
F0.0
sVscholar
p59
F0.00015361984040664333
sVprobiotic
p60
F0.0
sVpause
p61
F1.4174128088798308e-05
sVloneliness
p62
F0.0
sVaffirm
p63
F0.0
sVsolution
p64
F0.0
sVviable
p65
F0.0
sVhr
p66
F6.263579211452336e-05
sVunrelated
p67
F0.00018790737634357007
sVgehry
p68
F0.0
sVred
p69
F1.2747085002723527e-05
sVprotriptyline
p70
F0.0
sVcholesterol
p71
F6.263579211452336e-05
sVenhance
p72
F7.269249603858757e-05
sVscattershot
p73
F0.0
sVstraight
p74
F5.098834001089411e-05
sV9pm
p75
F0.0
sVenjoy
p76
F9.692332805145009e-05
sV10k
p77
F0.0
sVoverdo
p78
F0.0
sVforce
p79
F0.00031500081616721277
sVspecially
p80
F6.263579211452336e-05
sVawake
p81
F6.263579211452336e-05
sVcracker
p82
F6.263579211452336e-05
sVconsistent
p83
F6.263579211452336e-05
sVsomewhere
p84
F4.2522384266394926e-05
sVlavender
p85
F0.0
sVpulse
p86
F0.0
sVgabapentine
p87
F0.0
sVnail
p88
F7.680992020332167e-05
sVmansion
p89
F0.0
sVlikely
p90
F0.0017538021792066537
sVstreet
p91
F0.00012527158422904672
sV49
p92
F6.263579211452336e-05
sV278
p93
F0.0
sVair
p94
F4.2522384266394926e-05
sVcolourful
p95
F0.0
sVprogestagen
p96
F0.0
sVyoutube
p97
F0.0
sVeven
p98
F0.0006373542501361763
sVlesser
p99
F6.263579211452336e-05
sVdisk
p100
F0.00012527158422904672
sVflurazepam
p101
F0.0
sVfaecal
p102
F0.0
sVworsen
p103
F0.0
sVthunder
p104
F3.840496010166083e-05
sVcefalexin
p105
F0.0
sVweren
p106
F0.00014538499207717513
sVvicodin
p107
F0.0
sVbipolar
p108
F0.0004384505448016634
sVconduct
p109
F0.0
sVnew
p110
F0.0
sVnet
p111
F3.840496010166083e-05
sVpoorly
p112
F6.263579211452336e-05
sVever
p113
F0.0002931829550626411
sVendometriosis
p114
F0.0
sVhobby
p115
F0.00012527158422904672
sVmed
p116
F0.0008833140823381991
sVniche
p117
F0.0
sVsimultaneously
p118
F6.263579211452336e-05
sVpresynaptic
p119
F0.0
sVherb
p120
F0.0
sVnever
p121
F0.0
sVjasmine
p122
F0.0
sVmeh
p123
F0.0
sVhere
p124
F6.3735425013617635e-06
sVnonnbreathing
p125
F0.0
sVsinusitis
p126
F0.0
sVstudio
p127
F6.263579211452336e-05
sVq10
p128
F0.0
sVaid
p129
F0.0
sVactive
p130
F0.00016961582409003763
sVpath
p131
F2.8348256177596616e-05
sV100
p132
F0.00033923164818007527
sVquite
p133
F0.00012109730752587351
sVdesipramine
p134
F0.0
sVbuddy
p135
F6.263579211452336e-05
sVdry
p136
F0.0005376694414232516
sVremotely
p137
F3.840496010166083e-05
sVcyclical
p138
F0.0
sVsubstance
p139
F0.0
sVdaughter
p140
F1.4174128088798308e-05
sVforum
p141
F6.263579211452336e-05
sVtaper
p142
F0.0
sVphenelzine
p143
F0.0
sVk
p144
F3.840496010166083e-05
sVjaipur
p145
F0.0
sVoasis
p146
F0.0
sVlibrium
p147
F0.0
sVcontroversy
p148
F6.263579211452336e-05
sVcredit
p149
F1.4174128088798308e-05
sVcrap
p150
F0.0001152148803049825
sVlibrary
p151
F7.680992020332167e-05
sVsmoke
p152
F0.000230429760609965
sVneurologist
p153
F0.0
sVmilitary
p154
F6.263579211452336e-05
sVaka
p155
F0.0
sVsuitable
p156
F0.0
sVintrigue
p157
F0.0
sVyuri
p158
F0.0
sVclonidine
p159
F0.0
sVappropriately
p160
F0.0
sVterm
p161
F0.0007026941283730132
sVdivide
p162
F6.263579211452336e-05
sVmagically
p163
F6.263579211452336e-05
sVstraw
p164
F3.840496010166083e-05
sViproniazid
p165
F0.0
sVangrily
p166
F6.263579211452336e-05
sVreplace
p167
F3.840496010166083e-05
sVpsychological
p168
F0.00012527158422904672
sVvisible
p169
F7.680992020332167e-05
sVvivid
p170
F0.0
sVgeinoh
p171
F0.0
sVescitralopram
p172
F0.0
sVidiosyncratic
p173
F0.0
sVmedium
p174
F2.4230832012862523e-05
sVcocaine
p175
F6.263579211452336e-05
sV4ddkx7j9fps0
p176
F0.0
sVunit
p177
F0.0
sVtrazodone
p178
F0.0
sVcharge
p179
F7.680992020332167e-05
sVdna
p180
F0.0
sVrapidly
p181
F4.8461664025725047e-05
sVwould
p182
F0.0
sVabnormality
p183
F0.0
sVsnri
p184
F0.0
sVinsecurity
p185
F0.0
sVhospital
p186
F0.0003456446409149475
sVhungry
p187
F7.680992020332167e-05
sVdysfunction
p188
F0.0
sVnegative
p189
F0.0004224545611182692
sVlitre
p190
F0.0
sVprogram
p191
F7.680992020332167e-05
sVcall
p192
F0.00024219461505174702
sVcalm
p193
F0.0005010863369161869
sVtypo
p194
F6.263579211452336e-05
sVrecommend
p195
F0.001565894802863084
sVleaky
p196
F6.263579211452336e-05
sVtype
p197
F0.0008480791204501883
sVtell
p198
F0.0008362735572391001
sVswap
p199
F3.840496010166083e-05
sVnyquil
p200
F0.0
sVincredibly
p201
F0.0004224545611182692
sVmodification
p202
F0.0
sVpaperwork
p203
F0.0
sVcomorbid
p204
F0.0
sVholy
p205
F2.4230832012862523e-05
sVrelax
p206
F0.000230429760609965
sVsuccessful
p207
F2.4230832012862523e-05
sVhaha
p208
F0.00025054316845809344
sVwarp
p209
F0.0
sVhurt
p210
F0.0006263579211452335
sVwarn
p211
F9.692332805145009e-05
sV98
p212
F4.8461664025725047e-05
sVwarm
p213
F2.8348256177596616e-05
sVtransiently
p214
F0.0
sVadult
p215
F0.00031317896057261673
sVc5
p216
F0.0
sVexcellent
p217
F0.00012527158422904672
sV91
p218
F3.840496010166083e-05
sV90
p219
F0.0003456446409149475
sVward
p220
F6.263579211452336e-05
sVadnan
p221
F0.0
sV95
p222
F4.2522384266394926e-05
sVbruxella
p223
F0.0
sV97
p224
F3.840496010166083e-05
sV96
p225
F6.263579211452336e-05
sVshoot
p226
F0.00030723968081328666
sVmd
p227
F0.0
sVmg
p228
F0.0
sVword
p229
F7.01089675149794e-05
sVroom
p230
F0.00015591540897678138
sVflexeril
p231
F0.0
sVshame
p232
F3.840496010166083e-05
sVpursue
p233
F0.0
sVml
p234
F0.0
sVwork
p235
F0.0
sVroof
p236
F7.680992020332167e-05
sVmj
p237
F0.0
sVmu
p238
F0.0
sVs0379
p239
F0.0
sVoxide
p240
F0.0
sVcuddle
p241
F6.263579211452336e-05
sVreabsorb
p242
F0.0
sVmp
p243
F0.0
sV2c24
p244
F0.0
sVguise
p245
F6.263579211452336e-05
sV3818135
p246
F0.0
sVroot
p247
F0.00015361984040664333
sVexample
p248
F0.00046774622693034415
sVaddictive
p249
F0.0
sVdetach
p250
F0.0
sVvodka
p251
F6.263579211452336e-05
sVacetylcholine
p252
F0.0
sVmileage
p253
F0.0
sVdaptomycin
p254
F0.0
sVgive
p255
F0.0005799923676239204
sVflorida
p256
F0.0
sVdisprders
p257
F0.0
sVreach
p258
F0.0001211541600643126
sVhusband
p259
F0.00015361984040664333
sVgastroenterologist
p260
F0.0
sVdecompression
p261
F0.0
sVinvolve
p262
F0.0
sVchaudry
p263
F0.0
sVquetiapine
p264
F0.0
sVdiscography
p265
F0.0
sVtriptin
p266
F0.0
sVdegenerate
p267
F0.0
sVjumble
p268
F0.0
sVdhhs
p269
F0.0
sVmuseedelavilledebruxelles
p270
F0.0
sVlexapro
p271
F0.0
sVabsolute
p272
F0.0001152148803049825
sVend
p273
F0.00018483273253949115
sVrecovery
p274
F0.0001152148803049825
sVturn
p275
F0.000184263665154378
sVprovide
p276
F0.0006889937132597569
sVagony
p277
F0.0
sVtravel
p278
F2.8348256177596616e-05
sVfeature
p279
F7.680992020332167e-05
sVmachine
p280
F0.0001152148803049825
sVcitalopram
p281
F0.0
sVhot
p282
F4.8461664025725047e-05
sVxifaxin
p283
F0.0
sVtoxin
p284
F0.0
sVhop
p285
F0.0005010863369161869
sVbarbruteral
p286
F0.0
sVanswer
p287
F0.00025513430559836954
sVdisappoint
p288
F6.263579211452336e-05
sVordinary
p289
F1.4174128088798308e-05
sVchase
p290
F6.263579211452336e-05
sVmemorization
p291
F6.263579211452336e-05
sVclassify
p292
F0.0
sVmassive
p293
F0.0
sVcredential
p294
F0.0
sVfever
p295
F0.0
sVx
p296
F0.0004384505448016634
sVmess
p297
F0.0003456446409149475
sVarthritis
p298
F0.0
sVvicious
p299
F7.680992020332167e-05
sVlab
p300
F0.0
sVdiagram
p301
F0.0
sVwrong
p302
F8.504476853278985e-05
sVpreconception
p303
F0.0
sVtenormin
p304
F0.0
sVcuriosity
p305
F3.840496010166083e-05
sVready
p306
F3.824125500817058e-05
sVgravol
p307
F0.0
sVsummarize
p308
F0.0
sVlaw
p309
F0.00012527158422904672
sVlap
p310
F0.00012527158422904672
sVlesbian
p311
F6.263579211452336e-05
sVbaseline
p312
F0.00018790737634357007
sVattempt
p313
F4.2522384266394926e-05
sVeffective
p314
F0.0018790737634357005
sVdepressents
p315
F0.0
sVrecieved
p316
F0.0
sVrevolt
p317
F0.0
sVaaaaaannnnnyway
p318
F0.0
sVfictional
p319
F0.0
sVscare
p320
F6.263579211452336e-05
sVmaintain
p321
F0.0001152148803049825
sVgreen
p322
F6.3735425013617635e-06
sVenter
p323
F4.2522384266394926e-05
sVuninsured
p324
F0.0
sVworst
p325
F0.0005760744015249125
sVpreventive
p326
F0.0
sVoperate
p327
F6.263579211452336e-05
sVorder
p328
F8.285605251770292e-05
sVwind
p329
F4.8461664025725047e-05
sVwine
p330
F2.8348256177596616e-05
sVrestriction
p331
F0.0
sVoffice
p332
F0.00016961582409003763
sVconsent
p333
F0.00018790737634357007
sVtyramine
p334
F0.0
sVvary
p335
F0.0002688347207116258
sVmurray
p336
F0.0
sVrxconnect
p337
F0.0
sVjacuzzi
p338
F0.0
sVlondon
p339
F0.0
sVreflux
p340
F0.0
sVkeyboard
p341
F3.840496010166083e-05
sVchronically
p342
F0.0
sV10lbs
p343
F0.0
sVlevofloxican
p344
F0.0
sVforehead
p345
F6.263579211452336e-05
sVmanageable
p346
F0.0
sVlovingly
p347
F0.0
sVdecompose
p348
F0.0
sVfit
p349
F9.921889662158814e-05
sVpersonal
p350
F9.921889662158814e-05
sVfix
p351
F0.0003840496010166083
sVrecreational
p352
F6.263579211452336e-05
sVkidney
p353
F0.00018790737634357007
sV_r
p354
F0.0
sVcomprehend
p355
F0.0
sVfib
p356
F0.0
sV60lbs
p357
F0.0
sVproduction
p358
F0.00031317896057261673
sVdifferently
p359
F0.00019202480050830415
sVfade
p360
F0.00015361984040664333
sVpersist
p361
F0.00012527158422904672
sVacupuncture
p362
F0.0
sVprecipitate
p363
F0.0
sVlimbitrlol
p364
F0.0
sVfin
p365
F6.263579211452336e-05
sVeasier
p366
F0.00029076998415435027
sVpropanalol
p367
F0.0
sVanidepressants
p368
F0.0
sVeventually
p369
F0.0004384505448016634
sVcoffee
p370
F3.840496010166083e-05
sVcombination
p371
F0.00029076998415435027
sVweakness
p372
F0.0
sVworkout
p373
F0.0
sVdrowsiness
p374
F0.0
sVschool
p375
F0.001064808465946897
sVfinish
p376
F9.692332805145009e-05
sVbreak
p377
F0.0004224545611182692
sVband
p378
F7.680992020332167e-05
sVbang
p379
F0.0001152148803049825
sVtherapy
p380
F0.002818610645153551
sVultravision
p381
F0.0
sVvaping
p382
F0.0
sVhypomanic
p383
F0.0
sVsilver
p384
F3.840496010166083e-05
sVbank
p385
F7.680992020332167e-05
sVelavil
p386
F0.0
sValex
p387
F0.0
sVmeat
p388
F3.840496010166083e-05
sVoxygen
p389
F0.0004384505448016634
sVcvogfsd
p390
F0.0
sVusage
p391
F3.840496010166083e-05
sVreasonably
p392
F6.263579211452336e-05
sVdebut
p393
F0.0
sVl
p394
F2.4230832012862523e-05
sVlosartan
p395
F0.0
sVs40
p396
F0.0
sVreasonable
p397
F0.00015361984040664333
sVfitness
p398
F6.263579211452336e-05
sVhigher
p399
F0.00011339302471038646
sV375
p400
F0.0
sVside
p401
F8.922959501906468e-05
sVbone
p402
F7.269249603858757e-05
sVmean
p403
F0.00048192035501914244
sVwhim
p404
F0.0
sVcetirizine
p405
F0.0
sVconstipation
p406
F0.00018790737634357007
sVfairly
p407
F0.0002688347207116258
sVseries
p408
F0.00025054316845809344
sVoverflow
p409
F6.263579211452336e-05
sVstronger
p410
F0.00018790737634357007
sVepidural
p411
F0.0
sVaide
p412
F0.0
sVvote
p413
F6.263579211452336e-05
sVmember
p414
F0.00018790737634357007
sVimpossible
p415
F0.00015361984040664333
sVunexplained
p416
F6.263579211452336e-05
sVextract
p417
F0.00012527158422904672
sVsaturday
p418
F0.0
sVdepress
p419
F6.263579211452336e-05
sVdecree
p420
F0.0
sVnetwork
p421
F6.263579211452336e-05
sVcymbta
p422
F0.0
sVgod
p423
F7.680992020332167e-05
sVuseless
p424
F6.263579211452336e-05
sVstanford
p425
F0.0
sVrx
p426
F0.0
sVintegrative
p427
F0.0
sVcvomlru
p428
F0.0
sVcontent
p429
F0.00037581475268714013
sVadhesion
p430
F0.0
sVencourage
p431
F0.00012527158422904672
sVdsm
p432
F0.0
sVadapt
p433
F0.0
sVreader
p434
F6.263579211452336e-05
sVmedicine
p435
F0.0021922527240083173
sVsurprise
p436
F0.0001211541600643126
sVrn
p437
F0.0
sVgov
p438
F0.0007516295053742803
sVsluggish
p439
F6.263579211452336e-05
sVduct
p440
F0.0
sVfoundation
p441
F0.0
sVperception
p442
F6.263579211452336e-05
sVschizophrenia
p443
F0.00012527158422904672
sVassociate
p444
F0.0010753388828465033
sVhang
p445
F9.921889662158814e-05
sVmetamucil
p446
F0.0
sVrecoving
p447
F0.0
sVfree
p448
F0.00015591540897678138
sVstandard
p449
F2.4230832012862523e-05
sVsensory
p450
F0.00012527158422904672
sVdensity
p451
F3.840496010166083e-05
sVramos
p452
F0.0
sVawful
p453
F0.00016961582409003763
sVacamar
p454
F0.0
sVnmda
p455
F0.0
sVbiological
p456
F0.0
sVmight
p457
F0.00032505066756944993
sVinadequately
p458
F0.0
sVhand
p459
F0.0
sVnytimes
p460
F0.0
sVfret
p461
F0.0
sVdammit
p462
F6.263579211452336e-05
sVate
p463
F3.840496010166083e-05
sVatm
p464
F0.0
sVmetaxalone
p465
F0.0
sVtolerant
p466
F0.0
sVfilter
p467
F3.840496010166083e-05
sVheck
p468
F0.00012527158422904672
sVisn
p469
F0.0002549417000544705
sVsoda
p470
F6.263579211452336e-05
sVmurine
p471
F0.0
sVtransaction
p472
F3.840496010166083e-05
sVloud
p473
F7.680992020332167e-05
sVhire
p474
F6.263579211452336e-05
sVcyclo
p475
F0.0
sVlaggy
p476
F0.0
sValready
p477
F0.00013384439252859702
sVsubtletv
p478
F0.0
sVcarryover
p479
F0.0
sVgrade
p480
F6.263579211452336e-05
sVurogynecologist
p481
F0.0
sVvitro
p482
F0.0
sVrestrict
p483
F0.0
sVwash
p484
F6.263579211452336e-05
sVinstruct
p485
F0.0
sVkurzgesagt
p486
F0.0
sVdristan
p487
F0.0
sVdownside
p488
F0.0
sVanother
p489
F0.0002740623275585558
sVwasn
p490
F0.00022944753004902347
sVsober
p491
F6.263579211452336e-05
sVcategorize
p492
F0.0
sVimmensely
p493
F0.0
sVditch
p494
F0.0
sVsutherland
p495
F0.0
sVcatheter
p496
F6.263579211452336e-05
sVsarotex
p497
F0.0
sVanyone
p498
F0.00022678604942077293
sVpulmonary
p499
F0.0
sVleafly
p500
F0.0
sVinjection
p501
F0.0
sVservice
p502
F0.0001211541600643126
sVindicate
p503
F0.00018790737634357007
sVfluvoxamine
p504
F0.0
sVconcussion
p505
F0.0
sVeuphoric
p506
F0.0
sVapproximately
p507
F0.0
sVfiction
p508
F6.263579211452336e-05
sVeldepryl
p509
F0.0
sVkinder
p510
F0.0
sVton
p511
F0.0008142652974888036
sVmotility
p512
F0.0
sVglucocorticoid
p513
F0.0
sVunderlie
p514
F0.0
sVdwell
p515
F0.0
sVpurposefully
p516
F6.263579211452336e-05
sVjohn
p517
F0.0
sVrecreationally
p518
F0.0
sVduress
p519
F0.0
sVlisten
p520
F0.00033923164818007527
sVent
p521
F0.0
sVmurder
p522
F0.0005010863369161869
sVantihypertensive
p523
F0.0
sVradiation
p524
F6.263579211452336e-05
sVgyn
p525
F0.0
sVtool
p526
F0.00037581475268714013
sV2am
p527
F0.0
sVserve
p528
F3.840496010166083e-05
sVlower
p529
F0.0002693084336871679
sVwaster
p530
F0.0
sVwisdom
p531
F0.0
sViyengar
p532
F0.0
sVtask
p533
F4.8461664025725047e-05
sVpredictable
p534
F0.0
sVsomewhat
p535
F0.0006263579211452335
sVcrawl
p536
F7.269249603858757e-05
sVpeculiar
p537
F0.0
sVsymptom
p538
F0.0
sVrls
p539
F0.0
sVanxiety
p540
F0.006200943419337811
sVcommunicate
p541
F0.00025054316845809344
sVtarget
p542
F0.00018790737634357007
sVhike
p543
F0.0
sVoutlaw
p544
F0.0
sVmirtazipine
p545
F0.0
sVcrave
p546
F0.0
sVmethocarbamol
p547
F0.0
sVpreparation
p548
F6.263579211452336e-05
sVmatter
p549
F0.000184263665154378
sV5mg
p550
F0.0
sVmodulators
p551
F0.0
sV1600
p552
F0.0
sVhallucination
p553
F0.0
sVsolely
p554
F0.00012527158422904672
sVminus
p555
F6.263579211452336e-05
sVdesperate
p556
F0.00012527158422904672
sVsupplement
p557
F0.0
sVhnpb7fr2780
p558
F0.0
sVcalpol
p559
F0.0
sVnavigate
p560
F6.263579211452336e-05
sVmodern
p561
F1.4174128088798308e-05
sVmind
p562
F0.00031500081616721277
sVmine
p563
F0.00022678604942077293
sVginger
p564
F3.840496010166083e-05
sVeps
p565
F0.0
sVrat
p566
F0.000230429760609965
sVmonoamine
p567
F0.0
sVmanner
p568
F2.4230832012862523e-05
sVrap
p569
F0.00012527158422904672
sVadhd
p570
F0.0
sVarousal
p571
F0.0
sVsolostar
p572
F0.0
sVseem
p573
F0.0004270273475912381
sVregulate
p574
F0.0
sVseek
p575
F5.669651235519323e-05
sVdozen
p576
F0.00015361984040664333
sVlatency
p577
F0.0
sVstrength
p578
F7.269249603858757e-05
sVrealm
p579
F3.840496010166083e-05
sVfaab
p580
F0.0
sVconcrete
p581
F0.0
sV1964
p582
F0.0
sVkittin
p583
F0.0
sVlatter
p584
F0.0004384505448016634
sVresponsible
p585
F7.680992020332167e-05
sV1960
p586
F0.0
sV1961
p587
F0.0
sVfailboat
p588
F0.0
sVchest
p589
F7.269249603858757e-05
sVtoxnet
p590
F0.0
sVluxury
p591
F0.0
sVshelf
p592
F0.0
sVtransmit
p593
F0.0
sVarguably
p594
F0.0
sVeffectiveness
p595
F0.0
sVexactly
p596
F0.000184263665154378
sVincapable
p597
F6.263579211452336e-05
sVpsychologically
p598
F0.0
sVclonazepam
p599
F0.0
sVhuh
p600
F3.840496010166083e-05
sVmethylphenidate
p601
F0.0
sVmother
p602
F5.098834001089411e-05
sVsimplify
p603
F0.0
sVnorepinephrine
p604
F0.0
sVregular
p605
F0.0008769010896033268
sVmouth
p606
F0.00033923164818007527
sVaddict
p607
F0.00025054316845809344
sVletter
p608
F7.269249603858757e-05
sVentry
p609
F7.680992020332167e-05
sVphase
p610
F0.0004384505448016634
sVabd
p611
F0.0
sVcontain
p612
F0.00012527158422904672
sVautopsy
p613
F6.263579211452336e-05
sVdoi
p614
F0.0
sVepisode
p615
F0.0006889937132597569
sVabuseof
p616
F0.0
sVaccord
p617
F0.0
sVdoc
p618
F0.0013057686434564683
sVmedical
p619
F0.0007269249603858756
sVcamp
p620
F6.263579211452336e-05
sVm
p621
F3.824125500817058e-05
sVdog
p622
F7.269249603858757e-05
sVjudgmental
p623
F6.263579211452336e-05
sVdigress
p624
F0.0
sVdefinitely
p625
F0.0004603858082443879
sVtech
p626
F0.0013153516344049903
sVcelebrex
p627
F0.0
sVconstrict
p628
F0.0
sVcamg
p629
F0.0
sVscream
p630
F6.263579211452336e-05
sVurgency
p631
F0.0
sVreserve
p632
F6.263579211452336e-05
sVfreak
p633
F0.00018790737634357007
sVphenergran
p634
F0.0
sVprim
p635
F0.0
sVtriptylines
p636
F0.0
sVcoudenberg
p637
F0.0
sVbarbiturate
p638
F0.0
sVreorganize
p639
F0.0
sVprobe
p640
F0.0
sVdetermine
p641
F0.00018790737634357007
sVlyrica
p642
F0.0
sV500
p643
F6.263579211452336e-05
sVulcer
p644
F0.0
sVquad
p645
F0.0
sVlethal
p646
F0.0
sVpmdd
p647
F0.0
sVaustralian
p648
F0.0
sVrandomize
p649
F0.0
sVhypothyroidism
p650
F0.0
sVdepth
p651
F2.4230832012862523e-05
sVbusy
p652
F2.8348256177596616e-05
sVchamomile
p653
F0.0
sVbucket
p654
F0.0
sVexplain
p655
F0.00038769331220580037
sVkinase
p656
F0.0
sVsugar
p657
F0.0003456446409149475
sVseethe
p658
F0.0
sVtheme
p659
F0.00012527158422904672
sVpng
p660
F6.263579211452336e-05
sVadequate
p661
F0.0
sVinventor
p662
F0.0
sVsudafed
p663
F0.0
sVpersonality
p664
F7.680992020332167e-05
sVklonapin
p665
F0.0
sVdo
p666
F0.0001720856475367676
sVclaritin
p667
F0.0
sVpriadel
p668
F0.0
sVneuropathy
p669
F0.0
sVobjective
p670
F0.0
sVbruise
p671
F0.0
sVde
p672
F2.5494170005447054e-05
sVstop
p673
F0.00036329192257762043
sVperceive
p674
F0.0
sVpsychiatric
p675
F0.0
sVcoast
p676
F0.0001152148803049825
sVredditor
p677
F0.0
sVslanderous
p678
F0.0
sValtogether
p679
F7.680992020332167e-05
sVanxiolytic
p680
F0.0
sVnasty
p681
F0.000230429760609965
sVdr
p682
F0.0005637221290307102
sVunfortunately
p683
F0.0010021726738323738
sVinfrequent
p684
F0.0
sVbar
p685
F4.8461664025725047e-05
sVsti
p686
F0.0
sVofficially
p687
F0.0
sVhospitalize
p688
F0.0
sVamputation
p689
F6.263579211452336e-05
sVidiotic
p690
F0.0
sVpatch
p691
F0.00030723968081328666
sVbag
p692
F0.00015361984040664333
sVbad
p693
F0.0003377977525721734
sVb6eec4hcam
p694
F0.0
sVrelease
p695
F0.00026653915214148777
sVpsych
p696
F0.0
sVhippocratical
p697
F0.0
sVfertility
p698
F0.00018790737634357007
sVsteal
p699
F2.4230832012862523e-05
sVxrays
p700
F0.0
sVcataplexy
p701
F0.0
sVrespond
p702
F0.00046085952121993
sVethical
p703
F6.263579211452336e-05
sVnortryptaline
p704
F0.0
sVfuel
p705
F0.0
sVmandatory
p706
F0.0
sVvictim
p707
F6.263579211452336e-05
sVreference
p708
F0.0001152148803049825
sVspecialist
p709
F0.0
sVsensitivity
p710
F0.0
sVdopamine
p711
F0.0
sVmyofascial
p712
F0.0
sVemergent
p713
F0.0
sV1960s
p714
F0.0
sVvalsartan
p715
F0.0
sVrecieve
p716
F0.0
sVambien
p717
F0.0
sVresult
p718
F0.000691289281829895
sVetiz
p719
F0.0
sVhorrendous
p720
F6.263579211452336e-05
sVfail
p721
F0.00012756715279918477
sVmiserable
p722
F0.0001152148803049825
sVdepressive
p723
F0.0
sVhammer
p724
F0.0
sVbest
p725
F0.0002995564975640029
sVsubject
p726
F6.263579211452336e-05
sV02
p727
F0.00012527158422904672
sVinstance
p728
F0.00016961582409003763
sV01
p729
F6.263579211452336e-05
sVcapacity
p730
F0.0
sVduff
p731
F6.263579211452336e-05
sV04
p732
F3.840496010166083e-05
sValtmed
p733
F0.0
sVsorta
p734
F0.00012527158422904672
sVrare
p735
F0.0005010863369161869
sVaway
p736
F0.0
sVwoozy
p737
F0.0
sVwikipedia
p738
F0.0
sVimipramine
p739
F0.0
sVartificial
p740
F0.00012527158422904672
sVmodulate
p741
F0.0
sVgrandmother
p742
F6.263579211452336e-05
sVminimal
p743
F0.0
sVunable
p744
F0.0001152148803049825
sVfinger
p745
F7.269249603858757e-05
sVomeprazole
p746
F0.0
sVhopefully
p747
F0.0
sV22118833
p748
F0.0
sVoccupational
p749
F0.0
sVbaboon
p750
F0.0
sVtolerance
p751
F0.0006889937132597569
sVdiscovery
p752
F0.0
sVreddit
p753
F0.0
sVrelatable
p754
F0.0
sVdeltasone
p755
F0.0
sVnature
p756
F2.5494170005447054e-05
sVwean
p757
F0.0
sVresentful
p758
F0.0
sVweak
p759
F0.00012527158422904672
sVvitamin
p760
F0.0
sVresidual
p761
F6.263579211452336e-05
sVwithdrawl
p762
F0.0
sVwear
p763
F0.0003456446409149475
sVextent
p764
F0.00018790737634357007
sVwp
p765
F0.0
sVcousin
p766
F0.00012527158422904672
sVoxidase
p767
F0.0
sVdrowsy
p768
F0.0
sVptttfysqja4
p769
F0.0
sVrtgqkzkodaa
p770
F0.0
sVmiconazole
p771
F0.0
sVhyoscyamine
p772
F0.0
sVoceanographer
p773
F0.0
sVagonist
p774
F0.0
sVresistant
p775
F0.0
sVcountry
p776
F7.087064044399153e-05
sVill
p777
F4.8461664025725047e-05
sVbrusselsmuseumsnocturnes
p778
F0.0
sVthrob
p779
F0.00018790737634357007
sVincense
p780
F6.263579211452336e-05
sVventricular
p781
F0.0
sVfiancee
p782
F0.0
sVelse
p783
F0.00020395336004357643
sVcod
p784
F6.263579211452336e-05
sVlookin
p785
F3.840496010166083e-05
sVspeciality
p786
F0.0
sVargue
p787
F0.00012527158422904672
sV1_meetingabstracts
p788
F0.0
sVschmooze
p789
F0.0
sVcon
p790
F0.0
sVrph
p791
F0.0
sVdynahist
p792
F0.0
sVtough
p793
F4.8461664025725047e-05
sVpose
p794
F0.0
sVphysiotherapist
p795
F0.0
sVtoni
p796
F0.0
sVcharacter
p797
F4.8461664025725047e-05
sVvain
p798
F3.840496010166083e-05
sVwaaay
p799
F0.0
sV2nd
p800
F7.680992020332167e-05
sVinactivate
p801
F0.0
sVwebmd
p802
F0.0
sVpregnancy
p803
F0.00031317896057261673
sVnews
p804
F7.269249603858757e-05
sVmc5
p805
F0.0
sVtrust
p806
F0.00015361984040664333
sVexcedrine
p807
F0.0
sVpanel
p808
F3.840496010166083e-05
sVspeak
p809
F0.0002688347207116258
sVparalyze
p810
F0.0
sVcontraindication
p811
F0.0
sVbathroom
p812
F0.00012527158422904672
sVstrong
p813
F0.00033923164818007527
sVabdominal
p814
F0.0
sVrecur
p815
F0.0
sVbasis
p816
F8.504476853278985e-05
sVchrome
p817
F0.00012527158422904672
sVbinge
p818
F0.0
sVthree
p819
F0.00016571210503540584
sVtiny
p820
F5.669651235519323e-05
sVquickly
p821
F0.00015591540897678138
sVbeer
p822
F0.00018790737634357007
sVtrigger
p823
F0.0011900800501759437
sVinterest
p824
F0.0004224545611182692
sVbasic
p825
F0.00019384665610290019
sVnorvasc
p826
F0.0
sVacuity
p827
F0.0
sVteenager
p828
F6.263579211452336e-05
sVwebsite
p829
F0.00019202480050830415
sVphenytoin
p830
F0.0
sVlife
p831
F0.0004270273475912381
sVdeeper
p832
F6.263579211452336e-05
sVefficacy
p833
F0.0
sV900mg
p834
F0.0
sVsuppress
p835
F0.0
sVsunshine
p836
F6.263579211452336e-05
sVsooooo
p837
F6.263579211452336e-05
sVmelancholia
p838
F0.0
sVuncommon
p839
F0.00015361984040664333
sVargument
p840
F7.680992020332167e-05
sVsprintec
p841
F0.0
sVdota
p842
F0.0
sVlift
p843
F0.0001152148803049825
sVslap
p844
F6.263579211452336e-05
sVpersonally
p845
F4.2522384266394926e-05
sVcatch
p846
F3.840496010166083e-05
sVdeepen
p847
F0.0
sVbuprenorphine
p848
F0.0
sVsad
p849
F9.692332805145009e-05
sVspin
p850
F0.0
sV129
p851
F0.0
sVchill
p852
F0.00031317896057261673
sVunpopular
p853
F0.0
sVexception
p854
F7.680992020332167e-05
sVtank
p855
F0.00012527158422904672
sVvendetta
p856
F0.0
sV5a
p857
F0.0
sVamiloride
p858
F0.0
sVlessen
p859
F0.0
sVbuproprion
p860
F0.0
sVspontaneously
p861
F6.263579211452336e-05
sVaim
p862
F3.840496010166083e-05
sVcalcium
p863
F0.0
sVnear
p864
F1.2747085002723527e-05
sVconspiracy
p865
F0.0
sVsuppose
p866
F0.0004224545611182692
sVnytron
p867
F0.0
sVsle
p868
F0.0
sVbalance
p869
F0.0006263579211452335
sVstudy
p870
F0.00138257856365979
sVprocedure
p871
F0.00018790737634357007
sVmistake
p872
F4.2522384266394926e-05
sVseven
p873
F3.840496010166083e-05
sVvasodilation
p874
F0.0
sVir
p875
F0.0
sVclonazolam
p876
F0.0
sViv
p877
F0.0
sVii
p878
F0.0
sVcharacterize
p879
F0.0
sVdizzy
p880
F0.0
sVanhedonia
p881
F0.0
sVbrutal
p882
F0.0
sVexterior
p883
F0.0
sVmisspoke
p884
F0.0
sVinsensitive
p885
F3.840496010166083e-05
sVic
p886
F0.0
sVtremendously
p887
F0.0
sVmouse
p888
F0.0001152148803049825
sVid
p889
F0.00012527158422904672
sVdisappear
p890
F0.00019202480050830415
sVrythm
p891
F0.0
sVtheconversation
p892
F0.0
sVseverity
p893
F0.0
sV2910
p894
F0.0
sVperform
p895
F4.8461664025725047e-05
sVsuggest
p896
F0.001565894802863084
sVmake
p897
F0.0010835022252314998
sVrecurrent
p898
F0.0
sV10yrs
p899
F0.0
sVhealthier
p900
F0.0
sVpotentially
p901
F0.0005010863369161869
sVdeteriorate
p902
F0.0
sVincorrectly
p903
F6.263579211452336e-05
sVvag
p904
F6.263579211452336e-05
sVlithium
p905
F0.0
sVcouple
p906
F0.00024096017750957122
sVwheel
p907
F2.4230832012862523e-05
sVevolve
p908
F3.840496010166083e-05
sVnih
p909
F0.0
sVadvocate
p910
F0.0
sVmusically
p911
F0.0
sVscrew
p912
F0.00015361984040664333
sVverapamil
p913
F0.0
sVvulture
p914
F0.0
sVswell
p915
F0.0
sVpick
p916
F0.00019384665610290019
sV8cwybywmqwc
p917
F0.0
sVkit
p918
F7.680992020332167e-05
sVcessation
p919
F0.0
sVafraid
p920
F0.00011339302471038646
sVboiler
p921
F0.0
sVj
p922
F0.0001152148803049825
sVtyson
p923
F0.0
sVovert
p924
F6.263579211452336e-05
sVgeneralize
p925
F0.0
sVkid
p926
F0.00012527158422904672
sVtoxicity
p927
F0.0
sVshortly
p928
F6.263579211452336e-05
sVwebstore
p929
F0.0
sVmushroom
p930
F6.263579211452336e-05
sVshitty
p931
F0.00031317896057261673
sVprioritize
p932
F6.263579211452336e-05
sVyoure
p933
F0.0
sVsmoker
p934
F3.840496010166083e-05
sVchanger
p935
F0.0
sVacademic
p936
F6.263579211452336e-05
sVcontact
p937
F7.269249603858757e-05
sVmadvoice
p938
F0.0
sVgreatest
p939
F3.840496010166083e-05
sVnorco
p940
F0.0
sVprescriber
p941
F0.0
sVpicc
p942
F0.0
sVthc
p943
F0.0
sVrout
p944
F0.0
sVbetablocker
p945
F0.0
sV1hr
p946
F0.0
sVantidepressent
p947
F0.0
sVbirth
p948
F0.00031317896057261673
sVsentence
p949
F6.263579211452336e-05
sVexcel
p950
F0.0
sVtelework
p951
F0.0
sVsleepy
p952
F0.0005637221290307102
sVacknowledge
p953
F0.0
sVappetite
p954
F0.0010021726738323738
sVfinancially
p955
F0.00012527158422904672
sVidentify
p956
F7.680992020332167e-05
sVinflammatories
p957
F0.0
sVhuman
p958
F4.8461664025725047e-05
sVanders
p959
F0.0
sVyes
p960
F6.373542501361763e-05
sVyet
p961
F0.00011472376502451174
sVsleepiness
p962
F0.0
sVprevious
p963
F2.5494170005447054e-05
sVthyroid
p964
F0.0
sVbagel
p965
F6.263579211452336e-05
sVheadedness
p966
F0.0
sVcandidate
p967
F7.680992020332167e-05
sVyamaha
p968
F0.0
sVmodify
p969
F6.263579211452336e-05
sVease
p970
F7.680992020332167e-05
sVboot
p971
F6.263579211452336e-05
sVroyal
p972
F0.0
sVsubutex
p973
F0.0
sVxr
p974
F0.0
sVopi
p975
F0.0
sVbp1
p976
F0.0
sVtopical
p977
F0.00018790737634357007
sVhydroxozine
p978
F0.0
sVspread
p979
F0.00012527158422904672
sVunwanted
p980
F0.00018790737634357007
sVboard
p981
F4.8461664025725047e-05
sVeasy
p982
F0.0
sVcomplainer
p983
F0.0
sVsave
p984
F0.00019384665610290019
sVhat
p985
F7.269249603858757e-05
sVtolerable
p986
F0.0
sVemphasis
p987
F0.0
sVdesire
p988
F0.00018790737634357007
sVthankfully
p989
F0.0
sV1301571a
p990
F0.0
sVelevation
p991
F0.0
sV36hrs
p992
F0.0
sVcspine
p993
F0.0
sVmayo
p994
F0.0
sVhypersensitive
p995
F0.0
sVpossible
p996
F0.0002834825617759661
sVcosmetic
p997
F6.263579211452336e-05
sVpossibly
p998
F9.921889662158814e-05
sVfusion
p999
F0.0
sV2807
p1000
F0.0
sV3pm
p1001
F0.0
sVbackground
p1002
F1.912062750408529e-05
sVperformance
p1003
F4.8461664025725047e-05
sVjudge
p1004
F3.840496010166083e-05
sVunique
p1005
F3.840496010166083e-05
sVclonaz
p1006
F0.0
sVrizatriptan
p1007
F0.0
sVshoulder
p1008
F9.692332805145009e-05
sVlidocaine
p1009
F0.0
sVfioricet
p1010
F0.0
sVspecie
p1011
F0.0
sVgift
p1012
F6.263579211452336e-05
sVpatience
p1013
F6.263579211452336e-05
sV55
p1014
F6.263579211452336e-05
sVblunt
p1015
F6.263579211452336e-05
sVunnecessary
p1016
F0.00018790737634357007
sV52
p1017
F7.680992020332167e-05
sVspecific
p1018
F0.00038769331220580037
sVremind
p1019
F3.840496010166083e-05
sVfastest
p1020
F6.263579211452336e-05
sVsparse
p1021
F0.0
sVnight
p1022
F0.00035691838007625873
sVnotorious
p1023
F6.263579211452336e-05
sVsecurity
p1024
F4.8461664025725047e-05
sValdosterone
p1025
F0.0
sVwhomever
p1026
F0.0
sVrhematologist
p1027
F0.0
sVpostsynaptic
p1028
F0.0
sVbeneficial
p1029
F0.00025054316845809344
sVright
p1030
F0.00031867712506808817
sVold
p1031
F0.0
sVdeal
p1032
F0.0002693084336871679
sVoxia
p1033
F0.0
sVtouch
p1034
F0.00011339302471038646
sVdepakene
p1035
F0.0
sVexcerpt
p1036
F0.0
sVsomehow
p1037
F2.4230832012862523e-05
sVelderly
p1038
F0.00018790737634357007
sV50
p1039
F0.000184263665154378
sVselectivity
p1040
F0.0
sVsure
p1041
F0.000595313379729529
sVescape
p1042
F4.2522384266394926e-05
sVmultiple
p1043
F0.0003456446409149475
sVbore
p1044
F0.00012527158422904672
sVcreep
p1045
F0.00018790737634357007
sVelmiron
p1046
F0.0
sVtotal
p1047
F9.692332805145009e-05
sVnortriptylene
p1048
F0.0
sVcombat
p1049
F0.0
sVbottom
p1050
F5.098834001089411e-05
sVear
p1051
F0.00018790737634357007
sVnormal
p1052
F0.0006057708003215631
sVmicrowave
p1053
F6.263579211452336e-05
sVnearsightedness
p1054
F0.0
sVeverything
p1055
F0.00013384439252859702
sVicy
p1056
F7.680992020332167e-05
sVfog
p1057
F0.0
sVshakespeare
p1058
F0.0
sVatenolol
p1059
F0.0
sVumm
p1060
F0.0
sVconfusion
p1061
F6.263579211452336e-05
sVexperimentation
p1062
F0.0
sV424
p1063
F0.0
sVicu
p1064
F0.0
sVcord
p1065
F0.0
sVcore
p1066
F4.8461664025725047e-05
sVslouch
p1067
F0.0
sVpeel
p1068
F6.263579211452336e-05
sVdiltiazem
p1069
F0.0
sVdental
p1070
F0.00018790737634357007
sVburn
p1071
F0.0001152148803049825
sVrhtdcvahy5k
p1072
F0.0
sVpopular
p1073
F0.00018790737634357007
sVprotagonist
p1074
F0.0
sVconfrontation
p1075
F0.0
sVmenopause
p1076
F0.0
sVpeer
p1077
F3.840496010166083e-05
sVoverheat
p1078
F0.0
sVpost
p1079
F0.0004224545611182692
sVsuper
p1080
F0.00046085952121993
sVvalium
p1081
F0.0
sVheparin
p1082
F0.0
sVpromise
p1083
F0.0001152148803049825
sVcn5
p1084
F0.0
sVrheumatoid
p1085
F0.0
sVinderal
p1086
F0.0
sVinjure
p1087
F0.0
sVv
p1088
F0.0029438822293825976
sVdonation
p1089
F6.263579211452336e-05
sVo
p1090
F1.2747085002723527e-05
sVsnris
p1091
F0.0
sVdespair
p1092
F0.0
sVplus
p1093
F0.00038769331220580037
sVafternoon
p1094
F0.00012527158422904672
sVhorizon
p1095
F6.263579211452336e-05
sVvaginal
p1096
F6.263579211452336e-05
sVincur
p1097
F0.0
sVcommit
p1098
F7.680992020332167e-05
sVtwitch
p1099
F0.00018790737634357007
sVslightly
p1100
F0.00015591540897678138
sVas_sdtp
p1101
F0.0
sVautomatically
p1102
F0.0001152148803049825
sVstimulation
p1103
F0.00012527158422904672
sVreleaser
p1104
F0.0
sVnerve
p1105
F0.002505431684580934
sVmotivate
p1106
F0.0
sVwhats
p1107
F0.0
sVlatent
p1108
F0.0
sVformerly
p1109
F0.0
sVfacility
p1110
F0.0
sVtranquilize
p1111
F0.0
sVpuzzle
p1112
F6.263579211452336e-05
sVfloat
p1113
F3.840496010166083e-05
sVbath
p1114
F6.263579211452336e-05
sVmoremwrong
p1115
F0.0
sVrant
p1116
F0.0
sVstumble
p1117
F0.0
sVstrangely
p1118
F6.263579211452336e-05
sVfamiliarize
p1119
F0.0
sVmhtt
p1120
F0.0
sVdozy
p1121
F0.0
sVurine
p1122
F6.263579211452336e-05
sVadvair
p1123
F0.0
sVamazingly
p1124
F6.263579211452336e-05
sVsupport
p1125
F0.00019202480050830415
sVinitial
p1126
F9.692332805145009e-05
sVnova
p1127
F0.0
sVfight
p1128
F0.00014538499207717513
sVvirgin
p1129
F4.8461664025725047e-05
sVfulminant
p1130
F0.0
sVhumalog
p1131
F0.0
sVway
p1132
F0.00040790672008715286
sVimmune
p1133
F0.00025054316845809344
sVoverhead
p1134
F3.840496010166083e-05
sVangina
p1135
F0.0
sVnortripyline
p1136
F0.0
sVmetabolism
p1137
F6.263579211452336e-05
sVtherefore
p1138
F0.00025054316845809344
sVfork
p1139
F2.4230832012862523e-05
sVpamelor
p1140
F0.0
sVhead
p1141
F0.00013384439252859702
sVsuccessfully
p1142
F0.00012527158422904672
sVform
p1143
F0.000184263665154378
sVoffer
p1144
F0.00019384665610290019
sVhappen
p1145
F0.0003827014583975543
sVlorazepam
p1146
F0.0
sVdepakote
p1147
F0.0
sVforever
p1148
F0.00015361984040664333
sVacute
p1149
F0.0
sVfailure
p1150
F7.680992020332167e-05
sVheat
p1151
F0.000230429760609965
sVhear
p1152
F0.00045357209884154586
sVneuro
p1153
F0.0
sVanaesthetic
p1154
F0.0
sVtrue
p1155
F0.00012756715279918477
sVzanaflex
p1156
F0.0
sVreset
p1157
F0.00012527158422904672
sVabsent
p1158
F2.4230832012862523e-05
sVcounsel
p1159
F0.0
sVinjury
p1160
F0.0005637221290307102
sVreproductive
p1161
F0.0
sVurgent
p1162
F0.0
sVassessment
p1163
F0.00012527158422904672
sVinside
p1164
F2.5494170005447054e-05
sVmyopia
p1165
F0.0
sVb6
p1166
F0.0
sVhmm
p1167
F2.4230832012862523e-05
sVmscontin
p1168
F0.0
sVacetabular
p1169
F0.0
sVminor
p1170
F7.269249603858757e-05
sVadenosine
p1171
F0.0
sVemotional
p1172
F0.00018790737634357007
sVdelete
p1173
F7.680992020332167e-05
sVdiagnose
p1174
F0.0016911663870921305
sV150
p1175
F0.0
sVjuvenile
p1176
F0.0
sVmedication
p1177
F0.004133962279558541
sV28th
p1178
F0.0
sVclassic
p1179
F7.680992020332167e-05
sVtoss
p1180
F6.263579211452336e-05
sVabstract
p1181
F0.00012527158422904672
sVmuscular
p1182
F0.00015361984040664333
sVsticky
p1183
F3.840496010166083e-05
sVgland
p1184
F0.0
sVsometime
p1185
F4.8461664025725047e-05
sVexist
p1186
F7.680992020332167e-05
sVcandle
p1187
F0.00018790737634357007
sVtca
p1188
F0.0
sVyuck
p1189
F0.0
sVawhile
p1190
F0.00012527158422904672
sVtooth
p1191
F0.00025054316845809344
sVsedative
p1192
F0.0
sVcheck
p1193
F0.0008065041621348775
sVshit
p1194
F0.000691289281829895
sVconstriction
p1195
F0.0
sVnh
p1196
F0.0
sVrockstead
p1197
F0.0
sVoversimplification
p1198
F0.0
sVfloor
p1199
F0.0002688347207116258
sVna
p1200
F0.0
sVwhereas
p1201
F0.00025054316845809344
sVanesthesiologist
p1202
F0.0
sVgenerally
p1203
F0.0004603858082443879
sVdesvenflaxine
p1204
F0.0
sVactos
p1205
F0.0
sVtil
p1206
F2.4230832012862523e-05
sVibs
p1207
F0.0
sVrole
p1208
F6.263579211452336e-05
sVtutorial
p1209
F6.263579211452336e-05
sVconstruits
p1210
F0.0
sVacetaminophen
p1211
F0.0
sVtest
p1212
F0.0006057708003215631
sVtie
p1213
F3.840496010166083e-05
sVimplant
p1214
F0.0
sVsmell
p1215
F7.680992020332167e-05
sVdizziness
p1216
F0.0005637221290307102
sVtic
p1217
F0.0
sVnode
p1218
F0.0
sVpicture
p1219
F7.269249603858757e-05
sVintend
p1220
F0.00018790737634357007
sVcanto
p1221
F0.0
sVointment
p1222
F0.0
sVfelt
p1223
F0.0006300016323344255
sVmiscellaneous
p1224
F6.263579211452336e-05
sVdiet
p1225
F0.0008769010896033268
sVinterrelate
p1226
F0.0
sVroutinely
p1227
F0.0
sVjourney
p1228
F0.0
sVaware
p1229
F0.0
sVgerd
p1230
F0.0
sVfiimkmdalmgffhibfdjnhljpnigcmohf
p1231
F0.0
sVnxt
p1232
F0.0
sVim
p1233
F0.00012527158422904672
sVlonger
p1234
F9.560313752042644e-05
sVbullet
p1235
F3.840496010166083e-05
sVglass
p1236
F1.2747085002723527e-05
sVassume
p1237
F0.0006889937132597569
sVpethedine
p1238
F0.0
sVinterval
p1239
F0.0
sVdaily
p1240
F0.002505431684580934
sVdiminish
p1241
F0.0
sVtrycyclic
p1242
F0.0
sVfst
p1243
F0.0
sVteeth
p1244
F0.000230429760609965
sVpush
p1245
F0.00026653915214148777
sVserious
p1246
F0.00021807748811576269
sVsharpen
p1247
F0.0
sVmasturbation
p1248
F6.263579211452336e-05
sVchikane
p1249
F0.0
sVbasically
p1250
F0.0011900800501759437
sVbeckers
p1251
F0.0
sVurinary
p1252
F0.0
sVcoach
p1253
F0.00012527158422904672
sVchain
p1254
F0.000230429760609965
sVdance
p1255
F2.4230832012862523e-05
sVskip
p1256
F7.680992020332167e-05
sVrelieve
p1257
F0.0
sVost
p1258
F0.0
sVinvent
p1259
F0.00012527158422904672
sVcephedrine
p1260
F0.0
sVpudendal
p1261
F0.0
sVmild
p1262
F0.0
sVmile
p1263
F7.680992020332167e-05
sVasymptomatic
p1264
F0.0
sVgrateful
p1265
F0.0
sVskin
p1266
F1.2747085002723527e-05
sVremarkably
p1267
F0.0
sVmilk
p1268
F6.263579211452336e-05
sVspike
p1269
F6.263579211452336e-05
sVretention
p1270
F0.00012527158422904672
sVvet
p1271
F0.00025054316845809344
sVsuicide
p1272
F0.0004384505448016634
sVdepend
p1273
F0.0004384505448016634
sVn171
p1274
F0.0
sVzone
p1275
F7.269249603858757e-05
sVq4spks8b62q
p1276
F0.0
sVcalorie
p1277
F0.00018790737634357007
sVtechnique
p1278
F0.00025054316845809344
sVsufferer
p1279
F0.0
sVposture
p1280
F0.0
sVenvironment
p1281
F3.840496010166083e-05
sV0
p1282
F0.0003840496010166083
sVfinally
p1283
F0.0008065041621348775
sVunpleasant
p1284
F0.00018790737634357007
sVpermanently
p1285
F6.263579211452336e-05
sVrhythm
p1286
F0.00012527158422904672
sVterror
p1287
F0.0
sVexplode
p1288
F0.0
sVmust
p1289
F0.0
sVaspx
p1290
F6.263579211452336e-05
sVimodium
p1291
F0.0
sVirritability
p1292
F0.0
sVrifampicin
p1293
F0.0
sVprotective
p1294
F6.263579211452336e-05
sVadvantage
p1295
F7.680992020332167e-05
sVyeast
p1296
F0.0001152148803049825
sVpropranolol
p1297
F0.0
sVfsijournal
p1298
F0.0
sVintake
p1299
F0.0
sVvegan
p1300
F0.00012527158422904672
sVchoice
p1301
F0.00021807748811576269
sVnitrate
p1302
F0.0
sVfodmap
p1303
F0.0
sVmourn
p1304
F0.0
sVmasturbate
p1305
F6.263579211452336e-05
sVcook
p1306
F3.840496010166083e-05
sVclonazapam
p1307
F0.0
sVtrouble
p1308
F3.1867712506808814e-05
sVdaytime
p1309
F0.00012527158422904672
sVexact
p1310
F0.00016961582409003763
sVsont
p1311
F0.0
sVminute
p1312
F0.000508847472270113
sVcool
p1313
F6.263579211452336e-05
sVsymbicort
p1314
F0.0
sVlapse
p1315
F0.0
sVrespiratory
p1316
F0.0
sVseratonin
p1317
F0.0
sVprophylactic
p1318
F0.0
sVlevel
p1319
F6.373542501361763e-05
sVtear
p1320
F2.8348256177596616e-05
sVdie
p1321
F8.504476853278985e-05
sVdig
p1322
F0.00025054316845809344
sVacetazolomide
p1323
F0.0
sVaccidentally
p1324
F4.8461664025725047e-05
sVmorningtrixie
p1325
F0.0
sVphenergen
p1326
F0.0
sVzonegran
p1327
F0.0
sVitem
p1328
F2.4230832012862523e-05
sVsettle
p1329
F9.692332805145009e-05
sVsubway
p1330
F6.263579211452336e-05
sVpropranalol
p1331
F0.0
sVquick
p1332
F1.2747085002723527e-05
sVguy
p1333
F0.00016961582409003763
sVround
p1334
F4.2522384266394926e-05
sVwellbutrin
p1335
F0.0
sVsurgically
p1336
F0.0
sVanesthetic
p1337
F0.0
sVprevent
p1338
F0.0004224545611182692
sVexcite
p1339
F3.840496010166083e-05
sVaccomplishment
p1340
F0.0
sVslower
p1341
F0.0001152148803049825
sVregret
p1342
F0.0001152148803049825
sVmoloxicam
p1343
F0.0
sVhtm
p1344
F0.00012527158422904672
sVubiquitous
p1345
F0.0
sVdiscover
p1346
F3.840496010166083e-05
sVagitate
p1347
F0.0
sVsign
p1348
F0.00012109730752587351
sVvenlafaxin
p1349
F0.0
sVcost
p1350
F0.0002423083201286252
sV70mg
p1351
F0.0
sVetizolam
p1352
F0.0
sVbacteria
p1353
F0.00012527158422904672
sVcheezit
p1354
F0.0
sVba
p1355
F0.0
sV25ml
p1356
F0.0
sVappear
p1357
F0.00019202480050830415
sVpsychotropic
p1358
F0.0
sVfiller
p1359
F0.0
sVfeat
p1360
F0.0
sVcrackpot
p1361
F0.0
sV25mg
p1362
F0.0
sVcurrent
p1363
F0.00014538499207717513
sVrub
p1364
F0.00025054316845809344
sVhealth
p1365
F0.0011900800501759437
sVsuspect
p1366
F0.000230429760609965
sVsbtl
p1367
F0.0
sVinternational
p1368
F3.840496010166083e-05
sVelectronically
p1369
F0.0
sVboost
p1370
F0.0
sVreoccur
p1371
F0.0
sValertness
p1372
F0.0
sV8516
p1373
F0.0
sVcreepiest
p1374
F0.0
sVbarcode
p1375
F0.0
sVneurotransmitter
p1376
F0.0
sVabrupt
p1377
F0.0
sVclerk
p1378
F0.00012527158422904672
sVmr
p1379
F0.0
sVlange
p1380
F0.0
sVwater
p1381
F0.00031500081616721277
sVcontemplate
p1382
F3.840496010166083e-05
sVnonbinary
p1383
F0.0
sVfeverfew
p1384
F0.0
sVfractious
p1385
F0.0
sVaddress
p1386
F0.000230429760609965
sVdangeous
p1387
F0.0
sValong
p1388
F6.373542501361763e-05
sVteacher
p1389
F6.263579211452336e-05
sVchange
p1390
F0.0007996174564244632
sVwait
p1391
F0.00022678604942077293
sVbox
p1392
F5.669651235519323e-05
sVboy
p1393
F7.269249603858757e-05
sVcranial
p1394
F0.0
sVtheorize
p1395
F0.0
sVthirty
p1396
F3.840496010166083e-05
sVekg
p1397
F0.0
sVshift
p1398
F6.263579211452336e-05
sVbot
p1399
F0.0
sVvaginismus
p1400
F0.0
sVsomatic
p1401
F0.0
sVqueue
p1402
F0.0
sVtrial
p1403
F0.0007680992020332166
sVreleif
p1404
F0.0
sVsuggestion
p1405
F0.0003456446409149475
sVjaw
p1406
F0.0001152148803049825
sVusually
p1407
F0.001114618272591676
sVdecouple
p1408
F0.0
sVweird
p1409
F0.00041192414421866287
sVmirtazapine
p1410
F0.0
sVmassage
p1411
F0.0006889937132597569
sVgenuinely
p1412
F0.00025054316845809344
sVorient
p1413
F0.0
sVpepto
p1414
F0.0
sVteenage
p1415
F6.263579211452336e-05
sVdick
p1416
F0.00012527158422904672
sVuseful
p1417
F0.0005010863369161869
sVctth
p1418
F0.0
sVextra
p1419
F7.269249603858757e-05
sVtrimethoprim
p1420
F0.0
sVmerely
p1421
F0.0
sVprefer
p1422
F0.00021807748811576269
sVloosen
p1423
F0.0
sVlogical
p1424
F0.0
sVsincerely
p1425
F0.0
sVfowlkes
p1426
F0.0
sVmobic
p1427
F0.0
sV89
p1428
F6.263579211452336e-05
sVfake
p1429
F0.00018790737634357007
sVrarely
p1430
F0.0
sVcrisis
p1431
F0.0
sVmarket
p1432
F0.00019202480050830415
sVfranck
p1433
F0.0
sVexcept
p1434
F0.0001700895370655797
sVdiscus
p1435
F0.0
sVprove
p1436
F0.0
sVpositive
p1437
F0.00026653915214148777
sVbedtime
p1438
F0.0
sVvisit
p1439
F0.00016961582409003763
sVfrance
p1440
F0.0
sVlive
p1441
F0.00016571210503540584
sVmemory
p1442
F0.0001211541600643126
sVscope
p1443
F6.263579211452336e-05
sVtachycardia
p1444
F0.0
sVthru
p1445
F6.263579211452336e-05
sVtoday
p1446
F0.00024096017750957122
sVwicked
p1447
F3.840496010166083e-05
sVchapter
p1448
F6.263579211452336e-05
sVtompamax
p1449
F0.0
sVafford
p1450
F0.00018790737634357007
sVcrackazat
p1451
F0.0
sVatarax
p1452
F0.0
sVemployee
p1453
F6.263579211452336e-05
sVtandem
p1454
F0.0
sVeverywhere
p1455
F7.269249603858757e-05
sVdegrade
p1456
F0.0
sVsulfur
p1457
F6.263579211452336e-05
sVeasiest
p1458
F0.0
sVbehalf
p1459
F6.263579211452336e-05
sVfly
p1460
F7.269249603858757e-05
sVhoney
p1461
F3.840496010166083e-05
sVopioids
p1462
F0.0
sV20708057
p1463
F0.0
sVcar
p1464
F0.0001211541600643126
sVoriginally
p1465
F0.000230429760609965
sVpretend
p1466
F6.263579211452336e-05
sVflu
p1467
F0.00025054316845809344
sVmunchausen
p1468
F0.0
sVbeliever
p1469
F0.0
sVcat
p1470
F0.00015361984040664333
sVhardest
p1471
F6.263579211452336e-05
sVachieve
p1472
F0.00018790737634357007
sVaripiprazole
p1473
F0.0
sVmetoprolol
p1474
F0.0
sVsubjective
p1475
F0.0
sVarrive
p1476
F7.269249603858757e-05
sVdosage
p1477
F0.0018790737634357005
sVsocial
p1478
F4.2522384266394926e-05
sVclaim
p1479
F9.692332805145009e-05
sVcrazy
p1480
F0.0003840496010166083
sVdropper
p1481
F0.0
sVwant
p1482
F0.0
sVfigure
p1483
F0.0005376694414232516
sVamaryl
p1484
F0.0
sVdecember
p1485
F0.0
sVawesome
p1486
F0.00018790737634357007
sVcimetidine
p1487
F0.0
sVfuck
p1488
F0.0008769010896033268
sVagent
p1489
F0.00019384665610290019
sVtopic
p1490
F7.680992020332167e-05
sVstroke
p1491
F6.263579211452336e-05
sVabort
p1492
F6.263579211452336e-05
sVsurround
p1493
F0.0
sVexclude
p1494
F6.263579211452336e-05
sVbelsomra
p1495
F0.0
sVserum
p1496
F0.0
sVpurr
p1497
F0.0
sVredundancy
p1498
F0.0
sVwinter
p1499
F7.680992020332167e-05
sVcivilise
p1500
F0.0
sVnonchalant
p1501
F0.0
sVs2
p1502
F0.0
sVget
p1503
F0.0
sVwarfarin
p1504
F0.0
sVdinner
p1505
F4.8461664025725047e-05
sValzheimers
p1506
F0.0
sVchemical
p1507
F0.00037581475268714013
sVtill
p1508
F7.680992020332167e-05
sVvital
p1509
F6.263579211452336e-05
sVcriterion
p1510
F0.0
sVcalve
p1511
F0.0
sVpure
p1512
F1.4174128088798308e-05
sVensure
p1513
F0.00031317896057261673
sVguarantee
p1514
F0.00018790737634357007
sVpregabaline
p1515
F0.0
sVnonstop
p1516
F0.00018790737634357007
sVanime
p1517
F0.0
sVproduct
p1518
F0.00030723968081328666
sVinflamation
p1519
F0.0
sVmat
p1520
F0.0
sVcocktail
p1521
F6.263579211452336e-05
sVinformation
p1522
F0.000230429760609965
sVmay
p1523
F0.0006883425901470704
sVmax
p1524
F0.00018790737634357007
sVwonderful
p1525
F7.269249603858757e-05
sVspot
p1526
F2.4230832012862523e-05
sVelusive
p1527
F6.263579211452336e-05
sVdiva
p1528
F0.0
sVlaxative
p1529
F0.0
sVosborne
p1530
F0.0
sVmad
p1531
F2.8348256177596616e-05
sVdate
p1532
F0.0002688347207116258
sVsuck
p1533
F0.0004224545611182692
sVmisdiagnosed
p1534
F0.0
sVdata
p1535
F0.00037581475268714013
sVgrow
p1536
F7.680992020332167e-05
sVhopeful
p1537
F0.0
sVman
p1538
F1.912062750408529e-05
sV120
p1539
F0.0
sVstress
p1540
F0.0008833140823381991
sVacid
p1541
F0.000230429760609965
sVnatural
p1542
F0.0002688347207116258
sVwaist
p1543
F3.840496010166083e-05
sVliquid
p1544
F0.00018790737634357007
sVchiropractic
p1545
F0.0
sVwhenever
p1546
F7.680992020332167e-05
sVmaybe
p1547
F0.0
sVsp
p1548
F6.263579211452336e-05
sVradiator
p1549
F0.0
sVq
p1550
F0.0
sVinform
p1551
F0.00025054316845809344
sVswitch
p1552
F0.0006144793616265733
sVtailor
p1553
F0.0
sVgamma
p1554
F0.0
sVverify
p1555
F0.00031317896057261673
sVbasket
p1556
F0.00012527158422904672
sVsa
p1557
F0.00018790737634357007
sV1ohm
p1558
F0.0
sVtalk
p1559
F0.0009692332805145009
sVnearly
p1560
F5.736188251225587e-05
sVexclusive
p1561
F6.263579211452336e-05
sVlsd
p1562
F0.0
sVthieve
p1563
F0.0
sVsciencedirect
p1564
F0.0
sVendep
p1565
F0.0
sVindeed
p1566
F4.8461664025725047e-05
sVepilepsy
p1567
F0.0
sVmainly
p1568
F0.00015361984040664333
sVdamage
p1569
F0.0004224545611182692
sVcourse
p1570
F0.00022678604942077293
sVlarger
p1571
F4.8461664025725047e-05
sVnbsp
p1572
F0.00018790737634357007
sVshake
p1573
F0.00019202480050830415
sVttc
p1574
F0.0
sVcold
p1575
F0.00031500081616721277
sVstill
p1576
F0.0
sVskeleton
p1577
F2.4230832012862523e-05
sVpromote
p1578
F0.00018790737634357007
sVtendency
p1579
F0.00018790737634357007
sVdisconnect
p1580
F6.263579211452336e-05
sVmonitor
p1581
F0.00018790737634357007
sVquivver
p1582
F0.0
sVcomplication
p1583
F0.0
sVreactine
p1584
F0.0
sVsysmptoms
p1585
F0.0
sVpresence
p1586
F2.8348256177596616e-05
sVtirzah
p1587
F0.0
sVmidazolam
p1588
F0.0
sVfaves
p1589
F0.0
sVideation
p1590
F0.0
sVhyoscine
p1591
F0.0
sVwindow
p1592
F5.669651235519323e-05
sVapproriate
p1593
F0.0
sV46222
p1594
F0.0
sVpolicy
p1595
F0.00031317896057261673
sVmail
p1596
F3.840496010166083e-05
sVmain
p1597
F5.098834001089411e-05
sV82q
p1598
F0.0
sVwubipdb7xjy
p1599
F0.0
sVndris
p1600
F0.0
sVnon
p1601
F7.648251001634116e-05
sVlonely
p1602
F7.680992020332167e-05
sVopiods
p1603
F0.0
sVlightheadedness
p1604
F0.0
sVhurtiness
p1605
F0.0
sVkiller
p1606
F0.00016961582409003763
sVinsomnia
p1607
F0.0
sVintroduce
p1608
F0.00012527158422904672
sVpolice
p1609
F3.840496010166083e-05
sVunderneath
p1610
F1.4174128088798308e-05
sVinterview
p1611
F0.00018790737634357007
sVadrenaline
p1612
F0.0
sVnox
p1613
F0.0
sVmotor
p1614
F0.00012527158422904672
sVbase
p1615
F0.000184263665154378
sVhalf
p1616
F0.0001402179350299588
sVrecap
p1617
F6.263579211452336e-05
sVdkmntl027
p1618
F0.0
sVbullshit
p1619
F6.263579211452336e-05
sVhalo
p1620
F0.0
sVoutweigh
p1621
F0.0
sVsusceptibility
p1622
F0.0
sVheache
p1623
F0.0
sVhnbk00yzije
p1624
F0.0
sVpolish
p1625
F3.840496010166083e-05
sVranitidine
p1626
F0.0
sV_____________________________________________________
p1627
F0.0
sVthankful
p1628
F0.0
sVtruthful
p1629
F0.0
sVprophylaxis
p1630
F0.0
sVdidn
p1631
F0.00045889506009804694
sVlithobid
p1632
F0.0
sVdoxy
p1633
F0.0
sVconcerta
p1634
F0.0
sVdysphoria
p1635
F0.0
sVgamble
p1636
F6.263579211452336e-05
sVrealise
p1637
F0.0
sVrock
p1638
F2.4230832012862523e-05
sVinstability
p1639
F0.0
sVentirely
p1640
F5.669651235519323e-05
sVquarter
p1641
F0.00015361984040664333
sVvogue
p1642
F0.0
sVgabaergic
p1643
F0.0
sVen
p1644
F0.0004992644813215908
sVeyelid
p1645
F0.0
sVsignificantly
p1646
F0.0
sVbadly
p1647
F5.669651235519323e-05
sVed
p1648
F7.680992020332167e-05
sVeg
p1649
F0.00018790737634357007
sVnassa
p1650
F0.0
sVabnormal
p1651
F3.840496010166083e-05
sV1993
p1652
F0.0
sVbreakthrough
p1653
F0.0
sV2710
p1654
F0.0
sV1200mg
p1655
F0.0
sVzebra
p1656
F0.0
sVeddie
p1657
F0.0
sVsexually
p1658
F0.00012527158422904672
sVvasovagal
p1659
F0.0
sVassumption
p1660
F6.263579211452336e-05
sVgirl
p1661
F0.00011339302471038646
sVfriday
p1662
F0.0
sVep
p1663
F0.0
sVer
p1664
F0.00021807748811576269
sVcanada
p1665
F0.0
sVultimately
p1666
F6.263579211452336e-05
sVcontainer
p1667
F6.263579211452336e-05
sV3rd
p1668
F3.840496010166083e-05
sVspace
p1669
F0.00019202480050830415
sVprofit
p1670
F6.263579211452336e-05
sVirony
p1671
F3.840496010166083e-05
sVsitagliptin
p1672
F0.0
sVinadequacy
p1673
F0.0
sVincrease
p1674
F0.0016898182444730768
sVseriously
p1675
F0.00021807748811576269
sVpriest
p1676
F6.263579211452336e-05
sVtrauma
p1677
F0.0
sVinternet
p1678
F0.00015361984040664333
sVcorrect
p1679
F0.00019202480050830415
sVhcl
p1680
F0.0
sVchemically
p1681
F0.0
sVearlier
p1682
F5.669651235519323e-05
sVtheory
p1683
F0.00025054316845809344
sVolder
p1684
F0.00015591540897678138
sVvariant
p1685
F0.0
sVmillion
p1686
F0.00018790737634357007
sVrely
p1687
F3.840496010166083e-05
sVpossibility
p1688
F0.0002688347207116258
sVneurotrophin
p1689
F0.0
sVspiel
p1690
F0.0
sVdruginfo
p1691
F0.0
sVcalifornia
p1692
F0.0
sVvalporate
p1693
F0.0
sVbesides
p1694
F0.00019202480050830415
sVclozaril
p1695
F0.0
sVorg
p1696
F0.0009395368817178502
sVinhaler
p1697
F0.0
sVcough
p1698
F9.692332805145009e-05
sVremainder
p1699
F6.263579211452336e-05
sVcard
p1700
F0.00019202480050830415
sVcare
p1701
F0.0009601240025415208
sV2014
p1702
F0.0
sVcouldn
p1703
F0.0002693084336871679
sVlanguage
p1704
F2.4230832012862523e-05
sVwaiter
p1705
F0.00012527158422904672
sVdunno
p1706
F0.00015361984040664333
sVdeprivation
p1707
F0.0
sVtransition
p1708
F3.840496010166083e-05
sVowe
p1709
F7.680992020332167e-05
sVhonest
p1710
F9.692332805145009e-05
sVmotion
p1711
F7.680992020332167e-05
sVthing
p1712
F0.00035054483757489697
sVdisable
p1713
F0.00018790737634357007
sVplace
p1714
F0.00012747085002723526
sVundesirable
p1715
F0.0
sVbargain
p1716
F6.263579211452336e-05
sVpromotion
p1717
F6.263579211452336e-05
sVview
p1718
F4.2522384266394926e-05
sVthink
p1719
F0.0007839457276674969
sVfrequent
p1720
F0.00031317896057261673
sVfirst
p1721
F0.0005481246551171116
sVexotic
p1722
F6.263579211452336e-05
sVanthing
p1723
F0.0
sVconstantly
p1724
F0.0001211541600643126
sVquestion
p1725
F0.0003401790741311594
sVglucagon
p1726
F0.0
sVsafety
p1727
F0.00015361984040664333
sVparkinson
p1728
F0.0
sVone
p1729
F0.0
sVxx
p1730
F0.0
sVspecifically
p1731
F0.0
sVdirectly
p1732
F4.8461664025725047e-05
sVgasp
p1733
F0.0
sVcarry
p1734
F5.736188251225587e-05
sVtransdermal
p1735
F0.0
sVmessage
p1736
F4.8461664025725047e-05
sVopen
p1737
F0.0
sVcheesy
p1738
F6.263579211452336e-05
sVzap
p1739
F0.00012527158422904672
sVsize
p1740
F1.4174128088798308e-05
sVfmri
p1741
F0.0
sVcity
p1742
F7.269249603858757e-05
sVlittle
p1743
F0.0
sVnecessarily
p1744
F0.00015361984040664333
sVsheet
p1745
F0.00014538499207717513
sVsilent
p1746
F7.680992020332167e-05
sVquality
p1747
F0.00019384665610290019
sVthirdly
p1748
F0.0
sVbite
p1749
F0.0004393979707527475
sVhepatic
p1750
F0.0
sVcarbonate
p1751
F0.0
sVoids
p1752
F0.0
sV1a
p1753
F0.0
sVpsychotic
p1754
F0.00012527158422904672
sVfml
p1755
F0.0
sV2
p1756
F0.00040153317758579105
sVesomeprazole
p1757
F0.0
sVcentenarian
p1758
F0.0
sVmilage
p1759
F0.0
sV1k
p1760
F0.0
sVcite
p1761
F0.0
sVfriend
p1762
F0.00010197668002178822
sV3
p1763
F0.0010347113504822765
sVfexofenadine
p1764
F0.0
sVmethylprednisolone
p1765
F0.0
sVallegedly
p1766
F0.0
sVcope
p1767
F0.00018790737634357007
sVdnz4gdmjgg
p1768
F0.0
sVseason
p1769
F6.263579211452336e-05
sVkenny
p1770
F0.0
sVadrenergic
p1771
F0.0
sVaccurately
p1772
F3.840496010166083e-05
sVprescribers
p1773
F0.0
sVbuts
p1774
F6.263579211452336e-05
sVerectile
p1775
F0.0
sVoutcome
p1776
F0.0
sVridiculous
p1777
F6.263579211452336e-05
sVannoy
p1778
F0.00037581475268714013
sVosteopath
p1779
F0.0
sVbutt
p1780
F6.263579211452336e-05
sVx2
p1781
F0.0
sVoccurence
p1782
F0.0
sV10mg
p1783
F0.0
sVcopy
p1784
F4.8461664025725047e-05
sVspecify
p1785
F0.00012527158422904672
sVboyfriend
p1786
F0.00025054316845809344
sV11
p1787
F1.2747085002723527e-05
sV10
p1788
F0.00015933856253404408
sV13
p1789
F2.4230832012862523e-05
sV12
p1790
F5.098834001089411e-05
sV15
p1791
F6.373542501361763e-05
sV14
p1792
F0.00026653915214148777
sV17
p1793
F7.269249603858757e-05
sV16
p1794
F7.269249603858757e-05
sV19
p1795
F2.4230832012862523e-05
sV18
p1796
F0.00014538499207717513
sVgotta
p1797
F0.00019202480050830415
sVwar
p1798
F0.0001152148803049825
sVrehab
p1799
F6.263579211452336e-05
sVmutilation
p1800
F0.0
sVfuture
p1801
F2.8348256177596616e-05
sVnewtoxnet
p1802
F0.0
sVcopay
p1803
F0.0
sVcollege
p1804
F0.00031317896057261673
sVcounselor
p1805
F6.263579211452336e-05
sVoath
p1806
F6.263579211452336e-05
sVproactive
p1807
F0.0
sVpowder
p1808
F7.680992020332167e-05
sVpre
p1809
F7.680992020332167e-05
sVnifedipine
p1810
F0.0
sVcoconut
p1811
F2.8348256177596616e-05
sVillness
p1812
F0.0
sVpiece
p1813
F7.269249603858757e-05
sVana
p1814
F6.263579211452336e-05
sVnicer
p1815
F3.840496010166083e-05
sVmindfulness
p1816
F0.0
sV20x
p1817
F0.0
sVpro
p1818
F0.0
sVcymbalta
p1819
F0.0
sVimpingement
p1820
F0.0
sVmarijuana
p1821
F0.00031317896057261673
sVphenobarbital
p1822
F0.0
sVdiabeta
p1823
F0.0
sVwoah
p1824
F6.263579211452336e-05
sVsay
p1825
F0.0006947161326484321
sVpubmed
p1826
F0.0
sVtetracyclic
p1827
F0.0
sV20g
p1828
F0.0
sVtylenol
p1829
F0.0
sVportion
p1830
F6.263579211452336e-05
sVbreakfast
p1831
F3.840496010166083e-05
sVrecover
p1832
F2.4230832012862523e-05
sVsaw
p1833
F0.00038769331220580037
sVpebble
p1834
F0.0
sVvasodilator
p1835
F0.0
sVpod
p1836
F0.0
sV_r3ni1nd
p1837
F0.0
sVgambapintine
p1838
F0.0
sVconversion
p1839
F6.263579211452336e-05
sVsumatriptan
p1840
F0.0
sVexploratory
p1841
F0.0
sVefficient
p1842
F0.0
sVadvil
p1843
F0.0
sVbtng
p1844
F0.0
sVisolate
p1845
F0.0
sVaside
p1846
F0.0001211541600643126
sVnote
p1847
F0.000184263665154378
sVequipment
p1848
F0.0
sVideal
p1849
F7.680992020332167e-05
sVpotential
p1850
F0.0006263579211452335
sVtake
p1851
F0.0013320703827846086
sVonline
p1852
F0.00019202480050830415
sVinterior
p1853
F6.263579211452336e-05
sVdestroy
p1854
F0.00012527158422904672
sVconcern
p1855
F0.0006889937132597569
sVimpair
p1856
F0.0
sVluvox
p1857
F0.0
sVchannel
p1858
F0.00015361984040664333
sV200
p1859
F0.00018790737634357007
sVbegin
p1860
F0.00033923164818007527
sVprinter
p1861
F6.263579211452336e-05
sVpain
p1862
F0.006760402131588643
sVbotulinum
p1863
F0.0
sVopposite
p1864
F7.680992020332167e-05
sVtrack
p1865
F0.00019202480050830415
sVprice
p1866
F7.269249603858757e-05
sVambulance
p1867
F0.0
sVmolecule
p1868
F0.0
sVupregulating
p1869
F0.0
sVbeta
p1870
F0.0013153516344049903
sVimportantly
p1871
F0.0
sVattack
p1872
F0.0003543532022199577
sVtract
p1873
F0.0
sVcvoj5a9
p1874
F0.0
sVknee
p1875
F0.0
sVamerica
p1876
F0.0
sVswing
p1877
F0.00025054316845809344
sVtendon
p1878
F0.0
sVnaturopath
p1879
F0.0
sVespecially
p1880
F0.00025513430559836954
sVlistful
p1881
F0.0
sVthalidomide
p1882
F0.0
sVfoot
p1883
F9.692332805145009e-05
sVaverage
p1884
F7.680992020332167e-05
sVlater
p1885
F0.00041192414421866287
sVdrive
p1886
F0.0003456446409149475
sVgracefully
p1887
F2.4230832012862523e-05
sVvulvodynia
p1888
F0.0
sVcomorbidity
p1889
F0.0
sVproperly
p1890
F4.2522384266394926e-05
sVpdoc
p1891
F0.0
sVpattern
p1892
F0.0
sVjittery
p1893
F0.0
sVprofessional
p1894
F0.00019202480050830415
sVtypically
p1895
F0.0007516295053742803
sVmoon
p1896
F7.680992020332167e-05
sVquantity
p1897
F0.0
sVshop
p1898
F0.00012527158422904672
sVholistic
p1899
F6.263579211452336e-05
sVstimulator
p1900
F0.0
sVdrastically
p1901
F0.0
sVshot
p1902
F4.2522384266394926e-05
sVshow
p1903
F0.00010835022252314996
sVoiploids
p1904
F0.0
sVcheap
p1905
F7.680992020332167e-05
sVtizanidine
p1906
F0.0
sVelevate
p1907
F0.0
sVbright
p1908
F7.269249603858757e-05
sVtherapist
p1909
F0.001064808465946897
sVimplanon
p1910
F0.0
sVinconsistent
p1911
F7.680992020332167e-05
sVtiredness
p1912
F0.0
sVhack
p1913
F6.263579211452336e-05
sVamytryptyline
p1914
F0.0
sVscarce
p1915
F0.0
sVaggressive
p1916
F0.0
sVsuperb
p1917
F0.0
sVnlm
p1918
F0.0
sVadhere
p1919
F0.0
sV120mg
p1920
F0.0
sVhelp
p1921
F0.0015169031153240994
sVfibre
p1922
F0.0
sVslow
p1923
F0.00022678604942077293
sVdice
p1924
F6.263579211452336e-05
sVglucotrol
p1925
F0.0
sVtitle
p1926
F3.840496010166083e-05
sVconduction
p1927
F0.0
sVfibro
p1928
F0.0
sV500mg
p1929
F0.0
sVenough
p1930
F0.0
sVfluid
p1931
F0.00018790737634357007
sVharangue
p1932
F0.0
sVseptember
p1933
F0.0
sVblack
p1934
F2.8348256177596616e-05
sVladybit
p1935
F0.0
sVpartake
p1936
F6.263579211452336e-05
sVsnip
p1937
F6.263579211452336e-05
sVimprove
p1938
F0.0003840496010166083
sVextracellular
p1939
F0.0
sVawareness
p1940
F0.0
sVaderall
p1941
F0.0
sVfda
p1942
F0.0
sVbackup
p1943
F0.00012527158422904672
sVnootropics
p1944
F0.0
sVtinnitus
p1945
F0.0
sVpsychiatrist
p1946
F0.00012527158422904672
sVffs
p1947
F0.0
sVatypical
p1948
F0.0004384505448016634
sVhorrible
p1949
F0.000691289281829895
sVmtx
p1950
F0.0
sVtruly
p1951
F7.680992020332167e-05
sVtl
p1952
F0.0
sVcannot
p1953
F0.00015591540897678138
sVssi
p1954
F0.0
sV2mg
p1955
F0.0
sVsciatic
p1956
F0.0
sVdiscontinuation
p1957
F0.0
sVconjunction
p1958
F0.0
sVhyphenate
p1959
F0.0
sVgel
p1960
F0.00025054316845809344
sVinpatient
p1961
F0.0
sVblind
p1962
F0.000230429760609965
sVresource
p1963
F0.00012527158422904672
sVclotrimazole
p1964
F0.0
sVsharpest
p1965
F0.0
sVendorphin
p1966
F0.0
sVseldom
p1967
F6.263579211452336e-05
sVobliterate
p1968
F0.0
sVdisagree
p1969
F0.0
sVisnt
p1970
F6.263579211452336e-05
sVmedial
p1971
F0.0
sVmorning
p1972
F0.00138257856365979
sVkegals
p1973
F0.0
sVbarbaric
p1974
F0.0
sVstupid
p1975
F4.8461664025725047e-05
sVesophageal
p1976
F0.0
sVvision
p1977
F0.0
sVwiki
p1978
F0.0
sVconcers
p1979
F0.0
sVuti
p1980
F0.0
sVlethargy
p1981
F0.0
sVbuuuuut
p1982
F0.0
sVburst
p1983
F3.840496010166083e-05
sVphysically
p1984
F0.00018790737634357007
sVmalate
p1985
F0.0
sValcoholism
p1986
F0.00025054316845809344
sVseat
p1987
F6.263579211452336e-05
sVrelative
p1988
F6.263579211452336e-05
sVtrick
p1989
F9.692332805145009e-05
sVnamely
p1990
F0.0
sVasleep
p1991
F0.0003456446409149475
sVanyways
p1992
F3.840496010166083e-05
sVhell
p1993
F0.0002423083201286252
sVversus
p1994
F3.840496010166083e-05
sVstigma
p1995
F0.0
sVsurgery
p1996
F0.0011900800501759437
sVsport
p1997
F3.840496010166083e-05
sVrepercussion
p1998
F0.0
sVwonder
p1999
F0.00033923164818007527
sVmultivitamin
p2000
F0.0
sVdetect
p2001
F0.00012527158422904672
sVinhibitory
p2002
F0.0
sVglipizide
p2003
F0.0
sVharvey
p2004
F0.0
sVreview
p2005
F0.0
sVskelaxin
p2006
F0.0
sVdefinite
p2007
F6.263579211452336e-05
sVheavy
p2008
F4.2522384266394926e-05
sVlabel
p2009
F0.0006300016323344255
sVwhereabouts
p2010
F6.263579211452336e-05
sVdws
p2011
F0.0
sVbehind
p2012
F1.912062750408529e-05
sVlandline
p2013
F6.263579211452336e-05
sV10mins
p2014
F0.0
sVherbal
p2015
F0.0004384505448016634
sVyesterday
p2016
F6.263579211452336e-05
sVlisinopril
p2017
F0.0
sVlycan
p2018
F0.0
sVacross
p2019
F0.00014538499207717513
sVverification
p2020
F0.00037581475268714013
sVnotice
p2021
F0.00022678604942077293
sVparent
p2022
F0.0001152148803049825
sV22842584
p2023
F0.0
sVcomp
p2024
F6.263579211452336e-05
sVscreen
p2025
F0.00030723968081328666
sVflow
p2026
F0.00025054316845809344
sVwednesday
p2027
F0.0
sVblame
p2028
F2.4230832012862523e-05
sVadept
p2029
F0.0
sVsteroid
p2030
F0.0
sVspare
p2031
F7.680992020332167e-05
sVtum
p2032
F0.0
sVheal
p2033
F0.0
sVjk
p2034
F0.0
sVvenlafaxine
p2035
F0.0
sVarticle
p2036
F0.00021807748811576269
sVspark
p2037
F0.0
sVinterfere
p2038
F6.263579211452336e-05
sVcome
p2039
F0.0004525215175966852
sVhurty
p2040
F0.0
sVquack
p2041
F0.00012527158422904672
sVreaction
p2042
F0.0003840496010166083
sVcircumference
p2043
F0.0
sVphilosophically
p2044
F0.0
sVcyclophosphamide
p2045
F0.0
sVtopamax
p2046
F0.0
sVmany
p2047
F0.0
sVregion
p2048
F3.840496010166083e-05
sVsodium
p2049
F0.0
sVdedicate
p2050
F0.0
sVcontract
p2051
F3.840496010166083e-05
sVrestroom
p2052
F6.263579211452336e-05
sVndri
p2053
F0.0
sVvilazodone
p2054
F0.0
sVconcentrate
p2055
F0.00018790737634357007
sVpurely
p2056
F3.840496010166083e-05
sVaura
p2057
F0.0004384505448016634
sV550mg
p2058
F0.0
sVsapolsky
p2059
F0.0
sVdelirium
p2060
F0.0
sVlatuda
p2061
F0.0
sVbackpack
p2062
F6.263579211452336e-05
sVnearby
p2063
F3.840496010166083e-05
sVduty
p2064
F7.680992020332167e-05
sVamong
p2065
F0.0001152148803049825
sVlumieresdelaville
p2066
F0.0
sVafterwards
p2067
F0.0001211541600643126
sVcancer
p2068
F0.00031317896057261673
sVtonne
p2069
F0.0
sVcolor
p2070
F4.8461664025725047e-05
sVepileptic
p2071
F0.0
sVpot
p2072
F0.0001152148803049825
sVperiod
p2073
F0.0002976566898647645
sVpop
p2074
F0.00030723968081328666
sVadjudication
p2075
F0.0
sV60
p2076
F0.000230429760609965
sV99
p2077
F3.840496010166083e-05
sVpole
p2078
F3.840496010166083e-05
sVtricyclic
p2079
F0.0
sVdiffer
p2080
F0.00012527158422904672
sV66
p2081
F6.263579211452336e-05
sVstablon
p2082
F0.0
sV69
p2083
F0.0
sVbizarre
p2084
F6.263579211452336e-05
sVprogablin
p2085
F0.0
sVprocedural
p2086
F0.0
sVhydrate
p2087
F0.0
sVboat
p2088
F0.00012527158422904672
sVworthwhile
p2089
F6.263579211452336e-05
sVturkey
p2090
F0.0004384505448016634
sVbetter
p2091
F0.00047801568760213217
sVcholestatic
p2092
F0.0
sVcompanionship
p2093
F6.263579211452336e-05
sV18mg
p2094
F0.0
sVstretch
p2095
F0.00030723968081328666
sVwest
p2096
F0.00012527158422904672
sVinvert
p2097
F0.0
sVlocally
p2098
F6.263579211452336e-05
sVurge
p2099
F0.0
sVvacation
p2100
F6.263579211452336e-05
sVmark
p2101
F4.8461664025725047e-05
sVbreath
p2102
F4.2522384266394926e-05
sVpulsatile
p2103
F0.0
sVtriptons
p2104
F0.0
sV15ml
p2105
F0.0
sVpeaceful
p2106
F6.263579211452336e-05
sVcardiovascular
p2107
F0.0
sVhelicopter
p2108
F0.0
sVreflex
p2109
F0.0
sV15mg
p2110
F0.0
sV6a
p2111
F0.0
sVdirection
p2112
F2.5494170005447054e-05
sVmpd
p2113
F0.0
sVpioglitazone
p2114
F0.0
sVexasperate
p2115
F0.0
sVinfluence
p2116
F4.8461664025725047e-05
sVthousand
p2117
F9.692332805145009e-05
sVbmi
p2118
F0.0
sVcleave
p2119
F0.0
sVintricacy
p2120
F0.0
sVissue
p2121
F0.0015507732488232015
sVcystitis
p2122
F0.0
sVobserve
p2123
F3.840496010166083e-05
sVwake
p2124
F0.0007026941283730132
sVminister
p2125
F6.263579211452336e-05
sVtreatment
p2126
F0.004133962279558541
sVoverdose
p2127
F0.0006889937132597569
sVpsychotherapy
p2128
F0.0
sVevidence
p2129
F0.0002688347207116258
sVirrelevant
p2130
F6.263579211452336e-05
sVformer
p2131
F1.4174128088798308e-05
sVdhea
p2132
F0.0
sVsound
p2133
F0.0005102686111967391
sVconsultant
p2134
F0.00012527158422904672
sV8388533_f520
p2135
F0.0
sVcash
p2136
F3.840496010166083e-05
sVpsychologytoday
p2137
F0.0
sVparagard
p2138
F0.0
sVvoltaren
p2139
F0.0
sVnotoriety
p2140
F0.0
sVignition
p2141
F0.0
sVeditorial
p2142
F0.0
sVreport
p2143
F0.0005376694414232516
sVsituation
p2144
F0.00046085952121993
sVtemperature
p2145
F3.840496010166083e-05
sVzonked
p2146
F0.0
sVqzz7fkc1uny
p2147
F0.0
sVviagra
p2148
F0.00012527158422904672
sValcoholic
p2149
F6.263579211452336e-05
sVmucus
p2150
F0.0
sVsecondary
p2151
F7.269249603858757e-05
sVprayer
p2152
F0.0
sVside_effect
p2153
F0.0
sVdubious
p2154
F0.0
sVquiet
p2155
F2.8348256177596616e-05
sVstrain
p2156
F0.0
sVsudden
p2157
F7.269249603858757e-05
sVdangerously
p2158
F6.263579211452336e-05
sVyr
p2159
F6.263579211452336e-05
sVimitrex
p2160
F0.0
sVprotein
p2161
F0.0
sVproperty
p2162
F7.087064044399153e-05
sVeveryday
p2163
F0.00025054316845809344
sVworry
p2164
F0.00025513430559836954
sVbinary
p2165
F6.263579211452336e-05
sVdifferent
p2166
F0.0007087064044399154
sVpas
p2167
F0.000230429760609965
sVritalin
p2168
F0.0
sVremission
p2169
F0.0
sVdoctor
p2170
F0.0017538021792066537
sVinquire
p2171
F6.263579211452336e-05
sVpay
p2172
F5.098834001089411e-05
sVattribute
p2173
F0.0001152148803049825
sVrelaxant
p2174
F0.0
sVtrip
p2175
F0.00019202480050830415
sVbatiments
p2176
F0.0
sVfood
p2177
F0.000184263665154378
sVfatima
p2178
F0.0
sVhtml
p2179
F0.00018790737634357007
sVpad
p2180
F0.0001152148803049825
sVunderestimate
p2181
F6.263579211452336e-05
sVextraintestinal
p2182
F0.0
sVdocument
p2183
F0.00019202480050830415
sVintermediary
p2184
F0.0
sVbreakdown
p2185
F6.263579211452336e-05
sVexhaust
p2186
F0.0
sVoil
p2187
F0.0003456446409149475
sVween
p2188
F0.0
sVsickness
p2189
F6.263579211452336e-05
sVnest
p2190
F3.840496010166083e-05
sVassist
p2191
F6.263579211452336e-05
sVdriver
p2192
F3.840496010166083e-05
sVrequire
p2193
F0.0006889937132597569
sVdiflucan
p2194
F0.0
sVweed
p2195
F0.00031317896057261673
sVscientist
p2196
F0.0
sVdecently
p2197
F6.263579211452336e-05
sVvestibular
p2198
F0.0
sVanecdotal
p2199
F0.0
sVrelapse
p2200
F0.0
sVmacrolides
p2201
F0.0
sVtotally
p2202
F0.0002126119213319746
sVsix
p2203
F7.680992020332167e-05
sVfoggy
p2204
F0.00012527158422904672
sVweave
p2205
F6.263579211452336e-05
sVdrain
p2206
F6.263579211452336e-05
sVinsomniac
p2207
F0.0
sVintermittent
p2208
F0.0
sVminimize
p2209
F6.263579211452336e-05
sVantihistamine
p2210
F0.0
sVranch
p2211
F6.263579211452336e-05
sVlady
p2212
F2.8348256177596616e-05
sVroughly
p2213
F0.0
sVsyed
p2214
F0.0
sVaccountable
p2215
F0.0
sVwithout
p2216
F0.0
sVrelief
p2217
F0.0
sVbottle
p2218
F0.00031500081616721277
sV92o5yaigmqe
p2219
F0.0
sVmodel
p2220
F4.8461664025725047e-05
sVreward
p2221
F3.840496010166083e-05
sVinstillation
p2222
F0.0
sVnah
p2223
F6.263579211452336e-05
sVjustify
p2224
F0.0
sVsummer
p2225
F7.269249603858757e-05
sVremember
p2226
F0.00011472376502451174
sVnc
p2227
F6.263579211452336e-05
sVbenzo
p2228
F0.0
sVreaaaally
p2229
F0.0
sVmoney
p2230
F0.0001152148803049825
sV100mgs
p2231
F0.0
sVergot
p2232
F0.0
sVrest
p2233
F8.922959501906468e-05
sVrisk
p2234
F0.000508847472270113
sVaccumulate
p2235
F0.0
sVdehydration
p2236
F0.0
sVreputable
p2237
F0.0
sVkill
p2238
F0.00012756715279918477
sVaspect
p2239
F7.680992020332167e-05
sVnoize
p2240
F0.0
sVn
p2241
F1.2747085002723527e-05
sVreality
p2242
F0.00012527158422904672
sVspeed
p2243
F1.2747085002723527e-05
sVtrimipramine
p2244
F0.0
sVplateau
p2245
F0.0
sVweekly
p2246
F0.00025054316845809344
sVketamine
p2247
F0.0
sVdeath
p2248
F0.0003634624801929378
sVclueless
p2249
F0.0
sVhepatotoxicity
p2250
F0.0
sVangiotensin
p2251
F0.0
sVapplication
p2252
F0.0001152148803049825
sVpreventatively
p2253
F0.0
sVconclude
p2254
F0.0
sVsenseless
p2255
F6.263579211452336e-05
sViphones
p2256
F0.0
sVcrohn
p2257
F0.0
sVblog
p2258
F7.680992020332167e-05
sVwall
p2259
F0.0001152148803049825
sVahhhh
p2260
F0.0
sV4
p2261
F0.0002230739875476617
sVoverview
p2262
F0.0
sVpiriton
p2263
F0.0
sVfunctionality
p2264
F6.263579211452336e-05
sVglyburide
p2265
F0.0
sVdisrupt
p2266
F0.0
sVpill
p2267
F0.0016911663870921305
sVmomentum
p2268
F6.263579211452336e-05
sV0300
p2269
F0.0
sVami
p2270
F0.0
sVaround
p2271
F0.0002804358700599176
sVohai
p2272
F0.0
sVread
p2273
F0.000411049714575151
sVdiphenhydramine
p2274
F0.0
sVmop
p2275
F0.0
sVdiscontinue
p2276
F0.0
sVgonna
p2277
F7.269249603858757e-05
sVriperdol
p2278
F0.0
sVdark
p2279
F0.0
sVnp
p2280
F0.0
sVinhibition
p2281
F0.0
sVtingle
p2282
F0.0
sVmom
p2283
F0.0005637221290307102
sVfrusemide
p2284
F0.0
sVworld
p2285
F7.087064044399153e-05
sVlignocaine
p2286
F0.0
sVrebecca
p2287
F0.0
sVvague
p2288
F0.0
sVmod
p2289
F6.263579211452336e-05
sVtegretol
p2290
F0.0
sVthiazolidinediones
p2291
F0.0
sVfibromyalgia
p2292
F0.0
sVstranger
p2293
F6.263579211452336e-05
sVpoo
p2294
F6.263579211452336e-05
sVssnri
p2295
F0.0
sVeverytime
p2296
F6.263579211452336e-05
sVmiracle
p2297
F0.0
sVsanity
p2298
F0.0
sVhepatotoxic
p2299
F0.0
sVphysiotherapy
p2300
F0.0
sVeither
p2301
F0.00015296502003268232
sVdrainage
p2302
F0.0
sVoutput
p2303
F6.263579211452336e-05
sVglycol
p2304
F0.0
sVpassionate
p2305
F4.8461664025725047e-05
sVstationary
p2306
F0.0
sVwuling
p2307
F0.0
sVclap
p2308
F3.840496010166083e-05
sVobstruct
p2309
F0.0
sVvicoprofen
p2310
F0.0
sVintervene
p2311
F0.0
sVdoll
p2312
F0.00012527158422904672
sVdebilitate
p2313
F0.0
sVcompetition
p2314
F7.680992020332167e-05
sVchuck
p2315
F0.0
sVcancel
p2316
F0.00012527158422904672
sVbjomvux77
p2317
F0.0
sVerase
p2318
F6.263579211452336e-05
sVunsustainable
p2319
F0.0
sVibuprofen
p2320
F0.0
sVduration
p2321
F0.0
sV72
p2322
F6.263579211452336e-05
sVdivine
p2323
F6.263579211452336e-05
sVbigger
p2324
F4.8461664025725047e-05
sVguesstimate
p2325
F0.0
sVspasm
p2326
F0.0
sVnonzero
p2327
F0.0
sVgross
p2328
F6.263579211452336e-05
sVmood
p2329
F0.0012289587232531467
sVbenzodiazepine
p2330
F0.0
sVcavity
p2331
F0.0
sVhighest
p2332
F0.00018790737634357007
sVlegal
p2333
F0.00012527158422904672
sVconservative
p2334
F3.840496010166083e-05
sVbiest
p2335
F0.0
sVcannabis
p2336
F0.0
sVcritical
p2337
F3.840496010166083e-05
sVexit
p2338
F2.4230832012862523e-05
sVinject
p2339
F0.00018790737634357007
sVpropylthiouracil
p2340
F0.0
sVprovider
p2341
F0.0
sVwelp
p2342
F0.0
sVmaoi
p2343
F0.0
sVmoderate
p2344
F0.00025054316845809344
sVsituate
p2345
F0.0
sVknife
p2346
F2.4230832012862523e-05
sVrefer
p2347
F0.0005637221290307102
sVsibo
p2348
F0.0
sVprocess
p2349
F0.0005376694414232516
sVsmiley
p2350
F0.0
sVtomorrow
p2351
F0.00012527158422904672
sVscientific
p2352
F6.263579211452336e-05
sVpower
p2353
F2.8348256177596616e-05
sVuterine
p2354
F0.0
sVtropicamide
p2355
F0.0
sVunmask
p2356
F0.0
sVnotable
p2357
F6.263579211452336e-05
sVianad
p2358
F0.0
sVmechanism_of_action
p2359
F0.0
sVforgetfulness
p2360
F0.0
sVhorizonal
p2361
F0.0
sVcalmer
p2362
F0.0
sVsixty
p2363
F0.0
sVsadder
p2364
F0.0
sVthrow
p2365
F0.0004224545611182692
sVmanufacturer
p2366
F0.0
sVjournaling
p2367
F0.0
sVstone
p2368
F2.4230832012862523e-05
sVx31
p2369
F0.0
sVok
p2370
F0.00019384665610290019
sVpackage
p2371
F4.8461664025725047e-05
sVjeep
p2372
F0.0
sVketoprofen
p2373
F0.0
sVindustry
p2374
F0.00018790737634357007
sVparalysis
p2375
F0.0
sVfavorite
p2376
F2.4230832012862523e-05
sVob
p2377
F0.0
sVmeal
p2378
F7.269249603858757e-05
sVtumor
p2379
F0.0
sVepitalon
p2380
F0.0
sVlocalise
p2381
F0.0
sVbenzos
p2382
F0.0
sV75mg
p2383
F0.0
sVsolidify
p2384
F0.0
sVneighbor
p2385
F7.680992020332167e-05
sVact
p2386
F0.00012756715279918477
sVluck
p2387
F0.0006300016323344255
sVantibody
p2388
F0.0
sVianal
p2389
F0.0
sVroad
p2390
F0.0001152148803049825
sVop
p2391
F0.0006889937132597569
sVamber
p2392
F0.00031317896057261673
sVa682388
p2393
F0.0
sVquietly
p2394
F3.840496010166083e-05
sVdesyrel
p2395
F0.0
sVlantus
p2396
F0.0
sVbraggart
p2397
F0.0
sVclenazopam
p2398
F0.0
sVcommunication
p2399
F0.0
sVimage
p2400
F0.00015361984040664333
sVamitriptalyne
p2401
F0.0
sVsplint
p2402
F0.0
sVgeib
p2403
F0.0
sVspinal
p2404
F0.0
sVstruggle
p2405
F0.0004992644813215908
sVnicotine
p2406
F0.0
sVinbox
p2407
F0.0
sVhomeless
p2408
F6.263579211452336e-05
sVapologize
p2409
F0.00012527158422904672
sVactually
p2410
F0.0002230739875476617
sVamitryline
p2411
F0.0
sVhatha
p2412
F0.0
sVempathetic
p2413
F0.0
sVtechnically
p2414
F7.680992020332167e-05
sVpharmaceutical
p2415
F0.0
sVfast
p2416
F5.669651235519323e-05
sVprazosin
p2417
F0.0
sVlog
p2418
F0.0004384505448016634
sVconcussive
p2419
F0.0
sVnline
p2420
F0.0
sVaren
p2421
F0.00010835022252314996
sVwaffer
p2422
F0.0
sVstrictly
p2423
F3.840496010166083e-05
sVthere
p2424
F0.0
sVfuriex
p2425
F0.0
sVlol
p2426
F0.0004384505448016634
sVpolyphony
p2427
F0.0
sVstart
p2428
F0.0005669651235519323
sVadverse
p2429
F0.0
sVparoxtine
p2430
F0.0
sVdayquil
p2431
F0.0
sVlow
p2432
F0.0007937511729727052
sVseasonal
p2433
F0.0
sVnitric
p2434
F6.263579211452336e-05
sVzolpidem
p2435
F0.0
sVmoclobemide
p2436
F0.0
sVbubble
p2437
F6.263579211452336e-05
sVenergy
p2438
F0.0006263579211452335
sVallergic
p2439
F0.00018790737634357007
sVshower
p2440
F6.263579211452336e-05
sVspicy
p2441
F3.840496010166083e-05
sVcomplete
p2442
F1.4174128088798308e-05
sVfluphenazine
p2443
F0.0
sVbuggy
p2444
F6.263579211452336e-05
sVremix
p2445
F0.00037581475268714013
sVamongst
p2446
F2.4230832012862523e-05
sVcabinet
p2447
F0.00012527158422904672
sVbookstore
p2448
F6.263579211452336e-05
sVbrain
p2449
F0.0010903874405788134
sVmdd
p2450
F0.0
sVcycle
p2451
F0.00030723968081328666
sVlymph
p2452
F0.0
sVe
p2453
F8.922959501906468e-05
sVflatulence
p2454
F0.0
sVorthostatic
p2455
F0.0
sVamplify
p2456
F0.0
sVpull
p2457
F4.2522384266394926e-05
sVregimen
p2458
F0.0
sVoctober
p2459
F0.0
sVromantic
p2460
F6.263579211452336e-05
sVcirculation
p2461
F0.0
sVrage
p2462
F0.00012527158422904672
sVdefault
p2463
F6.263579211452336e-05
sVhardly
p2464
F0.0001152148803049825
sVnadolol
p2465
F0.0
sVanyway
p2466
F0.00029076998415435027
sVexcruciate
p2467
F0.0
sVvomit
p2468
F0.0006263579211452335
sVbiomesh
p2469
F0.0
sVmedrol
p2470
F0.0
sVaneurysm
p2471
F0.0
sVdirty
p2472
F3.840496010166083e-05
sVtrigeminal
p2473
F0.0
sVagree
p2474
F0.00015591540897678138
sVexpect
p2475
F7.01089675149794e-05
sVaa
p2476
F0.0
sVmaxalt
p2477
F0.0
sVhaloperidol
p2478
F0.0
sVab
p2479
F0.0
sVautoimmune
p2480
F0.0
sVad
p2481
F0.0001152148803049825
sVcbd
p2482
F0.0
sVtaste
p2483
F9.692332805145009e-05
sVcertain
p2484
F0.00010835022252314996
sVdivalproex
p2485
F0.0
sVdescribe
p2486
F0.00046085952121993
sVdeep
p2487
F2.8348256177596616e-05
sVgeneral
p2488
F0.0
sVexamine
p2489
F7.680992020332167e-05
sVhypertension
p2490
F0.0
sVtogether
p2491
F0.0
sVfile
p2492
F0.00012527158422904672
sVav
p2493
F0.0
sVgirlfriend
p2494
F0.00012527158422904672
sVmelatonin
p2495
F0.0
sVcrappiness
p2496
F0.0
sVhappy
p2497
F0.00014174128088798306
sVcream
p2498
F0.0002688347207116258
sVtedious
p2499
F0.0
sVhasnt
p2500
F0.0
sVyoga
p2501
F0.0008142652974888036
sVbrighter
p2502
F6.263579211452336e-05
sVhydralazine
p2503
F0.0
sV325mg
p2504
F0.0
sVbackstroke
p2505
F0.0
sVdiarrhea
p2506
F0.00031317896057261673
sV19344297
p2507
F0.0
sVwu4nqcpv9yc
p2508
F0.0
sVol
p2509
F3.840496010166083e-05
sVintrospection
p2510
F0.0
sVtight
p2511
F9.692332805145009e-05
sV5
p2512
F0.0002230739875476617
sVactifed
p2513
F0.0
sVdoxylamine
p2514
F0.0
sVinstantly
p2515
F0.00012527158422904672
sVredd
p2516
F0.0
sVpoor
p2517
F4.461479750953234e-05
sVbriefly
p2518
F0.00012527158422904672
sVnarco
p2519
F0.0
sVxanax
p2520
F0.0
sVnaproxen
p2521
F0.0
sVtime
p2522
F0.0
sVdrift
p2523
F0.0
sVcatastrophize
p2524
F0.0
sVa1
p2525
F0.0
sVui0
p2526
F0.0
sVimportant
p2527
F0.00046085952121993
sVcoverage
p2528
F0.0
sVn1
p2529
F0.0
sVtackle
p2530
F2.4230832012862523e-05
sVrevolve
p2531
F0.0
sVintimacy
p2532
F0.0
sVnoticeable
p2533
F6.263579211452336e-05
sVtricky
p2534
F6.263579211452336e-05
sVinsurance
p2535
F0.0007516295053742803
sVunbind
p2536
F0.0
sVclinically
p2537
F0.0
sVbilateral
p2538
F0.0
sVarrousal
p2539
F0.0
sVmask
p2540
F6.263579211452336e-05
sVtitration
p2541
F0.0
sVmimic
p2542
F6.263579211452336e-05
sVu
p2543
F0.0003634624801929378
sVbehavioral
p2544
F0.0
sValright
p2545
F0.0001152148803049825
sVhusky
p2546
F6.263579211452336e-05
sVcps
p2547
F0.0
sVoral
p2548
F0.0006889937132597569
sVoriginal
p2549
F4.2522384266394926e-05
sVcatapres
p2550
F0.0
sVcorticosteroid
p2551
F0.0
sVconsider
p2552
F0.0003827014583975543
sVmaximum
p2553
F0.00025054316845809344
sVroman
p2554
F0.0
sVhydrobromide
p2555
F0.0
sVallergy
p2556
F0.0005637221290307102
sVdollar
p2557
F6.263579211452336e-05
sVmonth
p2558
F0.0014032386807910323
sVsulfonylurea
p2559
F0.0
sVsurgical
p2560
F0.0
sVcommute
p2561
F6.263579211452336e-05
sVnitroglycerin
p2562
F0.0
sVoxycodone
p2563
F0.0
sVpicturebook
p2564
F0.0
sVdahlia
p2565
F0.0
sVfollow
p2566
F0.000184263665154378
sVmeditation
p2567
F0.0
sVcatheterize
p2568
F6.263579211452336e-05
sVhardcore
p2569
F0.00018790737634357007
sVreluctant
p2570
F0.0
sVsynthetic
p2571
F6.263579211452336e-05
sVresponsiveness
p2572
F0.0
sVcareful
p2573
F0.0002688347207116258
sVtopiramate
p2574
F0.0
sVcatastrophe
p2575
F0.0
sVtv
p2576
F0.00025054316845809344
sVgyns
p2577
F0.0
sVwatch
p2578
F0.0
sVwhite
p2579
F4.2522384266394926e-05
sVthursday
p2580
F0.0
sVspirit
p2581
F2.4230832012862523e-05
sVtn
p2582
F0.0
sVcommonly
p2583
F0.0
sVinvestigational
p2584
F0.0
sVtm
p2585
F6.263579211452336e-05
sVdairy
p2586
F0.0
sV1mg
p2587
F0.0
sVti
p2588
F0.0
sVlin
p2589
F0.0
sVsmile
p2590
F3.840496010166083e-05
sVpresentation
p2591
F0.00018790737634357007
sVendogenous
p2592
F0.0
sVcase
p2593
F0.0004393979707527475
sVfax
p2594
F0.0
sVwoman
p2595
F0.0001700895370655797
sVappointment
p2596
F0.0010021726738323738
sVworse
p2597
F0.0005669651235519323
sVstraightforward
p2598
F0.0
sVsong
p2599
F7.087064044399153e-05
sVfar
p2600
F0.00021670044504629992
sVapoptosis
p2601
F0.0
sVrambunctious
p2602
F0.0
sViud
p2603
F0.0
sVfat
p2604
F0.0001152148803049825
sVfocus
p2605
F0.0006889937132597569
sVpsychologist
p2606
F0.0
sVcandid
p2607
F0.0
sVfan
p2608
F2.4230832012862523e-05
sVdecide
p2609
F0.0005760744015249125
sVfall
p2610
F0.0004224545611182692
sVfloater
p2611
F0.0
sVcandida
p2612
F0.0
sVdifference
p2613
F0.0004224545611182692
sVnewly
p2614
F6.263579211452336e-05
sVcondition
p2615
F0.0005330783042829755
sVsplitter
p2616
F6.263579211452336e-05
sVneurological
p2617
F0.0
sVheaven
p2618
F3.840496010166083e-05
sVpotentiation
p2619
F0.0
sVsans
p2620
F0.0
sVheadache
p2621
F0.007391023469513756
sVgiddings
p2622
F0.0
sVachy
p2623
F0.0
sVoverprotective
p2624
F0.0
sVlist
p2625
F0.00041192414421866287
sVprogesterone
p2626
F0.0
sVclozapine
p2627
F0.0
sVasexual
p2628
F0.00012527158422904672
sVsane
p2629
F0.00012527158422904672
sVsedation
p2630
F0.0
sVsmall
p2631
F0.00010197668002178822
sVinjectable
p2632
F0.0
sVshed
p2633
F0.0
sVvicoden
p2634
F0.0
sVtoradol
p2635
F0.0
sVquicker
p2636
F6.263579211452336e-05
sVantibiotic
p2637
F0.0
sVremeron
p2638
F0.0
sVten
p2639
F7.087064044399153e-05
sVtea
p2640
F7.269249603858757e-05
sVpaso
p2641
F0.0
sVpriority
p2642
F0.0
sVjib
p2643
F0.0
sVpast
p2644
F0.00012756715279918477
sVorgasm
p2645
F0.00037581475268714013
sVzero
p2646
F0.00019202480050830415
sVprogress
p2647
F1.4174128088798308e-05
sVlawyer
p2648
F0.00018790737634357007
sVwife
p2649
F0.0002688347207116258
sVwyeth
p2650
F0.0
sVtemporal
p2651
F0.0
sVpsycho
p2652
F6.263579211452336e-05
sVtoilet
p2653
F0.00012527158422904672
sVintimately
p2654
F0.0
sVaminophylline
p2655
F0.0
sVhormonal
p2656
F6.263579211452336e-05
sVsub
p2657
F0.00014538499207717513
sVimprovement
p2658
F0.0003456446409149475
sVclock
p2659
F0.0001152148803049825
sVjanuvia
p2660
F0.0
sVpsychosomatic
p2661
F0.0
sVsection
p2662
F0.0001152148803049825
sVmetoclopramide
p2663
F0.0
sVstool
p2664
F0.00012527158422904672
sVcaffeine
p2665
F0.0005010863369161869
sVoverload
p2666
F0.0
sVpublic
p2667
F4.8461664025725047e-05
sVversion
p2668
F0.0002688347207116258
sVrun
p2669
F0.0001402179350299588
sVpalemor
p2670
F0.0
sVnightguards
p2671
F0.0
sVnurse
p2672
F0.00018790737634357007
sVmum
p2673
F3.840496010166083e-05
sVmethod
p2674
F0.00031317896057261673
sVmovement
p2675
F7.269249603858757e-05
sVhasn
p2676
F0.00011339302471038646
sVfull
p2677
F0.0
sVmull
p2678
F0.0
sVfugue
p2679
F0.0
sVunprofessional
p2680
F6.263579211452336e-05
sVloose
p2681
F4.8461664025725047e-05
sVcomponent
p2682
F7.680992020332167e-05
sVcertainly
p2683
F5.669651235519323e-05
sVoveractive
p2684
F0.0
sVlack
p2685
F9.921889662158814e-05
sVshouldn
p2686
F9.692332805145009e-05
sVselective
p2687
F0.0
sVoldie
p2688
F0.0
sVwill
p2689
F5.098834001089411e-05
sVaffectionately
p2690
F0.0
sVrelaxation
p2691
F0.0
sV25505248
p2692
F0.0
sVignore
p2693
F7.269249603858757e-05
sVnovember
p2694
F0.0
sVcirrhosis
p2695
F0.0
sVsert
p2696
F0.0
sVnti
p2697
F0.0
sVsearch
p2698
F0.00016961582409003763
sVreadyfill
p2699
F0.0
sVahead
p2700
F4.8461664025725047e-05
sVreuptaken
p2701
F0.0
sVmdma
p2702
F0.0
sVcompliance
p2703
F0.0
sVdysorgasmia
p2704
F0.0
sVexperience
p2705
F0.0018818430449813808
sVprior
p2706
F0.00012527158422904672
sVamount
p2707
F0.00031500081616721277
sVtemazepam
p2708
F0.0
sV1000mg
p2709
F0.0
sV_all_
p2710
F6.263579211452336e-05
sVmisery
p2711
F6.263579211452336e-05
sVaction
p2712
F0.000230429760609965
sVdismiss
p2713
F6.263579211452336e-05
sVnarrow
p2714
F3.840496010166083e-05
sVhump
p2715
F0.00012527158422904672
sV240
p2716
F0.0
sVtimeline
p2717
F0.0
sVvia
p2718
F0.00018790737634357007
sVfamily
p2719
F0.0003634624801929378
sVsuddenly
p2720
F5.669651235519323e-05
sVagomelatine
p2721
F0.0
sVteeny
p2722
F0.0
sVivf
p2723
F0.0
sVask
p2724
F0.00030593004006536465
sVchunky
p2725
F6.263579211452336e-05
sVmutant
p2726
F6.263579211452336e-05
sVseroquel
p2727
F0.0
sVvit
p2728
F0.0
sVmagnesium
p2729
F0.0
sVestablish
p2730
F6.263579211452336e-05
sVselect
p2731
F0.00012527158422904672
sVergotamine
p2732
F0.0
sVsoundly
p2733
F0.0
sVeye
p2734
F0.00030723968081328666
sVdpdr
p2735
F0.0
sVamaze
p2736
F0.0
sVtexting
p2737
F6.263579211452336e-05
sVtwo
p2738
F0.0
sVirritate
p2739
F0.0
sVgenerate
p2740
F6.263579211452336e-05
sVpiggyback
p2741
F6.263579211452336e-05
sVanger
p2742
F7.680992020332167e-05
sVcompensate
p2743
F0.0
sVextraneous
p2744
F6.263579211452336e-05
sVautomate
p2745
F6.263579211452336e-05
sV6
p2746
F0.00016571210503540584
sVfourtracker
p2747
F0.0
sVmetformin
p2748
F0.0
sVballad
p2749
F0.0
sVteen
p2750
F3.840496010166083e-05
sVmm
p2751
F3.840496010166083e-05
sVflaw
p2752
F0.0
sVscotia
p2753
F0.0
sVdoor
p2754
F5.669651235519323e-05
sVdepartment
p2755
F0.00012527158422904672
sVrelevant
p2756
F0.0
sVcompany
p2757
F2.5494170005447054e-05
sVoutpatient
p2758
F0.0
sVsurprisingly
p2759
F6.263579211452336e-05
sVexcuse
p2760
F4.8461664025725047e-05
sVflag
p2761
F4.8461664025725047e-05
sVstick
p2762
F0.0002688347207116258
sVparticular
p2763
F8.504476853278985e-05
sVmellow
p2764
F6.263579211452336e-05
sVhurry
p2765
F1.4174128088798308e-05
sVpercoset
p2766
F0.0
sVglad
p2767
F8.504476853278985e-05
sVtown
p2768
F2.4230832012862523e-05
sV8hrs
p2769
F0.0
sVnone
p2770
F0.00019384665610290019
sVinclude
p2771
F0.0013441736035581292
sVhour
p2772
F0.0007996174564244632
sVcluster
p2773
F0.0
sVrecall
p2774
F0.00018790737634357007
sVnovolog
p2775
F0.0
sVperiphery
p2776
F0.0
sVremain
p2777
F3.840496010166083e-05
sVnod
p2778
F0.00018790737634357007
sVnine
p2779
F1.4174128088798308e-05
sVedit
p2780
F0.0011900800501759437
sVmorgan
p2781
F0.0
sVlearn
p2782
F0.0014406232186340371
sVmale
p2783
F7.269249603858757e-05
sVobtain
p2784
F0.0
sVmarble
p2785
F0.0
sVhistory
p2786
F0.00019384665610290019
sVallegra
p2787
F0.0
sVcompare
p2788
F0.0004224545611182692
sVinexpensive
p2789
F0.0
sVatrocious
p2790
F0.00012527158422904672
sVscan
p2791
F0.0006144793616265733
sVshare
p2792
F7.087064044399153e-05
sVaccept
p2793
F7.269249603858757e-05
sVterrible
p2794
F0.00033923164818007527
sVpharmacokinetics
p2795
F0.0
sVminimum
p2796
F3.840496010166083e-05
sVcvotcn1
p2797
F0.0
sV7173
p2798
F0.0
sVsense
p2799
F3.824125500817058e-05
sVsharp
p2800
F6.263579211452336e-05
sVscar
p2801
F0.0006263579211452335
sVdress
p2802
F7.269249603858757e-05
sVhuge
p2803
F8.922959501906468e-05
sVrespective
p2804
F0.0
sVcourt
p2805
F7.680992020332167e-05
sVgoal
p2806
F0.00018790737634357007
sVzantac
p2807
F0.0
sVrather
p2808
F0.0001984377932431763
sVcomfort
p2809
F0.0
sVformulate
p2810
F0.0
sVfame
p2811
F6.263579211452336e-05
sVoccasionally
p2812
F4.8461664025725047e-05
sVcommercial
p2813
F6.263579211452336e-05
sVpleae
p2814
F0.0
sVreject
p2815
F0.0004384505448016634
sVoccur
p2816
F0.0007516295053742803
sVulnar
p2817
F0.0
sVimpend
p2818
F0.0
sVhopeless
p2819
F0.00025054316845809344
sVupto
p2820
F0.0
sVsimplicity
p2821
F0.0
sVhypersomnia
p2822
F0.0
sVpleasure
p2823
F2.4230832012862523e-05
sVokay
p2824
F0.0005760744015249125
sVamitrip
p2825
F0.0
sVadvice
p2826
F0.0006263579211452335
sVwiley
p2827
F0.0
sVsympathize
p2828
F0.0
sVreuptake
p2829
F0.0
sVupload
p2830
F0.00012527158422904672
sVsoundtrack
p2831
F0.0
sVbrintellix
p2832
F0.0
sVplane
p2833
F6.263579211452336e-05
sVwhilst
p2834
F7.680992020332167e-05
sVblood
p2835
F0.0014053882567460264
sVnumb
p2836
F0.0
sVfi
p2837
F6.263579211452336e-05
sVb12
p2838
F0.0
sVresponse
p2839
F0.0007516295053742803
sVrefuse
p2840
F9.692332805145009e-05
sVshort
p2841
F0.00010835022252314996
sVmorphine
p2842
F0.00025054316845809344
sVonto
p2843
F2.4230832012862523e-05
sVpaw
p2844
F0.0
sVovernight
p2845
F0.00018790737634357007
sVanytime
p2846
F0.00025054316845809344
sVassign
p2847
F0.0
sVchildbearing
p2848
F0.0
sVperhaps
p2849
F0.00015361984040664333
sVvulvonologist
p2850
F0.0
sVolanzipine
p2851
F0.0
sVnegligible
p2852
F0.0
sVmethadone
p2853
F0.0
sVrheumatologist
p2854
F0.0
sVmorten
p2855
F0.0
sVretroorbital
p2856
F0.0
sVdream
p2857
F0.00030723968081328666
sVturmeric
p2858
F0.0
sVfeed
p2859
F7.680992020332167e-05
sVtallahassee
p2860
F0.0
sVanonymous
p2861
F3.840496010166083e-05
sVpant
p2862
F6.263579211452336e-05
sVincessantly
p2863
F6.263579211452336e-05
sVsertraline
p2864
F0.0
sVaromatherapy
p2865
F0.0
sVmayoclinic
p2866
F0.0
sVsoon
p2867
F0.00011472376502451174
sVtramadol
p2868
F0.0
sVtrade
p2869
F4.8461664025725047e-05
sVtop
p2870
F0.0001984377932431763
sVbearable
p2871
F6.263579211452336e-05
sVattitude
p2872
F6.263579211452336e-05
sVpaper
p2873
F0.0001211541600643126
sVrxlist
p2874
F0.0
sVdestruction
p2875
F0.0
sVmilwaukee
p2876
F0.0
sVsuffer
p2877
F0.0007296942419315559
sVtrkb
p2878
F0.0
sV24
p2879
F0.00021807748811576269
sV25
p2880
F0.0002423083201286252
sVosteo
p2881
F0.0
sVblast
p2882
F7.680992020332167e-05
sV20
p2883
F7.648251001634116e-05
sV21
p2884
F7.269249603858757e-05
sV22
p2885
F4.8461664025725047e-05
sV23
p2886
F4.8461664025725047e-05
sVpray
p2887
F2.4230832012862523e-05
sVpcp
p2888
F0.0
sVgreatly
p2889
F6.263579211452336e-05
sV28
p2890
F3.840496010166083e-05
sVcomplex
p2891
F0.00014538499207717513
sVbuspar
p2892
F0.0
sVlate
p2893
F0.00011339302471038646
sVresearcher
p2894
F0.0
sVneuron
p2895
F0.0
sVreuters
p2896
F0.0
sVoxalate
p2897
F0.0
sVrelate
p2898
F0.0
sVbout
p2899
F6.263579211452336e-05
sVteam
p2900
F6.263579211452336e-05
sVmethylfolate
p2901
F0.0
sVpolypharmacy
p2902
F0.0
sVwacky
p2903
F0.0
sVsuboxone
p2904
F0.0
sVwouldn
p2905
F0.00015591540897678138
sVgood
p2906
F0.0
sVreturn
p2907
F8.504476853278985e-05
sVevaluate
p2908
F0.0
sVseverely
p2909
F0.00012527158422904672
sVsecondarily
p2910
F0.0
sVpropose
p2911
F6.263579211452336e-05
sVlibido
p2912
F0.0
sVuracil
p2913
F0.0
sVslight
p2914
F0.00019202480050830415
sVprimary
p2915
F0.0003456446409149475
sVaphasia
p2916
F0.0
sVshitless
p2917
F0.0
sVdosulepin
p2918
F0.0
sVcompound
p2919
F0.0
sVmisuse
p2920
F0.0
sVninja
p2921
F6.263579211452336e-05
sVspeculate
p2922
F0.0
sVcomplain
p2923
F0.0001152148803049825
sVassociation
p2924
F0.00012527158422904672
sVimpressive
p2925
F6.263579211452336e-05
sVmystery
p2926
F0.0
sVeasily
p2927
F2.8348256177596616e-05
sV8months
p2928
F0.0
sVturkpsikiyatri
p2929
F0.0
sVlabrel
p2930
F0.0
sVhook
p2931
F7.269249603858757e-05
sValways
p2932
F0.0
sVnauseous
p2933
F0.0
sVsole
p2934
F0.0
sVrefresh
p2935
F6.263579211452336e-05
sVantihistaminergic
p2936
F0.0
sVsomeone
p2937
F0.0
sVgoofy
p2938
F0.0
sV2a
p2939
F6.263579211452336e-05
sVdeplete
p2940
F0.0
sVdifficult
p2941
F0.00031500081616721277
sVintolerable
p2942
F0.0
sVtestost
p2943
F0.0
sVsenekot
p2944
F0.0
sVstatus
p2945
F2.4230832012862523e-05
sVharm
p2946
F0.0
sVeveryone
p2947
F0.0002423083201286252
sVengland
p2948
F0.0
sVmental
p2949
F0.0009395368817178502
sV300mg
p2950
F0.0
sVp
p2951
F7.269249603858757e-05
sVgeneration
p2952
F0.0
sVhouse
p2953
F0.0001700895370655797
sVfish
p2954
F5.669651235519323e-05
sVhard
p2955
F0.0006236616359071255
sVreduce
p2956
F0.0012289587232531467
sVidea
p2957
F0.0001402179350299588
sVgrossan
p2958
F0.0
sVgun
p2959
F3.840496010166083e-05
sVneurology
p2960
F0.0
sVconnect
p2961
F6.263579211452336e-05
sVheartburn
p2962
F6.263579211452336e-05
sVtodd
p2963
F0.0
sVoperation
p2964
F6.263579211452336e-05
sVbeyond
p2965
F1.912062750408529e-05
sVpenicillin
p2966
F0.0
sVterrify
p2967
F0.0
sVpregablin
p2968
F0.0
sVprotolith
p2969
F0.0
sVanxious
p2970
F0.0006263579211452335
sVtryciclic
p2971
F0.0
sVprolly
p2972
F0.0
sValcohol
p2973
F0.0010753388828465033
sVjoin
p2974
F1.4174128088798308e-05
sVritual
p2975
F6.263579211452336e-05
sVelectronic
p2976
F0.0
sVchildish
p2977
F0.0
sVsince
p2978
F0.0003951596350844293
sVpublish
p2979
F0.0
sVresearch
p2980
F0.0011274442580614203
sVlaproscopy
p2981
F0.0
sVexhaustion
p2982
F6.263579211452336e-05
sVsustain
p2983
F0.0
sV7
p2984
F0.00014174128088798306
sVparadise
p2985
F0.0
sVprint
p2986
F0.0001152148803049825
sVpristiq
p2987
F0.0
sVevaluation
p2988
F0.0
sVass
p2989
F3.840496010166083e-05
sVcholestyramine
p2990
F0.0
sVfiber
p2991
F0.0
sVcircumstance
p2992
F6.263579211452336e-05
sVupon
p2993
F7.087064044399153e-05
sVgut
p2994
F0.00037581475268714013
sVribose
p2995
F0.0
sVtricylic
p2996
F0.0
sVtbh
p2997
F0.0
sVpleasant
p2998
F0.00018790737634357007
sVdifficulty
p2999
F0.00031317896057261673
sVqualify
p3000
F0.0
sVheroin
p3001
F6.263579211452336e-05
sVproxy
p3002
F6.263579211452336e-05
sVimagine
p3003
F0.0001211541600643126
sVvigorous
p3004
F0.0
sVsauna
p3005
F0.0
sVhavent
p3006
F0.0
sVbazillion
p3007
F0.0
sVbeast
p3008
F2.4230832012862523e-05
sVthread
p3009
F0.00031317896057261673
sVecg
p3010
F0.0
sVkannazuki
p3011
F0.0
sVlingual
p3012
F0.0
sVterribly
p3013
F3.840496010166083e-05
sVamerican
p3014
F0.0
sVtrka
p3015
F0.0
sVprejudice
p3016
F0.0
sVcircuit
p3017
F0.0
sVanecdote
p3018
F0.0
sVconsequence
p3019
F0.0
sVzyprexa
p3020
F0.0
sVantispasmodic
p3021
F0.0
sVbupropion
p3022
F0.0
sVding
p3023
F0.0
sVviepax
p3024
F0.0
sVmajor
p3025
F0.00022678604942077293
sVdont
p3026
F0.00019202480050830415
sVprobability
p3027
F0.0
sVpurport
p3028
F0.0
sVfeel
p3029
F0.0007839457276674969
sVmistakenly
p3030
F6.263579211452336e-05
sVthereafter
p3031
F0.0
sVnumber
p3032
F0.00041192414421866287
sVsubmission
p3033
F6.263579211452336e-05
sVsympathy
p3034
F6.263579211452336e-05
sVurologist
p3035
F0.0
sVvibrate
p3036
F0.0
sVisnot
p3037
F0.0
sV600
p3038
F3.840496010166083e-05
sVmiss
p3039
F0.00012747085002723526
sVseveral
p3040
F0.0007296942419315559
sVerythromycin
p3041
F0.0
sVguess
p3042
F0.00041192414421866287
sVfuller
p3043
F0.0
sVpeds
p3044
F0.0
sVscript
p3045
F0.001064808465946897
sVdivorce
p3046
F6.263579211452336e-05
sVinteract
p3047
F0.00031317896057261673
sVdemonstrate
p3048
F0.00012527158422904672
sVcomfy
p3049
F0.0
sVleast
p3050
F0.0
sVpaint
p3051
F2.4230832012862523e-05
sVregulation
p3052
F0.0
sVstation
p3053
F0.00012527158422904672
sVmentally
p3054
F0.00012527158422904672
sVstatement
p3055
F7.680992020332167e-05
sVlevothyroxine
p3056
F0.0
sVidusl2n0l81rk20140204
p3057
F0.0
sVfrankey
p3058
F0.0
sVstore
p3059
F0.0003456446409149475
sVlarkin
p3060
F0.0
sVmainstay
p3061
F0.0
sVbumble
p3062
F0.0
sVoption
p3063
F0.001565894802863084
sVrelationship
p3064
F0.00019384665610290019
sVpump
p3065
F6.263579211452336e-05
sVbowel
p3066
F0.0
sVneedle
p3067
F0.000230429760609965
sVpark
p3068
F6.263579211452336e-05
sVimmediate
p3069
F7.680992020332167e-05
sVtrolly
p3070
F0.0
sVanalgesic
p3071
F0.0
sVdentist
p3072
F0.00037581475268714013
sVpart
p3073
F0.00048192035501914244
sVdifferentiate
p3074
F0.0
sVconsult
p3075
F0.0
sVbelieve
p3076
F0.0002976566898647645
sVtianeptine
p3077
F0.0
sVreliever
p3078
F0.0
sV600mg
p3079
F0.0
sVstd
p3080
F6.263579211452336e-05
sValbeit
p3081
F0.0
sVneurontin
p3082
F0.0
sVb
p3083
F5.669651235519323e-05
sVcommiserate
p3084
F0.0
sVcyclic
p3085
F0.0
sVvial
p3086
F0.0
sVdouble
p3087
F0.0002688347207116258
sVlargely
p3088
F0.0
sVyoutu
p3089
F0.0
sVblah
p3090
F0.0001152148803049825
sVmedicate
p3091
F0.0
sVstalk
p3092
F0.00037581475268714013
sVsedate
p3093
F0.0005376694414232516
sVfibromyawesomes
p3094
F0.0
sV800mg
p3095
F0.0
sVazithromycin
p3096
F0.0
sVglucose
p3097
F0.0
sVrestful
p3098
F0.0
sVdeclare
p3099
F0.0
sVpulmonologist
p3100
F0.0
sVphobic
p3101
F0.0
sVmotivation
p3102
F0.0
sVoutta
p3103
F6.263579211452336e-05
sVuncomfortable
p3104
F0.00018790737634357007
sVexert
p3105
F0.0
sVamitrp
p3106
F0.0
sVnocturne
p3107
F0.0
sVdirect
p3108
F0.00018790737634357007
sVultram
p3109
F0.0
sVwave
p3110
F4.8461664025725047e-05
sVsmaller
p3111
F4.8461664025725047e-05
sVsciatica
p3112
F0.0
sVintestine
p3113
F0.0
sVconcentration
p3114
F7.680992020332167e-05
sVsell
p3115
F5.669651235519323e-05
sVmountain
p3116
F0.0
sVshrivel
p3117
F0.0
sVessentially
p3118
F0.0
sVself
p3119
F5.736188251225587e-05
sVcyclizine
p3120
F0.0
sVscotland
p3121
F0.0
sVsevere
p3122
F0.001152148803049825
sVnondepressed
p3123
F0.0
sVcouch
p3124
F0.00012527158422904672
sVonset
p3125
F0.0
sVmajority
p3126
F0.00019202480050830415
sVbuild
p3127
F8.504476853278985e-05
sVanafranil
p3128
F0.0
sVeffexor
p3129
F0.0
sVdraposil
p3130
F0.0
sVplay
p3131
F0.00038769331220580037
sVrisperidone
p3132
F0.0
sValleviate
p3133
F0.00025054316845809344
sVpopulate
p3134
F6.263579211452336e-05
sVinelastic
p3135
F0.0
sVfirsthand
p3136
F0.0
sVsore
p3137
F0.00037581475268714013
sVnasal
p3138
F0.0
sVchart
p3139
F7.680992020332167e-05
sVbloat
p3140
F0.00012527158422904672
sVleave
p3141
F0.0002976566898647645
sV75
p3142
F0.00018790737634357007
sV93
p3143
F3.840496010166083e-05
sVplan
p3144
F0.0002423083201286252
sVsignificant
p3145
F0.001064808465946897
sVthunderclap
p3146
F0.0
sVnothing
p3147
F0.0002103269025449382
sVstressful
p3148
F0.00012527158422904672
sVextremely
p3149
F0.00046085952121993
sVnumerous
p3150
F3.840496010166083e-05
sV45mg
p3151
F0.0
sVpolyethylene
p3152
F0.0
sVbreaker
p3153
F0.0
sVmineral
p3154
F6.263579211452336e-05
sVseize
p3155
F6.263579211452336e-05
sVsemax
p3156
F0.0
sVclear
p3157
F2.5494170005447054e-05
sVsometimes
p3158
F0.0005102686111967391
sVcover
p3159
F0.00014174128088798306
sVluckily
p3160
F0.0
sVkm
p3161
F0.0
sVnefazodone
p3162
F0.0
sVhydocodone
p3163
F0.0
sVotolaryngology
p3164
F0.0
sVorganise
p3165
F0.0
sVclean
p3166
F2.5494170005447054e-05
sVthank
p3167
F0.0006057708003215631
sVweigh
p3168
F3.840496010166083e-05
sVgabe
p3169
F0.0
sVblend
p3170
F7.680992020332167e-05
sV2900568
p3171
F0.0
sVheterodimerization
p3172
F0.0
sVgaba
p3173
F0.0
sVscience
p3174
F3.840496010166083e-05
sVugh
p3175
F0.0
sVparticularly
p3176
F0.0002688347207116258
sVappendix
p3177
F0.0
sVupswing
p3178
F0.0
sVescitalopram
p3179
F0.0
sVlarge
p3180
F0.0
sVsession
p3181
F0.00031317896057261673
sVrelation
p3182
F6.263579211452336e-05
sVutilization
p3183
F6.263579211452336e-05
sVcyclics
p3184
F0.0
sVcarefully
p3185
F6.263579211452336e-05
sVse
p3186
F3.840496010166083e-05
sVfluoxetine
p3187
F0.0
sVmarinol
p3188
F0.0
sVfine
p3189
F0.0
sVfind
p3190
F0.0
sVdilation
p3191
F0.0
sVaccompany
p3192
F0.0
sVimpact
p3193
F0.0
sVamitrypaline
p3194
F0.0
sVperiodically
p3195
F3.840496010166083e-05
sVaggravate
p3196
F0.0
sVmusic
p3197
F1.912062750408529e-05
sVreoccurring
p3198
F0.0
sVnervous
p3199
F0.00015361984040664333
sVruin
p3200
F0.00012527158422904672
sVparanoia
p3201
F0.0
sVunhappy
p3202
F6.263579211452336e-05
sVpopof
p3203
F0.0
sVenzyme
p3204
F0.0
sVprogest
p3205
F0.0
sVcentral
p3206
F0.0
sVfactor
p3207
F0.00012527158422904672
sV8
p3208
F6.373542501361763e-05
sVneuropathic
p3209
F0.0
sVaappublications
p3210
F0.0
sVmisspell
p3211
F0.0
sV68
p3212
F6.263579211452336e-05
sVhip
p3213
F0.00012527158422904672
sVintractable
p3214
F0.0
sVdevastate
p3215
F0.0
sVingram
p3216
F0.0
sVdependent
p3217
F0.00025054316845809344
sVexpress
p3218
F0.00012527158422904672
sVkind
p3219
F0.0
sVupside
p3220
F3.840496010166083e-05
sVcheaper
p3221
F7.680992020332167e-05
sVsucralose
p3222
F0.0
sVfamous
p3223
F3.840496010166083e-05
sVremedy
p3224
F0.0
sV150mg
p3225
F0.0
sVvenopuncture
p3226
F0.0
sVbreast
p3227
F0.00012527158422904672
sVclosely
p3228
F0.0
sVreply
p3229
F0.000230429760609965
sVdeaden
p3230
F0.0
sVnalaxone
p3231
F0.0
sVdose
p3232
F0.006889937132597569
sVdistraction
p3233
F0.0
sVcrp
p3234
F0.0
sVresolve
p3235
F0.00014538499207717513
sVblocker
p3236
F0.0017538021792066537
sVoxy
p3237
F0.0
sValchohol
p3238
F0.0
sVexpenditure
p3239
F0.0
sVcry
p3240
F0.00046085952121993
sVremove
p3241
F4.8461664025725047e-05
sVcoincidence
p3242
F6.263579211452336e-05
sVcrc
p3243
F0.0
sVhypo
p3244
F0.0
sVcommon
p3245
F0.0007026941283730132
sVactivity
p3246
F0.0009395368817178502
sV5hr
p3247
F0.0
sVendeavor
p3248
F0.0
sVdur
p3249
F0.0
sVmouthwash
p3250
F0.0
sVinsane
p3251
F6.263579211452336e-05
sVcramp
p3252
F0.0
sVset
p3253
F8.285605251770292e-05
sVstump
p3254
F3.840496010166083e-05
sVdump
p3255
F7.680992020332167e-05
sVbacktrack
p3256
F0.0
sVoverwhelm
p3257
F0.0
sVarno
p3258
F0.0
sVpotent
p3259
F0.0
sVsex
p3260
F0.0002688347207116258
sVtip
p3261
F4.8461664025725047e-05
sVsee
p3262
F0.0006628484201416234
sVindividual
p3263
F0.00014538499207717513
sVdumb
p3264
F0.00019202480050830415
sVbackfire
p3265
F0.0
sVrtms
p3266
F0.0
sVovereat
p3267
F0.0
sVtender
p3268
F0.0
sVclose
p3269
F0.00016961582409003763
sVarm
p3270
F9.692332805145009e-05
sVvengeance
p3271
F6.263579211452336e-05
sVmcg
p3272
F0.0
sVproject
p3273
F2.4230832012862523e-05
sVpractice
p3274
F0.0
sVelectrolyte
p3275
F0.0
sVritz
p3276
F0.0
sVexpert
p3277
F6.263579211452336e-05
sVmkeigykw
p3278
F0.0
sVujtbtiszjem
p3279
F0.0
sVwow
p3280
F0.00018790737634357007
sVcurrently
p3281
F0.0005330783042829755
sVplease
p3282
F7.01089675149794e-05
sVinebriate
p3283
F0.0
sVpickup
p3284
F6.263579211452336e-05
sVsmallest
p3285
F6.263579211452336e-05
sVmyriad
p3286
F0.0
sVelectrical
p3287
F0.00012527158422904672
sVvascular
p3288
F0.0
sVacidic
p3289
F6.263579211452336e-05
sVhold
p3290
F5.669651235519323e-05
sVdonate
p3291
F6.263579211452336e-05
sVnope
p3292
F6.263579211452336e-05
sVhypochondria
p3293
F0.0
sVthrive
p3294
F0.0
sVpiss
p3295
F0.00018790737634357007
sVavailable
p3296
F0.00026653915214148777
sVmilder
p3297
F0.0
sVrecently
p3298
F0.0002126119213319746
sVstatistically
p3299
F0.0
sVbusiness
p3300
F6.3735425013617635e-06
sV1238
p3301
F0.0
sVattention
p3302
F1.4174128088798308e-05
sVpoorer
p3303
F0.0
sVspray
p3304
F6.263579211452336e-05
sVregime
p3305
F0.0
sVselectively
p3306
F0.0
sVaccessible
p3307
F0.00012527158422904672
sV400mg
p3308
F0.0
sVinvisible
p3309
F3.840496010166083e-05
sVyamashirogumi
p3310
F0.0
sVsolu
p3311
F0.0
sVpvrmltqimhu
p3312
F0.0
sVht7
p3313
F0.0
sVc
p3314
F1.912062750408529e-05
sVlast
p3315
F0.0002613152425558323
sVreverse
p3316
F4.8461664025725047e-05
sVhesitant
p3317
F0.0
sVfiance
p3318
F0.0
sVbarely
p3319
F0.00015361984040664333
sVnorcos
p3320
F0.0
sVevent
p3321
F0.0001211541600643126
sVforeign
p3322
F3.840496010166083e-05
sVpseuephedrine
p3323
F0.0
sVsensitive
p3324
F1.4174128088798308e-05
sVconnection
p3325
F0.0001152148803049825
sVmethacholine
p3326
F0.0
sVunincorporated
p3327
F0.0
sVbuzz
p3328
F0.00015361984040664333
sVpoverty
p3329
F6.263579211452336e-05
sVondansetron
p3330
F0.0
sVrisky
p3331
F6.263579211452336e-05
sVapprove
p3332
F0.00037581475268714013
sVhistamine
p3333
F0.0
sVpda
p3334
F0.0
sVload
p3335
F0.0001211541600643126
sVconsume
p3336
F3.840496010166083e-05
sVpoint
p3337
F0.0002103269025449382
sVsimple
p3338
F1.2747085002723527e-05
sVsweet
p3339
F7.269249603858757e-05
sVcommunity
p3340
F0.0
sVbpd
p3341
F0.0
sVnewborn
p3342
F0.0
sVpamphlet
p3343
F0.0
sVdietary
p3344
F0.0
sVsimply
p3345
F0.00014538499207717513
sVconsideration
p3346
F0.0
sVvessel
p3347
F0.00025054316845809344
sVmattress
p3348
F0.00012527158422904672
sVthroughout
p3349
F2.4230832012862523e-05
sVexpensive
p3350
F0.00026653915214148777
sVpatiently
p3351
F0.0
sV30mg
p3352
F0.0
sVworthless
p3353
F6.263579211452336e-05
sVdevil
p3354
F0.0001152148803049825
sVraise
p3355
F9.692332805145009e-05
sVpt
p3356
F0.00025054316845809344
sVmonthly
p3357
F0.0
sVcreate
p3358
F0.000230429760609965
sVoverlook
p3359
F0.0
sVdue
p3360
F0.0008065041621348775
sVanaesthesiologists
p3361
F0.0
sVsecret
p3362
F3.840496010166083e-05
sVmitrazapine
p3363
F0.0
sVx4exwu4rhes
p3364
F0.0
sVmaintenance
p3365
F0.0
sVmetronidazole
p3366
F0.0
sVclinical
p3367
F0.0
sVbrick
p3368
F0.0
sVpi
p3369
F0.0
sVempty
p3370
F6.3735425013617635e-06
sVft
p3371
F0.00012527158422904672
sVfirm
p3372
F2.4230832012862523e-05
sValto
p3373
F0.0
sVsweetheart
p3374
F0.0
sVsuspicious
p3375
F6.263579211452336e-05
sVpartly
p3376
F3.840496010166083e-05
sVbrother
p3377
F0.0001152148803049825
sVbuck
p3378
F6.263579211452336e-05
sVfire
p3379
F1.4174128088798308e-05
sVwet
p3380
F3.840496010166083e-05
sVgas
p3381
F0.00037581475268714013
sV39
p3382
F0.0001152148803049825
sVgap
p3383
F0.00031317896057261673
sVamlodipine
p3384
F0.0
sVfund
p3385
F7.680992020332167e-05
sVpricey
p3386
F6.263579211452336e-05
sVengage
p3387
F0.0
sVunderstand
p3388
F0.00019757981754221464
sVliver
p3389
F0.0003456446409149475
sVcolonoscopy
p3390
F6.263579211452336e-05
sV35mg
p3391
F0.0
sVincoming
p3392
F0.0
sVdespite
p3393
F7.087064044399153e-05
sVgad
p3394
F0.0
sVlamotrigine
p3395
F0.0
sVrandomly
p3396
F0.00018790737634357007
sVpierce
p3397
F6.263579211452336e-05
sVlook
p3398
F0.00035691838007625873
sVjuice
p3399
F0.0001152148803049825
sVsolid
p3400
F0.000230429760609965
sVcapsicum
p3401
F0.0
sVreliable
p3402
F3.840496010166083e-05
sVbill
p3403
F7.680992020332167e-05
sVtolerate
p3404
F0.0
sVtwenty
p3405
F2.4230832012862523e-05
sVbuspirone
p3406
F0.0
sVcrutch
p3407
F0.0
sVthryroid
p3408
F0.0
sVpace
p3409
F0.0
sVsexuality
p3410
F0.0
sVdisproportionate
p3411
F0.0
sVbehavior
p3412
F0.00019202480050830415
sVerror
p3413
F0.00018790737634357007
sVfun
p3414
F5.669651235519323e-05
sVross
p3415
F0.0
sVguide
p3416
F0.00018790737634357007
sVexperienes
p3417
F0.0
sVswim
p3418
F0.00015361984040664333
sVlove
p3419
F0.00014174128088798306
sVpound
p3420
F0.000230429760609965
sVcostly
p3421
F0.0
sVagitation
p3422
F0.0
sVklonipin
p3423
F0.0
sVincredible
p3424
F6.263579211452336e-05
sVseretonin
p3425
F0.0
sVdecline
p3426
F0.00012527158422904672
sVjpg
p3427
F7.680992020332167e-05
sVintegrity
p3428
F0.00012527158422904672
sVorigin
p3429
F0.00012527158422904672
sVhydrocodone
p3430
F0.0
sVnightstand
p3431
F0.0
sVdistrubance
p3432
F0.0
sVskype
p3433
F0.0
sVpromethazine
p3434
F0.0
sVhydromorphone
p3435
F0.0
sVrid
p3436
F0.00019202480050830415
sValone
p3437
F0.0001211541600643126
sVbdnf
p3438
F0.0
sVurethra
p3439
F0.00018790737634357007
sVfrown
p3440
F0.0
sVfunny
p3441
F4.2522384266394926e-05
sVlengthy
p3442
F6.263579211452336e-05
sVunaffected
p3443
F0.0
sVirradiate
p3444
F0.0
sVshirt
p3445
F3.840496010166083e-05
sVanymore
p3446
F0.00031500081616721277
sVmigraine
p3447
F0.0
sVconcoction
p3448
F0.0
sVclassification
p3449
F3.840496010166083e-05
sVsorenson
p3450
F0.0
sVcholinergic
p3451
F0.0
sVbenign
p3452
F6.263579211452336e-05
sVwidely
p3453
F0.0
sV9
p3454
F5.669651235519323e-05
sVadvise
p3455
F0.0
sVray
p3456
F6.263579211452336e-05
sVforgiveness
p3457
F0.0
sVconflict
p3458
F0.00025054316845809344
sVinsulin
p3459
F0.0
sVdevelopment
p3460
F7.680992020332167e-05
sVantaganisom
p3461
F0.0
sVliterature
p3462
F6.263579211452336e-05
sVtemporary
p3463
F0.00018790737634357007
sVlie
p3464
F9.692332805145009e-05
sVbonus
p3465
F0.00018790737634357007
sVcamera
p3466
F0.0001152148803049825
sV5aiw
p3467
F0.0
sVmindblowing
p3468
F0.0
sVupbringing
p3469
F0.0
sVairway
p3470
F0.0
sValert
p3471
F3.840496010166083e-05
sVrabia
p3472
F0.0
sVmoment
p3473
F5.098834001089411e-05
sVwalmart
p3474
F0.0
sVmedicaid
p3475
F0.0
sVpurpose
p3476
F5.669651235519323e-05
sV005
p3477
F0.0
sVkyodai
p3478
F0.0
sVinjector
p3479
F0.0
sVsfk
p3480
F0.0
sVbrussels
p3481
F0.0
sVnoticeably
p3482
F0.0
sVfocal
p3483
F6.263579211452336e-05
sVrecent
p3484
F0.00015361984040664333
sVearly
p3485
F0.00012756715279918477
sVsafe
p3486
F0.0002423083201286252
sVswish
p3487
F0.0
sVinfertility
p3488
F0.0
sVwerewolf
p3489
F0.0
sVmemantine
p3490
F0.0
sVcodeine
p3491
F0.0
sVanybody
p3492
F0.00012527158422904672
sVanalysis
p3493
F0.00018790737634357007
sVobviously
p3494
F0.00014538499207717513
sVperson
p3495
F0.000368527330308756
sVedge
p3496
F5.669651235519323e-05
sVjbc
p3497
F0.0
sVrozerem
p3498
F0.0
sVwithdraw
p3499
F0.00012527158422904672
sVorganization
p3500
F6.263579211452336e-05
sVchemistry
p3501
F0.0
sVspend
p3502
F0.0001211541600643126
sVprevention
p3503
F0.0
sVknow
p3504
F0.0009177901201960939
sVchore
p3505
F0.0
sVmicrogestin
p3506
F0.0
sVpalpate
p3507
F0.0
sVpolitely
p3508
F6.263579211452336e-05
sVcheapest
p3509
F6.263579211452336e-05
sVb6cxjpnxx6k
p3510
F0.0
sVblur
p3511
F6.263579211452336e-05
sVdesk
p3512
F3.840496010166083e-05
sVldn
p3513
F0.0
sVbirthday
p3514
F3.840496010166083e-05
sVshape
p3515
F3.840496010166083e-05
sVopenly
p3516
F0.0
sVthorough
p3517
F0.0
sVirritable
p3518
F0.00025054316845809344
sVjv
p3519
F0.0
sVregardless
p3520
F0.0005010863369161869
sValternative
p3521
F0.0003840496010166083
sVsidebar
p3522
F0.00012527158422904672
sVarteritis
p3523
F0.0
sVcut
p3524
F6.373542501361763e-05
sVnortriptyine
p3525
F0.0
sVtablet
p3526
F0.0008769010896033268
sVcup
p3527
F0.00012527158422904672
sV20mg
p3528
F0.0
sVscenario
p3529
F0.0
sVfentanyl
p3530
F0.0
sVexclusively
p3531
F3.840496010166083e-05
sVsource
p3532
F0.00016961582409003763
sVgrapefruit
p3533
F0.0001152148803049825
sVlocation
p3534
F0.00015361984040664333
sVtamer
p3535
F0.0
sVproblematic
p3536
F0.00012527158422904672
sVsnap
p3537
F4.8461664025725047e-05
sVinput
p3538
F0.0008142652974888036
sVprominent
p3539
F6.263579211452336e-05
sVapp
p3540
F0.00018790737634357007
sVfinder
p3541
F0.00012527158422904672
sVhater
p3542
F6.263579211452336e-05
sVridiculously
p3543
F6.263579211452336e-05
sVcomplaint
p3544
F0.0
sVapnea
p3545
F0.0
sVemergency
p3546
F0.00037581475268714013
sVformat
p3547
F0.00018790737634357007
sVbladder
p3548
F0.00018790737634357007
sVbig
p3549
F5.098834001089411e-05
sVrebound
p3550
F0.0
sVbreaststroke
p3551
F0.0
sVaggregation
p3552
F0.0
sVcautionary
p3553
F0.0
sVpharmacueticals
p3554
F0.0
sVgame
p3555
F8.504476853278985e-05
sVquest
p3556
F6.263579211452336e-05
sVwiser
p3557
F0.0
sVsnore
p3558
F6.263579211452336e-05
sVawaken
p3559
F0.0
sVrenin
p3560
F0.0
sVmoody
p3561
F0.0
sVknock
p3562
F0.0003840496010166083
sVoutright
p3563
F0.0
sVcognitive
p3564
F0.0
sVsemi
p3565
F2.4230832012862523e-05
sVgentamycin
p3566
F0.0
sVspine
p3567
F0.00037581475268714013
sVadmittedly
p3568
F0.0
sVsignal
p3569
F0.000230429760609965
sVcandidemia
p3570
F0.0
sVproductive
p3571
F6.263579211452336e-05
sVglove
p3572
F6.263579211452336e-05
sVmanifest
p3573
F0.00012527158422904672
sVconstipate
p3574
F0.0
sVcollect
p3575
F0.0
sVzoloft
p3576
F0.0
sVcontinue
p3577
F0.00012756715279918477
sVindication
p3578
F3.840496010166083e-05
sVchloramphenicol
p3579
F0.0
sVdisorder
p3580
F0.0021922527240083173
sVptsd
p3581
F0.0
sVcopper
p3582
F0.0
sVgoogle
p3583
F0.0003840496010166083
sVoften
p3584
F0.0009207716164887759
sVmetabolic
p3585
F0.0
sVabsolutely
p3586
F0.0002693084336871679
sVspring
p3587
F4.8461664025725047e-05
sV1st
p3588
F7.680992020332167e-05
sVback
p3589
F0.00048438923010349404
sVphone
p3590
F0.000230429760609965
sVblow
p3591
F5.669651235519323e-05
sVpaxil
p3592
F0.0
sVstrongest
p3593
F6.263579211452336e-05
sVtowards
p3594
F1.912062750408529e-05
sVdiclofenac
p3595
F0.0
sVoxcarbazepine
p3596
F0.0
sVpalo
p3597
F0.0
sVapply
p3598
F0.0001152148803049825
sVkinda
p3599
F0.0006889937132597569
sVcurious
p3600
F5.669651235519323e-05
sVmucous
p3601
F0.0
sVpale
p3602
F6.263579211452336e-05
sVgimmick
p3603
F0.0
sVdigestive
p3604
F0.00012527158422904672
sVgradually
p3605
F0.0
sVscale
p3606
F0.00019202480050830415
sVdull
p3607
F3.840496010166083e-05
sVunnaturally
p3608
F0.0
sVdecision
p3609
F9.692332805145009e-05
sVbenefit
p3610
F0.001252715842290467
sVper
p3611
F0.00046085952121993
sVpen
p3612
F2.4230832012862523e-05
sVbehave
p3613
F3.840496010166083e-05
sVeliminate
p3614
F0.0
sVscalp
p3615
F0.0
sV2341111
p3616
F0.0
sVvasoconstrictor
p3617
F0.0
sVpee
p3618
F0.00018790737634357007
sVshenanigan
p3619
F0.0
sVmeloxicam
p3620
F0.0
sVtemple
p3621
F0.0
sVapathetic
p3622
F0.0
sVinclination
p3623
F0.0
sVlowest
p3624
F0.00018790737634357007
sVpatient
p3625
F0.005073499161276391
sVzzz
p3626
F0.0
sVhydroxyxine
p3627
F0.0
sVbc
p3628
F0.0
sV300
p3629
F3.840496010166083e-05
sVbm
p3630
F0.0
sV302
p3631
F0.00012527158422904672
sVlose
p3632
F0.00012747085002723526
sV306
p3633
F0.0
sVzombie
p3634
F0.00037581475268714013
sVstep
p3635
F0.00015591540897678138
sVtcas
p3636
F0.0
sVbp
p3637
F0.0
sVnowhere
p3638
F6.263579211452336e-05
sVache
p3639
F0.0
sVtaboo
p3640
F0.0
sVcgi
p3641
F6.263579211452336e-05
sVintense
p3642
F0.00019202480050830415
sVvaccine
p3643
F0.0
sV18096160
p3644
F0.0
sVpatiant
p3645
F0.0
sVreact
p3646
F0.00015361984040664333
sVpipeline
p3647
F0.0
sVcautious
p3648
F0.00012527158422904672
sVchf
p3649
F0.0
sVanything
p3650
F0.0003314242100708117
sVnetflix
p3651
F0.0
sVrow
p3652
F2.4230832012862523e-05
sVabandoment
p3653
F0.0
sVfavor
p3654
F3.840496010166083e-05
sVpage
p3655
F0.000230429760609965
sVounce
p3656
F0.00012527158422904672
sVidk
p3657
F0.0
sVaftercare
p3658
F0.0
sVtherapeutic
p3659
F0.0
sVwanna
p3660
F3.840496010166083e-05
sVblock
p3661
F0.000691289281829895
sVantihistaminic
p3662
F0.0
sVserotonin
p3663
F0.0
sVrepair
p3664
F0.0
sVreal
p3665
F0.0
sVplenty
p3666
F0.00019202480050830415
sVdude
p3667
F0.00018790737634357007
sVnortriptyline
p3668
F0.0
sVwithin
p3669
F0.00011339302471038646
sVnonsense
p3670
F0.0
sVusa
p3671
F6.263579211452336e-05
sVantidepresant
p3672
F0.0
sVwatt
p3673
F0.0
sVappropriate
p3674
F0.00037581475268714013
sVmitochondrial
p3675
F0.0
sVprimarily
p3676
F0.0
sValpha
p3677
F0.00012527158422904672
sVlesson
p3678
F6.263579211452336e-05
sVdelusional
p3679
F6.263579211452336e-05
sVclick
p3680
F2.4230832012862523e-05
sVoutline
p3681
F6.263579211452336e-05
sVconnexus
p3682
F0.0
sVgouge
p3683
F0.0
sVstory
p3684
F0.0003840496010166083
sVsneaky
p3685
F0.0
sVtieflicht
p3686
F0.0
sVneuralgia
p3687
F0.0
sVsock
p3688
F6.263579211452336e-05
sVcolumn
p3689
F6.263579211452336e-05
sVlong
p3690
F0.0
sVaccountability
p3691
F0.0
sVoccupy
p3692
F0.0
sVconsultation
p3693
F0.0
sVreduction
p3694
F0.0004384505448016634
sVhomemade
p3695
F6.263579211452336e-05
sVsuit
p3696
F3.840496010166083e-05
sVforward
p3697
F0.0
sVtranslate
p3698
F6.263579211452336e-05
sVtwitter
p3699
F0.0
sVrecord
p3700
F0.00015361984040664333
sVconsiderably
p3701
F6.263579211452336e-05
sVcanesten
p3702
F0.0
sVelsewhere
p3703
F6.263579211452336e-05
sVposter
p3704
F6.263579211452336e-05
sVpotassium
p3705
F0.0
sVvehicle
p3706
F0.00012527158422904672
sVspecialty
p3707
F0.0
sVpsychoactive
p3708
F0.0
sVcloud
p3709
F0.0
sVselador
p3710
F0.0
sVlink
p3711
F0.0005376694414232516
sValive
p3712
F1.4174128088798308e-05
sVnewer
p3713
F0.00025054316845809344
sVpwn
p3714
F0.0
sVkink
p3715
F0.0
sVline
p3716
F0.000184263665154378
sVrelaxer
p3717
F0.0
sVconsiderable
p3718
F3.840496010166083e-05
sV1046
p3719
F0.0
sVinfo
p3720
F0.0004384505448016634
sVhydrocortisone
p3721
F0.0
sVpregabalin
p3722
F0.0
sVchiropractor
p3723
F6.263579211452336e-05
sVod
p3724
F0.0
sVoxazepam
p3725
F0.0
sVincase
p3726
F0.0
sVcortef
p3727
F0.0
sVup
p3728
F0.0
sVpeppermint
p3729
F0.0
sVur
p3730
F0.0
sVmobile
p3731
F6.263579211452336e-05
sVgrowth
p3732
F0.00012527158422904672
sVuh
p3733
F2.4230832012862523e-05
sVuk
p3734
F0.00037581475268714013
sVpineal
p3735
F0.0
sVhorner
p3736
F0.0
sVabortives
p3737
F0.0
sVaspirin
p3738
F0.0
sVsimilar
p3739
F0.00032600494604236106
sValarm
p3740
F3.840496010166083e-05
sVdocusate
p3741
F0.0
sVparoxetine
p3742
F0.0
sVludiomil
p3743
F0.0
sVconstant
p3744
F0.0003840496010166083
sVestrogen
p3745
F0.00025054316845809344
sVmindful
p3746
F0.0
sVexaminer
p3747
F0.0
sVlikewise
p3748
F0.0
sVunsafe
p3749
F6.263579211452336e-05
sVdoesn
p3750
F0.0003696654650789823
sVsingle
p3751
F5.098834001089411e-05
sVcure
p3752
F0.0006263579211452335
sVcurb
p3753
F6.263579211452336e-05
sVchat
p3754
F2.4230832012862523e-05
sVbicep
p3755
F0.0
sVc17s1
p3756
F0.0
sVtriptans
p3757
F0.0
sVtramulief
p3758
F0.0
sVadjudicate
p3759
F0.0
sVuser
p3760
F7.680992020332167e-05
sVpeace
p3761
F6.263579211452336e-05
sVcohesive
p3762
F0.0
sVdoxepin
p3763
F0.0
sVoccasional
p3764
F0.0
sVclub
p3765
F0.00012527158422904672
sVnap
p3766
F0.0
sVreputation
p3767
F3.840496010166083e-05
sVbutterbur
p3768
F0.0
sV60oz
p3769
F0.0
sVincome
p3770
F0.0
sVretract
p3771
F6.263579211452336e-05
sVverifed
p3772
F0.0
sVbaclofen
p3773
F0.0
sVnice
p3774
F0.0
sVmiko
p3775
F0.0
sVunderweight
p3776
F0.0
sVdraw
p3777
F2.5494170005447054e-05
sVcellar
p3778
F6.263579211452336e-05
sVdeclaw
p3779
F0.0
sVmisfill
p3780
F0.0
sVlucid
p3781
F0.0
sVunderstatement
p3782
F0.0
sVativan
p3783
F0.0
sVluxurious
p3784
F6.263579211452336e-05
sVinflame
p3785
F0.0
sVrise
p3786
F7.680992020332167e-05
sVvisibility
p3787
F6.263579211452336e-05
sVfructose
p3788
F0.0
sVla_1119621_667x333
p3789
F0.0
sVchocolate
p3790
F3.840496010166083e-05
sVamphetamine
p3791
F0.0
sVstructure
p3792
F6.263579211452336e-05
sVfeasible
p3793
F6.263579211452336e-05
sVindependently
p3794
F0.0
sVnotch
p3795
F6.263579211452336e-05
sVhappier
p3796
F6.263579211452336e-05
sVlead
p3797
F0.0002693084336871679
sVpractically
p3798
F6.263579211452336e-05
sVconsumer
p3799
F0.0
sVmetabolize
p3800
F0.0
sVconfirm
p3801
F0.0001152148803049825
sValongside
p3802
F7.680992020332167e-05
sVstay
p3803
F0.0002976566898647645
sVindomethacin
p3804
F0.0
sV2003
p3805
F7.680992020332167e-05
sVlevodopa
p3806
F0.0
sVbeverage
p3807
F6.263579211452336e-05
sV2007
p3808
F0.0
sVwalker
p3809
F0.00012527158422904672
sVgoat
p3810
F2.4230832012862523e-05
sVintentional
p3811
F0.0
sValeve
p3812
F0.0
sVgdgzzvv_yaq
p3813
F0.0
sVpartial
p3814
F6.263579211452336e-05
sVnoritriptyline
p3815
F0.0
sVgp
p3816
F0.0
sVlean
p3817
F6.263579211452336e-05
sVlaziness
p3818
F0.0
sVresistance
p3819
F6.263579211452336e-05
sVproduce
p3820
F0.00015361984040664333
sVclue
p3821
F0.0001152148803049825
sVnotify
p3822
F6.263579211452336e-05
sVhepatitis
p3823
F6.263579211452336e-05
sVedu
p3824
F6.263579211452336e-05
sVgo
p3825
F0.0
sVflashback
p3826
F0.0
sVmri
p3827
F0.0
sVworrisome
p3828
F0.0
sVonlinelibrary
p3829
F0.0
sVpsilocybin
p3830
F0.0
sVimproperly
p3831
F6.263579211452336e-05
sVstave
p3832
F0.0
sVyoung
p3833
F1.912062750408529e-05
sVsend
p3834
F0.0002693084336871679
sVnose
p3835
F2.8348256177596616e-05
sVintensive
p3836
F0.00012527158422904672
sVselegiline
p3837
F0.0
sVtypewriter
p3838
F0.0
sVstable
p3839
F0.00012527158422904672
sVweather
p3840
F2.4230832012862523e-05
sVbp2
p3841
F0.0
sVdekmantel
p3842
F0.0
sVfatal
p3843
F3.840496010166083e-05
sVdramatically
p3844
F6.263579211452336e-05
sVingredient
p3845
F0.00012527158422904672
sVrag
p3846
F6.263579211452336e-05
sVfwiw
p3847
F0.0
sVsw8wjfwisc8
p3848
F0.0
sVrandom
p3849
F7.680992020332167e-05
sVacdfc5
p3850
F0.0
sVgarden
p3851
F3.840496010166083e-05
sVtorture
p3852
F0.00012527158422904672
sVoutside
p3853
F5.098834001089411e-05
sVcinnamon
p3854
F3.840496010166083e-05
sVbounceback
p3855
F0.0
sVkitty
p3856
F6.263579211452336e-05
sVoutdoorsy
p3857
F6.263579211452336e-05
sVtriptan
p3858
F0.0
sVhydroxyzine
p3859
F0.0
sVfacebook
p3860
F0.0
sVaccuse
p3861
F0.0
sVsurgeon
p3862
F0.0
sVenfp
p3863
F0.0
sVwipe
p3864
F3.840496010166083e-05
sVnausea
p3865
F0.0
sVtri
p3866
F0.00012527158422904672
sVentire
p3867
F7.269249603858757e-05
sVtrk
p3868
F0.0
sVmagic
p3869
F0.00015361984040664333
sVaugment
p3870
F0.0
sVsucceed
p3871
F0.0
sVstiff
p3872
F0.00012527158422904672
sVtransmission
p3873
F0.0
sVgender
p3874
F0.0
sVbutton
p3875
F3.840496010166083e-05
sVshock
p3876
F7.680992020332167e-05
sVmichael
p3877
F0.0
sVeve
p3878
F0.0
sVfewer
p3879
F0.0004384505448016634
sVnarcoleptic
p3880
F0.0
sVtry
p3881
F0.0008413076101797528
sVolanzapine
p3882
F0.0
sVs0022395608000733
p3883
F0.0
sVrace
p3884
F6.263579211452336e-05
sVobesity
p3885
F0.0
sVsavella
p3886
F0.0
sVjuda
p3887
F0.0
sVjoey
p3888
F0.0
sVflash
p3889
F3.840496010166083e-05
sVsomeday
p3890
F0.00018790737634357007
sVstrongly
p3891
F0.0
sVcfm
p3892
F6.263579211452336e-05
sVuei
p3893
F0.0
sVrts
p3894
F0.0
sVexten
p3895
F0.0
sVuncomfortably
p3896
F0.0
sVhepatocellular
p3897
F0.0
sVnarcolepsy
p3898
F0.00025054316845809344
sVsensation
p3899
F0.0
sVjump
p3900
F4.8461664025725047e-05
sVvideo
p3901
F0.0002688347207116258
sVummc
p3902
F0.0
sVsubtle
p3903
F6.263579211452336e-05
sVnotwithstanding
p3904
F6.263579211452336e-05
sVbentyl
p3905
F0.0
sVquetzalcotl
p3906
F0.0
sVodd
p3907
F1.4174128088798308e-05
sVweek
p3908
F0.0013326957607074387
sVfolk
p3909
F6.263579211452336e-05
sVindex
p3910
F6.263579211452336e-05
sVconfuse
p3911
F0.00015361984040664333
sV3x
p3912
F0.0
sVovulation
p3913
F0.0
sVrate
p3914
F0.0006144793616265733
sVgrieve
p3915
F0.0
sVasap
p3916
F0.0
sVbeyaz
p3917
F0.0
sVexacerbate
p3918
F0.0
sVglycinate
p3919
F0.0
sVaccess
p3920
F3.840496010166083e-05
sVconsistently
p3921
F0.00012527158422904672
sVbruxism
p3922
F0.0
sVbismol
p3923
F0.0
sV3a
p3924
F0.0
sVexercise
p3925
F0.0014406232186340371
sVbody
p3926
F0.0002549417000544705
sVdiazepam
p3927
F0.0
sVproliferation
p3928
F0.0
sVpediatrics
p3929
F0.0
sVoestrogen
p3930
F0.0
sVdegree
p3931
F7.680992020332167e-05
sVleg
p3932
F0.00031500081616721277
sVrespectively
p3933
F0.0
sVdarknet
p3934
F0.0
sVprescribe
p3935
F0.0054493139139635315
sVhighly
p3936
F0.00030723968081328666
sVnardil
p3937
F0.0
sVlet
p3938
F0.00015296502003268232
sVsink
p3939
F2.4230832012862523e-05
sVzopiclone
p3940
F0.0
sVothers
p3941
F0.0002976566898647645
sVoxidative
p3942
F6.263579211452336e-05
sVsing
p3943
F3.840496010166083e-05
sVsafer
p3944
F0.0
sVfifteen
p3945
F0.00018790737634357007
sVextreme
p3946
F0.00014538499207717513
sVrib
p3947
F0.0
sVnotably
p3948
F6.263579211452336e-05
sVgreat
p3949
F0.0
sVrevile
p3950
F0.0
sVoleptro
p3951
F0.0
sVnumbness
p3952
F0.0
sVreceive
p3953
F0.0005637221290307102
sV30
p3954
F0.00025513430559836954
sVopiate
p3955
F0.0
sVhost
p3956
F2.4230832012862523e-05
sV35
p3957
F7.680992020332167e-05
sVbendroflumethiazide
p3958
F0.0
sVtenfold
p3959
F0.0
sVrda
p3960
F0.0
sVcefepine
p3961
F0.0
sVsword
p3962
F7.269249603858757e-05
sVdefeat
p3963
F0.00012527158422904672
sVopinion
p3964
F0.0008142652974888036
sVdepressant
p3965
F0.0
sVmaker
p3966
F0.0
sVthats
p3967
F7.680992020332167e-05
sVprestiq
p3968
F0.0
sVstabilization
p3969
F0.0
sVvalproic
p3970
F0.0
sVheart
p3971
F0.00041192414421866287
sVforbid
p3972
F6.263579211452336e-05
sVwin
p3973
F0.00038769331220580037
sVlimp
p3974
F6.263579211452336e-05
sVmanage
p3975
F0.000508847472270113
sVapprehensive
p3976
F0.0
sVprivate
p3977
F0.0001211541600643126
sVocd
p3978
F0.0
sV120lb
p3979
F0.0
sVwit
p3980
F3.840496010166083e-05
sVdecrease
p3981
F0.0015032590107485605
sVapo
p3982
F0.0
sVe827
p3983
F0.0
sVduck
p3984
F3.840496010166083e-05
sVlimb
p3985
F0.0
sVjackass
p3986
F6.263579211452336e-05
sVcooperative
p3987
F0.0
sVnsaid
p3988
F0.0
sVexenatide
p3989
F0.0
sVunprovoked
p3990
F0.0
sVminuteclinic
p3991
F0.0
sValbuterol
p3992
F0.0
sVuse
p3993
F0.0010452609702233293
sVfee
p3994
F0.0
sVviibryd
p3995
F0.0
sVhippie
p3996
F6.263579211452336e-05
sVconsumption
p3997
F6.263579211452336e-05
sVsars
p3998
F0.0
sVillegal
p3999
F6.263579211452336e-05
sVdruggies
p4000
F6.263579211452336e-05
sVflat
p4001
F2.8348256177596616e-05
sVnext
p4002
F0.00020395336004357643
sVclassically
p4003
F0.00018790737634357007
sVdoubt
p4004
F7.087064044399153e-05
sVtypical
p4005
F0.00019202480050830415
sVd
p4006
F0.0
sVchecker
p4007
F6.263579211452336e-05
sVchloride
p4008
F0.0
sVnimodipine
p4009
F0.0
sVhydro
p4010
F0.0
sVsort
p4011
F0.00012109730752587351
sVpencil
p4012
F3.840496010166083e-05
sVchloroquine
p4013
F0.0
sVsupposedly
p4014
F6.263579211452336e-05
sVvaginally
p4015
F0.0
sVupcoming
p4016
F0.0
sVcomparison
p4017
F3.840496010166083e-05
sVtrait
p4018
F0.0
sVgi
p4019
F0.0
sVduper
p4020
F0.0
sVinfection
p4021
F0.0006889937132597569
sVweened
p4022
F0.0
sVtrail
p4023
F6.263579211452336e-05
sVtrain
p4024
F0.00037581475268714013
sVchit
p4025
F0.0
sVmanneken
p4026
F0.0
sVbaby
p4027
F0.00015361984040664333
sV4am
p4028
F0.0
sVinattentive
p4029
F6.263579211452336e-05
sViii
p4030
F0.0
sV200mg
p4031
F0.0
sVtestosterone
p4032
F0.0
sVcustomer
p4033
F0.00012527158422904672
sVmeeting_abstract
p4034
F0.0
sVaccount
p4035
F0.00015361984040664333
sVgeodon
p4036
F0.0
sVmythical
p4037
F0.0
sVlopressor
p4038
F0.0
sVzyrtec
p4039
F0.0
sVouj7ejwyue8
p4040
F0.0
sVchallenge
p4041
F6.263579211452336e-05
sVoh
p4042
F0.0003840496010166083
sVpour
p4043
F6.263579211452336e-05
sVhypertonic
p4044
F0.0
sVcreepy
p4045
F6.263579211452336e-05
sVanywhere
p4046
F2.8348256177596616e-05
sVobvious
p4047
F0.00014538499207717513
sVstabilizer
p4048
F0.0
sVdrill
p4049
F0.0
sVantisocial
p4050
F0.0
sVangsty
p4051
F0.0
sVmeet
p4052
F0.00019202480050830415
sVinhibitor
p4053
F0.0
sVdidnt
p4054
F0.00012527158422904672
sVfetch
p4055
F3.840496010166083e-05
sVsomething
p4056
F0.00048438923010349404
sVcontrol
p4057
F0.0014593884838631117
sVsri
p4058
F0.0
sVtap
p4059
F6.263579211452336e-05
sVinterestingly
p4060
F0.00012527158422904672
sVpainkiller
p4061
F0.0
sVcalculation
p4062
F6.263579211452336e-05
sVpelvic
p4063
F0.00037581475268714013
sVimigran
p4064
F0.0
sV100mg
p4065
F0.0
sVhigh
p4066
F0.0
sVeffectively
p4067
F0.0
sVcoenzyme
p4068
F0.0
sVbend
p4069
F3.840496010166083e-05
sVslip
p4070
F0.00012527158422904672
sVdj
p4071
F0.0
sVserial
p4072
F0.0
sVvoice
p4073
F3.840496010166083e-05
sVpsyched
p4074
F6.263579211452336e-05
sVpaleo
p4075
F0.0
sVhiv
p4076
F0.0
sVdefective
p4077
F0.0
sVsit
p4078
F0.0002423083201286252
sVtrazadone
p4079
F0.0
sVredditors
p4080
F0.0
sVoccipital
p4081
F0.0
sVdelay
p4082
F7.680992020332167e-05
sVbabble
p4083
F0.0
sVneed
p4084
F0.0006819690476457087
sVdigoxin
p4085
F0.0
sVpair
p4086
F7.680992020332167e-05
sVketoconazole
p4087
F0.0
sVelliptical
p4088
F0.0
sVsuspend
p4089
F0.0
sVwolf
p4090
F0.0
sVcomedy
p4091
F6.263579211452336e-05
sVintelligent
p4092
F3.840496010166083e-05
sVnaltraxone
p4093
F0.0
sVstand
p4094
F0.00012756715279918477
sVprofile
p4095
F0.0003456446409149475
sVtension
p4096
F0.0
sVlt042
p4097
F0.0
sVlesion
p4098
F0.0
sVattend
p4099
F7.680992020332167e-05
sVbyetta
p4100
F0.0
sVfran
p4101
F0.0
sVunderway
p4102
F6.263579211452336e-05
sVcollection
p4103
F3.840496010166083e-05
sVauthorative
p4104
F0.0
sVnormalcy
p4105
F0.0
sVphysio
p4106
F0.0
sVabuse
p4107
F0.0004384505448016634
sVfatigue
p4108
F0.0
sVmen
p4109
F0.0001211541600643126
sVatrovent
p4110
F0.0
sVhahahaha
p4111
F0.0
sVhawk
p4112
F6.263579211452336e-05
sVprostate
p4113
F6.263579211452336e-05
sVnpp
p4114
F0.0
sVsyndrome
p4115
F0.0005760744015249125
sVphysical
p4116
F0.0
sVmemorize
p4117
F6.263579211452336e-05
sVdysthymic
p4118
F0.0
sVbind
p4119
F0.0
sVcounter
p4120
F0.0004224545611182692
sVcorrespond
p4121
F0.0
sVelement
p4122
F4.8461664025725047e-05
sVfortunately
p4123
F0.0
sVhonestly
p4124
F0.00046085952121993
sVtemp
p4125
F0.00012527158422904672
sVallow
p4126
F0.0005637221290307102
sVtamper
p4127
F0.0
sVaddiction
p4128
F0.0
sVduloxetine
p4129
F0.0
sVlongest
p4130
F0.00012527158422904672
sVserotonergic
p4131
F0.0
sVnac
p4132
F0.0
sVadjust
p4133
F0.00031317896057261673
sVdx
p4134
F0.0
sVproducer
p4135
F3.840496010166083e-05
sVmute
p4136
F6.263579211452336e-05
sVdemand
p4137
F4.8461664025725047e-05
sVmove
p4138
F0.0005815399683087005
sVoutlook
p4139
F3.840496010166083e-05
sVknowledgable
p4140
F0.0
sV2013
p4141
F0.0
sVemsam
p4142
F0.0
sV130
p4143
F3.840496010166083e-05
sVgiom
p4144
F0.0
sVfortunate
p4145
F0.0
sVsexytimes
p4146
F0.0
sVunchecked
p4147
F6.263579211452336e-05
sVbunch
p4148
F0.0001211541600643126
sVperfect
p4149
F0.0001152148803049825
sVwrite
p4150
F0.0001984377932431763
sVle
p4151
F0.0025680674766954577
sVlb
p4152
F0.0
sVantipsychotic
p4153
F0.0
sVtsh
p4154
F0.0
sVdecay
p4155
F0.0
sVlo
p4156
F0.0
sVll
p4157
F0.00040790672008715286
sVhypothesize
p4158
F0.0
sV3239560
p4159
F0.0
sVsiamese
p4160
F0.0
sVlabor
p4161
F0.0
sVmeantime
p4162
F0.00031317896057261673
sVage
p4163
F9.921889662158814e-05
sVaurorix
p4164
F0.0
sVrestrain
p4165
F0.0
sVchoose
p4166
F9.692332805145009e-05
sVamtriptyline
p4167
F0.0
sVbye
p4168
F0.00012527158422904672
sV2010
p4169
F0.0
sVtsp
p4170
F0.0
sVdad
p4171
F4.8461664025725047e-05
sVintraocular
p4172
F0.0
sVdistress
p4173
F0.00012527158422904672
sVanimal
p4174
F2.8348256177596616e-05
sVunclear
p4175
F3.840496010166083e-05
sVanticonvulsant
p4176
F0.0
sVnada
p4177
F6.263579211452336e-05
sVspell
p4178
F7.680992020332167e-05
sVmuddle
p4179
F0.0
sVmras
p4180
F0.0
sVmention
p4181
F0.0004603858082443879
sVflare
p4182
F0.0
sVdaw
p4183
F0.0
sVplaquenil
p4184
F0.0
sVinstead
p4185
F0.00029076998415435027
sVfront
p4186
F7.087064044399153e-05
sVrotation
p4187
F0.0
sVcircadian
p4188
F0.0
sVday
p4189
F0.0
sVemotion
p4190
F0.00012527158422904672
sVsynaptic
p4191
F0.0
sVsalford
p4192
F0.0
sVtransmitter
p4193
F0.0
sVdiagnostic
p4194
F0.0
sVthrill
p4195
F0.0
sVauto
p4196
F0.00031317896057261673
sV11nce
p4197
F0.0
sVtram
p4198
F0.0
sVsucess
p4199
F0.0
sVpreclude
p4200
F0.0
sVunpredictable
p4201
F0.00025054316845809344
sVl4
p4202
F0.0
sVl5
p4203
F0.0
sVlamictal
p4204
F0.0
sVtruth
p4205
F0.0001152148803049825
sVgelcap
p4206
F0.0
sVreceptor
p4207
F0.0
sVtoxic
p4208
F0.0
sVstock
p4209
F7.269249603858757e-05
sVcolesevelam
p4210
F0.0
sVinstitution
p4211
F6.263579211452336e-05
sVactivate
p4212
F0.00015361984040664333
sVvasovagal_response
p4213
F0.0
sVlgqrp3v00xy
p4214
F0.0
sVbump
p4215
F0.0
sVixzz3pytia1zj
p4216
F0.0
sVcelexa
p4217
F0.0
sVymmv
p4218
F0.0
sVweening
p4219
F0.0
sVsociety
p4220
F3.840496010166083e-05
sVjunkie
p4221
F6.263579211452336e-05
sVmeta
p4222
F7.680992020332167e-05
sVstatic
p4223
F6.263579211452336e-05
sVmeasure
p4224
F9.692332805145009e-05
sV82
p4225
F6.263579211452336e-05
sVhuntington
p4226
F0.0
sVbay
p4227
F0.0001152148803049825
sVsexual
p4228
F0.0005010863369161869
sV87
p4229
F0.0
sVagoraphobia
p4230
F0.0
sVout
p4231
F0.0
sVcategory
p4232
F0.000230429760609965
sVsecretly
p4233
F6.263579211452336e-05
sVlastly
p4234
F0.0
sVifs
p4235
F6.263579211452336e-05
sVsentiment
p4236
F0.0
sVtwice
p4237
F0.00019384665610290019
sVculture
p4238
F0.00012527158422904672
sVkeystroke
p4239
F6.263579211452336e-05
sVvolunteers59
p4240
F0.0
sVfeminisation
p4241
F0.0
sVupset
p4242
F6.263579211452336e-05
sVsimilarly
p4243
F0.0
sVmate
p4244
F2.4230832012862523e-05
sVsituational
p4245
F0.0
sVsocalled
p4246
F0.0
sV8x
p4247
F0.0
sVrem
p4248
F0.0
sVintervention
p4249
F0.00012527158422904672
sVcause
p4250
F0.0006755955051443468
sValter
p4251
F0.0
sVmath
p4252
F0.00025054316845809344
sVtofranil
p4253
F0.0
sVshut
p4254
F5.669651235519323e-05
sVexperiment
p4255
F3.840496010166083e-05
sVworkflow
p4256
F0.0
sVwithdrawal
p4257
F0.0
sV8g
p4258
F0.0
sVasd
p4259
F0.0
sVartdet
p4260
F0.0
sVban
p4261
F0.0
sVcompletely
p4262
F0.00022678604942077293
sVect
p4263
F0.0
sVsurely
p4264
F0.00012527158422904672
sVintruder
p4265
F0.0
sVusual
p4266
F0.00018790737634357007
sV3ni1nd
p4267
F0.0
sVlikelihood
p4268
F0.0
sVbleed
p4269
F0.0001211541600643126
sVzirtek
p4270
F0.0
sVscary
p4271
F0.00025054316845809344
sV50mg
p4272
F0.0
sVinteraction
p4273
F0.0008142652974888036
sVorganic
p4274
F0.0
sVtimey
p4275
F0.0
sVg
p4276
F0.00016961582409003763
sVspill
p4277
F2.4230832012862523e-05
sVautomatic
p4278
F3.840496010166083e-05
sVcould
p4279
F0.0
sVarea
p4280
F8.922959501906468e-05
sVput
p4281
F0.0002931829550626411
sVdiscomfort
p4282
F0.0
sVhealthy
p4283
F0.0002423083201286252
sVkeep
p4284
F0.00024219461505174702
sVconversation
p4285
F7.087064044399153e-05
sVsleeplessness
p4286
F0.0
sV4th
p4287
F0.00012527158422904672
sVcounterintuitively
p4288
F0.0
sVoaxacan
p4289
F0.0
sVhence
p4290
F0.00012527158422904672
sVretain
p4291
F3.840496010166083e-05
sVparallel
p4292
F0.0
sVretail
p4293
F0.0
sVstimulate
p4294
F0.0
sVdexedrine
p4295
F0.0
sVexam
p4296
F0.00018790737634357007
sVfinest
p4297
F2.4230832012862523e-05
sVsuffix
p4298
F6.263579211452336e-05
sVdeprenyl
p4299
F0.0
sVthird
p4300
F3.824125500817058e-05
sVama
p4301
F0.0
sVpowerful
p4302
F0.00031317896057261673
sVhey
p4303
F0.00015361984040664333
sVcardiac
p4304
F0.0
sVvulva
p4305
F0.0
sVregrow
p4306
F0.0
sVbitch
p4307
F0.00025054316845809344
sVdrinker
p4308
F6.263579211452336e-05
sVart
p4309
F2.4230832012862523e-05
sVscent
p4310
F6.263579211452336e-05
sVfrazzle
p4311
F0.0
sVplaylist
p4312
F0.00012527158422904672
sVmanagement
p4313
F0.0006889937132597569
sVsadly
p4314
F0.0
sVmonkey
p4315
F7.680992020332167e-05
sV10x
p4316
F0.0
sVstrict
p4317
F6.263579211452336e-05
sVhabit
p4318
F0.0
sVsystem
p4319
F0.00032600494604236106
sVrealistically
p4320
F0.0
sVclomipramine
p4321
F0.0
sVvagina
p4322
F0.00012527158422904672
sVintermediate
p4323
F0.0
sVslide
p4324
F3.840496010166083e-05
sVvagine
p4325
F0.0
sVfiorecet
p4326
F0.0
sVprolapse
p4327
F0.0
sVbeside
p4328
F1.4174128088798308e-05
sVmucosa
p4329
F0.0
sVperfectly
p4330
F2.4230832012862523e-05
sVpainful
p4331
F0.0
sVprone
p4332
F0.0
sVconvert
p4333
F6.263579211452336e-05
sVparathesia
p4334
F0.0
sVstomach
p4335
F0.0003456446409149475
sVlot
p4336
F0.0
sVarrousals
p4337
F0.0
sVpopulation
p4338
F7.680992020332167e-05
sVacademy
p4339
F0.00012527158422904672
sVexplanation
p4340
F6.263579211452336e-05
sVwrithe
p4341
F0.0
sVdisturbance
p4342
F6.263579211452336e-05
sVenvironmental
p4343
F0.0
sVvouch
p4344
F0.0
sVanyones
p4345
F0.0
sVmanipulation
p4346
F0.00025054316845809344
sVfuzzy
p4347
F0.0
sVtopomax
p4348
F0.0
sVbotox
p4349
F0.0
sVmorbidity
p4350
F0.0
sVhaven
p4351
F0.0003968755864863526
sVbodyweight
p4352
F0.0
sVneck
p4353
F0.0004224545611182692
sVsteel
p4354
F3.840496010166083e-05
sVdevelop
p4355
F0.0005376694414232516
sVcounteract
p4356
F0.0
sVmorph
p4357
F0.0
sVroulette
p4358
F0.0
sVhubimg
p4359
F0.0
sVbother
p4360
F0.00015361984040664333
sVsmush
p4361
F0.0
sVbed
p4362
F0.0010753388828465033
sVdiscolor
p4363
F0.0
sVdefense
p4364
F0.0
sVlactmed
p4365
F0.0
sVmalpractice
p4366
F0.0
sVlight
p4367
F0.0001700895370655797
sVz8xnbmbynb0
p4368
F0.0
sVreferral
p4369
F0.0
sVexhibit
p4370
F6.263579211452336e-05
sVfalse
p4371
F7.269249603858757e-05
sVgabopentin
p4372
F0.0
sVfaster
p4373
F7.269249603858757e-05
sVpartnership
p4374
F0.0
sVcomfortable
p4375
F3.840496010166083e-05
sVtonight
p4376
F7.680992020332167e-05
sVgentle
p4377
F7.269249603858757e-05
sVsteriod
p4378
F0.0
sVunlikely
p4379
F0.0
sVgoodie
p4380
F0.0
sVcrank
p4381
F0.0
sVinduce
p4382
F0.0
sVmanifestation
p4383
F6.263579211452336e-05
sVapparently
p4384
F0.00014538499207717513
sVclearly
p4385
F4.8461664025725047e-05
sV70
p4386
F2.4230832012862523e-05
sVunbearable
p4387
F0.0
sVbastard
p4388
F3.840496010166083e-05
sVhypnagogic
p4389
F0.0
sVhaywire
p4390
F0.0
sVmin
p4391
F0.00018790737634357007
sVprobly
p4392
F0.0
sVagency
p4393
F6.263579211452336e-05
sVable
p4394
F0.000411049714575151
sVmechanism
p4395
F0.0
sVfemoral
p4396
F0.0
sVmix
p4397
F0.00043615497623152537
sVdetector
p4398
F0.0
sVpharmacist
p4399
F0.0
sVaccuracy
p4400
F0.0
sVregard
p4401
F0.0
sVunless
p4402
F0.00033923164818007527
sVprednisone
p4403
F0.0
sVmanor
p4404
F0.0
sVhealthcare
p4405
F0.0
sVtension_headache
p4406
F0.0
sVharmful
p4407
F0.0
sVoffend
p4408
F0.00012527158422904672
sVacupuncturist
p4409
F0.0
sVeight
p4410
F9.692332805145009e-05
sVzombification
p4411
F0.0
sVlunesta
p4412
F0.0
sVdevice
p4413
F4.8461664025725047e-05
sVphd
p4414
F0.0
sVclass
p4415
F0.00046774622693034415
sVfair
p4416
F1.2747085002723527e-05
sVavandia
p4417
F0.0
sVastro
p4418
F0.0
sVdeny
p4419
F6.263579211452336e-05
sVhyperthyroidism
p4420
F0.0
sVgather
p4421
F3.840496010166083e-05
sVrequest
p4422
F0.00014538499207717513
sVdisease
p4423
F0.000691289281829895
sVface
p4424
F0.000184263665154378
sVdesvenlafaxine
p4425
F0.0
sVnorth
p4426
F2.4230832012862523e-05
sVoccasion
p4427
F3.840496010166083e-05
sVskinny
p4428
F0.00018790737634357007
sVmonotherapy
p4429
F0.0
sVnormally
p4430
F0.00030723968081328666
sVnortryptiline
p4431
F0.0
sVfact
p4432
F0.0004846166402572504
sVstrenuous
p4433
F0.0
sVimpression
p4434
F6.263579211452336e-05
sVtext
p4435
F0.0001152148803049825
sVdependant
p4436
F0.0
sVbrand_name
p4437
F0.0
sVtmja
p4438
F0.0
sVhomeowner
p4439
F0.0
sVvistaril
p4440
F0.0
sVbring
p4441
F7.01089675149794e-05
sVpanic
p4442
F0.0
sVbedroom
p4443
F6.263579211452336e-05
sVtripans
p4444
F0.0
sVrough
p4445
F7.680992020332167e-05
sVintracardiac
p4446
F0.0
sVtrivial
p4447
F0.0
sVthicker
p4448
F6.263579211452336e-05
sVdecade
p4449
F0.0001152148803049825
sVstaff
p4450
F0.00012527158422904672
sVngf
p4451
F0.0
sV5pm
p4452
F0.0
sVknowledge
p4453
F0.000230429760609965
sVtire
p4454
F0.00046085952121993
sVhadn
p4455
F4.8461664025725047e-05
sVwelbutrin
p4456
F0.0
sVneurogenic
p4457
F0.0
sVmalabsorption
p4458
F0.0
sVeat
p4459
F0.00024096017750957122
sVprolong
p4460
F0.0
sVreactive
p4461
F0.0
sV60mg
p4462
F0.0
sVplatelet
p4463
F0.0
sVcvohyev
p4464
F0.0
sVcombo
p4465
F0.00018790737634357007
sV7fkc1uny
p4466
F0.0
sVjag
p4467
F0.0
sVspice
p4468
F3.840496010166083e-05
sVlocal
p4469
F0.00015361984040664333
sVhangover
p4470
F0.00012527158422904672
sVhope
p4471
F0.00026768878505719403
sVregularly
p4472
F0.00025054316845809344
sVinsight
p4473
F6.263579211452336e-05
sVhandle
p4474
F0.00012756715279918477
sVpharmacology
p4475
F0.0
sVantagonism
p4476
F0.0
sVastigmatism
p4477
F0.0
sVfamiliar
p4478
F0.00030723968081328666
sVoverall
p4479
F0.0004384505448016634
sVlucky
p4480
F0.00016961582409003763
sVbear
p4481
F7.680992020332167e-05
sVdumbing
p4482
F6.263579211452336e-05
sVpathophysiology
p4483
F0.0
sVjoint
p4484
F0.0005010863369161869
sV123
p4485
F0.0
sVlegitimate
p4486
F0.0
sV126
p4487
F0.0
sVprobably
p4488
F0.0006803581482623188
sVstalker
p4489
F0.00012527158422904672
sVpenetrate
p4490
F0.0
sVsinus
p4491
F0.0
sVhydroxizine
p4492
F0.0
sVtecas
p4493
F0.0
sVantagonist
p4494
F0.0
sVsmash
p4495
F6.263579211452336e-05
sVmetabolite
p4496
F0.0
sVqt
p4497
F6.263579211452336e-05
sVorgan
p4498
F6.263579211452336e-05
sVht2a
p4499
F0.0
sVupper
p4500
F0.00012527158422904672
sVapproach
p4501
F0.00019202480050830415
sVundergrad
p4502
F0.0
sVughh
p4503
F0.0
sVncbi
p4504
F0.0
sVstuff
p4505
F0.0006057708003215631
sVinsist
p4506
F6.263579211452336e-05
sVdangerous
p4507
F0.00029076998415435027
sVohio
p4508
F0.0
sVgrab
p4509
F2.4230832012862523e-05
sVaugmentin
p4510
F0.0
sVgrad
p4511
F0.00018790737634357007
sVopiod
p4512
F0.0
sVgabapentin
p4513
F0.0
sVenhancer
p4514
F0.0
sVtoe
p4515
F3.840496010166083e-05
sVbtw
p4516
F0.0
sVtemporarily
p4517
F0.00018790737634357007
sVrectocele
p4518
F0.0
sVresort
p4519
F0.0
sVexpel
p4520
F0.0
sVcatastrophic
p4521
F0.0
sVframe
p4522
F3.840496010166083e-05
sVgroggy
p4523
F0.0
sVfantastically
p4524
F6.263579211452336e-05
sVlazy
p4525
F0.00015361984040664333
sVbreathe
p4526
F0.00037581475268714013
sVdislodge
p4527
F6.263579211452336e-05
sVintensity
p4528
F0.00031317896057261673
sVwd
p4529
F0.0
sVscroll
p4530
F6.263579211452336e-05
sV9654
p4531
F0.0
sVracket
p4532
F0.0
sVrespite
p4533
F0.0
sVdysmorphia
p4534
F0.0
sVmentioned_videos
p4535
F0.0
sVparacetamol
p4536
F0.0
sVdanger
p4537
F2.8348256177596616e-05
sVempathise
p4538
F0.0
sVcomputer
p4539
F0.00030723968081328666
sVextend
p4540
F0.0001152148803049825
sVglucophage
p4541
F0.0
sVnuclear
p4542
F6.263579211452336e-05
sVnightmare
p4543
F0.00021807748811576269
sVhorribly
p4544
F0.0
sVreishi
p4545
F0.0
sVdrown
p4546
F0.00012527158422904672
sVtend
p4547
F0.0011900800501759437
sVxray
p4548
F0.0
sVinitially
p4549
F7.680992020332167e-05
sVstate
p4550
F0.00038769331220580037
sVconvince
p4551
F2.4230832012862523e-05
sVclusterfuck
p4552
F0.0
sVmoducare
p4553
F0.0
sVcorrectly
p4554
F4.8461664025725047e-05
sVroutine
p4555
F0.0004224545611182692
sVfluconazole
p4556
F0.0
sVneither
p4557
F7.680992020332167e-05
sVemail
p4558
F3.840496010166083e-05
sVmidnight
p4559
F3.840496010166083e-05
sVaspartame
p4560
F6.263579211452336e-05
sVimbalance
p4561
F0.0
sVcomparable
p4562
F0.0
sVvarious
p4563
F0.00026653915214148777
sVjot
p4564
F0.0
sVability
p4565
F0.000230429760609965
sVparadoxically
p4566
F6.263579211452336e-05
sVinitiation
p4567
F0.0
sVjoy
p4568
F3.840496010166083e-05
sVtantra
p4569
F0.0
sVnegate
p4570
F0.0
sVhowever
p4571
F0.0018818430449813808
sVefficiency
p4572
F0.0
sVjob
p4573
F0.00029076998415435027
sVcomplicate
p4574
F0.0
sVhypothesis
p4575
F6.263579211452336e-05
sVkey
p4576
F0.00019384665610290019
sVfloss
p4577
F0.0
sVinterchangeable
p4578
F0.0
sVoutfit
p4579
F6.263579211452336e-05
sVoptional
p4580
F6.263579211452336e-05
sVlegit
p4581
F6.263579211452336e-05
sVexclusion
p4582
F0.0
sVactual
p4583
F0.00018790737634357007
sVconceive
p4584
F6.263579211452336e-05
sVempathy
p4585
F0.0
sVinstant
p4586
F3.840496010166083e-05
sVcareer
p4587
F3.840496010166083e-05
sVjoke
p4588
F3.840496010166083e-05
sVla
p4589
F1.2747085002723527e-05
sVscientificamerican
p4590
F0.0
sVpresribe
p4591
F0.0
sVetc
p4592
F0.00023582107255038523
sVadmit
p4593
F0.0
sVgabapenting
p4594
F0.0
sVendo
p4595
F0.0
sVswallow
p4596
F3.840496010166083e-05
sVplacebo
p4597
F0.0
sValprazolam
p4598
F0.0
sVorganisation
p4599
F0.0
sVotherwise
p4600
F0.00014538499207717513
sVcomment
p4601
F0.0004992644813215908
sVvent
p4602
F0.0
sVinflammatory
p4603
F0.0
sVco
p4604
F0.00015361984040664333
sVtimolol
p4605
F0.0
sVcbc
p4606
F0.0
sVabortive
p4607
F0.0
sVprostaglandin
p4608
F0.0
sVca
p4609
F6.263579211452336e-05
sVcontamination
p4610
F0.0
sVmilligram
p4611
F0.0
sVwalk
p4612
F0.000508847472270113
sVwalt
p4613
F0.0
sVv33
p4614
F0.0
sVgtn
p4615
F0.0
sVlaugh
p4616
F7.269249603858757e-05
sVseuil
p4617
F0.0
sVrespect
p4618
F9.692332805145009e-05
sVinterrelation
p4619
F0.0
sVrosiglitazone
p4620
F0.0
sVcv
p4621
F0.0
sVct
p4622
F0.0
sVquit
p4623
F0.00046085952121993
sVimplicate
p4624
F0.0
sVinhale
p4625
F6.263579211452336e-05
sVyay
p4626
F0.0
sVhorrific
p4627
F0.0
sVsecond
p4628
F0.00011472376502451174
sVaddition
p4629
F0.0006889937132597569
sVdecent
p4630
F2.4230832012862523e-05
sVnaltrexone
p4631
F0.0
sVcefuroxime
p4632
F0.0
sVrestless
p4633
F0.0
sVgenetic
p4634
F0.0
sVpermanent
p4635
F4.8461664025725047e-05
sVslowly
p4636
F0.00019384665610290019
sVtreat
p4637
F0.0014538499207717513
sVmaryland
p4638
F0.0
sVssri
p4639
F0.0
sVcurtain
p4640
F0.0
sVhottest
p4641
F6.263579211452336e-05
sVwaste
p4642
F0.00016961582409003763
sVsoma
p4643
F0.0
sVventolin
p4644
F0.0
sVmike
p4645
F0.0
sVcop
p4646
F3.840496010166083e-05
sVlgb
p4647
F0.0
sVroute
p4648
F7.269249603858757e-05
sVsufficient
p4649
F0.0
sVotc
p4650
F0.0
sVprotect
p4651
F0.00012527158422904672
sVanorgasmia
p4652
F0.0
sVcrappy
p4653
F7.680992020332167e-05
sV250mg
p4654
F0.0
sVanticholinergic
p4655
F0.0
sVcontroller
p4656
F0.0
sVaccident
p4657
F0.00012527158422904672
sVtense
p4658
F0.0
sVice
p4659
F3.840496010166083e-05
sVbull
p4660
F6.263579211452336e-05
sVprescription
p4661
F0.0
sVfellow
p4662
F6.263579211452336e-05
sVc7
p4663
F0.0
sVcarisoprodol
p4664
F0.0
sVspain
p4665
F0.0
sVvolunteer
p4666
F0.00012527158422904672
sVmulti
p4667
F2.4230832012862523e-05
sVhypotension
p4668
F0.0
sVlaser
p4669
F6.263579211452336e-05
sVlicense
p4670
F3.840496010166083e-05
sVunlike
p4671
F0.00014538499207717513
sVkava
p4672
F0.0
sVoveruse
p4673
F0.0
sVplain
p4674
F7.269249603858757e-05
sVvanilla
p4675
F3.840496010166083e-05
sVharder
p4676
F0.00019202480050830415
sVas
p4677
F0.0
sVvalue
p4678
F5.669651235519323e-05
sVpixel
p4679
F0.00012527158422904672
sVmiddle
p4680
F7.087064044399153e-05
sVadequately
p4681
F0.0
sVtexas
p4682
F0.0
sVvastly
p4683
F0.0
sVfault
p4684
F1.4174128088798308e-05
sVdeductible
p4685
F0.0
sVknot
p4686
F6.263579211452336e-05
sVamoxicillin
p4687
F0.0
sVgroin
p4688
F0.00025054316845809344
sVelbow
p4689
F0.00012527158422904672
sVsupply
p4690
F0.00012527158422904672
sVsnack
p4691
F6.263579211452336e-05
sVgroup
p4692
F0.00012756715279918477
sVomgwtf
p4693
F0.0
sVcell
p4694
F0.0001211541600643126
sVmanually
p4695
F0.00012527158422904672
sValmost
p4696
F0.0001402179350299588
sVdemo
p4697
F6.263579211452336e-05
sVdelusion
p4698
F0.0
sVthus
p4699
F0.0001152148803049825
sVsite
p4700
F9.692332805145009e-05
sVmostly
p4701
F0.00041192414421866287
sVapprox
p4702
F6.263579211452336e-05
sVcopd
p4703
F0.0
sVoptimistic
p4704
F0.0
sVdual
p4705
F7.680992020332167e-05
sVjudgemental
p4706
F6.263579211452336e-05
sVpartner
p4707
F0.00019202480050830415
sVmedlineplus
p4708
F0.0
sVgreater
p4709
F0.0001152148803049825
sVportray
p4710
F0.0
sVtattoo
p4711
F6.263579211452336e-05
sVpresent
p4712
F5.098834001089411e-05
sVgeneric
p4713
F0.00031317896057261673
sV6mg
p4714
F0.0
sVballoon
p4715
F6.263579211452336e-05
sVadministration
p4716
F0.00012527158422904672
sVcross
p4717
F3.1867712506808814e-05
sVazathioprine
p4718
F0.0
sVmatthew
p4719
F0.0
sVstrange
p4720
F5.669651235519323e-05
sVcanisten
p4721
F0.0
sVflour
p4722
F0.0
sVparty
p4723
F0.00030723968081328666
sVandroid
p4724
F0.0
sVfill
p4725
F0.000508847472270113
sVflair
p4726
F0.0
sVmildly
p4727
F0.0
sVdisc
p4728
F0.0
sVincorrect
p4729
F0.00012527158422904672
sVball
p4730
F4.8461664025725047e-05
sVemotionally
p4731
F0.00012527158422904672
sVcefotaxime
p4732
F0.0
sVabsorb
p4733
F0.00012527158422904672
sVdrink
p4734
F8.285605251770292e-05
sVzanjabee
p4735
F0.0
sVeffect
p4736
F0.0005162569426103027
sViop
p4737
F0.0
sVnightly
p4738
F6.263579211452336e-05
sV80
p4739
F0.0
sVxd
p4740
F0.0
sVstudent
p4741
F0.0002688347207116258
sVpdf
p4742
F0.00012527158422904672
sVfierce
p4743
F0.0
sVfrequently
p4744
F0.0004384505448016634
sVpotasssium
p4745
F0.0
sVantagonize
p4746
F0.0
sVdiabetes
p4747
F0.0007516295053742803
sVyeah
p4748
F0.000691289281829895
sVarse
p4749
F0.0
sVlupus
p4750
F0.0
sVexpense
p4751
F6.263579211452336e-05
sVcenter
p4752
F9.692332805145009e-05
sVfully
p4753
F4.2522384266394926e-05
sVedition
p4754
F6.263579211452336e-05
sVwhole
p4755
F0.0004603858082443879
sVresent
p4756
F0.0
sVindonesia
p4757
F0.0
sVwell
p4758
F0.0
sVcave
p4759
F0.00012527158422904672
sVthought
p4760
F8.504476853278985e-05
sV1
p4761
F0.00030593004006536465
sVinformative
p4762
F6.263579211452336e-05
sVexperimental
p4763
F0.0
sVfirstly
p4764
F0.0
sVposition
p4765
F5.669651235519323e-05
sVoutgrow
p4766
F0.0
sVmuscle
p4767
F0.0020669811397792705
sVloss
p4768
F0.000230429760609965
sVrush
p4769
F4.8461664025725047e-05
sVsubgroup
p4770
F0.0
sVrestore
p4771
F6.263579211452336e-05
sVlube
p4772
F6.263579211452336e-05
sVexcessive
p4773
F4.8461664025725047e-05
sVrocket
p4774
F0.0
sVakira
p4775
F0.0
sVpercent
p4776
F3.840496010166083e-05
sVaccurate
p4777
F6.263579211452336e-05
sVfingerprint
p4778
F0.0
sVpresumably
p4779
F6.263579211452336e-05
sVjar
p4780
F2.4230832012862523e-05
sVinadequate
p4781
F6.263579211452336e-05
sVclinic
p4782
F0.0
sVscholarly
p4783
F0.0
sVrambley
p4784
F0.0
sVloperamide
p4785
F0.0
sVlocalize
p4786
F0.00012527158422904672
sVduoxetine
p4787
F0.0
sVlauren
p4788
F0.0
sVindian
p4789
F0.0
sVcoordination
p4790
F0.0
sVhappiness
p4791
F0.00012527158422904672
sVdhe
p4792
F0.0
sVmaxalts
p4793
F0.0
sVmeningeal
p4794
F0.0
sVrapid
p4795
F6.263579211452336e-05
sVwee
p4796
F0.0
sVfield
p4797
F0.00012527158422904672
sVabsorption
p4798
F0.0
sVpodcast
p4799
F0.0
sVinstruction
p4800
F6.263579211452336e-05
sV0738
p4801
F0.0
sVrealize
p4802
F0.00037581475268714013
sVadd
p4803
F0.00038769331220580037
sVbook
p4804
F0.0004224545611182692
sVcombine
p4805
F0.000230429760609965
sVcrack
p4806
F3.840496010166083e-05
sVreason
p4807
F0.0002976566898647645
sVappreciate
p4808
F0.000230429760609965
sVrenal
p4809
F0.0
sV201111
p4810
F0.0
sVmatch
p4811
F4.8461664025725047e-05
sVboom
p4812
F4.8461664025725047e-05
sVidentical
p4813
F3.840496010166083e-05
sVbranch
p4814
F4.8461664025725047e-05
sVmagnify
p4815
F0.0
sVgovernment
p4816
F3.840496010166083e-05
sVsandrino
p4817
F0.0
sVcpap
p4818
F0.0
sVfyi
p4819
F0.0
sVinversion
p4820
F0.0
sVmaprotiline
p4821
F0.0
sVfive
p4822
F4.461479750953234e-05
sVseizure
p4823
F0.0
sVfacial
p4824
F0.00037581475268714013
sVdeployment
p4825
F0.0
sVbelgium
p4826
F0.0
sVimmediately
p4827
F7.269249603858757e-05
sVabilify
p4828
F0.0
sVname
p4829
F8.922959501906468e-05
sVinsert
p4830
F0.00018790737634357007
sVanticonvulants
p4831
F0.0
sVnecessary
p4832
F0.00012756715279918477
sVlike
p4833
F0.0
sVsuccess
p4834
F0.0003840496010166083
sVring
p4835
F3.840496010166083e-05
sV24362450
p4836
F0.0
sVgarage
p4837
F0.00012527158422904672
sVlosange
p4838
F0.0
sVjanuary
p4839
F0.0
sVbecome
p4840
F0.00012109730752587351
sVcandl
p4841
F0.0
sVuniversity
p4842
F0.00018790737634357007
sVreplacement
p4843
F0.0001152148803049825
sVopioid
p4844
F0.0
sVreglan
p4845
F0.0
sVklonopin
p4846
F0.0
sVdrop
p4847
F0.00029076998415435027
sVmanic
p4848
F0.00018790737634357007
sVfootage
p4849
F0.00012527158422904672
sVcontemporaneous
p4850
F0.0
sVauthority
p4851
F6.263579211452336e-05
sVhair
p4852
F2.4230832012862523e-05
sVdaylight
p4853
F6.263579211452336e-05
sV116
p4854
F0.0
sVconvey
p4855
F0.0
sVrecommendation
p4856
F6.263579211452336e-05
sVproper
p4857
F1.4174128088798308e-05
sVhome
p4858
F0.00012756715279918477
sVsupportive
p4859
F0.0
sVleery
p4860
F0.0
sVrefill
p4861
F0.0006263579211452335
sVshrug
p4862
F0.0
sVtciiylkv5je
p4863
F0.0
sVpinpoint
p4864
F0.0
sVendongenous
p4865
F0.0
sVpsychosis
p4866
F0.0
sVsoundscape
p4867
F0.0
sVliterally
p4868
F0.000230429760609965
sVavoid
p4869
F0.00015591540897678138
sVseparate
p4870
F3.840496010166083e-05
sVkiddy
p4871
F0.0
sVinhibit
p4872
F0.0
sVoverlap
p4873
F6.263579211452336e-05
sVasthma
p4874
F0.00031317896057261673
sVprophalaxis
p4875
F0.0
sVpassion
p4876
F2.4230832012862523e-05
sVinflammation
p4877
F0.0
sVethiopian
p4878
F0.0
sVtmg
p4879
F0.0
sVtmj
p4880
F0.0
sVsnuggle
p4881
F0.0
sVtrap
p4882
F0.0
sVlocate
p4883
F0.00012527158422904672
sVbiology
p4884
F0.0
sVnoise
p4885
F5.669651235519323e-05
sVtrim
p4886
F6.263579211452336e-05
sVproud
p4887
F3.840496010166083e-05
sVschedule
p4888
F0.00018790737634357007
sVtecta
p4889
F0.0
sVjournal
p4890
F0.0
sVcombative
p4891
F0.0
sVpp
p4892
F0.0
sVstellar
p4893
F0.0
sVpressure
p4894
F0.0020669811397792705
sVneurosurgeon
p4895
F0.0
sVexpire
p4896
F0.00012527158422904672
sValthough
p4897
F0.000368527330308756
sVworthy
p4898
F3.840496010166083e-05
sVpublicationdetail
p4899
F0.0
sVfluorescent
p4900
F0.0
sVfrustrate
p4901
F0.0
sVpreventative
p4902
F0.0
sVstage
p4903
F0.0001211541600643126
sVsister
p4904
F3.840496010166083e-05
sVlifestyle
p4905
F0.00025054316845809344
sVrotenone
p4906
F0.0
sVextension
p4907
F6.263579211452336e-05
sV6am
p4908
F0.0
sVibd
p4909
F0.0
sVndc
p4910
F0.0
sVdilaudid
p4911
F0.0
sVdependence
p4912
F0.0
sVingest
p4913
F0.0
sV125mg
p4914
F0.0
sVaminotransferase
p4915
F0.0
sVfear
p4916
F0.00014538499207717513
sVswear
p4917
F0.00012527158422904672
sVsweat
p4918
F0.00037581475268714013
sVnonstressful
p4919
F0.0
sVcranberry
p4920
F3.840496010166083e-05
sVtongue
p4921
F2.4230832012862523e-05
sVbloodstream
p4922
F6.263579211452336e-05
sVupdate
p4923
F6.263579211452336e-05
sVbyszvbfbpty
p4924
F0.0
sVsoftware
p4925
F7.680992020332167e-05
sVequally
p4926
F0.0
sVzz
p4927
F6.263579211452336e-05
sVglenn
p4928
F0.0
sVpreviously
p4929
F0.00037581475268714013
sVh1
p4930
F0.0
sVyear
p4931
F0.0007711986426647732
sVfunctional
p4932
F0.00018790737634357007
sVcyclobenzaprine
p4933
F0.0
sV80mg
p4934
F0.0
sVchronic
p4935
F0.003194425397840691
sVguard
p4936
F2.4230832012862523e-05
sVdoesnt
p4937
F3.840496010166083e-05
sVlung
p4938
F0.00018790737634357007
sVfemale
p4939
F7.269249603858757e-05
sVscanner
p4940
F0.0
sVlovely
p4941
F2.4230832012862523e-05
sVpointless
p4942
F6.263579211452336e-05
sVadrenalin
p4943
F0.0
sVeh
p4944
F9.692332805145009e-05
sV1987
p4945
F0.0
sVuncontrollably
p4946
F0.0
sVprozac
p4947
F0.0
sVcarbon
p4948
F0.0
sVadditional
p4949
F0.0001152148803049825
sVadolescent
p4950
F0.0
sV00459
p4951
F0.0
sVtransfer
p4952
F7.680992020332167e-05
sVmuseum
p4953
F0.00012527158422904672
sVopanaer
p4954
F0.0
sVspiral
p4955
F6.263579211452336e-05
sVrcs
p4956
F0.0
sVfrustration
p4957
F0.0
sVgene
p4958
F6.263579211452336e-05
sVbiggest
p4959
F0.00015361984040664333
sVdamn
p4960
F0.00037581475268714013
sVgoin
p4961
F3.840496010166083e-05
sVinsanely
p4962
F0.0
sVchunk
p4963
F0.0
sVfunction
p4964
F0.0011900800501759437
sVmedcenter
p4965
F0.0
sVbuy
p4966
F0.0001211541600643126
sVcapsule
p4967
F6.263579211452336e-05
sVfmb005
p4968
F0.0
sVdextroamphetamine
p4969
F0.0
sVsweetener
p4970
F0.0
sVbur
p4971
F0.0
sVbrand
p4972
F4.8461664025725047e-05
sVhq
p4973
F0.0
sVmutter
p4974
F0.0
sVweight
p4975
F0.0007795770448839069
sVnormelatonin
p4976
F0.0
sVdelivery
p4977
F0.00012527158422904672
sVneutral
p4978
F0.00031317896057261673
sVhi
p4979
F0.00012527158422904672
sVvalerian
p4980
F0.0
sVgain
p4981
F0.00184343808487972
sVhl
p4982
F0.0
sVthreaten
p4983
F0.00025054316845809344
sVbeat
p4984
F4.8461664025725047e-05
sVhelpful
p4985
F0.0009395368817178502
sVrectum
p4986
F0.0
sVsqueeze
p4987
F0.00012527158422904672
sVbug
p4988
F0.0001152148803049825
sVbud
p4989
F0.0
sVpartially
p4990
F3.840496010166083e-05
sVcount
p4991
F0.00019202480050830415
sVmint
p4992
F3.840496010166083e-05
sVwise
p4993
F0.00037581475268714013
sVworkup
p4994
F0.0
sVtab
p4995
F3.840496010166083e-05
sVdeficiency
p4996
F0.0
sVwhether
p4997
F8.285605251770292e-05
sVwish
p4998
F0.0004846166402572504
sVofficial
p4999
F0.00015361984040664333
sVsmooth
p5000
F2.4230832012862523e-05
sV88
p5001
F0.00018790737634357007
sVbutalbital
p5002
F0.0
sVvaporshark
p5003
F0.0
sVexcitement
p5004
F6.263579211452336e-05
sVsecrete
p5005
F0.0
sVfrequency
p5006
F0.0004384505448016634
sVlimit
p5007
F0.0001152148803049825
sVc7bispulop0
p5008
F0.0
sVvallium
p5009
F0.0
sV3mg
p5010
F0.0
sVadderall
p5011
F0.0
sVproblem
p5012
F0.0005244427392855374
sVpm
p5013
F0.0
sVantidepressives
p5014
F0.0
sVflashin
p5015
F0.0
sVpii
p5016
F0.0
sVdiabetic
p5017
F6.263579211452336e-05
sVpin
p5018
F6.263579211452336e-05
sVwhatever
p5019
F0.00014174128088798306
sVrecognize
p5020
F3.840496010166083e-05
sVdomino
p5021
F0.0
sVcontribute
p5022
F0.00025054316845809344
sVpersistent
p5023
F3.840496010166083e-05
sVlidoderm
p5024
F0.0
sV20046420
p5025
F0.0
sVlesionings
p5026
F0.0
sVhit
p5027
F5.669651235519323e-05
sVflight
p5028
F2.4230832012862523e-05
sVkowton
p5029
F0.0
sVpit
p5030
F6.263579211452336e-05
sVglutamate
p5031
F0.0
sVliquicaps
p5032
F0.0
sVhospitalization
p5033
F0.0
sVimmobilize
p5034
F0.0
sVoab
p5035
F0.0
sV48
p5036
F7.680992020332167e-05
sVvariety
p5037
F0.0001152148803049825
sVas_sdt
p5038
F0.0
sV45
p5039
F4.8461664025725047e-05
sVdihydroergotamine
p5040
F0.0
sVdetail
p5041
F0.0003840496010166083
sV40
p5042
F0.0001211541600643126
sVlately
p5043
F3.840496010166083e-05
sVsurreal
p5044
F0.0
sV_apasserby_
p5045
F0.0
sVspecial
p5046
F1.2747085002723527e-05
sVsick
p5047
F0.00031317896057261673
sVautomaticaly
p5048
F0.0
sVziprasidone
p5049
F0.0
sVbehold
p5050
F6.263579211452336e-05
sV85
p5051
F6.263579211452336e-05
sVstimulant
p5052
F0.0
sValbum
p5053
F0.00018790737634357007
sVrepeat
p5054
F0.00018790737634357007
sVrya0_hghxus0
p5055
F0.0
sVdiagnosis
p5056
F0.0
sVmonday
p5057
F0.0
sVworker
p5058
F0.00018790737634357007
sVvalproate
p5059
F0.0
sVchance
p5060
F0.00012756715279918477
sVstab
p5061
F4.8461664025725047e-05
sVmasterpiece
p5062
F0.0
sVpharmacy
p5063
F0.0017538021792066537
sVcarbamazepine
p5064
F0.0
sV4960
p5065
F0.0
sVexposure
p5066
F0.0
sVhuntingtin
p5067
F0.0
sVbenadryl
p5068
F0.0
sVramble
p5069
F0.0
sV4x
p5070
F0.0
sVrisperdal
p5071
F0.0
sVresolution
p5072
F0.000230429760609965
sVhepc
p5073
F0.0
sVrule
p5074
F0.0002688347207116258
sVintentionally
p5075
F6.263579211452336e-05
sVaetna
p5076
F0.0
sVriboflavin
p5077
F0.0
sV1365
p5078
F0.0
sVpupil
p5079
F0.0
sV1000
p5080
F7.680992020332167e-05
sVspecialize
p5081
F0.0
sVgoodly
p5082
F0.0
sVestriol
p5083
F0.0
sVgrocery
p5084
F0.00012527158422904672
sV4a
p5085
F6.263579211452336e-05
s.