(dp0
Vconsider
p1
F0.0005406201441442191
sVrelieve
p2
F0.0
sVfocus
p3
F0.00358351893845611
sVmonth
p4
F0.0008109302162163288
sVfour
p5
F0.0003646431135879092
sVmild
p6
F0.0
sVsleep
p7
F0.00046209812037329687
sVgo
p8
F0.0
sVappetite
p9
F0.0011945063128187034
sVforget
p10
F0.00046209812037329687
sVextraneous
p11
F0.0011945063128187034
sVselegiline
p12
F0.0
sVmonoamine
p13
F0.0
sVinclude
p14
F0.004394449154672439
sVshoot
p15
F0.0007324081924454065
sVworse
p16
F0.00027031007207210957
sVfluoxetine
p17
F0.0
sVfar
p18
F0.0003646431135879092
sVlater
p19
F0.0009241962407465937
sVfall
p20
F0.0007324081924454065
sVtrouble
p21
F0.00012154770452930305
sVdifference
p22
F0.0007324081924454065
sVexact
p23
F0.00046209812037329687
sVminute
p24
F0.00046209812037329687
sVnausea
p25
F0.0
sVlevel
p26
F0.0002430954090586061
sVissue
p27
F0.00046209812037329687
sVlist
p28
F0.00046209812037329687
sVaccidentally
p29
F0.00046209812037329687
sVtry
p30
F0.0003646431135879092
sVadjust
p31
F0.0023890126256374067
sVsedation
p32
F0.0
sVenhance
p33
F0.00046209812037329687
sVspeculation
p34
F0.0
sVwellbutrin
p35
F0.0
sVanesthetic
p36
F0.0
sVprevent
p37
F0.0007324081924454065
sVforce
p38
F0.0009241962407465937
sVremeron
p39
F0.0
sVagitate
p40
F0.0
sVjump
p41
F0.00046209812037329687
sVlikely
p42
F0.00358351893845611
sVpmc
p43
F0.0
sVeven
p44
F0.0002430954090586061
sVsection
p45
F0.0007324081924454065
sVstool
p46
F0.0011945063128187034
sVbrief
p47
F0.0011945063128187034
sVfind
p48
F0.0
sValprazolam
p49
F0.0
sVbipolar
p50
F0.0011945063128187034
sVimproperly
p51
F0.0011945063128187034
sVever
p52
F0.00012154770452930305
sValertness
p53
F0.0
sVmovement
p54
F0.00046209812037329687
sVbody
p55
F0.0003646431135879092
sVhasn
p56
F0.00027031007207210957
sVpresynaptic
p57
F0.0
sVloose
p58
F0.0009241962407465937
sVprescribe
p59
F0.005972531564093517
sVselective
p60
F0.0
sVlet
p61
F0.0002430954090586061
sVstrong
p62
F0.00046209812037329687
sVfifteen
p63
F0.0011945063128187034
sVchange
p64
F0.00046209812037329687
sVextreme
p65
F0.0009241962407465937
sVdry
p66
F0.001464816384890813
sVsubstance
p67
F0.0
sVphenelzine
p68
F0.0
sVstudy
p69
F0.003662040962227033
sVlarger
p70
F0.00046209812037329687
sVcompletely
p71
F0.00027031007207210957
sVcommonly
p72
F0.0
sVdosage
p73
F0.0023890126256374067
sVtrial
p74
F0.0007324081924454065
sVamount
p75
F0.0009241962407465937
sVect
p76
F0.0
sVusually
p77
F0.0032346868426130783
sVregardless
p78
F0.0011945063128187034
sVdanger
p79
F0.00027031007207210957
sVproblematic
p80
F0.0011945063128187034
sVmanage
p81
F0.0018483924814931875
sVpsychological
p82
F0.0011945063128187034
sVput
p83
F0.00012154770452930305
sVdecrease
p84
F0.0011945063128187034
sVestablish
p85
F0.0011945063128187034
sVcausal
p86
F0.0
sVeldepryl
p87
F0.0
sVuse
p88
F0.0018232155679395459
sVtcas
p89
F0.0
sVviibryd
p90
F0.0
sVwould
p91
F0.0
sVsnri
p92
F0.0
sVpositive
p93
F0.00046209812037329687
sVtwo
p94
F0.0
sVprocess
p95
F0.001464816384890813
sVlive
p96
F0.00012154770452930305
sVcall
p97
F0.0002430954090586061
sVsharpen
p98
F0.0
sVcare
p99
F0.0007324081924454065
sVtype
p100
F0.0013862943611198907
sVtell
p101
F0.0008109302162163288
sVminor
p102
F0.00046209812037329687
sVsort
p103
F0.00012154770452930305
sVchlorpromazine
p104
F0.0
sVthus
p105
F0.001464816384890813
sVaware
p106
F0.0
sVdegrade
p107
F0.0
sVexcellent
p108
F0.0023890126256374067
sVmust
p109
F0.0
sVannoy
p110
F0.0011945063128187034
sVfatal
p111
F0.0007324081924454065
sVhour
p112
F0.00046209812037329687
sVscience
p113
F0.001464816384890813
sVchallenge
p114
F0.0011945063128187034
sVwork
p115
F0.0
sVanywhere
p116
F0.00027031007207210957
sVreabsorb
p117
F0.0
sVstabilizer
p118
F0.0
sVlearn
p119
F0.0011945063128187034
sVinhibitor
p120
F0.0
sVexample
p121
F0.0035140309369374244
sVmirtazapine
p122
F0.0
sVcontrol
p123
F0.002929632769781626
sVcompare
p124
F0.001464816384890813
sVacetylcholine
p125
F0.0
sVgive
p126
F0.0002430954090586061
sVhypersomnia
p127
F0.0
sVfuck
p128
F0.0011945063128187034
sVagent
p129
F0.0023104906018664843
sVhigh
p130
F0.0
sVeffectively
p131
F0.0
sVsomething
p132
F0.00012154770452930305
sVwant
p133
F0.0
sVexclude
p134
F0.0011945063128187034
sVoccur
p135
F0.0011945063128187034
sVlexapro
p136
F0.0
sVguarantee
p137
F0.0011945063128187034
sVrather
p138
F0.00027031007207210957
sVsix
p139
F0.0007324081924454065
sV1
p140
F0.00012154770452930305
sVhypertensive
p141
F0.0
sVvital
p142
F0.0011945063128187034
sVndris
p143
F0.0
sVtoxic
p144
F0.0
sVpanic
p145
F0.0
sVnonstop
p146
F0.0011945063128187034
sVmassive
p147
F0.0
sVprofile
p148
F0.0007324081924454065
sVokay
p149
F0.0007324081924454065
sVmay
p150
F0.002066310976998152
sVadvice
p151
F0.0011945063128187034
sVearlier
p152
F0.00027031007207210957
sVscoff
p153
F0.0023890126256374067
sVreuptake
p154
F0.0
sVcollection
p155
F0.0007324081924454065
sVproduce
p156
F0.0007324081924454065
sVblood
p157
F0.0009241962407465937
sVdevelop
p158
F0.002929632769781626
sVdata
p159
F0.0011945063128187034
sVresponse
p160
F0.0023890126256374067
sVbaseline
p161
F0.0011945063128187034
sVremember
p162
F0.00012154770452930305
sVeffective
p163
F0.011945063128187034
sVbind
p164
F0.0
sVtetracyclic
p165
F0.0
sVgap
p166
F0.00358351893845611
sVcannot
p167
F0.0008109302162163288
sVupside
p168
F0.0007324081924454065
sVcorrelation
p169
F0.0
sVpleasure
p170
F0.00046209812037329687
sVaddiction
p171
F0.0
sVbupropion
p172
F0.0
sVse
p173
F0.0007324081924454065
sVserotonergic
p174
F0.0
sVrestriction
p175
F0.0
sVhelp
p176
F0.0003646431135879092
sVblocker
p177
F0.0011945063128187034
sVslouch
p178
F0.0
sVtyramine
p179
F0.0
sVmidnight
p180
F0.0007324081924454065
sVcourse
p181
F0.00027031007207210957
sVemsam
p182
F0.0
sVsuffer
p183
F0.0007324081924454065
sVchemical
p184
F0.0023890126256374067
sVle
p185
F0.0023890126256374067
sVrapidly
p186
F0.00046209812037329687
sVantipsychotic
p187
F0.0
sVncbi
p188
F0.0
sVll
p189
F0.0009723816362344244
sVactually
p190
F0.00012154770452930305
sVbetter
p191
F0.0002430954090586061
sVresort
p192
F0.0
sVaurorix
p193
F0.0
sVchoose
p194
F0.00046209812037329687
sVfade
p195
F0.001464816384890813
sVpersist
p196
F0.0011945063128187034
sVamitriptyline
p197
F0.0
sVprecipitate
p198
F0.0
sVbout
p199
F0.0011945063128187034
sVmain
p200
F0.00012154770452930305
sVmight
p201
F0.0008508339317051215
sVnon
p202
F0.0002430954090586061
sVgood
p203
F0.0
sVcombination
p204
F0.00046209812037329687
sVfood
p205
F0.0008109302162163288
sVpropose
p206
F0.0011945063128187034
sVsafe
p207
F0.0009241962407465937
sVinsomnia
p208
F0.0
sVprimary
p209
F0.001464816384890813
sVbreak
p210
F0.0007324081924454065
sVmention
p211
F0.0013862943611198907
sVadrenaline
p212
F0.0
sVtherapy
p213
F0.0023890126256374067
sVday
p214
F0.0
sVsynaptic
p215
F0.0
sVsusceptibility
p216
F0.0
sVterm
p217
F0.00046209812037329687
sVseveral
p218
F0.0007324081924454065
sVindeed
p219
F0.0009241962407465937
sVedit
p220
F0.0011945063128187034
sVfully
p221
F0.0005406201441442191
sVconcerta
p222
F0.0
sVexplode
p223
F0.0
sVlamictal
p224
F0.0
sVentirely
p225
F0.00027031007207210957
sVhigher
p226
F0.00027031007207210957
sVside
p227
F0.00012154770452930305
sVmean
p228
F0.0010812402882884383
sVsignificantly
p229
F0.0
sVweight
p230
F0.0010812402882884383
sVgeneration
p231
F0.0
sVhard
p232
F0.00027031007207210957
sVreduce
p233
F0.007324081924454066
sVneuroleptic
p234
F0.0
sVdeficiency
p235
F0.0
sVyear
p236
F0.00012154770452930305
sVhappen
p237
F0.00027031007207210957
sVsexual
p238
F0.005972531564093517
sVer
p239
F0.00046209812037329687
sVcategory
p240
F0.0007324081924454065
sVlarge
p241
F0.0
sVsince
p242
F0.0002430954090586061
sVincrease
p243
F0.006591673732008659
sVmedicine
p244
F0.0011945063128187034
sVgov
p245
F0.0011945063128187034
sVcause
p246
F0.0014585724543516368
sVassociate
p247
F0.006591673732008659
sVhydroxyzine
p248
F0.0
sVmoclobemide
p249
F0.0
sVlittle
p250
F0.0
sVpossibility
p251
F0.0007324081924454065
sVquite
p252
F0.00012154770452930305
sVreason
p253
F0.0008109302162163288
sVbase
p254
F0.0005406201441442191
sVsurely
p255
F0.0011945063128187034
sVstruggle
p256
F0.0007324081924454065
sVbiological
p257
F0.0
sVask
p258
F0.0002430954090586061
sVescitralopram
p259
F0.0
sVinadequately
p260
F0.0
sVgenerate
p261
F0.0011945063128187034
sVfret
p262
F0.0
sVinteraction
p263
F0.0011945063128187034
sVcould
p264
F0.0
sVisn
p265
F0.0002430954090586061
sVsignature
p266
F0.0011945063128187034
sVstimulate
p267
F0.0
sVfrequent
p268
F0.0023890126256374067
sVfirst
p269
F0.0004861908181172122
sVmajor
p270
F0.0005406201441442191
sVprobability
p271
F0.0
sVfeel
p272
F0.0004861908181172122
sVpowerful
p273
F0.0011945063128187034
sVnumber
p274
F0.00046209812037329687
sVhey
p275
F0.0007324081924454065
sVdownside
p276
F0.0
sVanother
p277
F0.0006077385226465154
sVcarry
p278
F0.00012154770452930305
sVimpossible
p279
F0.0007324081924454065
sVtomorrow
p280
F0.0011945063128187034
sVdysfunction
p281
F0.0
sVguess
p282
F0.00046209812037329687
sVbite
p283
F0.0008109302162163288
sVleast
p284
F0.0
sVpsychotic
p285
F0.0011945063128187034
sVattack
p286
F0.0010812402882884383
sVassumption
p287
F0.00358351893845611
sVneurotransmitter
p288
F0.0
sVlol
p289
F0.0011945063128187034
sVheadache
p290
F0.0047780252512748134
sVway
p291
F0.0002430954090586061
sVrelationship
p292
F0.00046209812037329687
sVexactly
p293
F0.0005406201441442191
sVlower
p294
F0.00027031007207210957
sVserotonin
p295
F0.0
sVenvironmental
p296
F0.0
sVpart
p297
F0.0010812402882884383
sVtrasodone
p298
F0.0
sVpulse
p299
F0.0
sVsymptom
p300
F0.0
sV10
p301
F0.0003646431135879092
sVanxiety
p302
F0.033446176758923696
sVcorrelate
p303
F0.0
sVconstipation
p304
F0.0011945063128187034
sVlargely
p305
F0.0
sVschizophrenia
p306
F0.0011945063128187034
sVsedate
p307
F0.0007324081924454065
sVdecompose
p308
F0.0
sVtofranil
p309
F0.0
sVmotivation
p310
F0.0
sVexert
p311
F0.0
sVcymbalta
p312
F0.0
sVmind
p313
F0.00046209812037329687
sVsay
p314
F0.0004861908181172122
sVneed
p315
F0.00012154770452930305
sVseem
p316
F0.0009723816362344244
sVunaffected
p317
F0.0
sVdepressive
p318
F0.0
sVafraid
p319
F0.00027031007207210957
sVrout
p320
F0.0
sVritalin
p321
F0.0
sVmechanism
p322
F0.0
sVnote
p323
F0.0010812402882884383
sVpotential
p324
F0.0011945063128187034
sVtake
p325
F0.0004861908181172122
sVtransmit
p326
F0.0
sVperformance
p327
F0.00046209812037329687
sVeffexor
p328
F0.0
sVeffectiveness
p329
F0.0
sVconvulsive
p330
F0.0
sVaggravate
p331
F0.0
sVbegin
p332
F0.0009241962407465937
sVsure
p333
F0.0008109302162163288
sVnormal
p334
F0.0009241962407465937
sVclonazepam
p335
F0.0
sVquote
p336
F0.0007324081924454065
sVmethylphenidate
p337
F0.0
sVreach
p338
F0.00046209812037329687
sVelectro
p339
F0.0
sVreact
p340
F0.0007324081924454065
sVbeta
p341
F0.0011945063128187034
sVeight
p342
F0.00046209812037329687
sVsignificant
p343
F0.0011945063128187034
sVpair
p344
F0.0007324081924454065
sVextremely
p345
F0.001464816384890813
sVclass
p346
F0.001351550360360548
sVaverage
p347
F0.0007324081924454065
sVatypical
p348
F0.00358351893845611
sVcover
p349
F0.0005406201441442191
sVdigress
p350
F0.0
sVtalk
p351
F0.00046209812037329687
sVmonotherapy
p352
F0.0
sVtypically
p353
F0.005972531564093517
sVfact
p354
F0.00046209812037329687
sVgaba
p355
F0.0
sVshow
p356
F0.00012154770452930305
sVrandom
p357
F0.002929632769781626
sVcategorize
p358
F0.0
sVvistaril
p359
F0.0
sVelevate
p360
F0.0
sVtiredness
p361
F0.0
sVnlm
p362
F0.0
sVpostsynaptic
p363
F0.0
sVslow
p364
F0.00027031007207210957
sVnegligible
p365
F0.0
sVenzyme
p366
F0.0
sVfactor
p367
F0.0023890126256374067
sV8
p368
F0.00012154770452930305
sVadequate
p369
F0.0
sVregularly
p370
F0.0011945063128187034
sVinfo
p371
F0.0011945063128187034
sVstop
p372
F0.0002430954090586061
sVredditor
p373
F0.0
sVanxiolytic
p374
F0.0
sVnasty
p375
F0.0007324081924454065
sVtecas
p376
F0.0
sVresolve
p377
F0.00046209812037329687
sVbrain
p378
F0.0027725887222397813
sVboost
p379
F0.0
sVpatch
p380
F0.0007324081924454065
sVbad
p381
F0.0002430954090586061
sVcommon
p382
F0.0013862943611198907
sVcontain
p383
F0.0011945063128187034
sVrelease
p384
F0.0009241962407465937
sVkill
p385
F0.00027031007207210957
sVdizziness
p386
F0.005972531564093517
sVgabapentin
p387
F0.0
sVrespond
p388
F0.0021972245773362194
sVset
p389
F0.00012154770452930305
sVtransdermal
p390
F0.0
sVdump
p391
F0.0007324081924454065
sVexpel
p392
F0.0
sVfloat
p393
F0.0007324081924454065
sVsensitivity
p394
F0.0
sVpotent
p395
F0.0
sVintensity
p396
F0.0023890126256374067
sVindividual
p397
F0.0009241962407465937
sVresult
p398
F0.001464816384890813
sVfail
p399
F0.0008109302162163288
sVsurgery
p400
F0.0023890126256374067
sVbest
p401
F0.0002430954090586061
sVsubject
p402
F0.00358351893845611
sVstill
p403
F0.0
sVinhibitory
p404
F0.0
sVarguably
p405
F0.0
sVhorribly
p406
F0.0
sVplease
p407
F0.00012154770452930305
sVimipramine
p408
F0.0
sVtend
p409
F0.005972531564093517
sVvarious
p410
F0.00046209812037329687
sVhorrible
p411
F0.0007324081924454065
sVprobably
p412
F0.0010812402882884383
sVneither
p413
F0.0007324081924454065
sVtolerance
p414
F0.0011945063128187034
sVacross
p415
F0.00046209812037329687
sVavailable
p416
F0.0009241962407465937
sVcomparable
p417
F0.0
sVprior
p418
F0.0011945063128187034
sVhowever
p419
F0.004394449154672439
sVhypothesis
p420
F0.0011945063128187034
sVvenlafaxine
p421
F0.0
sVarticle
p422
F0.0009241962407465937
sVcome
p423
F0.0003646431135879092
sVcleave
p424
F0.0
sVlast
p425
F0.00012154770452930305
sVreverse
p426
F0.00046209812037329687
sVmany
p427
F0.0
sVvilazodone
p428
F0.0
sVpredispose
p429
F0.0
sVmildly
p430
F0.0
sVlogic
p431
F0.0011945063128187034
sVargue
p432
F0.0011945063128187034
sVinherant
p433
F0.0
sVpoint
p434
F0.00012154770452930305
sVwonder
p435
F0.00046209812037329687
sVseizure
p436
F0.0
sVtricyclic
p437
F0.0
sVlaugh
p438
F0.00046209812037329687
sVrespect
p439
F0.00046209812037329687
sVbasis
p440
F0.0005406201441442191
sVaddition
p441
F0.00716703787691222
sVoxidase
p442
F0.0
sVdue
p443
F0.0007324081924454065
sVreduction
p444
F0.0011945063128187034
sVtreat
p445
F0.0046209812037329686
sVssri
p446
F0.0
sVlife
p447
F0.00012154770452930305
sValongside
p448
F0.0007324081924454065
sVessentially
p449
F0.0
sVelse
p450
F0.0003646431135879092
sVcontroller
p451
F0.0
sVlift
p452
F0.0007324081924454065
sVgamble
p453
F0.0011945063128187034
sVoverdose
p454
F0.00358351893845611
sVlamotrigine
p455
F0.0
sVcase
p456
F0.0016218604324326575
sVinhibit
p457
F0.0
sVlook
p458
F0.00012154770452930305
sVunlike
p459
F0.0013862943611198907
sVvalue
p460
F0.00027031007207210957
sVsometimes
p461
F0.00027031007207210957
sVreceive
p462
F0.0023890126256374067
sVnear
p463
F0.00012154770452930305
sVerror
p464
F0.0011945063128187034
sVwild
p465
F0.00046209812037329687
sVsituation
p466
F0.0007324081924454065
sVprecede
p467
F0.0
sValmost
p468
F0.00012154770452930305
sVneuron
p469
F0.0
sVside_effect
p470
F0.0
sVconfound
p471
F0.0
sVcharacterize
p472
F0.0
sVexperience
p473
F0.0007324081924454065
sVactivity
p474
F0.00358351893845611
sVconcentration
p475
F0.001464816384890813
sVdisappear
p476
F0.001464816384890813
sVdifferent
p477
F0.00027031007207210957
sVparticipant
p478
F0.0
sVseverity
p479
F0.0
sVauthor
p480
F0.001464816384890813
sVsuggest
p481
F0.0023890126256374067
sVmake
p482
F0.0006077385226465154
sVnardil
p483
F0.0
sVreport
p484
F0.0007324081924454065
sVpotentially
p485
F0.0011945063128187034
sVsertraline
p486
F0.0
sVlithium
p487
F0.0
sVdifficult
p488
F0.0009241962407465937
sVdevelopment
p489
F0.0007324081924454065
sVnih
p490
F0.0
sVdrowsiness
p491
F0.0
sVtemporary
p492
F0.00358351893845611
sVsee
p493
F0.0006077385226465154
sVdisagree
p494
F0.0
sVeffect
p495
F0.0014585724543516368
sVflatulence
p496
F0.0
sVaction
p497
F0.0007324081924454065
sVfrequently
p498
F0.0023890126256374067
sVantagonize
p499
F0.0
sVscarcely
p500
F0.0
sVabnormality
p501
F0.0
sVscenario
p502
F0.0
sVolder
p503
F0.00027031007207210957
sVantihistamine
p504
F0.0
sVwell
p505
F0.0
sVperson
p506
F0.001351550360360548
sVsevere
p507
F0.003662040962227033
sVwithout
p508
F0.0
sVreward
p509
F0.0007324081924454065
sVlatter
p510
F0.0023890126256374067
sVexcessive
p511
F0.00046209812037329687
sVdose
p512
F0.0023890126256374067
sVpsych
p513
F0.0
sVdopamine
p514
F0.0
sVdeath
p515
F0.00046209812037329687
sVimprovement
p516
F0.001464816384890813
sVsource
p517
F0.00046209812037329687
sVgreatly
p518
F0.0011945063128187034
sVcombine
p519
F0.0021972245773362194
sVtreatment
p520
F0.00358351893845611
sVwin
p521
F0.0009241962407465937
sVelectrical
p522
F0.0023890126256374067
sVaround
p523
F0.0002430954090586061
sVloss
p524
F0.0021972245773362194
sVbig
p525
F0.00012154770452930305
sVpossible
p526
F0.00027031007207210957
sVbuspirone
p527
F0.0
sVpossibly
p528
F0.00027031007207210957
sVelavil
p529
F0.0
sVknow
p530
F0.001701667863410243
sVatrophy
p531
F0.0
sVlike
p532
F0.0
sVdesire
p533
F0.0023890126256374067
sVacute
p534
F0.0
sVd
p535
F0.0
sVsignal
p536
F0.001464816384890813
sVhonestly
p537
F0.0007324081924454065
sVmanifest
p538
F0.0011945063128187034
sVspecific
p539
F0.00046209812037329687
sVzoloft
p540
F0.0
sVbuspar
p541
F0.0
sVbecome
p542
F0.00012154770452930305
sVpassionate
p543
F0.00046209812037329687
sVdisorder
p544
F0.0047780252512748134
sVhealthy
p545
F0.00046209812037329687
sVtherapeutic
p546
F0.0
sVklonopin
p547
F0.0
sVright
p548
F0.0004861908181172122
sVnamely
p549
F0.0
sVabsolutely
p550
F0.00027031007207210957
sVinteract
p551
F0.0023890126256374067
sVback
p552
F0.00012154770452930305
sVpaxil
p553
F0.0
sVduration
p554
F0.0
sVlethargy
p555
F0.0
sVgradually
p556
F0.0
sVmood
p557
F0.003662040962227033
sVlead
p558
F0.0005406201441442191
sVbenzodiazepine
p559
F0.0
sVavoid
p560
F0.00027031007207210957
sVbenefit
p561
F0.0047780252512748134
sVper
p562
F0.0007324081924454065
sVcrisis
p563
F0.0
sVeverything
p564
F0.0002430954090586061
sVcritical
p565
F0.0007324081924454065
sVpmc39458
p566
F0.0
sVmaoi
p567
F0.0
sVmoderate
p568
F0.0011945063128187034
sVeither
p569
F0.0003646431135879092
sVpatient
p570
F0.0023890126256374067
sVslight
p571
F0.0007324081924454065
sVmiscellaneous
p572
F0.0011945063128187034
sVpressure
p573
F0.0023890126256374067
sValthough
p574
F0.0016218604324326575
sVsixty
p575
F0.0
sVintense
p576
F0.0007324081924454065
sVcomorbid
p577
F0.0
sVlifestyle
p578
F0.0011945063128187034
sVanything
p579
F0.00012154770452930305
sVnorepinephrine
p580
F0.0
sVdependency
p581
F0.0023890126256374067
sVsnris
p582
F0.0
sVsweat
p583
F0.0011945063128187034
sVmouth
p584
F0.0009241962407465937
sVslightly
p585
F0.0005406201441442191
sVblock
p586
F0.005126857347117846
sVduloxetine
p587
F0.0
sVpreviously
p588
F0.0011945063128187034
sVwithin
p589
F0.00027031007207210957
sVmras
p590
F0.0
sVthree
p591
F0.0006077385226465154
sVappropriate
p592
F0.0023890126256374067
sVreceptor
p593
F0.0
sVdetermine
p594
F0.0011945063128187034
sVndri
p595
F0.0
sVprozac
p596
F0.0
sVaren
p597
F0.00012154770452930305
sVsupport
p598
F0.001464816384890813
sVquestion
p599
F0.0008109302162163288
sVgenetic
p600
F0.0
sVlong
p601
F0.0
sVstart
p602
F0.00027031007207210957
sVlow
p603
F0.0005406201441442191
sVlot
p604
F0.0
sVbiggest
p605
F0.0007324081924454065
sVarousal
p606
F0.0
sVfunction
p607
F0.0011945063128187034
sVoffer
p608
F0.00046209812037329687
sVlorazepam
p609
F0.0
sVvolume
p610
F0.005972531564093517
sVgain
p611
F0.001464816384890813
sVphenelzineu
p612
F0.0
sVeat
p613
F0.00027031007207210957
sVcount
p614
F0.0007324081924454065
sVwhether
p615
F0.00012154770452930305
sVinside
p616
F0.00012154770452930305
sVmaximum
p617
F0.0011945063128187034
sVrecord
p618
F0.0007324081924454065
sVenfp
p619
F0.0
sVtoday
p620
F0.0005406201441442191
sVproblem
p621
F0.0010812402882884383
sVparoxetine
p622
F0.0
sVhaloperidol
p623
F0.0
sVmedication
p624
F0.013139569441005736
sVwhatever
p625
F0.0005406201441442191
sVcertain
p626
F0.0003646431135879092
sVunsafe
p627
F0.0011945063128187034
sVdoesn
p628
F0.0002430954090586061
sVevidence
p629
F0.0007324081924454065
sVcure
p630
F0.0011945063128187034
sVexist
p631
F0.0007324081924454065
sVwithdrawal
p632
F0.0
sVphysical
p633
F0.0
sVtic
p634
F0.0
sVdiarrhea
p635
F0.0023890126256374067
sVrole
p636
F0.0011945063128187034
sVincredibly
p637
F0.0007324081924454065
sVstimulant
p638
F0.0
sVconclusion
p639
F0.0021972245773362194
sVirritability
p640
F0.0
sVxanax
p641
F0.0
sVdrift
p642
F0.0
sVativan
p643
F0.0
sVhelpful
p644
F0.0011945063128187034
sVchance
p645
F0.0005406201441442191
sVimportant
p646
F0.0007324081924454065
sVatarax
p647
F0.0
sVamphetamine
p648
F0.0
sVtricky
p649
F0.0011945063128187034
sVunbind
p650
F0.0
sVhippocampal
p651
F0.0
sVassume
p652
F0.0011945063128187034
sVdaily
p653
F0.0047780252512748134
sVmimic
p654
F0.0011945063128187034
sV2007
p655
F0.0
sVtime
p656
F0.0
sVserious
p657
F0.0013862943611198907
s.