(dp0
Vchemistry
p1
F0.0
sVescitalopram
p2
F0.0
sVcurrently
p3
F0.0016582468434448452
sVsuicidal
p4
F0.004286505907244151
sVhelp
p5
F0.00043617597319127894
sVstay
p6
F0.0009700122203544602
sVsertraline
p7
F0.0
sVchloropyridin
p8
F0.0
sVurine
p9
F0.004286505907244151
sVfocus
p10
F0.004286505907244151
sVimipramine
p11
F0.0
sVmoderator
p12
F0.0
sVsupplement
p13
F0.0
sVantagonize
p14
F0.0
sV4
p15
F0.0008723519463825579
sVtiredness
p16
F0.0
sVer
p17
F0.0016582468434448452
sVgo
p18
F0.0
sVfind
p19
F0.0
sVc17h17cln6o3
p20
F0.0
sVtca
p21
F0.0
sVthyroid
p22
F0.0
sV25
p23
F0.0033164936868896903
sVcompose
p24
F0.004286505907244151
sVsystem
p25
F0.0009700122203544602
sV22
p26
F0.0016582468434448452
sVnervous
p27
F0.0026282590637993057
sV3
p28
F0.004850061101772302
sVsend
p29
F0.0009700122203544602
sVtripsit
p30
F0.0
sVenzyme
p31
F0.0
sVactivate
p32
F0.005256518127598611
sVtreatment
p33
F0.008573011814488302
sVamitriptyline
p34
F0.0
sVcytochrome
p35
F0.0
sVkingdom
p36
F0.004286505907244151
sV50mg
p37
F0.0
sVapnea
p38
F0.0
sVrisk
p39
F0.0016582468434448452
sVpharmacology
p40
F0.0
sVfluoxetine
p41
F0.0
sVcitalopram
p42
F0.0
sVdbt
p43
F0.0
sVcyclopyrrolone
p44
F0.0
sVinduce
p45
F0.0
sVbuspirone
p46
F0.0
sVstate
p47
F0.0033164936868896903
sVevery
p48
F0.00043617597319127894
sVknow
p49
F0.00043617597319127894
sVreceptor
p50
F0.0
sVmol
p51
F0.0
sVdose
p52
F0.017146023628976603
sVday
p53
F0.0
sVminute
p54
F0.0016582468434448452
sVlike
p55
F0.0
sVschool
p56
F0.004286505907244151
sVdisease
p57
F0.0026282590637993057
sVhour
p58
F0.0016582468434448452
sVmodulator
p59
F0.0
sVht2a
p60
F0.0
sVtransmission
p61
F0.0
sVsmell
p62
F0.0026282590637993057
sVobliterate
p63
F0.0
sV50
p64
F0.0009700122203544602
sVoxcarbazepine
p65
F0.0
sVsummary
p66
F0.0
sVanxious
p67
F0.025719035443464905
sVgood
p68
F0.0
sVoxo
p69
F0.0
sVcommon
p70
F0.0033164936868896903
sVsleep
p71
F0.004974740530334536
sVp450
p72
F0.0
sVside
p73
F0.00043617597319127894
sVtherapeutic
p74
F0.0
sVheavy
p75
F0.0019400244407089204
sVallosteric
p76
F0.0
sVdidn
p77
F0.0008723519463825579
sVlethargy
p78
F0.0
sVweight
p79
F0.0009700122203544602
sVhabit
p80
F0.0
sVagitate
p81
F0.0
sVthreshold
p82
F0.0
sVservice
p83
F0.0016582468434448452
sVbed
p84
F0.0026282590637993057
sVduration
p85
F0.0
sVhome
p86
F0.0009700122203544602
sV80
p87
F0.0
sVcategory
p88
F0.0026282590637993057
sVmedication
p89
F0.004286505907244151
sVbest
p90
F0.00043617597319127894
sVsubject
p91
F0.004286505907244151
sVeven
p92
F0.00043617597319127894
sVtry
p93
F0.0008723519463825579
sValcohol
p94
F0.0026282590637993057
sVbenzodiazepine
p95
F0.0
sVsun
p96
F0.0009700122203544602
sVhorribly
p97
F0.0
sVplease
p98
F0.00043617597319127894
sVcaffeine
p99
F0.004286505907244151
sVlegal
p100
F0.008573011814488302
sV25mg
p101
F0.0
sVincrease
p102
F0.0026282590637993057
sVziprasidone
p103
F0.0
sVenough
p104
F0.0
sVvarious
p105
F0.0016582468434448452
sVrare
p106
F0.004286505907244151
sV7
p107
F0.004850061101772302
sVformula
p108
F0.0
sVemphysema
p109
F0.0
sVirc
p110
F0.004286505907244151
sVever
p111
F0.00043617597319127894
sVmethod
p112
F0.004286505907244151
sVerythromycin
p113
F0.0
sVreddit
p114
F0.0
sVsedate
p115
F0.0026282590637993057
sVschedule
p116
F0.004286505907244151
sVweak
p117
F0.004286505907244151
sVmethylpiperazine
p118
F0.0
sVlmao
p119
F0.0
sVg
p120
F0.0016582468434448452
sVconcentrate
p121
F0.004286505907244151
sVzopiclone
p122
F0.0
sV388
p123
F0.0
sVlatuda
p124
F0.0
sVstrong
p125
F0.0016582468434448452
sVeuphoric
p126
F0.0
sVdrowsy
p127
F0.0
sVboy
p128
F0.0016582468434448452
sVz
p129
F0.004286505907244151
sVprescription
p130
F0.0
sVrespiration
p131
F0.0
sVagonist
p132
F0.0
sVquestion
p133
F0.0009700122203544602
sV30
p134
F0.0009700122203544602
sVnonbenzodiazepine
p135
F0.0
sV10mg
p136
F0.0
sVdreamlike
p137
F0.0
sV75mg
p138
F0.0
sVbpd
p139
F0.0
sVfluvoxamine
p140
F0.0
sVgaba
p141
F0.0
sVweird
p142
F0.0016582468434448452
sVdepressant
p143
F0.0
sVthorazine
p144
F0.0
sVcomment
p145
F0.005256518127598611
sVschema
p146
F0.0
sVstabilization
p147
F0.0
sVsri
p148
F0.0
sVfeel
p149
F0.0030532318123389526
sVcarbonate
p150
F0.0
sVimovane
p151
F0.0
sVperiod
p152
F0.0009700122203544602
sVcommunity
p153
F0.0
sVzimovane
p154
F0.0
sVchronic
p155
F0.004286505907244151
sVpom
p156
F0.004286505907244151
sVseroquel
p157
F0.0
sVhooo
p158
F0.0
sVwasn
p159
F0.0013085279195738369
sVpyrrolo
p160
F0.0
sVmessage
p161
F0.006632987373779381
sVu
p162
F0.0016582468434448452
sVexpensive
p163
F0.0016582468434448452
sVtake
p164
F0.00043617597319127894
sV2fr
p165
F0.0
sVuse
p166
F0.00043617597319127894
sVprozac
p167
F0.0
sVitraconazole
p168
F0.0
sVwould
p169
F0.0
sVpositive
p170
F0.0016582468434448452
sVdruggitor
p171
F0.0
sVvisit
p172
F0.0016582468434448452
sVfinally
p173
F0.0026282590637993057
sV2ftripsit
p174
F0.0
sVgravis
p175
F0.0
sVattack
p176
F0.0009700122203544602
sV2
p177
F0.00043617597319127894
sVchange
p178
F0.0016582468434448452
sVautomate
p179
F0.004286505907244151
sVdepakote
p180
F0.0
sVneurotransmitter
p181
F0.0
sVmolecular
p182
F0.004286505907244151
sV20issue
p183
F0.0
sVmetabolism
p184
F0.004286505907244151
sV15mg
p185
F0.0
sV5h
p186
F0.0
sVinsomnia
p187
F0.0
sVphenytoin
p188
F0.0
sVonset
p189
F0.0
sVway
p190
F0.00043617597319127894
sVform
p191
F0.0009700122203544602
sV900mg
p192
F0.0
sV6
p193
F0.0008723519463825579
sVcarbamazepine
p194
F0.0
sV250mg
p195
F0.0
sVlong
p196
F0.0
sVawake
p197
F0.004286505907244151
sVliver
p198
F0.005256518127598611
sVpyrazin
p199
F0.0
sVcentral
p200
F0.0
sVmyasthenia
p201
F0.0
sVlamotrigine
p202
F0.0
sVrifampicin
p203
F0.0
sV10
p204
F0.00043617597319127894
sVmg
p205
F0.0
sVb
p206
F0.0009700122203544602
sV15
p207
F0.0008723519463825579
sVlast
p208
F0.00043617597319127894
sVunlike
p209
F0.0016582468434448452
sVinterest
p210
F0.0026282590637993057
sVwork
p211
F0.0
sVvalue
p212
F0.0009700122203544602
sV5mg
p213
F0.0
sVr
p214
F0.004286505907244151
sVstabilizer
p215
F0.0
sVuk
p216
F0.004286505907244151
sVbind
p217
F0.0
sVadderall
p218
F0.0
sVfactsheet
p219
F0.0
sVproperty
p220
F0.0009700122203544602
sVwake
p221
F0.0033164936868896903
sVdihydro
p222
F0.0
sVmirtazapine
p223
F0.0
sVcontrol
p224
F0.0026282590637993057
sVheart
p225
F0.0016582468434448452
sVpound
p226
F0.0026282590637993057
sVchat
p227
F0.0016582468434448452
sVbronchitis
p228
F0.0
sVir
p229
F0.0
sVside_effect
p230
F0.0
sVfuck
p231
F0.004286505907244151
sVagent
p232
F0.0016582468434448452
sViv
p233
F0.0
sVgland
p234
F0.0
sVaustralia
p235
F0.0
sVcbt
p236
F0.0
sVpharmacokinetics
p237
F0.0
sVprotein
p238
F0.0
sVscar
p239
F0.004286505907244151
sVapparently
p240
F0.0016582468434448452
sVeveryday
p241
F0.004286505907244151
sVlexapro
p242
F0.0
sVyl
p243
F0.0
sVhypomanic
p244
F0.0
sVdiazepam
p245
F0.0
sVdifferent
p246
F0.0009700122203544602
sVnefazodone
p247
F0.0
sVmake
p248
F0.006978815571060463
sV45
p249
F0.0016582468434448452
sVexcretion
p250
F0.0
sVunite
p251
F0.0
sVs4
p252
F0.0
sV1
p253
F0.00043617597319127894
sVnick
p254
F0.004286505907244151
sVwierd
p255
F0.004286505907244151
sVwithout
p256
F0.0
sV5
p257
F0.0034894077855302315
sVclomipramine
p258
F0.0
sVketoconazole
p259
F0.0
sV9
p260
F0.0009700122203544602
sVplus
p261
F0.0016582468434448452
sVlithium
p262
F0.0
sVpanic
p263
F0.0
sVnice
p264
F0.0
sVcanada
p265
F0.0
sVnormal
p266
F0.0016582468434448452
sVclonazepam
p267
F0.0
sVstop
p268
F0.00043617597319127894
sVfelt
p269
F0.004974740530334536
sVhydroxyzine
p270
F0.0
sVeffect
p271
F0.0013085279195738369
sVcontraindictions
p272
F0.0
sVtripsitbot
p273
F0.0
sVbrintellix
p274
F0.0
sVsulfaphenazole
p275
F0.0
sVkinda
p276
F0.004286505907244151
sVpossible
p277
F0.0009700122203544602
sVextremely
p278
F0.0026282590637993057
sVcarboxylate
p279
F0.0
sVmood
p280
F0.005256518127598611
sVparoxetine
p281
F0.0
sVabnormality
p282
F0.0
sVeffective
p283
F0.012859517721732452
sVanxiety
p284
F0.012859517721732452
sVlight
p285
F0.0009700122203544602
sViupac
p286
F0.0
sVwell
p287
F0.0
sVeps
p288
F0.0
sVhypnotic
p289
F0.0
sVthink
p290
F0.00043617597319127894
sValias
p291
F0.004286505907244151
sVsevere
p292
F0.0026282590637993057
sV808
p293
F0.0
sVmass
p294
F0.004286505907244151
sVtime
p295
F0.0
sVtherapy
p296
F0.004286505907244151
sVolanzapine
p297
F0.0
sVolanzipene
p298
F0.0
sVorder
p299
F0.00043617597319127894
sVgain
p300
F0.005256518127598611
s.