(dp0
Vpartial
p1
F0.0014579003004296623
sVforget
p2
F0.0005639928238892964
sVlack
p3
F0.00032991465265106947
sVfocus
p4
F0.0014579003004296623
sVmonth
p5
F0.0013196586106042779
sVfour
p6
F0.00014834951732624457
sVsleep
p7
F0.0016919784716678892
sVmodafinil
p8
F0.0
sVgo
p9
F0.0
sVoldest
p10
F0.000893907476540366
sVserotonigenic
p11
F0.0
sVsuicide
p12
F0.0014579003004296623
sVyoung
p13
F0.00014834951732624457
sVfinally
p14
F0.001787814953080732
sVstable
p15
F0.0014579003004296623
sVsorry
p16
F0.00032991465265106947
sVinclude
p17
F0.001787814953080732
sVworth
p18
F0.0011279856477785929
sVannoy
p19
F0.0014579003004296623
sV50mg
p20
F0.0
sVworse
p21
F0.0006598293053021389
sVfluoxetine
p22
F0.0
sVhorror
p23
F0.0014579003004296623
sVwave
p24
F0.0005639928238892964
sVmania
p25
F0.0
sVevery
p26
F0.00029669903465248914
sVword
p27
F0.00014834951732624457
sVexact
p28
F0.0005639928238892964
sVcause
p29
F0.00014834951732624457
sVlist
p30
F0.0011279856477785929
sVfewer
p31
F0.0014579003004296623
sVtry
p32
F0.0007417475866312229
sVp
p33
F0.0005639928238892964
sVadjust
p34
F0.0014579003004296623
sVsedation
p35
F0.0
sVsavella
p36
F0.0
sVreliable
p37
F0.000893907476540366
sVwellbutrin
p38
F0.0
sVneurotoxin
p39
F0.0
sVenjoy
p40
F0.0005639928238892964
sVprevent
p41
F0.001787814953080732
sVsmaller
p42
F0.0005639928238892964
sVantibiotic
p43
F0.0
sVten
p44
F0.00032991465265106947
sVplexus
p45
F0.0
sVpulse
p46
F0.0
sVpast
p47
F0.00032991465265106947
sVlikely
p48
F0.0014579003004296623
sVcost
p49
F0.0005639928238892964
sVvideo
p50
F0.000893907476540366
sVlink
p51
F0.001787814953080732
sVeven
p52
F0.00044504855197873374
sV25ml
p53
F0.0
sVwreck
p54
F0.0014579003004296623
sVcrackpot
p55
F0.0
sVmelt
p56
F0.0
sV25mg
p57
F0.0
sVcurrent
p58
F0.0005639928238892964
sVbipolar
p59
F0.005831601201718649
sVversion
p60
F0.000893907476540366
sVreply
p61
F0.000893907476540366
sVappeal
p62
F0.0014579003004296623
sVever
p63
F0.00029669903465248914
sVbird
p64
F0.0005639928238892964
sVmed
p65
F0.001787814953080732
sVfull
p66
F0.0
sVrespectively
p67
F0.0
sVprescribe
p68
F0.004373700901288987
sVneurotoxicity
p69
F0.0
sVwater
p70
F0.0011279856477785929
sVshouldn
p71
F0.0005639928238892964
sVselective
p72
F0.0
sVothers
p73
F0.0013196586106042779
sVactive
p74
F0.0005639928238892964
sValong
p75
F0.00044504855197873374
sVchange
p76
F0.0005639928238892964
sVdry
p77
F0.001787814953080732
sVgreat
p78
F0.0
sV30
p79
F0.00032991465265106947
sVguilty
p80
F0.0014579003004296623
sV35
p81
F0.000893907476540366
sVprobio
p82
F0.0
sVamount
p83
F0.0011279856477785929
sVsimultaneous
p84
F0.0
sV10ish
p85
F0.0
sVusually
p86
F0.0011279856477785929
sVdepressant
p87
F0.0
sVregardless
p88
F0.0014579003004296623
sVfamily
p89
F0.0005639928238892964
sVheart
p90
F0.0005639928238892964
sVprefer
p91
F0.0005639928238892964
sVcompare
p92
F0.000893907476540366
sVhighly
p93
F0.000893907476540366
sVsincerely
p94
F0.0
sVseroquel
p95
F0.0
sVlamcital
p96
F0.0
sVmarket
p97
F0.001787814953080732
sVtrazodone
p98
F0.0
sVtcas
p99
F0.0
sVwould
p100
F0.0
sVpositive
p101
F0.0005639928238892964
sVmotivate
p102
F0.0
sVtwo
p103
F0.0
sVnext
p104
F0.00044504855197873374
sVlive
p105
F0.00014834951732624457
sVcall
p106
F0.00029669903465248914
sVtherefore
p107
F0.0014579003004296623
sVrecommend
p108
F0.005831601201718649
sVtachycardia
p109
F0.0
sVchloride
p110
F0.0
sVtell
p111
F0.00032991465265106947
sVtoday
p112
F0.00032991465265106947
sVbreathe
p113
F0.0014579003004296623
sVcomorbid
p114
F0.0
sVfactor
p115
F0.0014579003004296623
sVflag
p116
F0.0005639928238892964
sVdrown
p117
F0.0029158006008593246
sVstick
p118
F0.000893907476540366
sVexcellent
p119
F0.0014579003004296623
sVlifestyle
p120
F0.0014579003004296623
sVmonoamine
p121
F0.0
sVshoot
p122
F0.000893907476540366
sVgeodon
p123
F0.0
sVhour
p124
F0.0011279856477785929
sVpursue
p125
F0.0
sVwork
p126
F0.0
sVmr
p127
F0.0
sVinhibitor
p128
F0.0
sVspontaneous
p129
F0.0
sVscatter
p130
F0.0
sVcathinones
p131
F0.0
sVclaim
p132
F0.0005639928238892964
sVcrazy
p133
F0.000893907476540366
sVgive
p134
F0.0005933980693049783
sVslim
p135
F0.000893907476540366
sVfuck
p136
F0.0014579003004296623
sVhigh
p137
F0.0
sVsomething
p138
F0.0014834951732624459
sVwant
p139
F0.0
sVsense
p140
F0.00014834951732624457
sVscar
p141
F0.0014579003004296623
sVlexapro
p142
F0.0
sVend
p143
F0.00014834951732624457
sVsyndrome
p144
F0.000893907476540366
sVturn
p145
F0.00032991465265106947
sVrather
p146
F0.00032991465265106947
sV800mg
p147
F0.0
sVchemical
p148
F0.0014579003004296623
sVhop
p149
F0.0014579003004296623
sVelephant
p150
F0.0014579003004296623
sVanswer
p151
F0.00032991465265106947
sVsemax
p152
F0.0
sVokay
p153
F0.001787814953080732
sVcocktail
p154
F0.0014579003004296623
sVmay
p155
F0.00044504855197873374
sVsunny
p156
F0.000893907476540366
sVfluid
p157
F0.0014579003004296623
sVbrintellix
p158
F0.0
sVproduce
p159
F0.000893907476540366
sVnumb
p160
F0.0
sVcommit
p161
F0.000893907476540366
sVdate
p162
F0.000893907476540366
sVsuck
p163
F0.000893907476540366
sVeighth
p164
F0.0014579003004296623
sVtrileptal
p165
F0.0
sVattempt
p166
F0.00032991465265106947
sVremember
p167
F0.00029669903465248914
sVmaybe
p168
F0.0
sVsupervision
p169
F0.0
sVswitch
p170
F0.001787814953080732
sVblock
p171
F0.000893907476540366
sVworst
p172
F0.000893907476540366
sVbupropion
p173
F0.0
sVretrieval
p174
F0.0
sVtalk
p175
F0.0005639928238892964
sVserotonergic
p176
F0.0
sVhelp
p177
F0.0014834951732624459
sVsertraline
p178
F0.0
sVmove
p179
F0.0005639928238892964
sVsoon
p180
F0.00014834951732624457
sVtrade
p181
F0.0011279856477785929
sVbrain
p182
F0.0016919784716678892
sVemsam
p183
F0.0
sVcold
p184
F0.0011279856477785929
sVstill
p185
F0.0
sVbunch
p186
F0.0005639928238892964
sVpharmd
p187
F0.0
sVle
p188
F0.004373700901288987
sVjib
p189
F0.0
sVexclusion
p190
F0.0
sVfit
p191
F0.0006598293053021389
sVsomewhere
p192
F0.00032991465265106947
sVlo
p193
F0.0
sVll
p194
F0.00044504855197873374
sVfate
p195
F0.0014579003004296623
sVactually
p196
F0.00014834951732624457
sVbetter
p197
F0.0007417475866312229
sVpermanent
p198
F0.0005639928238892964
sVamitriptyline
p199
F0.0
sVderivative
p200
F0.0
sVmight
p201
F0.00029669903465248914
sVeasier
p202
F0.0005639928238892964
sVeventually
p203
F0.0014579003004296623
sVtonic
p204
F0.0
sVsomeone
p205
F0.0
sVpure
p206
F0.00032991465265106947
sVmellowmarsh
p207
F0.0
sVspell
p208
F0.000893907476540366
sVinsomnia
p209
F0.0
sVtoxic
p210
F0.0
sVsonata
p211
F0.0
sVhalf
p212
F0.00044504855197873374
sVfront
p213
F0.00032991465265106947
sVday
p214
F0.0
sVbigger
p215
F0.0005639928238892964
sVterm
p216
F0.0005639928238892964
sVname
p217
F0.00044504855197873374
sVdrop
p218
F0.0005639928238892964
sV400mg
p219
F0.0
sVgood
p220
F0.0
sVlamictal
p221
F0.0
sVreceptor
p222
F0.0
sVentirely
p223
F0.00032991465265106947
sVside
p224
F0.00014834951732624457
sVluck
p225
F0.0005639928238892964
sVen
p226
F0.002681722429621098
sV300mg
p227
F0.0
sVcelexa
p228
F0.0
sVreduce
p229
F0.000893907476540366
sVidea
p230
F0.00029669903465248914
sVcloudy
p231
F0.000893907476540366
sVyear
p232
F0.0010384466212837121
sVhappen
p233
F0.00032991465265106947
sVsexual
p234
F0.0014579003004296623
sVleave
p235
F0.00032991465265106947
sValcohol
p236
F0.000893907476540366
sVsince
p237
F0.0005933980693049783
sVresearch
p238
F0.0029158006008593246
sVincrease
p239
F0.001787814953080732
sVmess
p240
F0.001787814953080732
sVrace
p241
F0.0014579003004296623
sVgeib
p242
F0.0
sV7
p243
F0.00032991465265106947
sVmedicine
p244
F0.0014579003004296623
sVissue
p245
F0.0005639928238892964
sVcorrect
p246
F0.000893907476540366
sVred
p247
F0.00014834951732624457
sVtimeline
p248
F0.0
sVcholesterol
p249
F0.0014579003004296623
sVfree
p250
F0.00032991465265106947
sVreason
p251
F0.0009897439579532085
sVbase
p252
F0.00032991465265106947
sVstruggle
p253
F0.000893907476540366
sVask
p254
F0.00014834951732624457
sVorg
p255
F0.004373700901288987
sVcare
p256
F0.002681722429621098
sVcouldn
p257
F0.0006598293053021389
sVg
p258
F0.0005639928238892964
sVcould
p259
F0.0
sV10mg
p260
F0.0
sVthing
p261
F0.00029669903465248914
sVplace
p262
F0.00014834951732624457
sVisn
p263
F0.00029669903465248914
sVswing
p264
F0.0014579003004296623
sV130bpm
p265
F0.0
sVthink
p266
F0.00044504855197873374
sVfirst
p267
F0.0008900971039574675
sVemotion
p268
F0.0029158006008593246
sVcheese
p269
F0.002681722429621098
sVmajor
p270
F0.00032991465265106947
sVdont
p271
F0.000893907476540366
sVfeel
p272
F0.0011867961386099566
sVrelate
p273
F0.0
sVclear
p274
F0.00029669903465248914
sVanother
p275
F0.00029669903465248914
sVwasn
p276
F0.0005933980693049783
sVxr
p277
F0.0
sVmessage
p278
F0.0005639928238892964
sVmoiety
p279
F0.0
sVsize
p280
F0.00032991465265106947
sVcity
p281
F0.0005639928238892964
sVstory
p282
F0.000893907476540366
sVnecessarily
p283
F0.000893907476540366
sVbite
p284
F0.0009897439579532085
sVsystem
p285
F0.0006598293053021389
sVleast
p286
F0.0
sVeuphoria
p287
F0.0
sVclomipramine
p288
F0.0
sV2
p289
F0.00044504855197873374
sVnoradrenergics
p290
F0.0
sVstore
p291
F0.000893907476540366
sVheadache
p292
F0.004373700901288987
sVoption
p293
F0.0014579003004296623
sVceretropic
p294
F0.0
sVreleaser
p295
F0.0
sVanafranil
p296
F0.0
sVimmediate
p297
F0.000893907476540366
sVchloroamphetamines
p298
F0.0
sVserotonin
p299
F0.0
sVhydroxylation
p300
F0.0
sVsomewhat
p301
F0.0014579003004296623
sVx2
p302
F0.0
sVinstitution
p303
F0.0014579003004296623
sVsymptom
p304
F0.0
sV600mg
p305
F0.0
sVsert
p306
F0.0
sVanxiety
p307
F0.0029158006008593246
sV15
p308
F0.00014834951732624457
sVkindly
p309
F0.0014579003004296623
sVbother
p310
F0.000893907476540366
sV5mg
p311
F0.0
sVguilt
p312
F0.0014579003004296623
sVwilliams
p313
F0.0
sVthumb
p314
F0.0014579003004296623
sVprologue
p315
F0.0
sVtofranil
p316
F0.0
sVcymbalta
p317
F0.0
sVsad
p318
F0.0005639928238892964
sVsay
p319
F0.0011867961386099566
sVadhd
p320
F0.0
sVanger
p321
F0.000893907476540366
sVrelatively
p322
F0.0014579003004296623
sVpara
p323
F0.0
sV1964
p324
F0.0
sVself
p325
F0.00014834951732624457
sVagency
p326
F0.0014579003004296623
sV1960
p327
F0.0
sV1961
p328
F0.0
sVnote
p329
F0.00032991465265106947
sVmix
p330
F0.0005639928238892964
sVpotential
p331
F0.0014579003004296623
sVtake
p332
F0.0016318446905886903
sVeffexor
p333
F0.0
sVdraposil
p334
F0.0
sVbegin
p335
F0.0016919784716678892
sVsure
p336
F0.00032991465265106947
sVpain
p337
F0.0033839569433357784
sVcombat
p338
F0.0
sVopposite
p339
F0.000893907476540366
sVmethylphenidate
p340
F0.0
sVprescriber
p341
F0.0
sVreach
p342
F0.0011279856477785929
sVharmful
p343
F0.0
sVnorepinephrine
p344
F0.0
sVdigestive
p345
F0.0014579003004296623
sVmouth
p346
F0.0005639928238892964
sVsfk
p347
F0.0
sVletter
p348
F0.0005639928238892964
sVnothing
p349
F0.00014834951732624457
sVutilize
p350
F0.0014579003004296623
sVextremely
p351
F0.000893907476540366
sVclass
p352
F0.0006598293053021389
sVtomorrow
p353
F0.0014579003004296623
sVpotency
p354
F0.0
sVespecially
p355
F0.00032991465265106947
sVdoc
p356
F0.000893907476540366
sVmedical
p357
F0.0005639928238892964
sVsometimes
p358
F0.00032991465265106947
sVface
p359
F0.00032991465265106947
sVdefinitely
p360
F0.0011279856477785929
sVprofessional
p361
F0.000893907476540366
sVparticularly
p362
F0.001787814953080732
sVshow
p363
F0.00029669903465248914
sVbrand_name
p364
F0.0
sVelevate
p365
F0.0
sVshoe
p366
F0.0014579003004296623
sVdopey
p367
F0.0
sVneurotoxic
p368
F0.0
sVfind
p369
F0.0
sVdecade
p370
F0.000893907476540366
sVslow
p371
F0.00032991465265106947
sVhadn
p372
F0.0005639928238892964
sVnervous
p373
F0.000893907476540366
sVexplain
p374
F0.0005639928238892964
sVdick
p375
F0.0014579003004296623
sVocd
p376
F0.0
sVhaven
p377
F0.00032991465265106947
sVimpulsivity
p378
F0.0
sVcombo
p379
F0.0014579003004296623
sV8
p380
F0.00029669903465248914
sVhope
p381
F0.0005933980693049783
sVdo
p382
F0.00029669903465248914
sVhit
p383
F0.0013196586106042779
sVget
p384
F0.0
sVdependent
p385
F0.0014579003004296623
sVstop
p386
F0.0005933980693049783
sVwonky
p387
F0.0
sV12
p388
F0.00029669903465248914
sVlongest
p389
F0.0014579003004296623
sVnew
p390
F0.0
sVreport
p391
F0.000893907476540366
sVknowledgable
p392
F0.0
sVdr
p393
F0.0014579003004296623
sVchild
p394
F0.00032991465265106947
sVmetabolite
p395
F0.0
sVatomoxetine
p396
F0.0
sVcry
p397
F0.000893907476540366
sVclonic
p398
F0.0
sVmorning
p399
F0.000893907476540366
sVtwice
p400
F0.0011279856477785929
sVbad
p401
F0.00044504855197873374
sVwithdrawal
p402
F0.0
sVrelease
p403
F0.0011279856477785929
sVkeppra
p404
F0.0
sVview
p405
F0.00032991465265106947
sVrespond
p406
F0.000893907476540366
sVbtw
p407
F0.0
sVfair
p408
F0.00014834951732624457
sVpotent
p409
F0.0
sVsee
p410
F0.00044504855197873374
sVcollege
p411
F0.0014579003004296623
sVfail
p412
F0.0006598293053021389
sVbest
p413
F0.00014834951732624457
sVwonder
p414
F0.0011279856477785929
sVsuffer
p415
F0.000893907476540366
sVextend
p416
F0.000893907476540366
sVpattern
p417
F0.0
sVaway
p418
F0.0
sVcurrently
p419
F0.0005639928238892964
sVwikipedia
p420
F0.0
sVimipramine
p421
F0.0
sVlabel
p422
F0.0005639928238892964
sVinvega
p423
F0.0
sV3
p424
F0.001979487915906417
sVvarious
p425
F0.0005639928238892964
sVhopefully
p426
F0.0
sVtolerance
p427
F0.0029158006008593246
sVrecently
p428
F0.00032991465265106947
sVability
p429
F0.000893907476540366
sVparent
p430
F0.001787814953080732
sVjob
p431
F0.0011279856477785929
sVsteroid
p432
F0.0
sVpolice
p433
F0.000893907476540366
sVspark
p434
F0.0
sVcome
p435
F0.0007417475866312229
sVabruptly
p436
F0.0014579003004296623
sVmyoclonic
p437
F0.0
sVlast
p438
F0.0007417475866312229
sVlicense
p439
F0.000893907476540366
sVtopamax
p440
F0.0
sVjoke
p441
F0.000893907476540366
sVspray
p442
F0.0014579003004296623
sVetc
p443
F0.00029669903465248914
sVbpd
p444
F0.0
sVmean
p445
F0.0006598293053021389
sVpcp
p446
F0.0
sVpoint
p447
F0.00029669903465248914
sVsimple
p448
F0.00014834951732624457
sVca
p449
F0.010205302103007637
sVseizure
p450
F0.0
sVabilify
p451
F0.0
sV100mcg
p452
F0.0
sVmedication
p453
F0.004373700901288987
sVcontemporaneous
p454
F0.0
sVcathinone
p455
F0.0
sVsafer
p456
F0.0
sVspeak
p457
F0.000893907476540366
sVturkey
p458
F0.0014579003004296623
sVquit
p459
F0.000893907476540366
sVaddition
p460
F0.0029158006008593246
sVoxidase
p461
F0.0
sVdue
p462
F0.000893907476540366
sVtrigger
p463
F0.0014579003004296623
sVtreat
p464
F0.0005639928238892964
sVimprove
p465
F0.000893907476540366
sVpm
p466
F0.0
sVwebsite
p467
F0.000893907476540366
sVlife
p468
F0.00029669903465248914
sVcontribute
p469
F0.0014579003004296623
sVhospitalization
p470
F0.0
sVanorgasmia
p471
F0.0
sVselank
p472
F0.0
sVdeep
p473
F0.00032991465265106947
sVpersonally
p474
F0.00032991465265106947
sVoverdose
p475
F0.0029158006008593246
sVirrelevant
p476
F0.0014579003004296623
sVcase
p477
F0.0016495732632553475
sVserax
p478
F0.0
sVstraight
p479
F0.00029669903465248914
sVharder
p480
F0.000893907476540366
sVrat
p481
F0.000893907476540366
sVsuppose
p482
F0.001787814953080732
sVmany
p483
F0.0
sVamisulpride
p484
F0.0
sVseven
p485
F0.000893907476540366
sVpound
p486
F0.000893907476540366
sVwouldn
p487
F0.00032991465265106947
sVir
p488
F0.0
sVside_effect
p489
F0.0
sVneed
p490
F0.0008900971039574675
sVmyaysd
p491
F0.0
sVexperience
p492
F0.001787814953080732
sVactivity
p493
F0.0014579003004296623
sVeveryday
p494
F0.0014579003004296623
sVworry
p495
F0.0006598293053021389
sVdifferent
p496
F0.00032991465265106947
sVdevelop
p497
F0.001787814953080732
sVcombination
p498
F0.0005639928238892964
sVdoctor
p499
F0.0014579003004296623
sVmigraine
p500
F0.0
sVsuggest
p501
F0.0014579003004296623
sVmake
p502
F0.0005933980693049783
sVcomplex
p503
F0.0005639928238892964
sVunfortunate
p504
F0.0005639928238892964
sVlithium
p505
F0.0
sVpal
p506
F0.0
sVambien
p507
F0.0
sVhigher
p508
F0.0009897439579532085
sVsafe
p509
F0.0011279856477785929
sVslightly
p510
F0.00032991465265106947
sVsickness
p511
F0.0014579003004296623
sVupon
p512
F0.00032991465265106947
sVeffect
p513
F0.0007417475866312229
sVtotally
p514
F0.00032991465265106947
sVkiller
p515
F0.0005639928238892964
sVlower
p516
F0.00032991465265106947
sVtoxicity
p517
F0.0
sVwell
p518
F0.0
sVsevere
p519
F0.000893907476540366
sVwithout
p520
F0.0
sVsolve
p521
F0.000893907476540366
sVrelief
p522
F0.0
sVbottle
p523
F0.0011279856477785929
sVconsistency
p524
F0.0
sVmuscle
p525
F0.0014579003004296623
sVable
p526
F0.0009897439579532085
sVcheddar
p527
F0.0
sVdose
p528
F0.01749480360515595
sVkill
p529
F0.0006598293053021389
sVvictim
p530
F0.0014579003004296623
sVyes
p531
F0.00014834951732624457
sVyet
p532
F0.00014834951732624457
sVhappiness
p533
F0.0014579003004296623
sVtca
p534
F0.0
sVdeath
p535
F0.0005639928238892964
sVcl
p536
F0.0
sVsky
p537
F0.000893907476540366
sVexcept
p538
F0.0006598293053021389
sVadd
p539
F0.0005639928238892964
sVaffinity
p540
F0.0
sV4
p541
F0.0005933980693049783
sVwet
p542
F0.000893907476540366
sVsnap
p543
F0.0005639928238892964
sVgrow
p544
F0.001787814953080732
sVmod
p545
F0.0014579003004296623
sVkick
p546
F0.0005639928238892964
sVreal
p547
F0.0
sVdesire
p548
F0.0014579003004296623
sVaround
p549
F0.00029669903465248914
sVemergency
p550
F0.0014579003004296623
sVread
p551
F0.00032991465265106947
sVbig
p552
F0.00014834951732624457
sVcouple
p553
F0.00032991465265106947
sVdiscontinue
p554
F0.0
sVpossible
p555
F0.0006598293053021389
sVpossibly
p556
F0.00032991465265106947
sVknow
p557
F0.0010384466212837121
sVbackground
p558
F0.00014834951732624457
sVdamage
p559
F0.000893907476540366
sVimplicate
p560
F0.0
sVlike
p561
F0.0
sVtegretol
p562
F0.0
sVknock
p563
F0.000893907476540366
sVfibromyalgia
p564
F0.0
sVd
p565
F0.0
sVstranger
p566
F0.0014579003004296623
sVchlorinate
p567
F0.0
sV50
p568
F0.00032991465265106947
sVsanity
p569
F0.0
sVzoloft
p570
F0.0
sVeither
p571
F0.00014834951732624457
sVnight
p572
F0.00014834951732624457
sVpopular
p573
F0.0014579003004296623
sVbecome
p574
F0.00014834951732624457
sVdisorder
p575
F0.004373700901288987
sVtherapeutic
p576
F0.0
sVklonopin
p577
F0.0
sVdidn
p578
F0.0007417475866312229
sVold
p579
F0.0
sVdeal
p580
F0.00032991465265106947
sVmetabolic
p581
F0.0
sVinteract
p582
F0.0014579003004296623
sVpronounce
p583
F0.0014579003004296623
sVback
p584
F0.0008900971039574675
sVfluoroamphetamines
p585
F0.0
sVpaxil
p586
F0.0
sVaout
p587
F0.0
sVnuvigil
p588
F0.0
sVcurious
p589
F0.0006598293053021389
sVfriend
p590
F0.00014834951732624457
sVmood
p591
F0.003575629906161464
sVlead
p592
F0.00032991465265106947
sVavoid
p593
F0.0013196586106042779
sVnormal
p594
F0.0005639928238892964
sVthank
p595
F0.0005639928238892964
sVnorpramine
p596
F0.0
sVcampfire
p597
F0.0
sVmaoi
p598
F0.0
sVcompulsion
p599
F0.0
sVlocate
p600
F0.0014579003004296623
sVsmiley
p601
F0.0
sVrun
p602
F0.00014834951732624457
sVbc
p603
F0.0
sVlate
p604
F0.00032991465265106947
sVlose
p605
F0.00014834951732624457
sVzombie
p606
F0.005831601201718649
sVrelationship
p607
F0.0005639928238892964
sValthough
p608
F0.00032991465265106947
sVstone
p609
F0.0011279856477785929
sVactual
p610
F0.0014579003004296623
sVanything
p611
F0.00029669903465248914
sVod
p612
F0.0
sVrange
p613
F0.00032991465265106947
sVbenzos
p614
F0.0
sVplus
p615
F0.0011279856477785929
sVafternoon
p616
F0.0014579003004296623
sVact
p617
F0.00032991465265106947
sVcharm
p618
F0.0014579003004296623
sVtwitch
p619
F0.0014579003004296623
sVwanna
p620
F0.001787814953080732
sVroad
p621
F0.000893907476540366
sVequally
p622
F0.0
sVsignificant
p623
F0.0014579003004296623
sVpresence
p624
F0.0006598293053021389
sVnortriptyline
p625
F0.0
sVwithin
p626
F0.00032991465265106947
sVthree
p627
F0.00014834951732624457
sVsidenote
p628
F0.0
sVright
p629
F0.00014834951732624457
sVlung
p630
F0.0029158006008593246
sVdihydroxytryptamine
p631
F0.0
sV1987
p632
F0.0
sVprozac
p633
F0.0
sVaren
p634
F0.00014834951732624457
sVamazingly
p635
F0.0014579003004296623
sVquestion
p636
F0.0006598293053021389
sVmediate
p637
F0.0
sVlong
p638
F0.0
sVstart
p639
F0.0006598293053021389
sV300mcg
p640
F0.0
sVlow
p641
F0.0009897439579532085
sVway
p642
F0.0005933980693049783
sVenergy
p643
F0.0014579003004296623
sVhappy
p644
F0.0006598293053021389
sVfunction
p645
F0.0014579003004296623
sVpamelor
p646
F0.0
sVhead
p647
F0.00014834951732624457
sVwiki
p648
F0.0
sVenough
p649
F0.0
sVbrand
p650
F0.0005639928238892964
sV6
p651
F0.00044504855197873374
sVproperly
p652
F0.00032991465265106947
sVhear
p653
F0.00032991465265106947
sVlarger
p654
F0.0005639928238892964
sVline
p655
F0.00032991465265106947
sVirreversible
p656
F0.0
sVeat
p657
F0.00032991465265106947
sVamplify
p658
F0.0
sVnorfluoxetine
p659
F0.0
sVcounsel
p660
F0.0
sVdangerous
p661
F0.0005639928238892964
sVmaximum
p662
F0.0014579003004296623
sVadderall
p663
F0.0
sVproblem
p664
F0.0009897439579532085
sVaverage
p665
F0.001787814953080732
sVlatuda
p666
F0.0
sVdiagnose
p667
F0.0014579003004296623
sVtricyclic
p668
F0.0
sVplay
p669
F0.0005639928238892964
sVhorrific
p670
F0.0
sVcertain
p671
F0.00014834951732624457
sVtodd
p672
F0.0
sVdopaminergics
p673
F0.0
sVdoesn
p674
F0.0013351456559362012
sVgeneral
p675
F0.0
sVcure
p676
F0.0014579003004296623
sVchat
p677
F0.0005639928238892964
sVtrip
p678
F0.000893907476540366
sVdepakote
p679
F0.0
sVincorrect
p680
F0.0014579003004296623
sV200mg
p681
F0.0
sVna
p682
F0.0
sVstake
p683
F0.0
sVgraduate
p684
F0.0014579003004296623
sVfield
p685
F0.0014579003004296623
sV5
p686
F0.00014834951732624457
sVtest
p687
F0.0016919784716678892
sVbehold
p688
F0.0014579003004296623
sVnice
p689
F0.0
sVfelt
p690
F0.0033839569433357784
sVupdate
p691
F0.0014579003004296623
sVchloro
p692
F0.0
sVcoverage
p693
F0.0
sVweigh
p694
F0.000893907476540366
sVamphetamine
p695
F0.0
sVstructure
p696
F0.0029158006008593246
sVcliff
p697
F0.000893907476540366
sVindependently
p698
F0.0
sVe
p699
F0.00014834951732624457
sVassume
p700
F0.0014579003004296623
sVage
p701
F0.0006598293053021389
sVlot
p702
F0.0
sVrule
p703
F0.001787814953080732
sVcomplicate
p704
F0.0
sVdiagnosis
p705
F0.0
sVtime
p706
F0.0
sVpush
p707
F0.0005639928238892964
sV2009
p708
F0.0
sVgrocery
p709
F0.0014579003004296623
sVbasically
p710
F0.0014579003004296623
s.