(dp0
Vyellow
p1
F2.664362324613962e-05
sVnarcotic
p2
F0.0
sVfour
p3
F6.657780129317401e-05
sVcircuitry
p4
F0.0
sVcentimeter
p5
F0.0
sVaggression
p6
F0.0
sVpayoff
p7
F0.0
sVeligible
p8
F0.0
sVelectricity
p9
F0.0001033091504619201
sVscold
p10
F0.0
sVigual
p11
F0.0
sVhallucinate
p12
F0.0
sVlore
p13
F0.0
sVhormone
p14
F0.0
sVregional
p15
F6.88727669746134e-05
sVtrileptal
p16
F0.0
sVdisturb
p17
F6.88727669746134e-05
sVinternally
p18
F0.0
sVscholar
p19
F2.111457186423689e-05
sVcustomizable
p20
F3.44363834873067e-05
sVcommenter
p21
F0.0
sVwednesday
p22
F0.0
sVstraight
p23
F4.204913765884675e-05
sVspecially
p24
F3.44363834873067e-05
sVbacon
p25
F2.111457186423689e-05
sVpulse
p26
F0.0
sVdesiccant
p27
F0.0
sVelegant
p28
F2.111457186423689e-05
sVsecond
p29
F0.00011213103375692465
sVcfsers
p30
F0.0
sVspecialist
p31
F0.0
sVotzvnaf7usa
p32
F0.0
sVhero
p33
F0.0
sVherb
p34
F0.0
sVjasmine
p35
F0.0
sVchina
p36
F0.0
sVdorm
p37
F6.88727669746134e-05
sVbuddy
p38
F0.0001033091504619201
sV50mgs
p39
F0.0
sVphenelzine
p40
F0.0
sVk
p41
F4.222914372847378e-05
sVamitryptaline
p42
F0.0
sVneurologist
p43
F0.0
sVmilitary
p44
F0.0001033091504619201
sVsriracha
p45
F0.0
sVcriticism
p46
F0.0
sVdivide
p47
F6.88727669746134e-05
sVcriticise
p48
F3.44363834873067e-05
sVreplace
p49
F0.0002533748623708427
sVpsychological
p50
F0.0003788002183603737
sVrhematologist
p51
F0.0
sVuniv
p52
F0.0
sVunit
p53
F0.0
sVtrazodone
p54
F0.0
sVdna
p55
F0.0
sVhyperactivity
p56
F0.0
sVmusic
p57
F1.4016379219615581e-05
sVtherefore
p58
F6.88727669746134e-05
sVstrike
p59
F6.88727669746134e-05
sVcomorbid
p60
F0.0
sVholy
p61
F5.328724649227924e-05
sVrelax
p62
F4.222914372847378e-05
sVsuccessful
p63
F9.325268136148868e-05
sVhurt
p64
F0.0010330915046192011
sV99
p65
F6.334371559271068e-05
sV98
p66
F1.332181162306981e-05
sVgoddammit
p67
F0.0
sV90
p68
F0.0002322602905066058
sVhole
p69
F3.117104096466832e-05
sVhold
p70
F3.896380120583541e-05
sVintake
p71
F0.0
sVnonstimulant
p72
F0.0
sVpursue
p73
F0.0
sVbattlefront
p74
F0.0
sVshelve
p75
F0.0
sVexample
p76
F0.0003740524915760199
sVcaution
p77
F0.0001033091504619201
sVwant
p78
F0.0
sVabsolute
p79
F6.334371559271068e-05
sVprovincial
p80
F3.44363834873067e-05
sVworldview
p81
F0.0
sVtravel
p82
F1.558552048233416e-05
sVdamage
p83
F0.00042229143728473787
sVmachine
p84
F4.222914372847378e-05
sVhot
p85
F0.0001198963046076283
sVhop
p86
F0.0005165457523096006
sVpreferable
p87
F0.0
sVcredential
p88
F0.0
sVvotaren
p89
F0.0
sVsynthroid
p90
F0.0
sVdiagram
p91
F0.0
sVvocalization
p92
F0.0
sVwrong
p93
F0.00019481900602917701
sVreassess
p94
F0.0
sVbuzzy
p95
F0.0
sVeffective
p96
F0.0017562555578526419
sVlousier
p97
F0.0
sVwind
p98
F2.664362324613962e-05
sVhashimoto
p99
F0.0
sVrestriction
p100
F0.0
sVvary
p101
F0.00010557285932118447
sVvyvance
p102
F0.0
sVdreamer
p103
F6.88727669746134e-05
sVligand
p104
F0.0
sVfit
p105
F0.00010909864337633913
sVauditory
p106
F0.0
sVlifeline
p107
F0.0
sVfix
p108
F0.0002533748623708427
sVamphetmaine
p109
F0.0
sVeasier
p110
F0.0003996543486920943
sVgrievous
p111
F0.0
sVblecch
p112
F0.0
sVprize
p113
F2.111457186423689e-05
sVrumour
p114
F0.0
sVelavil
p115
F0.0
sVfinancial
p116
F0.0001377455339492268
sVrink
p117
F6.88727669746134e-05
sVstabiliser
p118
F0.0
sVseries
p119
F3.44363834873067e-05
sVmdd
p120
F0.0
sVg716evmc_mo
p121
F0.0
sVsubstantially
p122
F3.44363834873067e-05
sVmessage
p123
F2.664362324613962e-05
sV2300
p124
F0.0
sVha
p125
F6.660905811534905e-05
sVrx
p126
F0.0
sVencourage
p127
F0.0001377455339492268
sVra
p128
F6.88727669746134e-05
sVsize
p129
F7.013484217050373e-05
sVoutburst
p130
F0.0
sVfoundation
p131
F0.0
sVcholesterol
p132
F3.44363834873067e-05
sVsensory
p133
F0.0006542912862588273
sVknit
p134
F0.0
sVenormous
p135
F3.44363834873067e-05
sVate
p136
F2.111457186423689e-05
sVatm
p137
F0.0
sVmoment
p138
F3.5040948049038955e-05
sVspeedy
p139
F3.44363834873067e-05
sVshopper
p140
F6.88727669746134e-05
sVveggie
p141
F0.0
sVwash
p142
F6.88727669746134e-05
sVwasn
p143
F0.00017870883505009867
sVclarity
p144
F0.00012668743118542135
sVspondylitis
p145
F0.0
sVbasketball
p146
F2.111457186423689e-05
sVservice
p147
F5.328724649227924e-05
sVfluvoxamine
p148
F0.0
sVglyx
p149
F0.0
sVmaster
p150
F5.328724649227924e-05
sVglucocorticoid
p151
F0.0
sVrechazando
p152
F0.0
sVunderlie
p153
F0.0
sVeuro
p154
F0.0
sVrecreationally
p155
F0.0
sVlisten
p156
F0.0001465399278537679
sVcollapse
p157
F0.0001033091504619201
sVwisdom
p158
F0.0
sVelectricly
p159
F0.0
sVcrawl
p160
F1.332181162306981e-05
sV052113322x
p161
F0.0
sVtree
p162
F7.79276024116708e-06
sVcrave
p163
F0.0
sVmethocarbamol
p164
F0.0
sVshower
p165
F6.88727669746134e-05
sVpneumonia
p166
F6.88727669746134e-05
sVendure
p167
F0.00024105468441114694
sVrunner
p168
F0.0
sVspectrum
p169
F0.0
sVflunisan
p170
F0.0
sVantagonistic
p171
F0.0
sVneurotrasnmitters
p172
F0.0
sVarousal
p173
F0.0
sVurinate
p174
F0.0
sVdozen
p175
F0.00016891657491389513
sVperson
p176
F0.00036625973133485283
sVresponsible
p177
F0.00010557285932118447
sVeagerly
p178
F3.44363834873067e-05
sV25mcg
p179
F0.0
sVimprudent
p180
F0.0
sVsimplify
p181
F0.0
sVmouth
p182
F0.0001332181162306981
sVaddict
p183
F0.0006887276697461341
sVletter
p184
F1.332181162306981e-05
sVdefinitaly
p185
F0.0
sVthriller
p186
F0.0
sVchemistry
p187
F0.0
sVepisode
p188
F0.0008609095871826675
sVprofessor
p189
F3.44363834873067e-05
sVcamp
p190
F3.44363834873067e-05
sVtech
p191
F0.0003788002183603737
sVcelebrex
p192
F0.0
sVdetriment
p193
F0.0
sVscream
p194
F0.00017218191743653352
sVsetraline
p195
F0.0
sVsoluble
p196
F0.0
sVparticipate
p197
F0.0
sVbusy
p198
F2.3378280723501244e-05
sVment
p199
F0.0
sVkinase
p200
F0.0
sVbust
p201
F3.44363834873067e-05
sVtheme
p202
F3.44363834873067e-05
sVrice
p203
F0.0002066183009238402
sVpsychiatric
p204
F0.0
sVpocket
p205
F0.00017218191743653352
sValtogether
p206
F0.00010557285932118447
sVanxiolytic
p207
F0.0
sVautistic
p208
F6.88727669746134e-05
sVpatch
p209
F0.00014780200304965826
sVrelease
p210
F0.00034636710219981506
sVrespond
p211
F0.000570093440334396
sVfair
p212
F1.0512284414711687e-05
sVsensitivity
p213
F0.0
sVresult
p214
F0.000781239158976765
sVetiz
p215
F0.0
sVfail
p216
F0.00011689140361750621
sVbleh
p217
F0.0
sVbest
p218
F0.0002452866363432727
sVavandia
p219
F0.0
sVhunker
p220
F0.0
sVwikipedia
p221
F0.0
sVinsomina
p222
F0.0
sVscore
p223
F3.996543486920943e-05
sVirl
p224
F0.0
sVyogurt
p225
F0.0001377455339492268
sVepically
p226
F0.0
sVmen
p227
F1.332181162306981e-05
sVextend
p228
F0.00014780200304965826
sVnature
p229
F1.4016379219615581e-05
sVlexepro
p230
F0.0
sVstepmom
p231
F0.0
sVpersonalize
p232
F0.0
sVmeh
p233
F0.0
sVextent
p234
F0.0001033091504619201
sVcarbon
p235
F0.0
sVdebt
p236
F3.44363834873067e-05
sVroller
p237
F3.44363834873067e-05
sVmyoclonic
p238
F0.0
sVaccident
p239
F0.0001033091504619201
sVbachelorette
p240
F0.0
sVcountry
p241
F2.3378280723501244e-05
sVargue
p242
F0.0002066183009238402
sV30th
p243
F0.0
sVfentanyl
p244
F0.0
sVirresponsible
p245
F0.0
sV2nd
p246
F4.222914372847378e-05
sVpregnancy
p247
F0.00034436383487306704
sVdiff
p248
F0.0
sVspondyloarhtroapy
p249
F0.0
sVsubside
p250
F0.0
sVsubsidy
p251
F0.0
sVeyedrop
p252
F0.0
sVfry
p253
F3.44363834873067e-05
sVnorvasc
p254
F0.0
sVincompetent
p255
F3.44363834873067e-05
sVobese
p256
F3.44363834873067e-05
sVlife
p257
F0.0005746715480042389
sVretrospect
p258
F0.0
sVworker
p259
F0.0002066183009238402
sVwish
p260
F0.0004129761603151641
sVlift
p261
F0.00019003114677813203
sVchild
p262
F0.00014806244458217453
sVspin
p263
F0.0
sVcunt
p264
F3.44363834873067e-05
sVchill
p265
F3.44363834873067e-05
sVcalcium
p266
F0.0
sVprnewswire
p267
F0.0
sVridiculously
p268
F0.0001377455339492268
sVcongratulation
p269
F0.0
sValkaloid
p270
F0.0
sVplayer
p271
F4.222914372847378e-05
sVelicit
p272
F0.0
sVanhedonia
p273
F0.0
sVthingy
p274
F3.44363834873067e-05
sVseverity
p275
F0.0
sVsplit
p276
F3.996543486920943e-05
sVbid
p277
F2.111457186423689e-05
sVfairly
p278
F0.00021114571864236893
sVtuna
p279
F0.0001033091504619201
sV160lbs
p280
F0.0
sVcorporate
p281
F2.111457186423689e-05
sVanticonvuslant
p282
F0.0
sVsleepy
p283
F0.0004821093688222939
sVdisguise
p284
F3.44363834873067e-05
sVdramamine
p285
F0.0
sVpsychotic
p286
F0.0002066183009238402
sVprevious
p287
F2.452866363432727e-05
sVhah
p288
F0.0
sVham
p289
F2.111457186423689e-05
sVease
p290
F0.00010557285932118447
sVhay
p291
F4.222914372847378e-05
sVeasy
p292
F0.0
sVhar
p293
F0.0
sVhat
p294
F0.0001198963046076283
sVelevation
p295
F0.0
sVpossible
p296
F0.00028053936868201494
sVpossibly
p297
F0.00011689140361750621
sVbirth
p298
F0.00024105468441114694
sVlodine
p299
F0.0
sVshadow
p300
F6.334371559271068e-05
sVunique
p301
F8.445828745694756e-05
sVclonaz
p302
F0.0
sVmassively
p303
F0.0
sVd
p304
F0.0
sVdesire
p305
F0.0003099274513857603
sVdelievery
p306
F0.0
sVremind
p307
F8.445828745694756e-05
sVbeneficial
p308
F0.0001377455339492268
sVright
p309
F0.0004485241350276986
sVold
p310
F0.0
sVcreek
p311
F0.0
sVcrowd
p312
F2.111457186423689e-05
sVpeople
p313
F3.5040948049038954e-06
sVdepakene
p314
F0.0
sVcreep
p315
F6.88727669746134e-05
sVconsensus
p316
F0.0
sVbottom
p317
F1.4016379219615581e-05
sVcreative
p318
F6.334371559271068e-05
sVfog
p319
F0.0
sVperiphery
p320
F0.0
sVtreadmill
p321
F0.0
sV90mgs
p322
F0.0
sVdefensive
p323
F3.44363834873067e-05
sVvalium
p324
F0.0
sVfo4
p325
F0.0
sVrestlessness
p326
F0.0
sVfilipino
p327
F0.0
sVinderal
p328
F0.0
sVo
p329
F2.452866363432727e-05
sVimportantly
p330
F0.0
sVslightly
p331
F0.00013247692409984037
sVmeddle
p332
F0.0
sVdemotivated
p333
F0.0
sVsom
p334
F0.0
sVson
p335
F5.454932168816957e-05
sVadminister
p336
F0.0
sVthankful
p337
F0.0
sVjuicing
p338
F0.0
sVsoy
p339
F6.88727669746134e-05
sVprovigil
p340
F0.0
sVsupport
p341
F0.00044340600914897474
sVconstantly
p342
F0.0002264707975921868
sVfulminant
p343
F0.0
sVjank
p344
F0.0
sVgoddamn
p345
F6.88727669746134e-05
sVmeloxicam
p346
F0.0
sVcpep
p347
F0.0
sVhappy
p348
F0.0003428814506113515
sVpamelor
p349
F0.0
sVoffer
p350
F9.325268136148868e-05
sVunderstandable
p351
F0.0
sVinside
p352
F1.4016379219615581e-05
sVco0pxxw
p353
F0.0
sVnicest
p354
F3.44363834873067e-05
sV150
p355
F0.0
sVshooter
p356
F0.0
sVliberal
p357
F3.44363834873067e-05
sVexist
p358
F0.0002533748623708427
sVcarisoprodol
p359
F0.0
sVrelay
p360
F0.0
sVfloor
p361
F0.00010557285932118447
sVactor
p362
F3.44363834873067e-05
sVactos
p363
F0.0
sVflood
p364
F6.88727669746134e-05
sVserous
p365
F0.0
sVrole
p366
F6.88727669746134e-05
sVacetaminophen
p367
F0.0
sVsmell
p368
F4.222914372847378e-05
sVroll
p369
F0.00010657449298455848
sVintend
p370
F0.0001033091504619201
sVsnooze
p371
F0.0
sV15k
p372
F0.0
sV125
p373
F0.0
sVloony
p374
F0.0
sVvicodins
p375
F0.0
sVtrycyclic
p376
F0.0
sVchemo
p377
F0.0
sVpush
p378
F0.0002397926092152566
sVurinary
p379
F0.0
sVnewbie
p380
F0.0
sVchain
p381
F4.222914372847378e-05
sVwhoever
p382
F1.332181162306981e-05
sVskate
p383
F0.0
sVgallbladder
p384
F0.0
sVchair
p385
F2.111457186423689e-05
sVmidst
p386
F0.0
sVvet
p387
F3.44363834873067e-05
sVworth
p388
F0.0006394469579073509
sVeliminate
p389
F0.0
sVjerk
p390
F6.88727669746134e-05
sVcheap
p391
F6.334371559271068e-05
sVconsolidation
p392
F0.0
sVchoice
p393
F0.00021314898596911695
sVmourn
p394
F0.0
sVexact
p395
F9.325268136148868e-05
sVminute
p396
F0.00030640166733060563
sVtear
p397
F3.117104096466832e-05
sVleave
p398
F0.00026495384819968075
sVsettle
p399
F6.660905811534905e-05
sVeosinophilic
p400
F0.0
sVteam
p401
F0.0002066183009238402
sVspeculation
p402
F0.0
sVprevent
p403
F0.00033783314982779026
sVspiritual
p404
F3.44363834873067e-05
sVoccurrence
p405
F0.0
sVsigh
p406
F2.111457186423689e-05
sVmilligram
p407
F0.0
sVscew
p408
F0.0
sVroof
p409
F4.222914372847378e-05
sVeducate
p410
F0.0
sVpsychotropic
p411
F0.0
sVmelt
p412
F0.0
sVcurrent
p413
F0.0002397926092152566
sVhairloss
p414
F0.0
sVsixpack
p415
F0.0
sV120mg
p416
F0.0
sVbadge
p417
F0.0
sVcreepiest
p418
F0.0
sVcoccyx
p419
F0.0
sVbi
p420
F6.660905811534905e-05
sVaddress
p421
F0.0002322602905066058
sValone
p422
F0.00031972347895367544
sValong
p423
F5.2561422073558436e-05
sVwherever
p424
F3.44363834873067e-05
sVcommonly
p425
F0.0
sVineffective
p426
F6.88727669746134e-05
sVlove
p427
F0.00021040452651151117
sVprefer
p428
F0.00017318355109990753
sVlogical
p429
F0.0
sVbloody
p430
F1.332181162306981e-05
sVlogically
p431
F3.44363834873067e-05
sVfake
p432
F0.00024105468441114694
sVpositive
p433
F0.00031972347895367544
sVangry
p434
F0.0002956040060993165
sVscribin
p435
F0.0
sVwicked
p436
F2.111457186423689e-05
sVextensive
p437
F0.0
sVafford
p438
F0.0005509821357969072
sVapparent
p439
F4.222914372847378e-05
sVatarax
p440
F0.0
sVvisual
p441
F0.00024105468441114694
sVeverywhere
p442
F6.660905811534905e-05
sVdegrade
p443
F0.0
sVeasiest
p444
F0.0
sVhoney
p445
F6.334371559271068e-05
sVopioids
p446
F0.0
sVoriginally
p447
F0.00012668743118542135
sVbeliever
p448
F0.0
sVvega
p449
F0.0
sVaripiprazole
p450
F0.0
sVmetoprolol
p451
F0.0
sVawesome
p452
F0.0004132366018476804
sVdosis
p453
F0.0
sVwinter
p454
F0.00014780200304965826
sVseptic
p455
F0.0
sVimmune
p456
F0.00024105468441114694
sVdivider
p457
F0.0
sVlaundry
p458
F0.0
sVspot
p459
F0.0001198963046076283
sVlatte
p460
F6.88727669746134e-05
sVlaxative
p461
F0.0
sVdate
p462
F0.00010557285932118447
sVsuck
p463
F0.0007601245871125281
sVdata
p464
F0.0001377455339492268
sVstress
p465
F0.0007601245871125281
sVnatural
p466
F0.0002322602905066058
sVcorrelate
p467
F0.0
sVconscious
p468
F6.88727669746134e-05
sVminorly
p469
F0.0
sVsp
p470
F6.88727669746134e-05
sVsclerosis
p471
F3.44363834873067e-05
sVst
p472
F0.0
sVsh
p473
F3.44363834873067e-05
sVtruck
p474
F6.88727669746134e-05
sVse
p475
F6.334371559271068e-05
sVepilepsy
p476
F0.0
sVunacceptable
p477
F2.111457186423689e-05
sVcourse
p478
F0.0001636479650645087
sVtti
p479
F0.0
sVhorrify
p480
F0.0
sVtendency
p481
F3.44363834873067e-05
sVsacrosanct
p482
F0.0
sVdisconnect
p483
F3.44363834873067e-05
sVthumb
p484
F3.44363834873067e-05
sVconvince
p485
F0.00010657449298455848
sVattraction
p486
F0.0
sVsuspicion
p487
F6.88727669746134e-05
sVsuspension
p488
F0.0
sVcrappiness
p489
F0.0
sVinstantly
p490
F6.88727669746134e-05
sVgerd
p491
F0.0
sVhurtiness
p492
F0.0
sVsmarter
p493
F4.222914372847378e-05
sVinsomnia
p494
F0.0
sVprophylaxis
p495
F0.0
sVdidn
p496
F0.0005992002116385662
sVrevert
p497
F3.44363834873067e-05
sVimgtype
p498
F0.0
sVquarter
p499
F2.111457186423689e-05
sVgabaergic
p500
F0.0
sVbreakthrough
p501
F0.0
sVsponsor
p502
F0.0
sVsexually
p503
F6.88727669746134e-05
sVmethotrexate
p504
F0.0
sVcontainer
p505
F3.44363834873067e-05
sVmantra
p506
F0.0
sVseriously
p507
F0.0004129761603151641
sVinvestigation
p508
F3.44363834873067e-05
sVtrauma
p509
F0.0
sVinternet
p510
F0.00021114571864236893
sVformula
p511
F0.0
sVhcl
p512
F0.0
sVdumbfound
p513
F0.0
sVmillion
p514
F0.0001033091504619201
sVpossibility
p515
F0.00010557285932118447
sVquite
p516
F0.00012264331817163636
sVvalporate
p517
F0.0
sVbesides
p518
F0.00016891657491389513
sVgrandma
p519
F6.88727669746134e-05
sVinhaler
p520
F0.0
sVdunno
p521
F6.334371559271068e-05
sVmodest
p522
F3.44363834873067e-05
sVminidress
p523
F0.0
sVinitiate
p524
F3.44363834873067e-05
sVatomoextine
p525
F0.0
sVmassive
p526
F0.0
sVbothersome
p527
F0.0
sVemotion
p528
F0.0005509821357969072
sVone
p529
F0.0
sVopen
p530
F0.0
sVcity
p531
F7.993086973841886e-05
sVbite
p532
F0.000475358374711192
sVindicate
p533
F0.0001033091504619201
sVshiver
p534
F0.0
sVdissipate
p535
F0.0
sVcerebro
p536
F0.0
sVridiculous
p537
F0.0001377455339492268
sVprescription_assistance_programs
p538
F0.0
sVboyfriend
p539
F0.0004132366018476804
sVrehab
p540
F6.88727669746134e-05
sVfuture
p541
F3.117104096466832e-05
sVcounselor
p542
F0.0002066183009238402
sVillness
p543
F0.0
sVsam
p544
F0.0
sVmindfulness
p545
F0.0
sVargument
p546
F2.111457186423689e-05
sVphenobarbital
p547
F0.0
sVsad
p548
F0.0001332181162306981
sVsay
p549
F0.0007673967622739531
sVpubmed
p550
F0.0
sVsap
p551
F0.0
sVsaw
p552
F0.0003863325370690245
sVbabysit
p553
F3.44363834873067e-05
sVdownwards
p554
F3.44363834873067e-05
sVsomethings
p555
F0.0
sVnote
p556
F0.00014806244458217453
sVrumination
p557
F0.0
sVnota
p558
F0.0
sVtake
p559
F0.0015102648609135788
sVdestroy
p560
F0.0001033091504619201
sVluvox
p561
F0.0
sVopposite
p562
F0.00019003114677813203
sVmolecule
p563
F0.0
sVcrochet
p564
F0.0
sVknee
p565
F0.0
sVenergize
p566
F0.0
sVaverage
p567
F0.00016891657491389513
sVdrive
p568
F0.0008445828745694757
sVdolor
p569
F0.0
sVsalt
p570
F6.88727669746134e-05
sVstimulator
p571
F0.0
sVinfuriate
p572
F0.0
sVbright
p573
F5.328724649227924e-05
sVscarce
p574
F0.0
sVslow
p575
F8.572036265283788e-05
sVrecomended
p576
F0.0
sVfibro
p577
F0.0
sVhockey
p578
F0.0
sVneato
p579
F0.0
sVpsychiatrist
p580
F0.0003099274513857603
sVgoodluck
p581
F0.0
sVassistant
p582
F6.88727669746134e-05
sVlongvida
p583
F0.0
sVoutlet
p584
F0.0
sVresource
p585
F3.44363834873067e-05
sVabsoute
p586
F0.0
sVatomoxetine
p587
F0.0
sVnoradrenaline
p588
F0.0
sVxmas
p589
F0.0
sVvision
p590
F0.0
sVanyways
p591
F4.222914372847378e-05
sVsurgery
p592
F0.0004132366018476804
sVcomorbidity
p593
F0.0
sVuk
p594
F3.44363834873067e-05
sVvertical
p595
F1.332181162306981e-05
sVscreen
p596
F4.222914372847378e-05
sVsupermarket
p597
F0.0
sVconcentrate
p598
F0.0001377455339492268
sVspare
p599
F2.111457186423689e-05
sVcircumference
p600
F0.0
sVmany
p601
F0.0
sVmane
p602
F0.0
sV550mg
p603
F0.0
sVbackpack
p604
F0.00017218191743653352
sVpming
p605
F0.0
sVyearly
p606
F0.0
sVtwin
p607
F2.111457186423689e-05
sV3000
p608
F0.0
sVboat
p609
F3.44363834873067e-05
sVcholestatic
p610
F0.0
sVstretch
p611
F0.00014780200304965826
sVvacation
p612
F0.00024105468441114694
sVreflex
p613
F0.0
sV15mg
p614
F0.0
sVenable
p615
F3.44363834873067e-05
sVinfluence
p616
F5.328724649227924e-05
sVthousand
p617
F3.996543486920943e-05
sVpharms
p618
F0.0
sVcleave
p619
F0.0
sVpsychotherapy
p620
F0.0
sVformer
p621
F3.117104096466832e-05
sVqueasy
p622
F0.0
sVstraighten
p623
F0.0
sVsituation
p624
F0.0005489788684701592
sVive
p625
F0.0
sVpurse
p626
F3.44363834873067e-05
sVpinky
p627
F0.0
sVblah
p628
F4.222914372847378e-05
sVimitrex
p629
F0.0
sVtechnology
p630
F3.44363834873067e-05
sVscientifically
p631
F0.0
sVintrusively
p632
F0.0
sVunemployed
p633
F0.0
sVbreakdown
p634
F0.0001033091504619201
sVsickness
p635
F3.44363834873067e-05
sVbulletproof
p636
F0.0
sVawesomeness
p637
F0.0
sVantihistamine
p638
F0.0
sVgrumpy
p639
F0.0
sVhubby
p640
F0.0
sVscholarship
p641
F0.0
sVsummer
p642
F5.328724649227924e-05
sVbenzo
p643
F0.0
sVrest
p644
F3.854504285394285e-05
sVweekly
p645
F0.0001377455339492268
sVproventil
p646
F0.0
sVdownright
p647
F0.0
sVinterstitial
p648
F0.0
sVfunctionality
p649
F3.44363834873067e-05
sVunviable
p650
F0.0
sVcoq10
p651
F0.0
sVaround
p652
F0.0002277661623187532
sVdiphenhydramine
p653
F0.0
sVdark
p654
F0.0
sVlectureid
p655
F0.0
sVbandage
p656
F3.44363834873067e-05
sVvacuum
p657
F6.88727669746134e-05
sVworld
p658
F0.00013247692409984037
sVaahahaha
p659
F0.0
sVvague
p660
F0.0
sVdare
p661
F4.222914372847378e-05
sV60
p662
F0.0005067497247416854
sVstranger
p663
F0.00017218191743653352
sVbaclofen
p664
F0.0
sVssnri
p665
F0.0
sVbuspar
p666
F0.0
sVmanac
p667
F0.0
sVstationary
p668
F0.0
sVsatisfactory
p669
F0.0
sVdebilitate
p670
F0.0
sVinflamatorys
p671
F0.0
sVmadinamerica
p672
F0.0
sVsubstance
p673
F0.0
sVnoon
p674
F0.0001033091504619201
sVwendys
p675
F0.0
sVcannabis
p676
F0.0
sVexit
p677
F1.332181162306981e-05
sVpropylthiouracil
p678
F0.0
sVrefer
p679
F0.0004821093688222939
sVscientific
p680
F3.44363834873067e-05
sVpower
p681
F1.558552048233416e-05
sVstone
p682
F7.993086973841886e-05
sVpackage
p683
F5.328724649227924e-05
sVindustry
p684
F0.0001033091504619201
sVfightin
p685
F0.0
sVmeal
p686
F5.328724649227924e-05
sVautobiographal
p687
F0.0
sVact
p688
F0.00015585520482334163
sVluck
p689
F0.0008659177554995377
sVpotentiate
p690
F0.0
sValliviate
p691
F0.0
sVapologize
p692
F0.0001033091504619201
sVjonesing
p693
F0.0
sVtechnically
p694
F6.334371559271068e-05
sVprod6143368
p695
F0.0
sVhey
p696
F0.0003589477216920272
sVfutile
p697
F0.0
sVbubble
p698
F6.88727669746134e-05
sVcomplete
p699
F5.454932168816957e-05
sVdepakine
p700
F0.0
sVepidural
p701
F0.0
sVamplify
p702
F0.0
sVcard
p703
F6.334371559271068e-05
sVpull
p704
F0.00012468416385867328
sVregimen
p705
F0.0
sVoctober
p706
F0.0
sVrage
p707
F0.0003099274513857603
sVflirt
p708
F0.0
sVspeciosa
p709
F0.0
sVtorso
p710
F0.0
sVagree
p711
F0.00015585520482334163
sVaa
p712
F0.0
sVac
p713
F0.0
sVcitizenship
p714
F3.44363834873067e-05
sVcertain
p715
F0.00011913922336673246
sVal
p716
F0.0001033091504619201
sVillustrated_images
p717
F0.0
sVas
p718
F0.0
sVau
p719
F3.44363834873067e-05
sVformulation
p720
F0.0
sVviewpoint
p721
F0.0
sVcream
p722
F6.334371559271068e-05
sVcollie
p723
F0.0
sVyoga
p724
F0.0004132366018476804
sVideally
p725
F3.44363834873067e-05
sVgraduate
p726
F0.0001377455339492268
sVtight
p727
F1.332181162306981e-05
sVestrin
p728
F0.0
sVincomprehensible
p729
F0.0
sV2004
p730
F1.332181162306981e-05
sVvocabulary
p731
F0.0
sVcontextually
p732
F0.0
sVpussypass_denied_on_the_count_of_cymbalta_shortage
p733
F0.0
sVankylose
p734
F0.0
sVtricky
p735
F0.0002066183009238402
sVgastric
p736
F0.0
sVmask
p737
F0.0001033091504619201
sVmimic
p738
F0.0001033091504619201
sVbehavioral
p739
F0.0
sVoriginal
p740
F4.675656144700249e-05
sVzapps
p741
F0.0
sVsci
p742
F0.0
sVconsider
p743
F0.00030391764940551614
sVsca
p744
F0.0
sVfairness
p745
F0.0
sVsct
p746
F0.0
sVimproperly
p747
F3.44363834873067e-05
sVattentive
p748
F0.0
sVtv
p749
F0.0001033091504619201
sVtu
p750
F0.0
sVoverexpose
p751
F0.0
sVtl
p752
F0.0
sVtm
p753
F3.44363834873067e-05
sVsmile
p754
F0.00010557285932118447
sVte
p755
F0.0
sVendogenous
p756
F0.0
sVnorm
p757
F0.0
sVadapt
p758
F0.0
sVappointment
p759
F0.0010675278881065078
sVpainsomnia
p760
F0.0
sVmanageable
p761
F0.0
sVcondition
p762
F0.0005195506532997225
sVpotentiation
p763
F0.0
sVsans
p764
F0.0
sVt4
p765
F0.0
sVmisinformation
p766
F0.0
sVt3
p767
F0.0
sVlarge
p768
F0.0
sVadjust
p769
F0.0005509821357969072
sVsmall
p770
F6.657780129317401e-05
sVprovat
p771
F0.0
sVtoradol
p772
F0.0
sVquicker
p773
F6.88727669746134e-05
sVantibiotic
p774
F0.0
sVpasa
p775
F0.0
sVb27
p776
F0.0
sVpast
p777
F0.00025716108795851363
sVinvestment
p778
F0.0
sVhormonal
p779
F3.44363834873067e-05
sVclock
p780
F2.111457186423689e-05
sVpsychosomatic
p781
F0.0
sVsection
p782
F8.445828745694756e-05
sVnurse
p783
F0.00034436383487306704
sVmethod
p784
F0.0001377455339492268
sVcontrast
p785
F6.88727669746134e-05
sVhasn
p786
F0.00010909864337633913
sVfull
p787
F0.0
sVhash
p788
F3.44363834873067e-05
sVempower
p789
F0.0
sV20lbs
p790
F0.0
sVstriatum
p791
F0.0
sVcompliance
p792
F0.0
sVbrutal
p793
F0.0
sVprior
p794
F0.0002754910678984536
sVinfrequently
p795
F0.0
sVhealthier
p796
F0.0
sVskyrocket
p797
F0.0
sVpick
p798
F0.00034636710219981506
sVcessation
p799
F0.0
sVskepticism
p800
F0.0
sVunderrate
p801
F0.0
sVvia
p802
F0.00017218191743653352
sVdepart
p803
F2.111457186423689e-05
sVagomelatine
p804
F0.0
sVbatshit
p805
F0.0
sVregiment
p806
F0.0
sVvit
p807
F0.0
sVgosh
p808
F0.0001033091504619201
sVattendance
p809
F0.0
sValcoholic
p810
F3.44363834873067e-05
sVpearl
p811
F3.44363834873067e-05
sVsitter
p812
F0.0
sVrhem
p813
F0.0
sV6
p814
F0.00020323749868442594
sVmetformin
p815
F0.0
sVdoor
p816
F3.117104096466832e-05
sVdepersonalize
p817
F0.0
sVcomorbidities
p818
F0.0
sVdoom
p819
F0.0
sVnegativity
p820
F0.0
sVfatal
p821
F2.111457186423689e-05
sVscience
p822
F0.00012668743118542135
sVnovolog
p823
F0.0
sVlearn
p824
F0.0017562555578526419
sVmale
p825
F2.664362324613962e-05
sVscramble
p826
F0.0
sVbeautiful
p827
F2.3378280723501244e-05
sVallegra
p828
F0.0
sVdiabetic
p829
F3.44363834873067e-05
sVscam
p830
F0.0
sVscan
p831
F2.111457186423689e-05
sVaccept
p832
F0.0002397926092152566
sVsense
p833
F6.307370648827012e-05
sVgallon
p834
F0.0
sVscar
p835
F0.0006542912862588273
sVtireder
p836
F0.0
sVhuge
p837
F8.40982753176935e-05
sVrespective
p838
F0.0
sVsr
p839
F0.0
sVfrivolously
p840
F0.0
sVcling
p841
F0.0
sVplant
p842
F3.44363834873067e-05
sVnotre
p843
F0.0
sVvariant
p844
F0.0
sVbrintellix
p845
F0.0
sVrefuse
p846
F0.00019982717434604714
sVresemble
p847
F3.44363834873067e-05
sVrowdy
p848
F3.44363834873067e-05
sVortho
p849
F0.0
sVwrench
p850
F0.0
sVincessantly
p851
F3.44363834873067e-05
sVsertraline
p852
F0.0
sVtramadol
p853
F0.0
sVtrade
p854
F2.664362324613962e-05
sVattitude
p855
F0.0001033091504619201
sVpaper
p856
F7.993086973841886e-05
sVpang
p857
F0.0
sVscintigraphy
p858
F0.0
sVconsent
p859
F6.88727669746134e-05
sVnooooope
p860
F0.0
sVwrt
p861
F0.0
sVlamotragine
p862
F0.0
sVbypass
p863
F3.44363834873067e-05
sVamitriptyline
p864
F0.0
sVsauce
p865
F3.44363834873067e-05
sVtri
p866
F6.88727669746134e-05
sVhysterectomy
p867
F0.0
sVentire
p868
F9.325268136148868e-05
sVpropose
p869
F3.44363834873067e-05
sVgadget
p870
F0.0
sVvitro
p871
F0.0
sVspeculate
p872
F0.0
sVbarefaced
p873
F0.0
sValways
p874
F0.0
sVnauseous
p875
F0.0
sVstatus
p876
F3.996543486920943e-05
sVengland
p877
F0.0
sV300mg
p878
F0.0
sVreduce
p879
F0.0009501557338906601
sVtrd
p880
F0.0
sVgirlish
p881
F0.0
sVterrify
p882
F0.0
sVtry
p883
F0.000840982753176935
sVlipstick
p884
F3.44363834873067e-05
sVftw
p885
F0.0
sVresearch
p886
F0.0006887276697461341
sVcrazymeds
p887
F0.0
sVqualify
p888
F0.0
sVimagine
p889
F0.0001332181162306981
sVimpulsion
p890
F0.0
sVdefinition
p891
F1.332181162306981e-05
sVw
p892
F5.328724649227924e-05
sVanecdote
p893
F0.0
sVexistential
p894
F3.44363834873067e-05
sVtraumatize
p895
F0.0
sVbupropion
p896
F0.0
sVmajor
p897
F0.00013247692409984037
sVthereafter
p898
F0.0
sVbrutally
p899
F0.0
sVslipper
p900
F0.0
sVunexplained
p901
F3.44363834873067e-05
sVguest
p902
F1.332181162306981e-05
sVswipe
p903
F3.44363834873067e-05
sVmoderately
p904
F2.111457186423689e-05
sVcheckpoint
p905
F3.44363834873067e-05
sVbedridden
p906
F0.0
sVrelationship
p907
F0.00017318355109990753
sVimmediate
p908
F0.00019003114677813203
sVconsult
p909
F0.0
sVunrealistic
p910
F0.0
sVgrace
p911
F3.44363834873067e-05
sVtummy
p912
F3.44363834873067e-05
sVmarriage
p913
F1.332181162306981e-05
sVdepressent
p914
F0.0
sVbeforehand
p915
F0.0
sVsell
p916
F4.675656144700249e-05
sVself
p917
F8.40982753176935e-05
sVphychatry
p918
F0.0
sVpparx
p919
F0.0
sVjostle
p920
F0.0
sVtranquilzer
p921
F0.0
sVplay
p922
F0.00019982717434604714
sV2am
p923
F0.0
sValleviate
p924
F0.0003099274513857603
sVnasal
p925
F0.0
sVyawn
p926
F0.0
sVvirus
p927
F0.0001377455339492268
sVplan
p928
F0.0004262979719382339
sVseize
p929
F3.44363834873067e-05
sVsometimes
p930
F0.0004987366554346931
sVcover
p931
F0.00018702624578800995
sVadvisement
p932
F0.0
sVgaba
p933
F0.0
sVdespise
p934
F3.44363834873067e-05
sVugh
p935
F0.0
sVgold
p936
F1.332181162306981e-05
sVagonize
p937
F0.0
sVtranquilizer
p938
F0.0
sVsession
p939
F0.0001377455339492268
sVwalgreen
p940
F0.0
sVimpact
p941
F0.0
sVindicator
p942
F3.44363834873067e-05
sVcolumna
p943
F0.0
sVenzyme
p944
F0.0
sVfactor
p945
F0.00024105468441114694
sVzillionth
p946
F0.0
sVdandelion
p947
F3.44363834873067e-05
sVdependent
p948
F0.0002754910678984536
sVresent
p949
F0.0
sVremedy
p950
F0.0
sVclosely
p951
F0.0
sVuntreated
p952
F0.0
sVdistraction
p953
F0.0
sVenemy
p954
F0.0001033091504619201
sVcrp
p955
F0.0
sVsleeve
p956
F3.44363834873067e-05
sVcry
p957
F0.0002744894342350796
sVcaramel
p958
F2.111457186423689e-05
sVkill
p959
F0.00020261176627034408
sVobscure
p960
F0.0
sVriver
p961
F1.332181162306981e-05
sVinsane
p962
F0.00024105468441114694
sVautoreceptors
p963
F0.0
sVcorticosteroid
p964
F0.0
sVser
p965
F3.44363834873067e-05
sVoverwhelm
p966
F0.0
sVcounceling
p967
F0.0
sVpotent
p968
F0.0
sVsex
p969
F0.0008234683027052387
sVsee
p970
F0.0005956961168336623
sVanalog
p971
F0.0
sV6yr
p972
F0.0
sVproject
p973
F3.996543486920943e-05
sVritz
p974
F0.0
sVcurrently
p975
F0.0006261251462842811
sVtenormin
p976
F0.0
sVcrosswalk
p977
F3.44363834873067e-05
sVnope
p978
F0.0001377455339492268
sVthrive
p979
F0.0
sVavailable
p980
F0.0002264707975921868
sVincident
p981
F0.0
sVselectively
p982
F0.0
sVnonexistent
p983
F3.44363834873067e-05
sVlast
p984
F0.000301352153221735
sVbarely
p985
F0.00019003114677813203
sVnorcos
p986
F0.0
sVconnection
p987
F4.222914372847378e-05
sVlet
p988
F0.00018221292985500255
sVapprove
p989
F0.0007576004367207474
sVpatty
p990
F0.0
sVload
p991
F3.996543486920943e-05
sVloan
p992
F0.0
sVcommunity
p993
F0.0
sVcoincidence
p994
F0.0001033091504619201
sVtremor
p995
F0.0
sVbudeprion
p996
F0.0
sVworthless
p997
F6.88727669746134e-05
sVdevil
p998
F2.111457186423689e-05
sVmonthly
p999
F0.0
sVacceptance
p1000
F0.0
sVinitiation
p1001
F0.0
sVyadda
p1002
F6.88727669746134e-05
sVholistics
p1003
F0.0
sVfogginess
p1004
F0.0
sVfire
p1005
F3.117104096466832e-05
sVfund
p1006
F0.00010557285932118447
sVmoderation
p1007
F0.0
sVawake
p1008
F0.0002754910678984536
sVsystematic
p1009
F3.44363834873067e-05
sVlamotrigine
p1010
F0.0
sVreliable
p1011
F6.334371559271068e-05
sVbudget
p1012
F6.88727669746134e-05
sVsesame
p1013
F3.44363834873067e-05
sVmedically
p1014
F0.0
sVreliably
p1015
F3.44363834873067e-05
sVerror
p1016
F0.0004821093688222939
sVmedicamentos
p1017
F0.0
sVsoporte
p1018
F0.0
sVswim
p1019
F8.445828745694756e-05
sVpound
p1020
F0.00042229143728473787
sVoculusvr
p1021
F0.0
sVagitation
p1022
F0.0
sVklonipin
p1023
F0.0
sVhydrocodone
p1024
F0.0
sVtriple
p1025
F4.222914372847378e-05
sVbeautifully
p1026
F3.44363834873067e-05
sVvanish
p1027
F0.0001033091504619201
sVfunny
p1028
F5.454932168816957e-05
sVacaba
p1029
F0.0
sVmint
p1030
F4.222914372847378e-05
sVshorter
p1031
F6.334371559271068e-05
sVpussypassdenied
p1032
F0.0
sVserum
p1033
F0.0
sVvoraciously
p1034
F0.0
sVdiscontinue
p1035
F0.0
sValert
p1036
F2.111457186423689e-05
sVwalmart
p1037
F0.0
sVcucumber
p1038
F3.44363834873067e-05
sVstack
p1039
F3.44363834873067e-05
sVfocal
p1040
F3.44363834873067e-05
sVrecent
p1041
F0.00012668743118542135
sVearly
p1042
F0.00013247692409984037
sVconcrete
p1043
F0.0
sVfeces
p1044
F0.0
sVrheumy
p1045
F0.0
sVexperiernced
p1046
F0.0
sVsidebar
p1047
F6.88727669746134e-05
sVdissociation
p1048
F0.0
sVbecausessris
p1049
F0.0
sVlongecity
p1050
F0.0
sVeager
p1051
F0.0
sVoverthinking
p1052
F0.0
sVgrapefruit
p1053
F6.334371559271068e-05
sVmusculoskeletal
p1054
F0.0
sVlocation
p1055
F8.445828745694756e-05
sVrelevance
p1056
F0.0
sVinput
p1057
F0.00017218191743653352
sVshove
p1058
F3.44363834873067e-05
sVaustralia
p1059
F0.0
sVemergency
p1060
F0.0004132366018476804
sVcouple
p1061
F0.00042080905302302235
sVshitty
p1062
F0.0006198549027715206
sVquest
p1063
F3.44363834873067e-05
sVtowel
p1064
F6.88727669746134e-05
sVrizatriptan
p1065
F0.0
sVuuuuuugh
p1066
F0.0
sVspine
p1067
F6.88727669746134e-05
sVconstipate
p1068
F0.0
sVcontinue
p1069
F0.00014026968434100747
sVbreakthough
p1070
F0.0
sVdisorder
p1071
F0.002858219829446456
sVspring
p1072
F3.996543486920943e-05
sVb6
p1073
F0.0
sVcurious
p1074
F3.117104096466832e-05
sVreligion
p1075
F3.44363834873067e-05
sVbf
p1076
F0.0
sVbc
p1077
F0.0
sVagreement
p1078
F1.332181162306981e-05
sVbp
p1079
F0.0
sVnowhere
p1080
F0.00024105468441114694
sVflexiril
p1081
F0.0
sVanything
p1082
F0.000301352153221735
sVnetflix
p1083
F0.0
sVcoexist
p1084
F0.0
sVbreakup
p1085
F0.0
sVanterior
p1086
F0.0
sVrepair
p1087
F0.0
sVcolorado
p1088
F0.0
sVgarbage
p1089
F6.334371559271068e-05
sVrecreate
p1090
F0.0
sVappropriate
p1091
F0.00024105468441114694
sVvermintide
p1092
F0.0
sVmitochondrial
p1093
F0.0
sVprimarily
p1094
F0.0
sVcontributor
p1095
F4.222914372847378e-05
sVclonopin
p1096
F0.0
sVnext
p1097
F0.00014717198180596363
sVkatie
p1098
F0.0
sVhellhole
p1099
F0.0
sVspecifically
p1100
F0.0
sVsuit
p1101
F4.222914372847378e-05
sVconsiderably
p1102
F3.44363834873067e-05
sV3600
p1103
F0.0
sVelsewhere
p1104
F6.88727669746134e-05
sVposter
p1105
F0.0001033091504619201
sVslump
p1106
F0.0
sVlink
p1107
F0.0003167185779635534
sVgoosebump
p1108
F0.0
sVline
p1109
F0.00012468416385867328
sVrelaxer
p1110
F0.0
sVsomedays
p1111
F0.0
sVup
p1112
F0.0
sVur
p1113
F0.0
sVtripshot
p1114
F0.0
sVuo
p1115
F0.0
sVun
p1116
F3.117104096466832e-05
sVuh
p1117
F2.664362324613962e-05
sVmature
p1118
F1.332181162306981e-05
sVmedical
p1119
F0.0005195506532997225
sVparoxetine
p1120
F0.0
sVlikewise
p1121
F0.0
sVunsafe
p1122
F3.44363834873067e-05
sVhaunt
p1123
F0.0
sVdiverse
p1124
F3.44363834873067e-05
sVchat
p1125
F1.332181162306981e-05
sVphantom
p1126
F3.44363834873067e-05
sVoccasional
p1127
F0.0
sVrhumy
p1128
F0.0
sVdeviate
p1129
F0.0
sVmultiduty
p1130
F0.0
sVenergetic
p1131
F0.0
sVlucid
p1132
F0.0
sVativan
p1133
F0.0
sVtreatable
p1134
F0.0
sVland
p1135
F2.1024568829423374e-05
sVmetabolize
p1136
F0.0
sVtrain
p1137
F0.0001377455339492268
sVwalker
p1138
F6.88727669746134e-05
sVfresh
p1139
F3.996543486920943e-05
sVreceive
p1140
F0.0001377455339492268
sVessay
p1141
F3.44363834873067e-05
sVpartial
p1142
F0.0001033091504619201
sVscratch
p1143
F2.111457186423689e-05
sVlaziness
p1144
F0.0
sVenjoyable
p1145
F6.88727669746134e-05
sV80mgs
p1146
F0.0
sVfreakin
p1147
F3.44363834873067e-05
sVflashback
p1148
F0.0
sVaqtic
p1149
F0.0
sVyoung
p1150
F4.555323246375064e-05
sVsend
p1151
F0.00020261176627034408
sVmonoamine
p1152
F0.0
sVboatload
p1153
F0.0
sVtorture
p1154
F3.44363834873067e-05
sVcolloquially
p1155
F0.0
sVenfp
p1156
F0.0
sVwipe
p1157
F2.111457186423689e-05
sVtimely
p1158
F0.0
sVmagic
p1159
F0.00021114571864236893
sVtransmission
p1160
F0.0
sVeve
p1161
F0.0
sVfewer
p1162
F0.00017218191743653352
sVanxious
p1163
F0.0007576004367207474
sVrace
p1164
F0.0002754910678984536
sVobesity
p1165
F0.0
sVallunderit
p1166
F0.0
sVseratonin
p1167
F0.0
sVmishap
p1168
F0.0
sVvideo
p1169
F0.00010557285932118447
sVpour
p1170
F0.0001033091504619201
sVincidentally
p1171
F0.0
sVodd
p1172
F1.558552048233416e-05
sVvictor
p1173
F0.0
sVindex
p1174
F3.44363834873067e-05
sVduuuude
p1175
F0.0
sVsadden
p1176
F0.0
sVsweaty
p1177
F6.88727669746134e-05
sVconsistently
p1178
F0.0002066183009238402
sVbird
p1179
F2.664362324613962e-05
sVproliferation
p1180
F0.0
sVleg
p1181
F0.000279758044084466
sVpunch
p1182
F6.88727669746134e-05
sVpoverty
p1183
F3.44363834873067e-05
sVlicence
p1184
F2.111457186423689e-05
sVlex
p1185
F0.0
sVconsideration
p1186
F0.0
sVfifteen
p1187
F3.44363834873067e-05
sVphysiology
p1188
F0.0
sVgreat
p1189
F0.0
sVengage
p1190
F0.0
sVtechnical
p1191
F3.44363834873067e-05
sVextreme
p1192
F0.0002930798557075358
sVrda
p1193
F0.0
sVinsulin
p1194
F0.0
sVdefeat
p1195
F6.88727669746134e-05
sVopinion
p1196
F0.0006198549027715206
sVmaker
p1197
F0.0
sVthats
p1198
F4.222914372847378e-05
sValtho
p1199
F0.0
sVvalproic
p1200
F0.0
sVvassopressors
p1201
F0.0
sVimpulsivity
p1202
F0.0
sVexenatide
p1203
F0.0
sVconfidence
p1204
F0.00017218191743653352
sVpotenating
p1205
F0.0
sVillegal
p1206
F3.44363834873067e-05
sVguideline
p1207
F0.0
sVfigurative
p1208
F0.0
sVeleven
p1209
F3.44363834873067e-05
sVduplicate
p1210
F3.44363834873067e-05
sVdoubt
p1211
F3.117104096466832e-05
sVpelvic
p1212
F3.44363834873067e-05
sVbodily
p1213
F3.44363834873067e-05
sV90mg
p1214
F0.0
sVbaby
p1215
F0.00044340600914897474
sVgladly
p1216
F0.0
sVbatsh
p1217
F0.0
sVcustomer
p1218
F6.88727669746134e-05
sVmeng
p1219
F0.0
sVchallenge
p1220
F0.0002066183009238402
sVcornucopia
p1221
F0.0
sVprompto
p1222
F0.0
sVcreepy
p1223
F3.44363834873067e-05
sVthin
p1224
F2.664362324613962e-05
sVinsiste
p1225
F0.0
sVscatter
p1226
F0.0
sVparalysis
p1227
F0.0
sVprocess
p1228
F0.0007601245871125281
sVlock
p1229
F3.996543486920943e-05
sVamtatriptaline
p1230
F0.0
sVhigh
p1231
F0.0
sVslip
p1232
F3.44363834873067e-05
sVweaken
p1233
F0.0
sVendoscopy
p1234
F0.0
sVdelay
p1235
F0.00012668743118542135
sVanimal
p1236
F1.558552048233416e-05
sVuserfiles
p1237
F0.0
sVestablishment
p1238
F0.0
sVoz
p1239
F0.0
sVdiferencia
p1240
F0.0
sVtdee
p1241
F0.0
sVawait
p1242
F0.0
sVtier
p1243
F0.0
sVantibody
p1244
F0.0
sVcounter
p1245
F0.00012668743118542135
sVelement
p1246
F1.332181162306981e-05
sVallow
p1247
F0.0004476729853349871
sVthigh
p1248
F0.0
sVmute
p1249
F3.44363834873067e-05
sVverrry
p1250
F0.0
sVmove
p1251
F0.0003596889138228848
sVdming
p1252
F0.0
sVtort
p1253
F0.0
sVperfect
p1254
F0.00012668743118542135
sVhypothesize
p1255
F0.0
sVmeantime
p1256
F6.88727669746134e-05
sV2015
p1257
F0.0
sVhobby
p1258
F0.0001377455339492268
sVtherefor
p1259
F0.0
sV2011
p1260
F0.0
sV2010
p1261
F0.0
sV2013
p1262
F0.0
sVreposting
p1263
F0.0
sVanticonvulsant
p1264
F0.0
sVnada
p1265
F3.44363834873067e-05
sVplaquenil
p1266
F0.0
sVsnake
p1267
F2.111457186423689e-05
sVkiss
p1268
F6.334371559271068e-05
sVstabilise
p1269
F0.0
sVtransparent
p1270
F2.111457186423689e-05
sVwrangler
p1271
F0.0
sVsufficiently
p1272
F0.0
sVtruth
p1273
F0.00019003114677813203
sVsubset
p1274
F0.0
sVbump
p1275
F0.0
sVdeficiency
p1276
F0.0
sVmeta
p1277
F2.111457186423689e-05
sVstatic
p1278
F3.44363834873067e-05
sVstatin
p1279
F0.0
sVmeth
p1280
F0.0
sVdiffer
p1281
F3.44363834873067e-05
sVhashimotos
p1282
F0.0
sVborderline
p1283
F0.0002066183009238402
sVdismissal
p1284
F0.0
sVantiphospholipid
p1285
F0.0
sVvenom
p1286
F0.0
sVempathetic
p1287
F0.0
sVhilarious
p1288
F3.44363834873067e-05
sVunprepared
p1289
F0.0
sVtheraputic
p1290
F0.0
sVshitloaf
p1291
F0.0
sVshut
p1292
F3.117104096466832e-05
sVtempo
p1293
F0.0
sVtumeric
p1294
F0.0
sVsurely
p1295
F3.44363834873067e-05
sVembarrass
p1296
F0.0
sVpothead
p1297
F0.0
sVshortest
p1298
F0.0
sVscary
p1299
F0.0003099274513857603
sVcould
p1300
F0.0
sVcompulsive
p1301
F3.44363834873067e-05
sVlength
p1302
F1.0512284414711687e-05
sVdavis
p1303
F0.0
sV130bpm
p1304
F0.0
sVscare
p1305
F6.88727669746134e-05
sVscarf
p1306
F3.44363834873067e-05
sV450
p1307
F0.0
sVjesus
p1308
F0.0
sVkanteen
p1309
F0.0
sVfuckery
p1310
F0.0
sVstart
p1311
F0.000685762901222703
sVsystem
p1312
F0.0002415755674761795
sVpainful
p1313
F0.0
sVaccompany
p1314
F0.0
sVinjectable
p1315
F0.0
sVgung
p1316
F0.0
sVbotox
p1317
F0.0
sVhaven
p1318
F0.0004130162927818553
sVroulette
p1319
F0.0
sVbother
p1320
F0.00019003114677813203
sVmalpractice
p1321
F0.0
sVstricter
p1322
F0.0
sVfalse
p1323
F2.664362324613962e-05
sVgabopentin
p1324
F0.0
sVgently
p1325
F3.44363834873067e-05
sVtonight
p1326
F4.222914372847378e-05
sVgentle
p1327
F3.996543486920943e-05
sVclearly
p1328
F6.660905811534905e-05
sVmechanism
p1329
F0.0
sVadjunct
p1330
F0.0
sVstahls
p1331
F0.0
sVlunesta
p1332
F0.0
sVdevice
p1333
F3.996543486920943e-05
sVmedal
p1334
F3.44363834873067e-05
sVsubsequently
p1335
F0.0
sVhyperthyroidism
p1336
F0.0
sVstronger
p1337
F0.0004132366018476804
sVthanksgiving
p1338
F0.0
sVface
p1339
F0.00011689140361750621
sVdesvenlafaxine
p1340
F0.0
sVfiasco
p1341
F0.0
sVbrew
p1342
F0.0
sV08
p1343
F3.44363834873067e-05
sVfact
p1344
F0.0004129761603151641
sVnaturale
p1345
F0.0
sVdependant
p1346
F0.0
sVdissociate
p1347
F0.0
sVbring
p1348
F9.461055973240518e-05
sVcannibus
p1349
F0.0
sVbedroom
p1350
F6.88727669746134e-05
sVrough
p1351
F0.00019003114677813203
sVdbt
p1352
F0.0
sVdecade
p1353
F0.00012668743118542135
sVdisillusion
p1354
F0.0
sVcostco
p1355
F0.0
sVwelbutrin
p1356
F0.0
sVjar
p1357
F2.664362324613962e-05
sVtapa
p1358
F0.0
sVjag
p1359
F0.0
sVjad
p1360
F0.0
sVhope
p1361
F0.00026981529997759996
sVjackpot
p1362
F3.44363834873067e-05
sVinsight
p1363
F3.44363834873067e-05
sVhandle
p1364
F0.00010909864337633913
sVomeprazole
p1365
F0.0
sVfamiliar
p1366
F0.00014780200304965826
sVlucky
p1367
F0.00010657449298455848
sVstahlonline
p1368
F0.0
sVsmash
p1369
F3.44363834873067e-05
sVdishearten
p1370
F0.0
sVmetabolite
p1371
F0.0
sVtopiramite
p1372
F0.0
sVstuff
p1373
F0.0006927342043996301
sVohio
p1374
F0.0
sVbtw
p1375
F0.0
sVtemporarily
p1376
F3.44363834873067e-05
sVcatastrophic
p1377
F0.0
sVheartburn
p1378
F0.0001377455339492268
sVlazy
p1379
F0.0002322602905066058
sVpacket
p1380
F0.0
sVedition
p1381
F3.44363834873067e-05
sV130lbs
p1382
F0.0
sVwire
p1383
F6.88727669746134e-05
sVdestiny
p1384
F3.44363834873067e-05
sVposse
p1385
F3.44363834873067e-05
sVinvega
p1386
F0.0
sVunravel
p1387
F0.0
sVexplosive
p1388
F0.0
sVinterchangeably
p1389
F0.0
sVlawsuit
p1390
F0.0
sVendo
p1391
F0.0
sVketo
p1392
F0.0
sVett
p1393
F0.0
sVramp
p1394
F0.0
sVetc
p1395
F0.00018221292985500255
sVeta
p1396
F0.0
sVck
p1397
F0.0
sVco
p1398
F6.334371559271068e-05
sVwtf
p1399
F0.0
sVcf
p1400
F0.00024105468441114694
sVdoxycycline
p1401
F0.0
sVdepressi
p1402
F0.0
sVataxia
p1403
F0.0
sVoakland
p1404
F0.0
sVcv
p1405
F0.0
sVct
p1406
F0.0
sVpulmicort
p1407
F0.0
sVnaltrexone
p1408
F0.0
sVgenetic
p1409
F0.0
sVwaste
p1410
F5.328724649227924e-05
sVlouisiana
p1411
F0.0
sVventolin
p1412
F0.0
sVpsychotherapist
p1413
F0.0
sVanorgasmic
p1414
F0.0
sVanorgasmia
p1415
F0.0
sV250mg
p1416
F0.0
sVanticonvulsents
p1417
F0.0
sVderivative
p1418
F0.0
sV2016
p1419
F0.0
sVcvy
p1420
F0.0
sVfibrymyalgia
p1421
F0.0
sVhahaha
p1422
F0.0
sVultra
p1423
F0.0
sVva
p1424
F2.111457186423689e-05
sVinsanely
p1425
F0.0
sVsite
p1426
F6.660905811534905e-05
sVlilly_cares
p1427
F0.0
sVlust
p1428
F3.44363834873067e-05
sVexcessively
p1429
F3.44363834873067e-05
sVvt
p1430
F0.0
sVconserve
p1431
F0.0
sVcohort
p1432
F0.0
sVdenial
p1433
F0.0
sVdilate
p1434
F0.0
sVdigging
p1435
F2.111457186423689e-05
sVball
p1436
F5.328724649227924e-05
sVemotionally
p1437
F0.00017218191743653352
sVbald
p1438
F3.44363834873067e-05
sVupon
p1439
F3.896380120583541e-05
sVunsympathetic
p1440
F0.0
sVphd
p1441
F0.0
sVbenicar
p1442
F0.0
sVinfinite
p1443
F2.111457186423689e-05
sVphp
p1444
F0.0001033091504619201
sVpleasantly
p1445
F3.44363834873067e-05
sVlupus
p1446
F0.0
sVoff
p1447
F3.5040948049038954e-06
sVcolour
p1448
F2.111457186423689e-05
sVflesh
p1449
F2.111457186423689e-05
sVdoapmine
p1450
F0.0
sVweb
p1451
F1.332181162306981e-05
sVwed
p1452
F0.0
sVrealize
p1453
F0.0012052734220557345
sVarrest
p1454
F0.00010557285932118447
sVcombine
p1455
F0.00033783314982779026
sVexempt
p1456
F0.0
sVsynaptic
p1457
F0.0
sVteriyaki
p1458
F0.0
sVvain
p1459
F2.111457186423689e-05
sVgovernment
p1460
F4.222914372847378e-05
sVzimbabwe
p1461
F0.0
sVfive
p1462
F5.956961168336623e-05
sVdesk
p1463
F6.334371559271068e-05
sVatrophy
p1464
F0.0
sVdebatable
p1465
F0.0
sVplacenta
p1466
F6.88727669746134e-05
sVbenadryl
p1467
F0.0
sVonion
p1468
F3.44363834873067e-05
sVbulge
p1469
F0.0
sVbecome
p1470
F0.00014366788700105972
sVreplacement
p1471
F6.334371559271068e-05
sVopioid
p1472
F0.0
sVklonopin
p1473
F0.0
sVforeseeable
p1474
F0.0
sVdaylight
p1475
F3.44363834873067e-05
sVflush
p1476
F6.88727669746134e-05
sVliterally
p1477
F0.0003167185779635534
sValeve
p1478
F0.0
sVwoohoo
p1479
F0.0
sVblurry
p1480
F0.0
sVcastrate
p1481
F0.0
sVbiology
p1482
F0.0
sVschedule
p1483
F0.0002754910678984536
sVpressure
p1484
F0.0010330915046192011
sVimaginary
p1485
F0.0001033091504619201
sVstage
p1486
F2.664362324613962e-05
sVtracci
p1487
F0.0
sVsister
p1488
F0.00014780200304965826
sVlifestyle
p1489
F6.88727669746134e-05
sVdilaudid
p1490
F0.0
sVingest
p1491
F0.0
sVfro
p1492
F0.0
sVfuckton
p1493
F0.0
sVlung
p1494
F0.00017218191743653352
sVroad_
p1495
F0.0
sVfrustration
p1496
F0.0
sVuridine
p1497
F0.0
sVgut
p1498
F3.44363834873067e-05
sVnaturally
p1499
F0.00017218191743653352
sVfunction
p1500
F0.0015496372569288016
sVdelivery
p1501
F0.00017218191743653352
sVconstruction
p1502
F3.44363834873067e-05
sVughhh
p1503
F0.0
sVmethmeds
p1504
F0.0
sVcount
p1505
F0.00042229143728473787
sVjackass
p1506
F3.44363834873067e-05
sVsociety
p1507
F2.111457186423689e-05
sVsoreness
p1508
F0.0
sVofficial
p1509
F0.0002322602905066058
sVsmooth
p1510
F1.332181162306981e-05
sVfrequency
p1511
F0.0001377455339492268
sV3mg
p1512
F0.0
sVadderall
p1513
F0.0
sVproblem
p1514
F0.0008338253458048776
sVhydrotherapy
p1515
F0.0
sVrecognize
p1516
F0.00016891657491389513
sVcontribute
p1517
F0.00017218191743653352
sVmushroom
p1518
F6.88727669746134e-05
sVvariety
p1519
F0.00010557285932118447
sVdeadly
p1520
F0.0
sVlately
p1521
F0.00012668743118542135
sVsaviour
p1522
F0.0
sVmcg
p1523
F0.0
sVziprasidone
p1524
F0.0
sVbehold
p1525
F3.44363834873067e-05
sVtranscranial
p1526
F0.0
sVrepeat
p1527
F0.0002754910678984536
sVpotentiators
p1528
F0.0
sVmonday
p1529
F0.0
sV25f
p1530
F0.0
sVchance
p1531
F0.00015585520482334163
sVexposure
p1532
F0.0
sVghost
p1533
F3.44363834873067e-05
sVnortriptalyn
p1534
F0.0
sVrisperdal
p1535
F0.0
sVrule
p1536
F0.0002322602905066058
sVcompete
p1537
F0.0
sVproprananol
p1538
F0.0
sVsuicidal
p1539
F0.0012741461890303479
sVsaver
p1540
F0.0
sVcontroversial
p1541
F3.44363834873067e-05
sVphysiological
p1542
F0.0
sVbike
p1543
F2.111457186423689e-05
sVslowest
p1544
F0.0
sVergo
p1545
F0.0
sVrestock
p1546
F0.0
sVwhack
p1547
F0.0
sVcompassion
p1548
F3.44363834873067e-05
sVblanket
p1549
F4.222914372847378e-05
sVasthmatic
p1550
F0.0
sVglimepiride
p1551
F0.0
sVmanic
p1552
F0.0006887276697461341
sVmania
p1553
F0.0
sVrec
p1554
F3.44363834873067e-05
sVtank
p1555
F3.44363834873067e-05
sVcipralex
p1556
F0.0
sVpropecia
p1557
F0.0
sVexaggerate
p1558
F0.0
sVpinch
p1559
F6.88727669746134e-05
sVrelentlessly
p1560
F0.0
sVmath
p1561
F3.44363834873067e-05
sVantagonize
p1562
F0.0
sVmonologue
p1563
F0.0
sVtriumph
p1564
F0.0
sVchef
p1565
F3.44363834873067e-05
sValt
p1566
F2.111457186423689e-05
sVbipolar
p1567
F0.0016529464073907216
sVtoll
p1568
F0.0
sVsuppose
p1569
F0.0002744894342350796
sVofficially
p1570
F0.0
sVunmotivated
p1571
F0.0
sVsimultaneously
p1572
F3.44363834873067e-05
sVfestive
p1573
F0.0
sVmiscarriage
p1574
F0.0
sVkudos
p1575
F0.0
sVdaughter
p1576
F3.117104096466832e-05
sVstudy
p1577
F0.000591208012198633
sVsmoke
p1578
F0.0007178954433840544
sVaka
p1579
F0.0
sVsearch
p1580
F0.00010657449298455848
sVhighly
p1581
F0.00019003114677813203
sVbro
p1582
F0.00017218191743653352
sVextraneous
p1583
F6.88727669746134e-05
sVachievable
p1584
F0.0
sVconcomitant
p1585
F0.0
sVglance
p1586
F2.664362324613962e-05
sVtotal
p1587
F9.325268136148868e-05
sVexperimentation
p1588
F0.0
sVwintertime
p1589
F3.44363834873067e-05
sVgloss
p1590
F0.0
sVnegative
p1591
F0.00044340600914897474
sVinsult
p1592
F6.88727669746134e-05
sVplod
p1593
F0.0
sVindiana
p1594
F0.0
sVtryin
p1595
F3.44363834873067e-05
sVpude
p1596
F0.0
sVprazolin
p1597
F0.0
sVhaha
p1598
F0.00034436383487306704
sVinfusion
p1599
F0.0
sVreign
p1600
F0.0
sVaware
p1601
F0.0
sVbackwards
p1602
F7.79276024116708e-06
sVadamant
p1603
F0.0
sVfodmaps
p1604
F0.0
sVsdri
p1605
F0.0
sVnorep
p1606
F0.0
sVword
p1607
F4.905732726865454e-05
sVcharacterize
p1608
F0.0
sVwork
p1609
F0.0
sVworm
p1610
F6.88727669746134e-05
sVwort
p1611
F3.44363834873067e-05
sVera
p1612
F0.0
sVmechanic
p1613
F3.44363834873067e-05
sVelbow
p1614
F3.44363834873067e-05
sVacetylcholine
p1615
F0.0
sVquiver
p1616
F0.0
sVlooooong
p1617
F0.0
sVimpair
p1618
F0.0
sVindifferent
p1619
F3.44363834873067e-05
sVrecovery
p1620
F0.00012668743118542135
sVprovide
p1621
F0.0004476729853349871
sVagony
p1622
F0.0
sV3346
p1623
F0.0
sVsever
p1624
F3.44363834873067e-05
sVmoron
p1625
F3.44363834873067e-05
sVdisappoint
p1626
F0.0001033091504619201
sVordinary
p1627
F3.117104096466832e-05
sVbeach
p1628
F1.332181162306981e-05
sVgamble
p1629
F0.0001033091504619201
sVpizza
p1630
F0.0001033091504619201
sVfever
p1631
F0.0
sVdoable
p1632
F0.0
sVearlier
p1633
F7.792760241167081e-05
sVlab
p1634
F0.0
sVlay
p1635
F8.445828745694756e-05
sVlaw
p1636
F0.0001033091504619201
sVmeaningful
p1637
F4.222914372847378e-05
sVappreciate
p1638
F8.445828745694756e-05
sVstimulate
p1639
F0.0
sVgreek
p1640
F0.0
sVgreen
p1641
F2.1024568829423374e-05
sVambulance
p1642
F0.0
sVfan
p1643
F1.332181162306981e-05
sVorder
p1644
F8.40982753176935e-05
sVpdoc
p1645
F0.0
sVsublingually
p1646
F0.0
sVoffice
p1647
F0.00010657449298455848
sVmuffin
p1648
F6.88727669746134e-05
sVscrap
p1649
F0.0
sVchronically
p1650
F0.0
sVpsoriatic
p1651
F0.0
sVsomnolence
p1652
F0.0
sVsomewhere
p1653
F7.013484217050373e-05
sVrecreational
p1654
F0.00017218191743653352
sVavocado
p1655
F6.88727669746134e-05
sVproduction
p1656
F0.0002754910678984536
sVacupuncture
p1657
F0.0
sVprecipitate
p1658
F0.0
sVversus
p1659
F8.445828745694756e-05
sVeventually
p1660
F0.0009297823541572808
sVcoffee
p1661
F0.0002956040060993165
sVremission
p1662
F0.0
sVsafe
p1663
F0.00018650536272297736
sVsleepiness
p1664
F0.0
sVbreak
p1665
F0.0006756662996555805
sVband
p1666
F2.111457186423689e-05
sVroommate
p1667
F3.44363834873067e-05
sVshameful
p1668
F0.0
sVrocky
p1669
F3.44363834873067e-05
sVoxygen
p1670
F3.44363834873067e-05
sVreasonably
p1671
F3.44363834873067e-05
sVl
p1672
F3.996543486920943e-05
sVreasonable
p1673
F0.00010557285932118447
sVcetirizine
p1674
F0.0
sVaumentando
p1675
F0.0
sVnetwork
p1676
F6.88727669746134e-05
sVforty
p1677
F2.111457186423689e-05
sVmedicine
p1678
F0.002031746625751095
sVforth
p1679
F2.3378280723501244e-05
sVbarrier
p1680
F4.222914372847378e-05
sVstandard
p1681
F0.00010657449298455848
sVlollipop
p1682
F3.44363834873067e-05
sVbiologics
p1683
F0.0
sVrenew
p1684
F0.0
sVoppose
p1685
F0.0
sVorganize
p1686
F3.44363834873067e-05
sVanother
p1687
F0.00034690538568548566
sVthoughtfully
p1688
F0.0
sVthick
p1689
F2.664362324613962e-05
sVtangle
p1690
F3.44363834873067e-05
sVphych
p1691
F0.0
sVillustrate
p1692
F6.88727669746134e-05
sVapproximately
p1693
F0.0
sVpalpitation
p1694
F0.0
sVcompromise
p1695
F2.111457186423689e-05
sVjohn
p1696
F0.0
sVvicoprofen
p1697
F0.0
sVintestine
p1698
F0.0
sVhappily
p1699
F3.44363834873067e-05
sVavanza
p1700
F0.0
sVcereal
p1701
F3.44363834873067e-05
sVnahh
p1702
F0.0
sVsuuuucks
p1703
F0.0
sVtarget
p1704
F0.0001377455339492268
sVhike
p1705
F0.0
sVebay
p1706
F3.44363834873067e-05
sV5mg
p1707
F0.0
sViron
p1708
F6.88727669746134e-05
sVnavigate
p1709
F3.44363834873067e-05
sVpessimism
p1710
F0.0
sVmanner
p1711
F3.996543486920943e-05
sVstomach
p1712
F0.00033783314982779026
sVstrength
p1713
F2.664362324613962e-05
sVrealm
p1714
F6.334371559271068e-05
sVlatter
p1715
F0.00017218191743653352
sValopecia
p1716
F0.0
sVluxury
p1717
F0.0
sVtransmit
p1718
F0.0
sVfinagle
p1719
F0.0
sVacquire
p1720
F0.0
sVmethylphenidate
p1721
F0.0
sVprohibitive
p1722
F0.0
sVphase
p1723
F0.00017218191743653352
sVprovera
p1724
F0.0
sVcentros
p1725
F0.0
sVmyfitnesspal
p1726
F0.0
sVresponder
p1727
F0.0
sVpaintballed
p1728
F0.0
sVaunt
p1729
F0.0
sVsun
p1730
F4.675656144700249e-05
sVnotion
p1731
F2.111457186423689e-05
sVreserve
p1732
F3.44363834873067e-05
sVzeldox
p1733
F0.0
sVovarian
p1734
F0.0
sVdopey
p1735
F0.0
sVnephew
p1736
F0.0
sVd2
p1737
F0.0
sVtoast
p1738
F1.332181162306981e-05
sVpainfully
p1739
F3.44363834873067e-05
sVguidance
p1740
F0.0
sVlayman
p1741
F0.0
sVadequate
p1742
F0.0
sVpersonality
p1743
F4.222914372847378e-05
sVdo
p1744
F0.00018922111946481036
sVdistribute
p1745
F3.44363834873067e-05
sVde
p1746
F2.452866363432727e-05
sVda
p1747
F2.111457186423689e-05
sVdx
p1748
F0.0
sVvividly
p1749
F0.0
sVdu
p1750
F3.44363834873067e-05
sVdr
p1751
F0.0008609095871826675
sVdp
p1752
F0.0
sVpeyton
p1753
F0.0
sVemg
p1754
F0.0
sVdiabex
p1755
F0.0
sVbpii
p1756
F0.0
sVdvk80
p1757
F0.0
sVpsych
p1758
F0.0
sVsteal
p1759
F5.328724649227924e-05
sVnortryptaline
p1760
F0.0
sVerroneous
p1761
F0.0
sVreread
p1762
F0.0
sVhorrendous
p1763
F0.0001033091504619201
sVmiserable
p1764
F0.0002322602905066058
sVgrimoire
p1765
F0.0
sVaway
p1766
F0.0
sVafloat
p1767
F0.0
sVgentleman
p1768
F1.332181162306981e-05
sVimipramine
p1769
F0.0
sVbien
p1770
F0.0
sVunable
p1771
F0.00021114571864236893
sVdrawl
p1772
F0.0
sVaccord
p1773
F0.0
sVwd
p1774
F0.0
sVhandful
p1775
F0.0
sVunfold
p1776
F3.44363834873067e-05
sVnegatively
p1777
F0.0002066183009238402
sVcop
p1778
F0.00012668743118542135
sVclimate
p1779
F3.44363834873067e-05
sVcox
p1780
F0.0
sVill
p1781
F6.660905811534905e-05
sVcon
p1782
F0.0
sVtough
p1783
F0.00010657449298455848
sV81280
p1784
F0.0
sVseizure
p1785
F0.0
sVabilify
p1786
F0.0
sVrefill
p1787
F0.0004476729853349871
sVspeak
p1788
F0.000591208012198633
sVpetty
p1789
F0.0
sVaminotransferase
p1790
F0.0
sVvlif7qw
p1791
F0.0
sVflexible
p1792
F2.111457186423689e-05
sVhospitalization
p1793
F0.0
sVcarbamazepine
p1794
F0.0
sVfest
p1795
F3.44363834873067e-05
sVbuprenorphine
p1796
F0.0
sVphysician
p1797
F0.0
sVinhibit
p1798
F0.0
sV800cal
p1799
F0.0
sVair
p1800
F3.117104096466832e-05
sVaim
p1801
F4.222914372847378e-05
sVain
p1802
F2.664362324613962e-05
sVaid
p1803
F0.0
sVproperty
p1804
F6.234208192933664e-05
sVmistake
p1805
F1.558552048233416e-05
sVstink
p1806
F3.44363834873067e-05
sVelectrostimulation
p1807
F0.0
sVsting
p1808
F3.44363834873067e-05
sVtissue
p1809
F3.44363834873067e-05
sVbrake
p1810
F0.0
sVpsiquicamente
p1811
F0.0
sVgrandiose
p1812
F0.0
sVperform
p1813
F1.332181162306981e-05
sVincorrectly
p1814
F3.44363834873067e-05
sVindictment
p1815
F0.0
sVwheel
p1816
F1.332181162306981e-05
sVindependent
p1817
F2.111457186423689e-05
sVnih
p1818
F0.0
sVswell
p1819
F0.0
sVhang
p1820
F6.234208192933664e-05
sVevil
p1821
F6.660905811534905e-05
sVhand
p1822
F0.0
sVfuse
p1823
F0.0
sVzaleplon
p1824
F0.0
sVpharmateutical
p1825
F0.0
sVscenario
p1826
F0.0
sVmirtazipine
p1827
F0.0
sVmin
p1828
F0.00024105468441114694
sVdris
p1829
F0.0
sVtho
p1830
F6.88727669746134e-05
sVhispanic
p1831
F0.0
sVcontact
p1832
F7.993086973841886e-05
sVnorco
p1833
F0.0
sVprescriber
p1834
F0.0
sVendometriosis
p1835
F0.0
sVtha
p1836
F2.111457186423689e-05
sVstringent
p1837
F0.0
sVfarther
p1838
F3.44363834873067e-05
sVnonmatter
p1839
F0.0
sVgoda
p1840
F0.0
sVhallow
p1841
F0.0
sVthyroid
p1842
F0.0
sVfamily
p1843
F0.0004662634068074434
sVinterweave
p1844
F0.0
sVsubutex
p1845
F0.0
sVpassive
p1846
F0.0
sVspread
p1847
F0.0001033091504619201
sVboard
p1848
F6.660905811534905e-05
sVmarginal
p1849
F0.0
sVplasma
p1850
F3.44363834873067e-05
sVmayo
p1851
F0.0
sVrnp
p1852
F0.0
sVdisadvantage
p1853
F0.0
sVrosacea
p1854
F0.0
sVbpd
p1855
F0.0
sVunfortunatly
p1856
F0.0
sVnight
p1857
F0.00019973340387952204
sVinvaluable
p1858
F0.0
sVsecurity
p1859
F1.332181162306981e-05
sVflatten
p1860
F0.0
sVspitballing
p1861
F0.0
sVhumor
p1862
F3.44363834873067e-05
sVadorable
p1863
F3.44363834873067e-05
sVplz
p1864
F0.0
sVpeer
p1865
F4.222914372847378e-05
sVpost
p1866
F0.0006545517277913436
sVnexiam
p1867
F0.0
sVhorizon
p1868
F3.44363834873067e-05
sVmalachi_said_so
p1869
F0.0
sVdilemma
p1870
F0.0
sVfloat
p1871
F0.00010557285932118447
sVprofession
p1872
F0.0
sVbback
p1873
F0.0
sVole
p1874
F6.88727669746134e-05
sVplzbixsjmbc8efl6ux5_wwgp8i0mas
p1875
F0.0
sVadvair
p1876
F0.0
sVfight
p1877
F0.0001198963046076283
sVclinical
p1878
F0.0
sVway
p1879
F0.00047655689346692983
sVwax
p1880
F1.332181162306981e-05
sVwar
p1881
F2.111457186423689e-05
sVantianxiety
p1882
F0.0
sVlowest
p1883
F0.00017218191743653352
sVpharmaceautical
p1884
F0.0
sVforgetful
p1885
F0.0
sVsomehow
p1886
F2.664362324613962e-05
sVdesipramine
p1887
F0.0
sVelderly
p1888
F3.44363834873067e-05
sVtrue
p1889
F0.00012468416385867328
sVreset
p1890
F3.44363834873067e-05
sVabsent
p1891
F2.664362324613962e-05
sVbraver
p1892
F0.0
sVmaximum
p1893
F0.0002066183009238402
sVcrystal
p1894
F6.88727669746134e-05
sVemotional
p1895
F0.0007920368202080541
sVlatuda
p1896
F0.0
sVmedication
p1897
F0.004304547935913337
sVreligiously
p1898
F0.0
sVopportunistic
p1899
F0.0
sVevidence
p1900
F0.0002322602905066058
sVexpertise
p1901
F0.0
sVprayer
p1902
F0.0
sVarchive
p1903
F3.44363834873067e-05
sVphysical
p1904
F0.0
sVrehabilitaci
p1905
F0.0
sVnewhealthguide
p1906
F0.0
sVreality
p1907
F0.0001377455339492268
sVevasive
p1908
F0.0
sVtest
p1909
F0.0005861597114150717
sVshrink
p1910
F6.334371559271068e-05
sVwelcome
p1911
F1.0512284414711687e-05
sVupdate
p1912
F3.44363834873067e-05
sVomega
p1913
F0.0
sVinterval
p1914
F0.0
sVtogether
p1915
F0.0
sVramification
p1916
F0.0
sVstick
p1917
F0.0004645205810132116
sVconcept
p1918
F6.88727669746134e-05
sVdance
p1919
F1.332181162306981e-05
sVsupplement
p1920
F0.0
sVdaytime
p1921
F0.0001033091504619201
sVgrateful
p1922
F0.0
sVbattle
p1923
F0.00017218191743653352
sVsuperpower
p1924
F0.0
sVcertainly
p1925
F8.572036265283788e-05
sVzone
p1926
F1.332181162306981e-05
sVmallet
p1927
F0.0
sVgraph
p1928
F3.44363834873067e-05
sVflash
p1929
F0.00012668743118542135
sVfreatures
p1930
F0.0
sVcompensate
p1931
F0.0
sVpermanently
p1932
F6.88727669746134e-05
sV50lbs
p1933
F0.0
sVrhythm
p1934
F3.44363834873067e-05
sVterror
p1935
F0.0
sVisotretinion
p1936
F0.0
sVbrown
p1937
F5.328724649227924e-05
sVincapacitate
p1938
F0.0
sVseemingly
p1939
F6.88727669746134e-05
sVtrouble
p1940
F4.555323246375064e-05
sVblast
p1941
F2.111457186423689e-05
sVaggressively
p1942
F0.0
sVtrifecta
p1943
F0.0
sVfragile
p1944
F3.44363834873067e-05
sVgum
p1945
F6.88727669746134e-05
sVp
p1946
F9.325268136148868e-05
sVsoooo
p1947
F0.0001033091504619201
sVbalacing
p1948
F0.0
sVmoclobemide
p1949
F0.0
sVguy
p1950
F0.00019982717434604714
sVdisqualify
p1951
F0.0
sVdiarrhoea
p1952
F0.0
sVupper
p1953
F0.00024105468441114694
sVbrave
p1954
F1.332181162306981e-05
sVregret
p1955
F0.00010557285932118447
sVhtm
p1956
F0.0001377455339492268
sVrepetitive
p1957
F0.0
sVdiscover
p1958
F4.222914372847378e-05
sVagitate
p1959
F0.0
sVhth
p1960
F0.0
sVtetracyclics
p1961
F0.0
sVcost
p1962
F0.00019982717434604714
sVneuropsychiatry
p1963
F0.0
sVhelpless
p1964
F0.0
sVdadul
p1965
F0.0
sVbfrds
p1966
F0.0
sVsharey
p1967
F0.0
sVappear
p1968
F6.334371559271068e-05
sVassistance
p1969
F0.0
sVthicker
p1970
F6.88727669746134e-05
sVappeal
p1971
F6.88727669746134e-05
sValertness
p1972
F0.0
sVsatisfy
p1973
F0.0
sVunsure
p1974
F0.0
sVteacher
p1975
F3.44363834873067e-05
sVchange
p1976
F0.0011856412344532132
sVbuck
p1977
F3.44363834873067e-05
sVekg
p1978
F0.0
sVtrial
p1979
F0.00044340600914897474
sVjaw
p1980
F6.334371559271068e-05
sVusually
p1981
F0.0006794123927765603
sVmirtazapine
p1982
F0.0
sVpillow
p1983
F6.88727669746134e-05
sVpancreatitis
p1984
F0.0
sVregardless
p1985
F0.0002754910678984536
sVextra
p1986
F0.0001198963046076283
sVsincerely
p1987
F0.0
sVrarely
p1988
F0.0
sVinositol
p1989
F0.0
sVmarket
p1990
F0.00021114571864236893
sVjan
p1991
F0.0
sVprove
p1992
F0.0
sVlive
p1993
F0.0001541801714157714
sVwonderfully
p1994
F0.0
sVtompamax
p1995
F0.0
sVclub
p1996
F6.88727669746134e-05
sVsymptomatic
p1997
F0.0
sVclue
p1998
F4.222914372847378e-05
sVactivvating
p1999
F0.0
sVgraphic
p2000
F3.44363834873067e-05
sVcar
p2001
F5.328724649227924e-05
sVcap
p2002
F3.44363834873067e-05
sVcat
p2003
F6.334371559271068e-05
sVhardest
p2004
F3.44363834873067e-05
sVcan
p2005
F7.008189609807791e-06
sVtrans
p2006
F4.222914372847378e-05
sVheart
p2007
F0.00033304529057674525
sVsupplementnootropic
p2008
F0.0
sVdecember
p2009
F0.0
sVtopic
p2010
F0.00014780200304965826
sVrefine
p2011
F0.0
sVcardio
p2012
F0.0
sVoccur
p2013
F0.0002754910678984536
sVasociated
p2014
F0.0
sVdantrolene
p2015
F0.0
sVproductive
p2016
F6.88727669746134e-05
sVdialysis
p2017
F3.44363834873067e-05
sVfortunately
p2018
F0.0
sVdiscussion
p2019
F2.111457186423689e-05
sVfreezer
p2020
F4.222914372847378e-05
sVwrite
p2021
F0.00013247692409984037
sVlobe
p2022
F0.0
sVcriterion
p2023
F0.0
sVnonstop
p2024
F6.88727669746134e-05
sVdeteriorate
p2025
F0.0
sVproduct
p2026
F4.222914372847378e-05
sVescalate
p2027
F0.0
sVtorsades
p2028
F0.0
sVdive
p2029
F3.44363834873067e-05
sVsouthern
p2030
F3.44363834873067e-05
sVwiggly
p2031
F0.0
sVproduce
p2032
F0.00021114571864236893
sVendgame
p2033
F0.0
sVcompatibility
p2034
F6.88727669746134e-05
sVremember
p2035
F0.0001541801714157714
sVwhenever
p2036
F0.00010557285932118447
sVturkeyed
p2037
F0.0
sVcrumple
p2038
F0.0
sVobgyn
p2039
F0.0
sVtypical
p2040
F0.00010557285932118447
sVapprox
p2041
F3.44363834873067e-05
sVendep
p2042
F0.0
sVindeed
p2043
F3.996543486920943e-05
sVcounsellor
p2044
F0.0
sVbrain
p2045
F0.002158133482937309
sVthinner
p2046
F2.111457186423689e-05
sVpolycystic
p2047
F0.0
sVcold
p2048
F0.0006394469579073509
sVstill
p2049
F0.0
sVethic
p2050
F0.0
sVacknowledge
p2051
F0.0
sVwindow
p2052
F7.79276024116708e-06
sVnon
p2053
F0.0001611883610255792
sVundiagnosed
p2054
F0.0
sVnod
p2055
F6.88727669746134e-05
sVnoe
p2056
F0.0
sVintroduce
p2057
F0.0001377455339492268
sVadrenaline
p2058
F0.0
sVhalf
p2059
F0.00012264331817163636
sVrecap
p2060
F3.44363834873067e-05
sVnov
p2061
F0.0
sVhalo
p2062
F0.0
sVwont
p2063
F3.44363834873067e-05
sVsusceptibility
p2064
F0.0
sVorgan
p2065
F0.0001377455339492268
sVjanuary
p2066
F0.0
sVdrop
p2067
F0.0003863325370690245
sVconcerta
p2068
F0.0
sVh
p2069
F2.664362324613962e-05
sVentirely
p2070
F0.00010909864337633913
sVaspergers
p2071
F0.0
sVem
p2072
F2.3378280723501244e-05
sVel
p2073
F0.0004132366018476804
sVen
p2074
F0.00016891657491389513
sVsignificantly
p2075
F0.0
sVed
p2076
F6.334371559271068e-05
sVea
p2077
F0.0
sVyeah
p2078
F0.0008023537308410019
sVgoose
p2079
F0.0
sVwrap
p2080
F2.664362324613962e-05
sVex
p2081
F6.334371559271068e-05
sVyear
p2082
F0.0010161874934221298
sVokay
p2083
F0.0006123225840628699
sVhappen
p2084
F0.0006234208192933665
sVamusement
p2085
F0.0
sVer
p2086
F0.0001465399278537679
sVaccomplish
p2087
F0.0
sVspace
p2088
F6.334371559271068e-05
sVfurthermore
p2089
F3.44363834873067e-05
sVtingly
p2090
F0.0
sVincrease
p2091
F0.001963655183374031
sVopener
p2092
F3.44363834873067e-05
sVrational
p2093
F0.0
sVshithead
p2094
F3.44363834873067e-05
sVscrew
p2095
F0.00014780200304965826
sVcart
p2096
F2.111457186423689e-05
sVdiagnostic
p2097
F0.0
sVargh
p2098
F0.0
sVunwanted
p2099
F0.00017218191743653352
sVcarb
p2100
F2.111457186423689e-05
sVobligation
p2101
F6.88727669746134e-05
sVrls
p2102
F0.0
sVcare
p2103
F0.001182416024397266
sVcouldn
p2104
F0.00028053936868201494
sVdeprivation
p2105
F0.0
sVtransition
p2106
F0.00016891657491389513
sVantidepressnats
p2107
F0.0
sVhonest
p2108
F0.0001465399278537679
sVdisable
p2109
F6.88727669746134e-05
sVpromotion
p2110
F3.44363834873067e-05
sVsuffice
p2111
F3.44363834873067e-05
sVduloxeotine
p2112
F0.0
sVblind
p2113
F8.445828745694756e-05
sVxd
p2114
F0.0
sVdirectly
p2115
F5.328724649227924e-05
sVxr
p2116
F0.0
sVimpossible
p2117
F0.0002533748623708427
sVring
p2118
F6.334371559271068e-05
sVtomorrow
p2119
F0.0002066183009238402
sVzap
p2120
F0.001721819174365335
sVprintillex
p2121
F0.0
sVremotely
p2122
F2.111457186423689e-05
sVfriend
p2123
F0.00012264331817163636
sVajustar
p2124
F0.0
sVmostly
p2125
F0.0003596889138228848
sVx2
p2126
F0.0
sVuracil
p2127
F0.0
sVpng
p2128
F6.88727669746134e-05
sVcrack
p2129
F4.222914372847378e-05
sVovertire
p2130
F0.0
sVrecruit
p2131
F0.0
sVmagnesium
p2132
F0.0
sVdecompose
p2133
F0.0
sVdemotivation
p2134
F0.0
sVslap
p2135
F3.44363834873067e-05
sVinpatient
p2136
F0.0
sVanger
p2137
F0.0002322602905066058
sVbreakfast
p2138
F8.445828745694756e-05
sVrecover
p2139
F6.660905811534905e-05
sVgambapintine
p2140
F0.0
sVonline
p2141
F0.00019003114677813203
sVobjective
p2142
F0.0
sVwch
p2143
F0.0
sVimpairment
p2144
F0.0
sVbutalbital
p2145
F0.0
sVbegin
p2146
F0.00033304529057674525
sVstrattera
p2147
F0.0
sVoppressive
p2148
F0.0
sVprice
p2149
F0.0001198963046076283
sVshitter
p2150
F0.0
sVforever
p2151
F0.0002322602905066058
sVegg
p2152
F0.00017218191743653352
sVsteady
p2153
F0.0
sVmri
p2154
F0.0
sVprofessional
p2155
F0.00021114571864236893
sVtypically
p2156
F0.0005509821357969072
sVagoinst
p2157
F0.0
sVfifth
p2158
F3.44363834873067e-05
sVground
p2159
F1.332181162306981e-05
sVsnack
p2160
F6.88727669746134e-05
sVratio
p2161
F3.44363834873067e-05
sVstair
p2162
F0.0
sVtitle
p2163
F6.334371559271068e-05
sVproportion
p2164
F0.0
sVjolt
p2165
F0.0
sValcoholism
p2166
F6.88727669746134e-05
sVsooo
p2167
F6.88727669746134e-05
sVroutine
p2168
F0.00012668743118542135
sVtruly
p2169
F0.00014780200304965826
sVcannot
p2170
F0.00015585520482334163
sVseldom
p2171
F3.44363834873067e-05
sVhusband
p2172
F0.0006756662996555805
sVconcert
p2173
F3.44363834873067e-05
sVcontac
p2174
F0.0
sVburst
p2175
F4.222914372847378e-05
sVphysically
p2176
F0.0004476729853349871
sVnamely
p2177
F0.0
sVactively
p2178
F0.0
sVasleep
p2179
F0.00016891657491389513
sVsport
p2180
F2.111457186423689e-05
sVconcern
p2181
F0.0009642187376445877
sV3
p2182
F0.0008416181060460447
sVherbal
p2183
F6.88727669746134e-05
sVunprescribed
p2184
F0.0
sVnotice
p2185
F0.00031171040964668326
sVblame
p2186
F6.660905811534905e-05
sVarticle
p2187
F1.332181162306981e-05
sVhurty
p2188
F0.0
sVsignifigant
p2189
F0.0
sVmono
p2190
F0.0001033091504619201
sVmoreso
p2191
F0.0
sVndri
p2192
F0.0
sVsusceptible
p2193
F0.0
sVnewfound
p2194
F3.44363834873067e-05
sVnoopept
p2195
F0.0
sVnearby
p2196
F2.111457186423689e-05
sVmadness
p2197
F0.0
sVexploit
p2198
F3.44363834873067e-05
sVmoreover
p2199
F0.0
sVneurogenesis
p2200
F0.0
sV18mg
p2201
F0.0
sVmarkedly
p2202
F0.0
sVexhaustion
p2203
F0.0001033091504619201
sValiquot
p2204
F0.0
sVcystitis
p2205
F0.0
sVexternal
p2206
F2.111457186423689e-05
sVfoggy
p2207
F0.0001033091504619201
sV1mg
p2208
F0.0
sVmight
p2209
F0.00042399547139337137
sValter
p2210
F0.0
sVtrick
p2211
F7.993086973841886e-05
sVtrich
p2212
F0.0
sVoligopoly
p2213
F0.0
sVmetric
p2214
F3.44363834873067e-05
sVworry
p2215
F0.00021040452651151117
sVdevelop
p2216
F0.0005278642966059223
sVassure
p2217
F3.44363834873067e-05
sVinquire
p2218
F3.44363834873067e-05
sVpester
p2219
F0.0
sVfood
p2220
F0.000288332128923182
sVcoworkers
p2221
F3.44363834873067e-05
sVfinish
p2222
F6.660905811534905e-05
sVclosest
p2223
F4.222914372847378e-05
sVenjoyment
p2224
F0.0
sVcymbal
p2225
F0.0
sVfruit
p2226
F4.675656144700249e-05
sVanecdotal
p2227
F0.0
sVvalidate
p2228
F0.0
sVmentally
p2229
F0.0004132366018476804
sVsevere
p2230
F0.0010134994494833708
sVcomplainer
p2231
F0.0
sVotherwise
p2232
F0.0002397926092152566
sVescitalopram
p2233
F0.0
sVknowledgeable
p2234
F0.0
sVinflammatory
p2235
F0.0
sVtouch
p2236
F0.00010909864337633913
sVspeed
p2237
F1.4016379219615581e-05
sVhomeostasis
p2238
F0.0
sVdeath
p2239
F0.00019982717434604714
sVlegitimately
p2240
F0.0
sVdopaminergic
p2241
F0.0
sVimprovement
p2242
F0.0004645205810132116
sVverse
p2243
F0.0
sVtreatment
p2244
F0.002617165145035309
sVversa
p2245
F0.0001033091504619201
sVreal
p2246
F0.0
sVhover
p2247
F3.44363834873067e-05
sVspectacular
p2248
F0.0
sVohai
p2249
F0.0
sVread
p2250
F0.0003740524915760199
sVpsc
p2251
F0.0
sVpsilocin
p2252
F0.0
sVsplenda
p2253
F0.0
sVgonna
p2254
F0.0001465399278537679
sVbuspirone
p2255
F0.0
sVtingle
p2256
F0.0
sVpolitely
p2257
F3.44363834873067e-05
sVlady
p2258
F6.234208192933664e-05
sVtegretol
p2259
F0.0
sVpostcard
p2260
F0.0
sVmiracle
p2261
F0.0
sVbenefit
p2262
F0.0014463281064668815
sVie
p2263
F3.44363834873067e-05
sVoverbooked
p2264
F0.0
sVtwelve
p2265
F3.44363834873067e-05
sVduration
p2266
F0.0
sVanxeity
p2267
F0.0
sVbless
p2268
F4.222914372847378e-05
sVkaiser
p2269
F0.0
sVdebacle
p2270
F0.0
sVbusiness
p2271
F7.008189609807791e-06
sVasap
p2272
F0.0
sVthrob
p2273
F0.0001033091504619201
sVsixty
p2274
F0.0
sVsadder
p2275
F0.0
sVthrow
p2276
F0.0002956040060993165
sVcomparison
p2277
F4.222914372847378e-05
sVhiatus
p2278
F0.0
sVchop
p2279
F3.44363834873067e-05
sVbenzos
p2280
F0.0
sVwolf
p2281
F0.0
sVgreatly
p2282
F0.0001033091504619201
sVbackup
p2283
F6.88727669746134e-05
sVoutlook
p2284
F0.00010557285932118447
sVvariable
p2285
F4.222914372847378e-05
sVbedtime
p2286
F0.0
sVintervention
p2287
F3.44363834873067e-05
sVstare
p2288
F3.44363834873067e-05
sVlog
p2289
F0.00024105468441114694
sVprepare
p2290
F0.0003099274513857603
sVarea
p2291
F2.8032758439231163e-05
sVaren
p2292
F0.00011913922336673246
sVlon
p2293
F0.0
sVlol
p2294
F0.0005854185192842139
sVlos
p2295
F0.0
sVlow
p2296
F0.00038184525181718696
sVlot
p2297
F0.0
sVallergic
p2298
F0.00024105468441114694
sVpitcher
p2299
F0.0
sVmanipulative
p2300
F0.0
sVhire
p2301
F3.44363834873067e-05
sVstanford
p2302
F0.0
sVsadness
p2303
F0.0
sVoverpay
p2304
F0.0
sVloneliness
p2305
F0.0
sVtrigeminal
p2306
F0.0
sV600
p2307
F4.222914372847378e-05
sVlofstrand
p2308
F0.0
sVdescribe
p2309
F0.0003589477216920272
sV1200
p2310
F0.0
sV225mg
p2311
F0.0
sVsheath
p2312
F0.0001377455339492268
sVhazyness
p2313
F0.0
sVdeprogram
p2314
F0.0
sVabsurdity
p2315
F0.0
sVselfishly
p2316
F3.44363834873067e-05
sVstorage
p2317
F3.44363834873067e-05
sVpoor
p2318
F1.4016379219615581e-05
sVpolar
p2319
F0.00017218191743653352
sVpoop
p2320
F0.0001033091504619201
sVtime
p2321
F0.0
sVdrift
p2322
F0.0
sVcuerpo
p2323
F0.0
sVvertigo
p2324
F0.0001377455339492268
sVpoof
p2325
F0.0
sVpeak
p2326
F6.334371559271068e-05
sVcoverage
p2327
F0.0
sVpool
p2328
F3.44363834873067e-05
sVhealty
p2329
F0.0
sVcrimefest
p2330
F0.0
sVunbind
p2331
F0.0
sVinevitability
p2332
F0.0
sVapathy
p2333
F3.44363834873067e-05
sVpticos
p2334
F0.0
sVskeleton
p2335
F1.332181162306981e-05
sVmetaphor
p2336
F0.0001033091504619201
sVmonth
p2337
F0.0016520651711274211
sVthoughtful
p2338
F6.88727669746134e-05
sVviability
p2339
F0.0
sVreligious
p2340
F4.222914372847378e-05
sV15lbs
p2341
F0.0
sVhabla
p2342
F0.0
sVinsulate
p2343
F0.0
sVsafety
p2344
F2.111457186423689e-05
sVpatently
p2345
F0.0
sVhorror
p2346
F0.00024105468441114694
sVhepatocellular
p2347
F0.0
sVdecide
p2348
F0.0008234683027052387
sVheaven
p2349
F2.111457186423689e-05
sVdeficient
p2350
F0.0
sVmanager
p2351
F2.111457186423689e-05
sVmenos
p2352
F0.0
sVsedation
p2353
F0.0
sVblackout
p2354
F0.0
sVfence
p2355
F2.111457186423689e-05
sVstigmatize
p2356
F0.0
sVunheard
p2357
F0.0
sVfrontal
p2358
F0.00010557285932118447
sVorgasm
p2359
F0.0005509821357969072
sVcasual
p2360
F2.111457186423689e-05
sVchuckle
p2361
F0.0
sVinduce
p2362
F0.0
sVaricept
p2363
F0.0
sVblindside
p2364
F0.0
sVefexxor
p2365
F0.0
sVloose
p2366
F0.0001198963046076283
sVmodify
p2367
F0.0003099274513857603
sVselective
p2368
F0.0
sVyummy
p2369
F3.44363834873067e-05
sVstrong
p2370
F0.00021314898596911695
sVrespect
p2371
F6.660905811534905e-05
sVarena
p2372
F0.0
sVdeductible
p2373
F0.0
sVahead
p2374
F6.660905811534905e-05
sVmdma
p2375
F0.0
sVvegetarian
p2376
F2.111457186423689e-05
sVthursday
p2377
F0.0
sVwhine
p2378
F0.0
sVshiznit
p2379
F0.0
sVamount
p2380
F0.0004262979719382339
sVheroin
p2381
F0.00017218191743653352
sVarent
p2382
F3.44363834873067e-05
sVheartbroken
p2383
F0.0
sVlurker
p2384
F0.0
sVtoughness
p2385
F0.0
sVjra
p2386
F0.0
sVfather
p2387
F7.993086973841886e-05
sVsleeeeepy
p2388
F0.0
sVput
p2389
F0.0003434012908805818
sVeldepryl
p2390
F0.0
sVnauseam
p2391
F0.0
sVconventional
p2392
F3.44363834873067e-05
sV0
p2393
F0.00012668743118542135
sVrevelation
p2394
F3.44363834873067e-05
sVprilosec
p2395
F0.0
sVinjury
p2396
F0.00017218191743653352
sVoutpatient
p2397
F0.0
sVsurprisingly
p2398
F3.44363834873067e-05
sVexcuse
p2399
F9.325268136148868e-05
sVimpulse
p2400
F6.88727669746134e-05
sVomniscience
p2401
F0.0
sVnine
p2402
F7.79276024116708e-06
sVtitrate
p2403
F0.0
sVhistory
p2404
F0.0001465399278537679
sVpusher
p2405
F0.0
sVptata
p2406
F0.0
sVreject
p2407
F3.44363834873067e-05
sViproniazid
p2408
F0.0
sVgash
p2409
F0.0
sVfr
p2410
F6.88727669746134e-05
sVrude
p2411
F3.44363834873067e-05
sVoverprescribing
p2412
F0.0
sVreuptake
p2413
F0.0
sVidiocy
p2414
F0.0
sVfi
p2415
F3.44363834873067e-05
sVfm
p2416
F0.0
sVmorphine
p2417
F0.0001377455339492268
sVzyprexa
p2418
F0.0
sVovernight
p2419
F3.44363834873067e-05
sVanytime
p2420
F0.0001377455339492268
sVbready
p2421
F3.44363834873067e-05
sVego
p2422
F0.0
sVdread
p2423
F0.0
sVdream
p2424
F0.0005278642966059223
sVfeed
p2425
F4.222914372847378e-05
sVhelp
p2426
F0.0014331747752056934
sVslouch
p2427
F0.0
sVurine
p2428
F3.44363834873067e-05
sVsoon
p2429
F8.760237012259739e-05
sVhell
p2430
F0.000559516088168932
sVoldschool
p2431
F0.0
sVoverhead
p2432
F2.111457186423689e-05
sVactually
p2433
F0.0003223767220511584
sVabsence
p2434
F0.0
sVadrs
p2435
F0.0
sVyo
p2436
F2.111457186423689e-05
sVya
p2437
F0.00010557285932118447
sV2yrs
p2438
F0.0
sVbuy_this_book_stahls_illustrated_adhd_reviewed_by
p2439
F0.0
sVvomit
p2440
F0.0003099274513857603
sVstarbucks
p2441
F0.0
sVdosulepin
p2442
F0.0
sVfoot
p2443
F0.00010657449298455848
sVyr
p2444
F0.0001377455339492268
sVdesperately
p2445
F2.111457186423689e-05
sVfully
p2446
F6.234208192933664e-05
sVcapability
p2447
F0.0
sVheavy
p2448
F7.792760241167081e-05
sVrestless
p2449
F0.0
sVtighten
p2450
F0.0
sVtherepy
p2451
F0.0
sVbland
p2452
F0.0
sVbeyond
p2453
F3.5040948049038955e-05
sVtodo
p2454
F0.0
sVevent
p2455
F0.0001465399278537679
sVtryciclic
p2456
F0.0
sVamaryl
p2457
F0.0
sVsince
p2458
F0.0004905732726865454
sVpublish
p2459
F0.0
sVsustain
p2460
F0.0
sV7
p2461
F0.00019481900602917701
sVissue
p2462
F0.0014387556552915392
sVdrink
p2463
F0.00018571702465990648
sVbass
p2464
F2.111457186423689e-05
sVtimeline
p2465
F0.0
sVribose
p2466
F0.0
sVpub
p2467
F0.0001033091504619201
sVreason
p2468
F0.000483151134952359
sVbase
p2469
F0.00014806244458217453
sVwellbutin
p2470
F0.0
sVask
p2471
F0.0003679299545149091
sVpup
p2472
F0.0
sVbash
p2473
F3.44363834873067e-05
sVterrible
p2474
F0.0002397926092152566
sVterribly
p2475
F2.111457186423689e-05
sVamerican
p2476
F0.0
sVheartbeat
p2477
F0.0001033091504619201
sVblush
p2478
F3.44363834873067e-05
sVmerry
p2479
F0.0
sVchronicpain
p2480
F0.0
sVprobability
p2481
F0.0
sVmisc
p2482
F3.44363834873067e-05
sVelder
p2483
F0.0
sVunexpected
p2484
F3.44363834873067e-05
sVgpc
p2485
F0.0
sVmiss
p2486
F0.00015768426622067528
sVpropranolol
p2487
F0.0
sVhorse
p2488
F6.660905811534905e-05
sVwonderful
p2489
F0.00010657449298455848
sVhundred
p2490
F1.558552048233416e-05
sVbanana
p2491
F1.332181162306981e-05
sVbowel
p2492
F0.0
sVbasal
p2493
F0.0
sVnco
p2494
F0.0
sVsign
p2495
F5.2561422073558436e-05
sVstd
p2496
F3.44363834873067e-05
sVgrocery
p2497
F0.00017218191743653352
sVvalporic
p2498
F0.0
sVanticipate
p2499
F0.0
sVintuniv
p2500
F0.0
sVgrey
p2501
F6.334371559271068e-05
sVgrogginess
p2502
F0.0
sVcysteine
p2503
F0.0
sVtoward
p2504
F4.222914372847378e-05
sV70mg
p2505
F0.0
sVtofranil
p2506
F0.0
sVphobia
p2507
F3.44363834873067e-05
sVwasnt
p2508
F0.0
sVheaviest
p2509
F0.0
sVoverstate
p2510
F0.0
sVrandomly
p2511
F0.00024105468441114694
sVjuice
p2512
F6.334371559271068e-05
sVsubstantial
p2513
F6.88727669746134e-05
sVconcentration
p2514
F6.334371559271068e-05
sVvulnerable
p2515
F3.44363834873067e-05
sVlie
p2516
F0.00015986173947683772
sVaccutane
p2517
F0.0
sVlexicomp
p2518
F0.0
sVhospitalise
p2519
F0.0
sVuseless
p2520
F0.0001033091504619201
sVtowards
p2521
F1.4016379219615581e-05
sVfibrositis
p2522
F0.0
sVhirer
p2523
F0.0
sVeater
p2524
F0.0
sValpha
p2525
F0.0003788002183603737
sVsalary
p2526
F0.0
sVnot_here_for_medical_advise
p2527
F0.0
sVsturdy
p2528
F0.0
sVclear
p2529
F5.956961168336623e-05
sVunreasonable
p2530
F6.88727669746134e-05
sVunreasonably
p2531
F3.44363834873067e-05
sVclean
p2532
F3.5040948049038955e-05
sVusual
p2533
F0.0001377455339492268
sVperseverance
p2534
F0.0
sVhyper
p2535
F0.0
sVhumid
p2536
F0.0
sVacerbic
p2537
F0.0
sVflicker
p2538
F3.44363834873067e-05
sVbooze
p2539
F3.44363834873067e-05
sVglycinate
p2540
F0.0
sVparanoid
p2541
F0.0001377455339492268
sVparanoia
p2542
F0.0
sVsubsection
p2543
F0.0
sVcircle
p2544
F0.0
sVmeanwhile
p2545
F0.0
sVattention_deficit_hyperactivity_disorder_management
p2546
F0.0
sVcapsule
p2547
F0.0005854185192842139
sVbasement
p2548
F3.44363834873067e-05
sVoxy
p2549
F0.0
sVboost
p2550
F0.0
sVhypo
p2551
F0.0
sVwithdrawal
p2552
F0.0
sVx
p2553
F0.0001377455339492268
sVneuropathic_pain
p2554
F0.0
sVcramp
p2555
F0.0
sVneurotransmittters
p2556
F0.0
sVschizophrenic
p2557
F0.0
sVculture
p2558
F3.44363834873067e-05
sVarthitis
p2559
F0.0
sVrtms
p2560
F0.0
sVlocalize
p2561
F3.44363834873067e-05
sVclose
p2562
F0.0001465399278537679
sVhorrid
p2563
F0.0
sVwow
p2564
F0.0002754910678984536
sVconditiona
p2565
F0.0
sVprobably
p2566
F0.0005610787373640299
sVua8zm9sttky
p2567
F0.0
sVtarazadone
p2568
F0.0
sVanticholinergic
p2569
F0.0
sVnotoriously
p2570
F0.0
sVspray
p2571
F3.44363834873067e-05
sVinvisible
p2572
F4.222914372847378e-05
sVabruptly
p2573
F6.88727669746134e-05
sV230lbs
p2574
F0.0
sVsensitive
p2575
F0.00010909864337633913
sVanticonvulants
p2576
F0.0
sVbuzz
p2577
F4.222914372847378e-05
sVhistamine
p2578
F0.0
sVmitragyna
p2579
F0.0
sVwhatever
p2580
F0.00025716108795851363
sVderealisation
p2581
F0.0
sV100mg
p2582
F0.0
sVforseeable
p2583
F0.0
sVdamp
p2584
F0.0
sVdamn
p2585
F0.0004821093688222939
sVmaintenance
p2586
F0.0
sVthreaten
p2587
F0.0001033091504619201
sVempty
p2588
F1.7520474024519478e-05
sVdame
p2589
F3.44363834873067e-05
sVolazipine
p2590
F0.0
sValongside
p2591
F4.222914372847378e-05
sVpartly
p2592
F2.111457186423689e-05
sVwet
p2593
F4.222914372847378e-05
sVelse
p2594
F0.00019272521426971426
sVliver
p2595
F0.000591208012198633
sVlook
p2596
F0.0003258808168560623
sVsulfasalazine
p2597
F0.0
sVkragen
p2598
F0.0
sVpace
p2599
F0.0
sVmatch
p2600
F1.332181162306981e-05
sVfleet
p2601
F3.44363834873067e-05
sVguide
p2602
F0.00017218191743653352
sVloop
p2603
F6.88727669746134e-05
sVpack
p2604
F8.572036265283788e-05
sV10000
p2605
F0.0
sVmicrobeads
p2606
F0.0
sVfibromite
p2607
F0.0
sVready
p2608
F2.1024568829423374e-05
sVhydromorphone
p2609
F0.0
sVbaseline
p2610
F0.00024105468441114694
sVanymore
p2611
F0.0004262979719382339
sVgrant
p2612
F0.0
sVtemporary
p2613
F0.00034436383487306704
sVfatty
p2614
F3.44363834873067e-05
sVbonus
p2615
F0.0001033091504619201
sVoverweight
p2616
F0.0
sV000
p2617
F0.0001377455339492268
sVuser
p2618
F0.0002744894342350796
sVolder
p2619
F5.454932168816957e-05
sVobviously
p2620
F0.00018650536272297736
sVmassage
p2621
F0.0003788002183603737
sVconsistency
p2622
F0.0
sVgenuinely
p2623
F0.0001377455339492268
sVchore
p2624
F0.0
sVchord
p2625
F6.88727669746134e-05
sVtolerability
p2626
F0.0
sVbeurcrat
p2627
F0.0
sVhabituate
p2628
F0.0
sVlip
p2629
F2.111457186423689e-05
sVnaproxen
p2630
F0.0
sVmarch
p2631
F3.44363834873067e-05
sVdeberia
p2632
F0.0
sVevaluate
p2633
F0.0
sVgame
p2634
F0.00017144072530567576
sVsignal
p2635
F0.0002744894342350796
sVcompulsivity
p2636
F0.0
sVmanifest
p2637
F0.0002066183009238402
sVpopular
p2638
F0.0002754910678984536
sVterminology
p2639
F0.0
sVsoma
p2640
F0.0
sVmmmmm
p2641
F0.0
sV28th
p2642
F0.0
sVunstuck
p2643
F0.0
sVsheen
p2644
F0.0
sVdull
p2645
F0.00012668743118542135
sVreckon
p2646
F0.0
sVminimal
p2647
F0.0
sVeverybody
p2648
F0.00016891657491389513
sVdehydrate
p2649
F0.0
sVrun
p2650
F0.00012965150778144414
sVsteg
p2651
F0.0
sVrub
p2652
F3.44363834873067e-05
sVstem
p2653
F0.0
sVstep
p2654
F0.00013247692409984037
sVache
p2655
F0.0
sVtaboo
p2656
F0.0
sVrut
p2657
F0.0
sVfaith
p2658
F6.334371559271068e-05
sVidt
p2659
F0.0
sVaskreddit
p2660
F0.0
sVidk
p2661
F0.0
sVtherapeutic
p2662
F0.0
sVblock
p2663
F0.00042229143728473787
sVdude
p2664
F6.88727669746134e-05
sVwithin
p2665
F0.00015585520482334163
sVnonsense
p2666
F0.0
sVwaffer
p2667
F0.0
sVphenypiracetam
p2668
F0.0
sVaftertaste
p2669
F0.0
sVmanufacture
p2670
F0.0
sVpsychoactive
p2671
F0.0
sVproperly
p2672
F7.013484217050373e-05
sVnewer
p2673
F0.00017218191743653352
sVrussian
p2674
F3.44363834873067e-05
sVinjection
p2675
F0.0
sVtachycardia
p2676
F0.0
sVinfo
p2677
F0.00024105468441114694
sVchiropractor
p2678
F3.44363834873067e-05
sVskull
p2679
F0.0001033091504619201
sVuti
p2680
F0.0
sVpsychosis
p2681
F0.0
sVsimilar
p2682
F0.0003272959301290174
sVmalic
p2683
F0.0
sVtricyclic
p2684
F0.0
sVestrogen
p2685
F0.0002066183009238402
sVmindful
p2686
F0.0
sVdoesn
p2687
F0.0003188726272462545
sVkidney
p2688
F0.0002754910678984536
sVdepakote
p2689
F0.0
sVnad
p2690
F0.0
sVapplication
p2691
F4.222914372847378e-05
sVnap
p2692
F0.0
sVelectrical
p2693
F0.0002754910678984536
sVfuzzier
p2694
F0.0
sVdepartment
p2695
F6.88727669746134e-05
sVshrug
p2696
F0.0
sVdraw
p2697
F3.5040948049038954e-06
sV450mg
p2698
F0.0
sVoste
p2699
F0.0
sVdrag
p2700
F2.3378280723501244e-05
sVheroine
p2701
F0.0
sVstructure
p2702
F3.44363834873067e-05
sVindependently
p2703
F0.0
sVe
p2704
F4.905732726865454e-05
sVpractically
p2705
F3.44363834873067e-05
sVsedative
p2706
F0.0
sVwellbeing
p2707
F0.0
sVorbit
p2708
F0.0
sVdepth
p2709
F2.664362324613962e-05
sVignorant
p2710
F6.88727669746134e-05
sVavoid
p2711
F0.00021819728675267827
sVpsychs
p2712
F0.0
sVgp
p2713
F0.0
sVpsyche
p2714
F0.0
sVgf
p2715
F0.0
sVge
p2716
F0.0
sVhypothyroidism
p2717
F0.0
sVgb
p2718
F0.0
sVgo
p2719
F0.0
sVpsychi
p2720
F0.0
sVgi
p2721
F0.0
sVwizard
p2722
F3.44363834873067e-05
sVselegiline
p2723
F0.0
sVguanfacine
p2724
F0.0
sVfriendly
p2725
F2.111457186423689e-05
sVfond
p2726
F0.0
sVsausal
p2727
F0.0
sVwave
p2728
F2.664362324613962e-05
sVfacebook
p2729
F0.0
sVnausea
p2730
F0.0
sVmodulator
p2731
F0.0
sVstiff
p2732
F3.44363834873067e-05
sVgender
p2733
F0.0
sVbutton
p2734
F4.222914372847378e-05
sVhive
p2735
F0.0
sVpostural
p2736
F0.0
sVsedentary
p2737
F0.0
sVtriplicate
p2738
F0.0
sVstoppingbrainzaps
p2739
F0.0
sVjump
p2740
F0.0001198963046076283
sVclick
p2741
F3.996543486920943e-05
sVsausage
p2742
F6.88727669746134e-05
sVpoke
p2743
F3.44363834873067e-05
sVwallet
p2744
F2.111457186423689e-05
sVbluntly
p2745
F0.0
sVexacerbate
p2746
F0.0
sVcell
p2747
F0.00018650536272297736
sValprazolam
p2748
F0.0
sVexperiment
p2749
F0.0002533748623708427
sVvolatile
p2750
F3.44363834873067e-05
sV45lbs
p2751
F0.0
sVpediatrics
p2752
F0.0
sVstance
p2753
F0.0
sVcommercial
p2754
F0.0002066183009238402
sVwihtdrawal
p2755
F0.0
sVderealised
p2756
F0.0
sVprescibed
p2757
F0.0
sVgene
p2758
F0.0002066183009238402
sVsalvation
p2759
F0.0
sVfruitvale
p2760
F0.0
sVflexeril
p2761
F0.0
sVstabilization
p2762
F0.0
sVclaim
p2763
F5.328724649227924e-05
sVwin
p2764
F0.0004795852184305132
sVmanage
p2765
F0.0003996543486920943
sVwit
p2766
F2.111457186423689e-05
sVwiz
p2767
F0.0
sVcloud
p2768
F0.0
sValbuterol
p2769
F0.0
sVtcas
p2770
F0.0
sVcrap
p2771
F0.00010557285932118447
sVheadachejournal
p2772
F0.0
sVperiodically
p2773
F6.334371559271068e-05
sVcontentment
p2774
F0.0
sVvehicle
p2775
F3.44363834873067e-05
sVhistorically
p2776
F0.0
sVhydro
p2777
F0.0
sVformally
p2778
F3.44363834873067e-05
sVendocrinologist
p2779
F0.0
sVabilafy
p2780
F0.0
sVinattentive
p2781
F3.44363834873067e-05
sVmythical
p2782
F0.0
sVsalad
p2783
F3.44363834873067e-05
sVzyrtec
p2784
F0.0
sVride
p2785
F0.0001198963046076283
sVfetzima
p2786
F0.0
sVmeet
p2787
F0.00012668743118542135
sVnurture
p2788
F0.0
sVinhibitor
p2789
F0.0
sVwiuld
p2790
F0.0
sVcontrol
p2791
F0.0010346140213476078
sVporque
p2792
F0.0
sVpainkiller
p2793
F0.0
sVhalloween
p2794
F0.0
sVanorgasamia
p2795
F0.0
sVtriangle
p2796
F3.44363834873067e-05
sVskirt
p2797
F2.111457186423689e-05
sVhesitate
p2798
F0.0
sVneurotin
p2799
F0.0
sVvibe
p2800
F3.44363834873067e-05
sVneurotic
p2801
F0.0
sVelliptical
p2802
F0.0
sVinstinctively
p2803
F0.0
sVfart
p2804
F4.222914372847378e-05
sVfatigue
p2805
F0.0
sVexcedrin
p2806
F0.0
sVbakery
p2807
F0.0
sVhealthcare
p2808
F0.0
sVserotonergic
p2809
F0.0
sVastronomical
p2810
F0.0
sVmajorly
p2811
F0.0
sVexclusion
p2812
F0.0
sVimbalance
p2813
F0.0
sVbiopsychosocial
p2814
F0.0
sVauto
p2815
F3.44363834873067e-05
sVcamino
p2816
F0.0
sVfront
p2817
F3.117104096466832e-05
sVcyclobenzaprine
p2818
F0.0
sVhandy
p2819
F3.44363834873067e-05
sVuniversity
p2820
F3.44363834873067e-05
sVpsycosis
p2821
F0.0
sVmode
p2822
F6.334371559271068e-05
sVfrickin
p2823
F3.44363834873067e-05
sVilluminate
p2824
F3.44363834873067e-05
sVseesaw
p2825
F0.0
sVmeasure
p2826
F3.996543486920943e-05
sVbritta
p2827
F0.0
sVsteadier
p2828
F0.0
sVhla
p2829
F0.0
sVhooha
p2830
F0.0
sVcause
p2831
F0.0005501428843699116
sVumbrella
p2832
F3.44363834873067e-05
sVthorizine
p2833
F0.0
sVcompletely
p2834
F0.00035846697109368576
sVect
p2835
F0.0
sVroute
p2836
F0.0001465399278537679
sVflorida
p2837
F0.0
sVkeep
p2838
F0.00040997909217375576
sVkeen
p2839
F2.111457186423689e-05
sVnurontin
p2840
F0.0
sVblogger
p2841
F3.44363834873067e-05
sVpowerful
p2842
F0.0001377455339492268
sVredefine
p2843
F0.0
sVcardiac
p2844
F0.0
sVbitch
p2845
F0.00034436383487306704
sVdrinker
p2846
F6.88727669746134e-05
sVprecisely
p2847
F0.0
sVquality
p2848
F0.00015986173947683772
sVlong
p2849
F0.0
sVattack
p2850
F0.00020261176627034408
sVankle
p2851
F0.0
sVneurotransmitter
p2852
F0.0
sVperfectly
p2853
F0.0001198963046076283
sVprone
p2854
F0.0
sVcyp
p2855
F0.0
sVpunish
p2856
F3.44363834873067e-05
sVexactly
p2857
F0.00018702624578800995
sVcya
p2858
F0.0
sVfuzzy
p2859
F0.0
sVconvulsants
p2860
F0.0
sVneck
p2861
F0.00010557285932118447
sVultimatum
p2862
F0.0
sVbloat
p2863
F3.44363834873067e-05
sVaspiration
p2864
F0.0
sVschizophrenia
p2865
F0.0001377455339492268
sVbed
p2866
F0.0007601245871125281
sVlactmed
p2867
F0.0
sV6th
p2868
F3.44363834873067e-05
sVbare
p2869
F4.222914372847378e-05
sVreferral
p2870
F0.0
sVbet
p2871
F6.234208192933664e-05
sVexhibit
p2872
F6.88727669746134e-05
sV2014
p2873
F0.0
sVlightly
p2874
F3.44363834873067e-05
sVtorment
p2875
F0.0
sVneed
p2876
F0.0008129499947377038
sVborder
p2877
F2.111457186423689e-05
sVq
p2878
F0.0
sVable
p2879
F0.0006312135795345336
sVrepercussion
p2880
F0.0
sVinstance
p2881
F0.00010657449298455848
sVbrand
p2882
F0.00021314898596911695
sVmileage
p2883
F0.0
sVdeploy
p2884
F0.0
sVpassionately
p2885
F3.44363834873067e-05
sVtechnicality
p2886
F0.0
sVacupuncturist
p2887
F0.0
sVzombification
p2888
F0.0
sVcellphone
p2889
F0.0
sVupset
p2890
F0.0002066183009238402
sVpschiatrist
p2891
F0.0
sVtoxicity
p2892
F0.0
sVimpression
p2893
F6.88727669746134e-05
sVunsettle
p2894
F0.0
sVcognitively
p2895
F0.0
sVanyway
p2896
F0.0005328724649227924
sVunfathomable
p2897
F0.0
sVsynovial
p2898
F0.0
sVwellbrutrin
p2899
F0.0
sVenvy
p2900
F0.0
sVtire
p2901
F0.00042229143728473787
sVhadn
p2902
F5.328724649227924e-05
sVhopeful
p2903
F0.0
sVrash
p2904
F2.664362324613962e-05
sVemployer
p2905
F0.0
sVversatile
p2906
F0.0
sVemployee
p2907
F3.44363834873067e-05
sVsulfur
p2908
F3.44363834873067e-05
sVachieve
p2909
F0.00017218191743653352
sVamidarone
p2910
F0.0
sVoverall
p2911
F0.0003788002183603737
sV120
p2912
F0.0
sVtbh
p2913
F0.0
sVapreciate
p2914
F0.0
sVfallout
p2915
F0.0
sVhydroxizine
p2916
F0.0
sVtecas
p2917
F0.0
sVendless
p2918
F2.111457186423689e-05
sVgray
p2919
F4.222914372847378e-05
sVwellness
p2920
F0.0
sVgram
p2921
F0.0
sVcontain
p2922
F0.0001377455339492268
sVgrab
p2923
F1.332181162306981e-05
sVpiss
p2924
F3.44363834873067e-05
sVgrad
p2925
F0.0001377455339492268
sVdph
p2926
F0.0
sVpitch
p2927
F3.44363834873067e-05
sVorphan
p2928
F2.111457186423689e-05
sVfreeze
p2929
F2.664362324613962e-05
sVttc
p2930
F0.0
sVunmedicated
p2931
F0.0
sVcomputer
p2932
F8.445828745694756e-05
sVpowder
p2933
F8.445828745694756e-05
sVdesperate
p2934
F0.0002066183009238402
sVdanger
p2935
F2.3378280723501244e-05
sVstats
p2936
F0.0
sVnightmare
p2937
F0.0002397926092152566
sVhorribly
p2938
F0.0
sVwillpower
p2939
F0.0
sVtend
p2940
F0.0008953459706699742
sVstate
p2941
F0.0004129761603151641
sVresperidol
p2942
F0.0
sVcorrectly
p2943
F5.328724649227924e-05
sVlug
p2944
F0.0
sVneither
p2945
F0.00021114571864236893
sVcomparable
p2946
F0.0
sVimportance
p2947
F0.0
sVinterfere
p2948
F0.0002754910678984536
sVpreclampsia
p2949
F0.0
sVshittiest
p2950
F3.44363834873067e-05
sVkey
p2951
F0.00015986173947683772
sVgroup
p2952
F6.234208192933664e-05
sVdress
p2953
F2.664362324613962e-05
sVmonitor
p2954
F0.00017218191743653352
sVroid
p2955
F0.0
sVcareer
p2956
F8.445828745694756e-05
sVantisocial
p2957
F0.0
sVadmit
p2958
F0.0
sVlofty
p2959
F0.0
sVjourney
p2960
F0.0
sVafaik
p2961
F0.0
sVtuesday
p2962
F0.0
sVadderral
p2963
F0.0
sVquit
p2964
F0.0008868120182979495
sVsari
p2965
F0.0
sVdeffinetly
p2966
F0.0
sVyaz
p2967
F0.0
sVaddition
p2968
F0.0008609095871826675
sVcent
p2969
F0.0001033091504619201
sVslowly
p2970
F0.00034636710219981506
sVtreat
p2971
F0.001198963046076283
sVsars
p2972
F0.0
sVoptionally
p2973
F0.0
sVcontroller
p2974
F0.0
sVquotation
p2975
F3.44363834873067e-05
sVnovel
p2976
F0.0
sVmega
p2977
F0.0
sVintimidate
p2978
F3.44363834873067e-05
sVharder
p2979
F0.00042229143728473787
sV160mg
p2980
F0.0
sVdiscontinuation
p2981
F0.0
sVneurol
p2982
F0.0
sVneuron
p2983
F0.0
sVsurface
p2984
F4.222914372847378e-05
sVhearted
p2985
F3.44363834873067e-05
sVpiracetam
p2986
F0.0
sVgeneric
p2987
F0.0016873827908780283
sVballoon
p2988
F3.44363834873067e-05
sVstrange
p2989
F6.234208192933664e-05
sVspeaker
p2990
F3.44363834873067e-05
sVparty
p2991
F8.445828745694756e-05
sVpractitioner
p2992
F0.0
sVproscribe
p2993
F0.0
sVeffect
p2994
F0.00040997909217375576
sVrenin
p2995
F0.0
sVsooner
p2996
F6.88727669746134e-05
sVfrequently
p2997
F0.00034436383487306704
sVdestruction
p2998
F0.0
sVcymbaltawithdrawal
p2999
F0.0
sVrift
p3000
F0.0
sVreflection
p3001
F0.0
sVneuropathy
p3002
F0.0
sVnonetheless
p3003
F2.111457186423689e-05
sVwell
p3004
F0.0
sVadaptandose
p3005
F0.0
sVincreasingly
p3006
F3.44363834873067e-05
sVaccurate
p3007
F6.88727669746134e-05
sVabilfy
p3008
F0.0
sVdistant
p3009
F2.111457186423689e-05
sVskill
p3010
F0.0
sVdensity
p3011
F2.111457186423689e-05
sVtheroadback
p3012
F0.0
sVnarcolepsy
p3013
F6.88727669746134e-05
sVyeesh
p3014
F0.0
sVwarrant
p3015
F3.44363834873067e-05
sVhomework
p3016
F6.88727669746134e-05
sVpero
p3017
F0.0
sVburden
p3018
F0.0
sVimmediately
p3019
F0.00015986173947683772
sVintersection
p3020
F0.0
sVprominent
p3021
F3.44363834873067e-05
sVloss
p3022
F0.00044340600914897474
sVnecessary
p3023
F4.675656144700249e-05
sVafortunadamente
p3024
F0.0
sV4mg
p3025
F0.0
sVamitryptiline
p3026
F0.0
sVpage
p3027
F0.00010557285932118447
sVtherein
p3028
F0.0
sVhydrocortisone
p3029
F0.0
sVshes
p3030
F0.0
sVnuvigil
p3031
F0.0
sVhome
p3032
F0.00020261176627034408
sVleery
p3033
F0.0
sVbroad
p3034
F4.222914372847378e-05
sVoverlap
p3035
F6.88727669746134e-05
sVoutgo
p3036
F0.0
sVinflammation
p3037
F0.0
sVactally
p3038
F0.0
sVpuedo
p3039
F0.0
sVinaccurate
p3040
F3.44363834873067e-05
sVjournal
p3041
F0.0
sVmonetary
p3042
F0.0
sVpuede
p3043
F0.0
sVtenfold
p3044
F0.0
sVrefuge
p3045
F3.44363834873067e-05
sVfreedom
p3046
F1.332181162306981e-05
sV300007528
p3047
F0.0
sVmadame
p3048
F0.0
sVcompatible
p3049
F2.111457186423689e-05
sV40lbs
p3050
F0.0
sVequally
p3051
F0.0
sVpreviously
p3052
F0.0001377455339492268
sVh1
p3053
F0.0
sVwashington
p3054
F0.0
sVarticulate
p3055
F2.111457186423689e-05
sVcocoa
p3056
F3.44363834873067e-05
sVganglion
p3057
F0.0
sVreceptor
p3058
F0.0
sVprozac
p3059
F0.0
sVadditional
p3060
F4.222914372847378e-05
sVroaccutane
p3061
F0.0
sVgluten
p3062
F0.0
sVvasculitis
p3063
F0.0
sVhr
p3064
F0.0001033091504619201
sVsubjective
p3065
F0.0
sVneutral
p3066
F0.00024105468441114694
sVhi
p3067
F0.0004476729853349871
sVvalerian
p3068
F0.0
sVho
p3069
F1.332181162306981e-05
sVtechnician
p3070
F0.0
sVhighest
p3071
F0.00017218191743653352
sVeat
p3072
F0.0006078352988110323
sVgrieve
p3073
F0.0
sVcruel
p3074
F2.111457186423689e-05
sVlimit
p3075
F0.00033783314982779026
sVpiece
p3076
F5.328724649227924e-05
sVuniversal
p3077
F6.88727669746134e-05
sVjudgemental
p3078
F3.44363834873067e-05
sVsneak
p3079
F6.88727669746134e-05
sVeducation
p3080
F0.00024105468441114694
sVlopsided
p3081
F0.0
sVcontest
p3082
F3.44363834873067e-05
sVfolic
p3083
F0.0
sVonwards
p3084
F3.44363834873067e-05
sVcrummy
p3085
F0.0
sVstar
p3086
F2.664362324613962e-05
sVstay
p3087
F0.00028053936868201494
sVstag
p3088
F0.0
sVfoil
p3089
F0.0001377455339492268
sVadditionally
p3090
F0.00017218191743653352
sVpersistent
p3091
F8.445828745694756e-05
sVasymptomatic
p3092
F0.0
sVportion
p3093
F3.44363834873067e-05
sVdiagnosis
p3094
F0.0
sVuneducated
p3095
F3.44363834873067e-05
sVdiovan
p3096
F0.0
sVwhose
p3097
F7.79276024116708e-06
sVgamut
p3098
F0.0
sVcalculate
p3099
F3.44363834873067e-05
sVswab
p3100
F0.0
sVdisability
p3101
F0.0001377455339492268
sVswap
p3102
F4.222914372847378e-05
sVsorry
p3103
F0.00029612488916434907
sVmagnetic
p3104
F0.0
sV2tnufe
p3105
F0.0
sVhypertensive
p3106
F0.0
sVaffect
p3107
F0.0016873827908780283
sVvast
p3108
F0.0
sVsolution
p3109
F0.0
sVcarrie
p3110
F0.0
sVunrelated
p3111
F0.0002066183009238402
sVgreenish
p3112
F3.44363834873067e-05
sVenhance
p3113
F2.664362324613962e-05
sV10k
p3114
F0.0
sVforce
p3115
F0.00018650536272297736
sV10m
p3116
F0.0
sVacross
p3117
F7.993086973841886e-05
sVlikely
p3118
F0.0011708370385684278
sVeven
p3119
F0.0007814131414935686
sVwreck
p3120
F0.0002066183009238402
sVorchestra
p3121
F3.44363834873067e-05
sVhaze
p3122
F0.0
sVnew
p3123
F0.0
sVnet
p3124
F8.445828745694756e-05
sVever
p3125
F0.00029784805841683113
sVmed
p3126
F0.0019425406115097942
sVpresynaptic
p3127
F0.0
sVnever
p3128
F0.0
sVweirdly
p3129
F0.0
sVactive
p3130
F7.993086973841886e-05
sV100
p3131
F0.00019982717434604714
sVdry
p3132
F0.0002322602905066058
sVtaper
p3133
F0.0
sVdrs
p3134
F0.0
sVcredit
p3135
F7.79276024116708e-06
sVintrigue
p3136
F0.0
sVclonidine
p3137
F0.0
sVfantastic
p3138
F8.445828745694756e-05
sVmobility
p3139
F0.0
sVcounty
p3140
F6.88727669746134e-05
sVorg
p3141
F0.0003788002183603737
sVoverheat
p3142
F0.0
sVarmy
p3143
F2.111457186423689e-05
sVsnri
p3144
F0.0
sVcall
p3145
F0.00026631120517269603
sVcalm
p3146
F0.0004132366018476804
sVellos
p3147
F0.0
sVrecommend
p3148
F0.0013430189560049613
sVtype
p3149
F0.0007993086973841886
sVtell
p3150
F0.0010364371120752218
sVwary
p3151
F0.0
sVexpose
p3152
F2.111457186423689e-05
sVwarn
p3153
F0.0002397926092152566
sVwarm
p3154
F7.79276024116708e-06
sVadult
p3155
F0.0001033091504619201
sVbiatch
p3156
F0.0
sVward
p3157
F0.0001033091504619201
sVrespiradol
p3158
F0.0
sVflora
p3159
F0.0
sVroom
p3160
F5.454932168816957e-05
sVnoots
p3161
F0.0
sVfluoroquinolones
p3162
F0.0
sVpsyciatric
p3163
F0.0
sVroot
p3164
F6.334371559271068e-05
sVgive
p3165
F0.0006762902973464518
sVclimax
p3166
F0.0
sVinvolve
p3167
F0.0
sVquetiapine
p3168
F0.0
sVcursory
p3169
F0.0
sVloathe
p3170
F3.44363834873067e-05
sVsertaline
p3171
F0.0
sVgament
p3172
F0.0
sVanswer
p3173
F0.00015585520482334163
sVundesirable
p3174
F0.0
sVminority
p3175
F3.44363834873067e-05
sVshroom
p3176
F0.0
sVvicious
p3177
F2.111457186423689e-05
sVblindly
p3178
F0.0
sVpurchase
p3179
F2.111457186423689e-05
sVattempt
p3180
F7.792760241167081e-05
sVthird
p3181
F3.153685324413506e-05
sVreplication
p3182
F0.0
sVlongingly
p3183
F0.0
sVmaintain
p3184
F0.00019003114677813203
sVoperate
p3185
F0.0001377455339492268
sVfetus
p3186
F0.0002754910678984536
sVtyramine
p3187
F0.0
sVresponsive
p3188
F3.44363834873067e-05
sVpharmd
p3189
F0.0
sVpharma
p3190
F0.0
sVpersonal
p3191
F8.572036265283788e-05
sVbetter
p3192
F0.0007183394350052986
sVdifferently
p3193
F0.00040117686542050094
sVaccusatory
p3194
F0.0
sVpersist
p3195
F0.0002066183009238402
sVovercome
p3196
F0.00024105468441114694
sVcombination
p3197
F0.0004795852184305132
sVweakness
p3198
F0.0
sVworkout
p3199
F0.0
sVdrowsiness
p3200
F0.0
sVtheanine
p3201
F0.0
sVtherapy
p3202
F0.0030648381303702964
sVindulge
p3203
F0.0
sVvaping
p3204
F0.0
sVmxe
p3205
F0.0
sVadvise
p3206
F0.0
sVdecorator
p3207
F0.0
sVmeat
p3208
F4.222914372847378e-05
sVbupe
p3209
F0.0
sVside
p3210
F7.008189609807791e-05
sVbone
p3211
F0.0001465399278537679
sVmean
p3212
F0.0005532859771228627
sVcalmly
p3213
F3.44363834873067e-05
sVgabbys
p3214
F0.0
sVbusiprone
p3215
F0.0
sVaide
p3216
F0.0
sVextract
p3217
F6.88727669746134e-05
sVdecree
p3218
F0.0
sVcontent
p3219
F6.88727669746134e-05
sVundeserved
p3220
F0.0
sVwaaaaay
p3221
F0.0
sVreader
p3222
F3.44363834873067e-05
sVsurprise
p3223
F0.0001198963046076283
sVsluggish
p3224
F3.44363834873067e-05
sVinstigate
p3225
F0.0
sVprescripton
p3226
F0.0
sVcomedown
p3227
F0.0
sVneuroleptika
p3228
F0.0
sVstruggle
p3229
F0.0003589477216920272
sVabate
p3230
F0.0
sVinadequately
p3231
F0.0
sVmetaxalone
p3232
F0.0
sVish
p3233
F0.0003099274513857603
sVisn
p3234
F0.00026981529997759996
sVloud
p3235
F2.111457186423689e-05
sVgrade
p3236
F3.44363834873067e-05
sVhoop
p3237
F3.44363834873067e-05
sVreassure
p3238
F0.0
sVthereof
p3239
F0.0
sVbuttock
p3240
F0.0
sVagro
p3241
F0.0
sVdownside
p3242
F0.0
sVradiate
p3243
F0.0
sVimmensely
p3244
F0.0
sVditch
p3245
F0.0
sVspinach
p3246
F6.88727669746134e-05
sVantispasmodic
p3247
F0.0
sV2
p3248
F0.00035040948049038954
sVdwell
p3249
F0.0
sVgym
p3250
F6.334371559271068e-05
sVrisperidone
p3251
F0.0
sVdigo
p3252
F0.0
sVsomewhat
p3253
F0.00034436383487306704
sVsymptom
p3254
F0.0
sVdistance
p3255
F4.222914372847378e-05
sVanxiety
p3256
F0.009091205240648968
sVmatter
p3257
F0.00014026968434100747
sVlouder
p3258
F3.44363834873067e-05
sVsilly
p3259
F1.332181162306981e-05
sVbiochemical
p3260
F0.0
sVhallucination
p3261
F0.0
sVmini
p3262
F0.0001033091504619201
sVmodern
p3263
F1.558552048233416e-05
sVmind
p3264
F0.0005328724649227924
sVmine
p3265
F0.00010130588313517204
sVginger
p3266
F2.111457186423689e-05
sVseem
p3267
F0.0003644258597100051
sVgrind
p3268
F0.0
sVseek
p3269
F5.454932168816957e-05
sVchest
p3270
F6.660905811534905e-05
sVdessa
p3271
F0.0
sVpsychologically
p3272
F0.0
sVclonazepam
p3273
F0.0
sVscarify
p3274
F0.0
sVnorepinephrine
p3275
F0.0
sVregular
p3276
F0.0006887276697461341
sVzealand
p3277
F0.0
sV4lbs
p3278
F0.0
sVmitigate
p3279
F0.0
sVobservation
p3280
F3.44363834873067e-05
sVdoc
p3281
F0.0015413637460892932
sValarm
p3282
F4.222914372847378e-05
sVm
p3283
F1.0512284414711687e-05
sVdog
p3284
F0.00010657449298455848
sVdigress
p3285
F0.0
sVdefinitely
p3286
F0.000772665074138049
sVconsumer
p3287
F0.0
sVurgency
p3288
F0.0
sVhunger
p3289
F0.0001033091504619201
sVsubreddit
p3290
F0.0
sVlyrica
p3291
F0.0
sVrandomize
p3292
F0.0
sVexplain
p3293
F0.000279758044084466
sVacne
p3294
F0.0
sVnegligible
p3295
F0.0
sVcripple
p3296
F0.0
sVsugar
p3297
F0.00033783314982779026
sVcelery
p3298
F0.0
sVmethotraxate
p3299
F0.0
sVpalliative
p3300
F0.0
sVcolorful
p3301
F0.0
sVstop
p3302
F0.0005396305999551999
sVperceive
p3303
F0.0
sVmeditate
p3304
F3.44363834873067e-05
sVcansancio
p3305
F0.0
sVbat
p3306
F2.111457186423689e-05
sVbar
p3307
F1.332181162306981e-05
sVbag
p3308
F0.0002322602905066058
sVbad
p3309
F0.0004730527986620259
sVban
p3310
F0.0
sVbam
p3311
F3.44363834873067e-05
sVattest
p3312
F0.0
sVreference
p3313
F2.111457186423689e-05
sVintertwine
p3314
F0.0
sVsubject
p3315
F0.0002066183009238402
sV02
p3316
F3.44363834873067e-05
sV03
p3317
F3.44363834873067e-05
sV07
p3318
F2.111457186423689e-05
sVsorta
p3319
F6.88727669746134e-05
sVaggresive
p3320
F0.0
sVsail
p3321
F3.44363834873067e-05
sVconnective
p3322
F0.0
sVorgasmic
p3323
F0.0
sVsais
p3324
F0.0
sVmeditative
p3325
F0.0
sVtolerance
p3326
F0.0005165457523096006
sVlethargic
p3327
F0.0
sVreddit
p3328
F0.0
sVomg
p3329
F6.88727669746134e-05
sVvitamin
p3330
F0.0
sVcousin
p3331
F0.0001033091504619201
sVsocialize
p3332
F0.0
sVagonist
p3333
F0.0
sVresistant
p3334
F0.0
sVupregulate
p3335
F0.0
sVdistinction
p3336
F3.44363834873067e-05
sVgps
p3337
F0.0
sVpeyote
p3338
F0.0
sVdurante
p3339
F0.0
sVhygiene
p3340
F3.44363834873067e-05
sVparalyze
p3341
F0.0
sVaccustom
p3342
F0.0
sVantinausea
p3343
F0.0
sVabdominal
p3344
F0.0
sVrecur
p3345
F0.0
sVbasis
p3346
F7.013484217050373e-05
sVregenerate
p3347
F0.0
sVthree
p3348
F9.811465453730908e-05
sVtiny
p3349
F6.234208192933664e-05
sVtrigger
p3350
F0.0011019642715938145
sVdetrimental
p3351
F0.0
sVinterest
p3352
F0.0004645205810132116
sVbasic
p3353
F2.664362324613962e-05
sVlovely
p3354
F3.996543486920943e-05
sVmco
p3355
F0.0
sVdeeper
p3356
F3.44363834873067e-05
sVefficacy
p3357
F0.0
sV900mg
p3358
F0.0
sVsuppress
p3359
F0.0
sVinattention
p3360
F0.0
sVdismiss
p3361
F6.88727669746134e-05
sVsooooo
p3362
F3.44363834873067e-05
sVdysrhythmia
p3363
F0.0
sVpersonally
p3364
F0.00012468416385867328
sV165
p3365
F0.0
sVdiabeta
p3366
F0.0
sV160
p3367
F3.44363834873067e-05
sVexception
p3368
F4.222914372847378e-05
sVserax
p3369
F0.0
sVspontaneously
p3370
F3.44363834873067e-05
sVugly
p3371
F1.558552048233416e-05
sVnear
p3372
F4.905732726865454e-05
sVneat
p3373
F3.44363834873067e-05
sVsle
p3374
F0.0
sVbalance
p3375
F0.00034436383487306704
sVmangle
p3376
F0.0
sVslc
p3377
F0.0
sVix
p3378
F0.0
sVseven
p3379
F8.445828745694756e-05
sVcane
p3380
F0.0001033091504619201
sVincontinent
p3381
F3.44363834873067e-05
sVir
p3382
F0.0
sViu
p3383
F0.0
sViv
p3384
F0.0
sVii
p3385
F0.0
sVshame
p3386
F4.222914372847378e-05
sVcant
p3387
F0.0001377455339492268
sVim
p3388
F0.0006542912862588273
sVio
p3389
F0.0
sVcurcumin
p3390
F0.0
sVmouse
p3391
F2.111457186423689e-05
sVid
p3392
F6.88727669746134e-05
sVdisappear
p3393
F0.00010557285932118447
sVspecialization
p3394
F0.0
sVmake
p3395
F0.0014296706804007894
sVnardil
p3396
F0.0
sVpotentially
p3397
F0.00017218191743653352
sVunfortunate
p3398
F7.993086973841886e-05
sVvegetable
p3399
F3.44363834873067e-05
sVambien
p3400
F0.0
sVcatatonic
p3401
F0.0
sVverapamil
p3402
F0.0
sVkit
p3403
F2.111457186423689e-05
sVdelight
p3404
F3.44363834873067e-05
sVpharmacological
p3405
F0.0
sVjealous
p3406
F6.88727669746134e-05
sVovert
p3407
F3.44363834873067e-05
sVopportunity
p3408
F2.111457186423689e-05
sVkid
p3409
F0.0005509821357969072
sVbutter
p3410
F3.44363834873067e-05
sVpunishment
p3411
F1.332181162306981e-05
sVparadigm
p3412
F0.0
sVhacen
p3413
F0.0
sVprotocol
p3414
F3.44363834873067e-05
sVsentence
p3415
F0.0001033091504619201
sVyea
p3416
F0.0
sVhillbilly
p3417
F0.0
sVaside
p3418
F7.993086973841886e-05
sVmientras
p3419
F0.0
sVidentify
p3420
F0.00016891657491389513
sVhuman
p3421
F0.00010657449298455848
sVyep
p3422
F0.0001033091504619201
sVyes
p3423
F0.00010161874934221297
sVyet
p3424
F7.358599090298181e-05
sVnaurexs
p3425
F0.0
sVaffinity
p3426
F0.0
sVsave
p3427
F0.00021314898596911695
sVopt
p3428
F0.0001033091504619201
sVneurobiology
p3429
F0.0
sVflatulence
p3430
F0.0
sVwhichever
p3431
F0.0
sVdiscreet
p3432
F3.44363834873067e-05
sVbackground
p3433
F1.0512284414711687e-05
sVgovt
p3434
F0.0
sVopi
p3435
F0.0
sVshoulder
p3436
F9.325268136148868e-05
sVnauseate
p3437
F0.0
sVadmittedly
p3438
F0.0
sVnotorious
p3439
F6.88727669746134e-05
sVdeal
p3440
F0.0005143221759170273
sVroleplayers
p3441
F0.0
sVdead
p3442
F2.3378280723501244e-05
sVintern
p3443
F3.44363834873067e-05
sVstatistic
p3444
F0.0
sVdear
p3445
F2.664362324613962e-05
sVpain
p3446
F0.006061424288496763
sVignore
p3447
F5.328724649227924e-05
sVsuckiest
p3448
F0.0
sVmicrowave
p3449
F3.44363834873067e-05
sVaumenta
p3450
F0.0
sVburn
p3451
F0.0002744894342350796
sVprotagonist
p3452
F0.0
sVbolt
p3453
F0.0
sVsuper
p3454
F0.0007390100152482913
sVnightmaaare
p3455
F0.0
sVasperger
p3456
F0.0
sVassault
p3457
F6.88727669746134e-05
sVafternoon
p3458
F0.0002754910678984536
sVcommit
p3459
F0.00010557285932118447
sVautomatically
p3460
F4.222914372847378e-05
sVnerve
p3461
F0.0014807644899541882
sVmotivate
p3462
F0.0
sVwhats
p3463
F0.0
sVhungrier
p3464
F3.44363834873067e-05
sVdecirte
p3465
F0.0
sVdown
p3466
F0.0
sVchime
p3467
F0.0
sVannoyance
p3468
F0.0
sVinitial
p3469
F6.660905811534905e-05
sVfraction
p3470
F0.0
sVfork
p3471
F2.664362324613962e-05
sVstarve
p3472
F0.0001033091504619201
sVform
p3473
F0.00018702624578800995
sVlorazepam
p3474
F0.0
sVspike
p3475
F6.88727669746134e-05
sVford
p3476
F3.44363834873067e-05
sVfailure
p3477
F8.445828745694756e-05
sV225
p3478
F0.0
sVespecially
p3479
F0.0004441873337465236
sVlamectal
p3480
F0.0
sVdaddy
p3481
F3.44363834873067e-05
sVtemper
p3482
F0.0001033091504619201
sVdelete
p3483
F2.111457186423689e-05
sVdiagnose
p3484
F0.002272801310162242
sVclassic
p3485
F4.222914372847378e-05
sVtoss
p3486
F0.0001033091504619201
sVfilly
p3487
F0.0
sVantidepresivo
p3488
F0.0
sVawhile
p3489
F0.0004132366018476804
sVlamictil
p3490
F0.0
sVshit
p3491
F0.0012035305962615028
sVmolester
p3492
F0.0
sVgenerally
p3493
F0.00033304529057674525
sVdesvenflaxine
p3494
F0.0
sVfelt
p3495
F0.0007993086973841886
sVdiet
p3496
F0.0007231640532334408
sVunwell
p3497
F0.0
sVfell
p3498
F5.328724649227924e-05
sVweekend
p3499
F0.00019003114677813203
sVapology
p3500
F0.0
sVassume
p3501
F0.0004821093688222939
sVpseudo
p3502
F3.44363834873067e-05
sVdaily
p3503
F0.0016529464073907216
sVteeth
p3504
F8.445828745694756e-05
sVoverdue
p3505
F0.0
sVshop
p3506
F0.0001033091504619201
sVitselfshe
p3507
F0.0
sVskip
p3508
F0.00010557285932118447
sVrelieve
p3509
F0.0
sVmild
p3510
F0.0
sVmile
p3511
F0.00012668743118542135
sVskim
p3512
F0.0
sVskin
p3513
F2.8032758439231163e-05
sVabundant
p3514
F0.0
sVmilk
p3515
F0.0001377455339492268
sVretention
p3516
F0.0002066183009238402
sV21st
p3517
F3.44363834873067e-05
sVsuicide
p3518
F0.0005509821357969072
sVdepend
p3519
F0.0005509821357969072
sVtechnique
p3520
F0.0001377455339492268
sVsufferer
p3521
F0.0
sVamaze
p3522
F0.0
sVfinally
p3523
F0.0008023537308410019
sVunpleasant
p3524
F0.0001377455339492268
sVoverproduce
p3525
F0.0
sVaspx
p3526
F3.44363834873067e-05
sVshoot
p3527
F0.0003589477216920272
sVneglegent
p3528
F0.0
sVfibrocystic
p3529
F0.0
sVclonazapam
p3530
F0.0
sVelevate
p3531
F0.0
sVdie
p3532
F0.00019481900602917701
sVdig
p3533
F3.44363834873067e-05
sVaccidentally
p3534
F2.664362324613962e-05
sVitem
p3535
F2.664362324613962e-05
sVbedside
p3536
F0.0
sVdiy
p3537
F0.0
sVdip
p3538
F0.0001033091504619201
sVround
p3539
F0.00011689140361750621
sVanesthetic
p3540
F0.0
sVtremendously
p3541
F0.0
sVprasco
p3542
F0.0
sVachy
p3543
F0.0
sVdecriminalize
p3544
F0.0
sVfiller
p3545
F0.0
sVsuspect
p3546
F0.00010557285932118447
sVreabsorb
p3547
F0.0
sVmakeup
p3548
F0.0001033091504619201
sVtangent
p3549
F0.0
sVwait
p3550
F0.00013247692409984037
sVbox
p3551
F2.3378280723501244e-05
sVboy
p3552
F5.328724649227924e-05
sVshift
p3553
F0.00024105468441114694
sVgarnier
p3554
F0.0
sVsomatic
p3555
F0.0
sVconduction
p3556
F0.0
sVsuggestion
p3557
F0.00016891657491389513
sVcyst
p3558
F0.0
sVconveniently
p3559
F0.0
sV20mg
p3560
F0.0
sVbog
p3561
F0.0
sVnortrpytline
p3562
F0.0
sVuseful
p3563
F0.00034436383487306704
sVmerely
p3564
F0.0
sVflexibility
p3565
F0.0
sVverge
p3566
F0.0
sVsympathetic
p3567
F0.0
sVdeplin
p3568
F0.0
sVdiscus
p3569
F0.0
sVsake
p3570
F3.44363834873067e-05
sVvisit
p3571
F0.00010657449298455848
sVinsider
p3572
F0.0
sVsharpen
p3573
F0.0
sVthru
p3574
F3.44363834873067e-05
sVaspirin
p3575
F0.0
sV5day
p3576
F0.0
sVsavior
p3577
F3.44363834873067e-05
sVolive
p3578
F2.111457186423689e-05
sVeffort
p3579
F0.0003788002183603737
sV166876
p3580
F0.0
sVfly
p3581
F1.332181162306981e-05
sVhellacious
p3582
F0.0
sVflu
p3583
F0.00017218191743653352
sVsoul
p3584
F4.222914372847378e-05
sVrepstwo
p3585
F0.0
sVsour
p3586
F3.44363834873067e-05
sVarrive
p3587
F6.660905811534905e-05
sVdosage
p3588
F0.001618510023903415
sVnearest
p3589
F3.44363834873067e-05
sVcrazy
p3590
F0.00048563515287744854
sVfuck
p3591
F0.003202583664319523
sVagent
p3592
F0.00010657449298455848
sVsample
p3593
F3.896380120583541e-05
sVknowledgable
p3594
F0.0
sVchemical
p3595
F0.0005854185192842139
sVtill
p3596
F4.222914372847378e-05
sVsunday
p3597
F0.0
sVemotionless
p3598
F0.0
sVpure
p3599
F1.558552048233416e-05
sVmat
p3600
F0.0
sV140
p3601
F3.44363834873067e-05
sVkratomscience
p3602
F0.0
sVmay
p3603
F0.0005571510739797194
sVmax
p3604
F0.00034436383487306704
sVmad
p3605
F1.558552048233416e-05
sVdestructive
p3606
F3.44363834873067e-05
sVgrow
p3607
F0.00016891657491389513
sVman
p3608
F4.905732726865454e-05
sVwaist
p3609
F2.111457186423689e-05
sVjohnson
p3610
F0.0
sVmaybe
p3611
F0.0
sVtale
p3612
F2.111457186423689e-05
sVcascade
p3613
F0.0
sVswitch
p3614
F0.001351332599311161
sVdeposit
p3615
F3.44363834873067e-05
sVbasket
p3616
F6.88727669746134e-05
sVtall
p3617
F1.332181162306981e-05
sVtalk
p3618
F0.0014254338436684695
sVnearly
p3619
F3.5040948049038955e-05
sVcute
p3620
F2.111457186423689e-05
sVlsd
p3621
F0.0
sVshield
p3622
F0.0
sVfeb
p3623
F0.0
sVaccutate
p3624
F0.0
sVshaky
p3625
F0.0
sVstability
p3626
F0.0
sVnbsp
p3627
F0.0006887276697461341
sVshake
p3628
F0.00012668743118542135
sVequip
p3629
F0.0
sVpolice
p3630
F4.222914372847378e-05
sVthank
p3631
F0.0007326996392688395
sVpolicy
p3632
F3.44363834873067e-05
sVmain
p3633
F3.5040948049038955e-05
sVuptake
p3634
F0.0
sVtexas
p3635
F0.0
sVtonic
p3636
F0.0
sVunplanned
p3637
F0.0
sVfinance
p3638
F6.88727669746134e-05
sVbein
p3639
F3.44363834873067e-05
sVkiller
p3640
F6.660905811534905e-05
sVsarcastic
p3641
F3.44363834873067e-05
sVlunch
p3642
F6.660905811534905e-05
sVwories
p3643
F0.0
sVrexulti
p3644
F0.0
sVbullshit
p3645
F0.0002754910678984536
sVoutweigh
p3646
F0.0
sVfeverish
p3647
F0.0
sVmemorization
p3648
F3.44363834873067e-05
sVlithobid
p3649
F0.0
sVdysphoria
p3650
F0.0
sVrock
p3651
F3.996543486920943e-05
sVbadly
p3652
F5.454932168816957e-05
sVabnormal
p3653
F2.111457186423689e-05
sVgirl
p3654
F1.558552048233416e-05
sVsummary
p3655
F0.0
sVrelive
p3656
F3.44363834873067e-05
sVcanada
p3657
F0.0
sV3rd
p3658
F6.334371559271068e-05
sVsitagliptin
p3659
F0.0
sVundulate
p3660
F0.0
sVblubber
p3661
F6.88727669746134e-05
sVcorrect
p3662
F0.00010557285932118447
sVsmatter
p3663
F0.0
sVmonster
p3664
F1.332181162306981e-05
sVhefty
p3665
F0.0
sVspiel
p3666
F0.0
sVcalifornia
p3667
F0.0
sVbugtype
p3668
F0.0
sVadvance
p3669
F3.996543486920943e-05
sVlanguage
p3670
F1.332181162306981e-05
sVwaiter
p3671
F6.88727669746134e-05
sVkeppra
p3672
F0.0
sVthing
p3673
F0.00037493814412471683
sVsemipermanent
p3674
F0.0
sVthink
p3675
F0.0009215769336897245
sVfrequent
p3676
F0.00024105468441114694
sVfirst
p3677
F0.0005010855571012571
sVcheese
p3678
F8.445828745694756e-05
sVuppvisat
p3679
F0.0
sVcarry
p3680
F3.153685324413506e-05
sVlethargy
p3681
F0.0
sVlittle
p3682
F0.0
sVlap
p3683
F3.44363834873067e-05
sVlundberg
p3684
F0.0
sVanyone
p3685
F0.00015585520482334163
sV10lbs
p3686
F0.0
sVmoisture
p3687
F0.0
sVcontinuous
p3688
F3.44363834873067e-05
sVadrenergic
p3689
F0.0
sVbutt
p3690
F6.88727669746134e-05
sV11
p3691
F1.0512284414711687e-05
sV10
p3692
F0.0001541801714157714
sV13
p3693
F9.325268136148868e-05
sV12
p3694
F7.70900857078857e-05
sV15
p3695
F9.461055973240518e-05
sV14
p3696
F0.00010657449298455848
sV17
p3697
F6.660905811534905e-05
sV16
p3698
F0.0001332181162306981
sV19
p3699
F2.664362324613962e-05
sV18
p3700
F0.0001332181162306981
sVgotta
p3701
F0.00012668743118542135
sVcinematics
p3702
F0.0
sVaumentar
p3703
F0.0
sVcoconut
p3704
F1.558552048233416e-05
sVcymbalti
p3705
F0.0
sVmarijuana
p3706
F0.0005509821357969072
sVpastry
p3707
F0.0
sVmodality
p3708
F0.0
sVefficient
p3709
F0.0
sVisolate
p3710
F0.0
sVoaxacan
p3711
F0.0
sVpotential
p3712
F0.0003099274513857603
sVperformance
p3713
F5.328724649227924e-05
sVneeeeed
p3714
F0.0
sVchannel
p3715
F8.445828745694756e-05
sV200
p3716
F0.0003788002183603737
sV202
p3717
F0.0
sV205
p3718
F0.0
sVnormal
p3719
F0.000772665074138049
sVtrack
p3720
F0.00014780200304965826
sVincidence
p3721
F0.0
sVcytomel
p3722
F0.0
sVbeta
p3723
F0.0006542912862588273
sVpair
p3724
F6.334371559271068e-05
sVunidad
p3725
F0.0
sV13khz
p3726
F0.0
sVzanaflex
p3727
F0.0
sVspectate
p3728
F0.0
sVpernicious
p3729
F0.0
sVglipizide
p3730
F0.0
sVprecise
p3731
F6.88727669746134e-05
sVshot
p3732
F7.79276024116708e-06
sVshow
p3733
F0.00011563512856182854
sVorgasming
p3734
F0.0
sVestoy
p3735
F6.88727669746134e-05
sVtherapist
p3736
F0.0006887276697461341
sVshoe
p3737
F3.44363834873067e-05
sVtiredness
p3738
F0.0
sVthreshold
p3739
F0.0
sVcorner
p3740
F4.675656144700249e-05
sVdice
p3741
F3.44363834873067e-05
sVglucotrol
p3742
F0.0
sVdick
p3743
F0.0002066183009238402
sV500mg
p3744
F0.0
sVbehind
p3745
F2.8032758439231163e-05
sVdico
p3746
F0.0
sVblack
p3747
F7.792760241167081e-05
sVwalgreens
p3748
F0.0
sVextracellular
p3749
F0.0
sVawareness
p3750
F0.0
sVfluoxoetine
p3751
F0.0
sVfda
p3752
F0.0
sVexaggeration
p3753
F0.0
sVget
p3754
F0.0
sVstomp
p3755
F0.0
sV2mg
p3756
F0.0
sVgee
p3757
F0.0
sVged
p3758
F0.0
sVsecondary
p3759
F1.332181162306981e-05
sVcatecholamine
p3760
F0.0
sVmedial
p3761
F0.0
sVmorning
p3762
F0.000992384877619134
sVsubtype
p3763
F0.0
sVstupid
p3764
F0.00018650536272297736
sVdegress
p3765
F0.0
sVsilently
p3766
F2.111457186423689e-05
sVwiki
p3767
F0.0
sVrelativt
p3768
F0.0
sVtransdermal
p3769
F0.0
sVhonesty
p3770
F0.0
sVsear
p3771
F0.0
sVrelative
p3772
F0.0001033091504619201
sVstigma
p3773
F0.0
sVwonder
p3774
F0.00033304529057674525
sVbutrans
p3775
F0.0
sVskelaxin
p3776
F0.0
sVlabel
p3777
F0.000279758044084466
sVenough
p3778
F0.0
sVlimictal
p3779
F0.0
sVaffordable
p3780
F0.0
sVbrainzaps
p3781
F0.0
sVaugust
p3782
F0.0
sVparent
p3783
F0.0003167185779635534
sVcervical
p3784
F0.0
sVtrader
p3785
F0.0
sVdedicate
p3786
F0.0
sVvilazodone
p3787
F0.0
sVsteroid
p3788
F0.0
sVtout
p3789
F0.0
sVamong
p3790
F8.445828745694756e-05
sVcancer
p3791
F0.0001377455339492268
sVaccusation
p3792
F0.0
sVcancel
p3793
F0.0001033091504619201
sVguesstimate
p3794
F0.0
sVunusual
p3795
F0.00012668743118542135
sVcapable
p3796
F3.44363834873067e-05
sVwobble
p3797
F3.44363834873067e-05
sVcertify
p3798
F0.0
sVmark
p3799
F6.660905811534905e-05
sVmart
p3800
F0.0
sVmistreat
p3801
F0.0
sVwake
p3802
F0.0002930798557075358
sVoverdose
p3803
F0.0003099274513857603
sVsound
p3804
F0.00035846697109368576
sVongoing
p3805
F0.0
sVflouxetine
p3806
F0.0
sVstrain
p3807
F0.0
sVsudden
p3808
F7.993086973841886e-05
sVdangerously
p3809
F3.44363834873067e-05
sVprotein
p3810
F0.0
sVeveryday
p3811
F0.0002066183009238402
sVdifferent
p3812
F0.000958509509663551
sVpas
p3813
F0.00019003114677813203
sVritalin
p3814
F0.0
sVharsh
p3815
F8.445828745694756e-05
sVdoctor
p3816
F0.0021694921597003223
sVpay
p3817
F8.760237012259739e-05
sVpad
p3818
F8.445828745694756e-05
sVpan
p3819
F3.44363834873067e-05
sVworkplace
p3820
F0.0
sVexhaust
p3821
F0.0
sVoil
p3822
F0.00019003114677813203
sVamitiza
p3823
F0.0
sVintrospectively
p3824
F0.0
sVassist
p3825
F3.44363834873067e-05
sVacetyl
p3826
F0.0
sVtotally
p3827
F0.00014026968434100747
sVdrain
p3828
F0.0001377455339492268
sVintermittent
p3829
F0.0
sVmacro
p3830
F0.0
sVroughly
p3831
F0.0
sVvertebra
p3832
F0.0
sVsolve
p3833
F0.00010557285932118447
sVbottle
p3834
F0.0004396197835613037
sVmoney
p3835
F0.00038006229355626406
sVaspect
p3836
F0.00012668743118542135
sVketamine
p3837
F0.0
sV200lbs
p3838
F0.0
sVasthma
p3839
F0.0001033091504619201
sVpile
p3840
F2.111457186423689e-05
sV4
p3841
F0.00018571702465990648
sVglyburide
p3842
F0.0
sVpill
p3843
F0.0029270925964210697
sVgrip
p3844
F7.79276024116708e-06
sVmor
p3845
F3.44363834873067e-05
sVmot
p3846
F0.0
sVinhibition
p3847
F0.0
sVmom
p3848
F0.0011019642715938145
sVimplicate
p3849
F0.0
sVmod
p3850
F0.0001033091504619201
sVeither
p3851
F0.00021374978309913765
sVvoluntarily
p3852
F3.44363834873067e-05
sVpassionate
p3853
F1.332181162306981e-05
sVimmoderation
p3854
F0.0
sVafflict
p3855
F0.0
sVpronounce
p3856
F0.0001033091504619201
sVoxazepam
p3857
F0.0
sVspasm
p3858
F0.0
sVmagement
p3859
F0.0
sVgenetics
p3860
F0.0
sVbenzodiazepine
p3861
F0.0
sVoverly
p3862
F3.44363834873067e-05
sVcritical
p3863
F4.222914372847378e-05
sVinject
p3864
F6.88727669746134e-05
sVmaoi
p3865
F0.0
sVmoderate
p3866
F0.0001377455339492268
sVknife
p3867
F1.332181162306981e-05
sVbreastfeed
p3868
F0.0
sVnotable
p3869
F3.44363834873067e-05
sVnotably
p3870
F6.88727669746134e-05
sVmanufacturer
p3871
F0.0
sVpractical
p3872
F0.0
sVroam
p3873
F3.44363834873067e-05
sVroad
p3874
F0.00010557285932118447
sVcheckup
p3875
F0.0
sVyargh
p3876
F0.0
sV6months
p3877
F0.0
sVinbox
p3878
F0.0
sVstrip
p3879
F2.111457186423689e-05
sVfantasy
p3880
F3.44363834873067e-05
sVpharmaceutical
p3881
F0.0
sVzolpidem
p3882
F0.0
sVhysterical
p3883
F3.44363834873067e-05
sVobsessional
p3884
F0.0
sVfakeness
p3885
F0.0
sVwoudn
p3886
F0.0
sVfricken
p3887
F0.0
sVdownstairs
p3888
F2.111457186423689e-05
sVspice
p3889
F2.111457186423689e-05
sVrewire
p3890
F0.0
sVyoutube
p3891
F0.0
sVdivalproex
p3892
F0.0
sVdeep
p3893
F2.3378280723501244e-05
sVgeneral
p3894
F0.0
sVmaxed
p3895
F0.0
sVimagination
p3896
F3.44363834873067e-05
sVdeem
p3897
F0.0
sVfile
p3898
F6.88727669746134e-05
sVgirlfriend
p3899
F0.0002066183009238402
sVlifetime
p3900
F2.111457186423689e-05
sVmelatonin
p3901
F0.0
sVtibial
p3902
F0.0
sVfill
p3903
F0.00021314898596911695
sVpersonnel
p3904
F0.0
sVhealthpartners
p3905
F0.0
sVfield
p3906
F0.0002066183009238402
sVmertazapine
p3907
F0.0
sVbmi
p3908
F0.0
sVtailbone
p3909
F0.0
sV150mgs
p3910
F0.0
sVpharmaceutically
p3911
F0.0
sVimportant
p3912
F0.000570093440334396
sVparamedic
p3913
F0.0
sVtackle
p3914
F1.332181162306981e-05
sVremote
p3915
F2.111457186423689e-05
sVu
p3916
F0.000559516088168932
sVhugely
p3917
F0.0
sValright
p3918
F8.445828745694756e-05
sVnutrient
p3919
F0.0
sVoral
p3920
F0.00024105468441114694
sVrepresent
p3921
F3.44363834873067e-05
sVforget
p3922
F0.00033304529057674525
sVallergy
p3923
F0.0002066183009238402
sVdollar
p3924
F3.44363834873067e-05
sVshrooms
p3925
F0.00024105468441114694
sVcommute
p3926
F3.44363834873067e-05
sVoxycodone
p3927
F0.0
sVcatheterize
p3928
F6.88727669746134e-05
sVreluctant
p3929
F0.0
sVdermatographia
p3930
F0.0
sVresponsiveness
p3931
F0.0
sViud
p3932
F0.0
sVlovenox
p3933
F0.0
sVclench
p3934
F0.00017218191743653352
sVdifference
p3935
F0.0006545517277913436
sVneurological
p3936
F0.0
sVclozapine
p3937
F0.0
sVbiological
p3938
F0.0
sVzero
p3939
F0.0002533748623708427
sVperspective
p3940
F0.0
sVlawyer
p3941
F0.0001033091504619201
sVdial
p3942
F2.111457186423689e-05
sVstool
p3943
F0.0001033091504619201
sVcaffeine
p3944
F0.0004132366018476804
sVsrigmafied
p3945
F0.0
sVpublic
p3946
F6.660905811534905e-05
sVmovement
p3947
F7.993086973841886e-05
sVcomponent
p3948
F2.111457186423689e-05
sVdisastrous
p3949
F0.0
sVlazanda
p3950
F0.0
sVtable
p3951
F1.0512284414711687e-05
sV900
p3952
F0.0
sVbible
p3953
F0.0
sVreuptaken
p3954
F0.0
sVtemazepam
p3955
F0.0
sVchipper
p3956
F0.0
sVmisery
p3957
F0.0001377455339492268
sVnarrow
p3958
F6.334371559271068e-05
sVcystic
p3959
F0.0
sVauthorize
p3960
F0.0
sVtransit
p3961
F3.44363834873067e-05
sVseroquel
p3962
F0.0
sVsanction
p3963
F0.0
sVestablish
p3964
F3.44363834873067e-05
sVreadily
p3965
F0.0
sVeye
p3966
F0.00038006229355626406
sVdestination
p3967
F4.222914372847378e-05
sVtwo
p3968
F0.0
sVjive
p3969
F0.0
sVneverending
p3970
F0.0
sVparticular
p3971
F6.234208192933664e-05
sVtown
p3972
F2.664362324613962e-05
sVwillfully
p3973
F0.0
sVnone
p3974
F0.0001465399278537679
sVsucky
p3975
F0.0
sVmiddle
p3976
F3.896380120583541e-05
sVrecall
p3977
F0.00017218191743653352
sVdev
p3978
F3.44363834873067e-05
sVremain
p3979
F0.00014780200304965826
sVparagraph
p3980
F0.0
sVdel
p3981
F0.0001033091504619201
sVdea
p3982
F0.0
sVtianeptine
p3983
F0.0
sVdef
p3984
F4.222914372847378e-05
sVstubborn
p3985
F0.0
sVcompare
p3986
F0.00033783314982779026
sVshare
p3987
F6.234208192933664e-05
sVminimum
p3988
F4.222914372847378e-05
sVrainstorm
p3989
F0.0
sVsharp
p3990
F6.88727669746134e-05
sVmapb
p3991
F0.0
sVrheumatological
p3992
F0.0
sVawkward
p3993
F1.332181162306981e-05
sVcomfort
p3994
F0.0
sVlqts
p3995
F0.0
sVamitrip
p3996
F0.0
sVadvice
p3997
F0.0007231640532334408
sVblood
p3998
F0.0006261251462842811
sVresponse
p3999
F0.0005165457523096006
sVmislead
p4000
F0.0
sVresponsibility
p4001
F6.88727669746134e-05
sVmethadone
p4002
F0.0
sVpleasure
p4003
F6.660905811534905e-05
sVpartway
p4004
F3.44363834873067e-05
sVturmeric
p4005
F0.0
sVinfant
p4006
F3.44363834873067e-05
sVaboutthen
p4007
F0.0
sVsuffer
p4008
F0.000570093440334396
sV24
p4009
F0.0001332181162306981
sV25
p4010
F0.00015986173947683772
sV26
p4011
F1.332181162306981e-05
sV27
p4012
F5.328724649227924e-05
sV20
p4013
F0.00012264331817163636
sV21
p4014
F5.328724649227924e-05
sV22
p4015
F2.664362324613962e-05
sVsodium
p4016
F0.0
sVpcp
p4017
F0.0
sV28
p4018
F4.222914372847378e-05
sV29
p4019
F6.334371559271068e-05
sVseasonally
p4020
F3.44363834873067e-05
sVlate
p4021
F8.572036265283788e-05
sVpcm
p4022
F0.0
sVgood
p4023
F0.0
sVlibido
p4024
F0.0
sVsocially
p4025
F0.0001033091504619201
sVuhh
p4026
F3.44363834873067e-05
sVcompound
p4027
F0.0
sVdetach
p4028
F0.0
sVcrohn
p4029
F0.0
sVassociation
p4030
F0.0001033091504619201
sVeasily
p4031
F0.00010909864337633913
sVpregnant
p4032
F0.0004132366018476804
sV2x
p4033
F0.0
sVmicro
p4034
F0.0
sVgoofy
p4035
F0.0
sVnris
p4036
F0.0
sV2a
p4037
F3.44363834873067e-05
sV2b
p4038
F0.0
sV2c
p4039
F0.0
sV2l
p4040
F0.0
sVharm
p4041
F0.0
sVeveryone
p4042
F0.0005994815230381415
sVmental
p4043
F0.002100619392725709
sVhouse
p4044
F6.234208192933664e-05
sVfish
p4045
F2.3378280723501244e-05
sVhard
p4046
F0.000475358374711192
sVidea
p4047
F0.00011563512856182854
sVsober
p4048
F6.88727669746134e-05
sVconnect
p4049
F0.0001377455339492268
sVportland
p4050
F0.0
sVinsurance
p4051
F0.0015840736404161082
sVflower
p4052
F0.0
sVadhdlectures
p4053
F0.0
sVprint
p4054
F6.334371559271068e-05
sVfortitude
p4055
F0.0
sVpristiq
p4056
F0.0
sVevaluation
p4057
F0.0
sVeszopiclone
p4058
F0.0
sVcircumstance
p4059
F6.88727669746134e-05
sVpleasant
p4060
F0.0001377455339492268
sVdifficulty
p4061
F0.00017218191743653352
sVdisneyland
p4062
F0.0
sVdisposition
p4063
F3.44363834873067e-05
sVlaughable
p4064
F0.0
sVbrainstem
p4065
F0.0
sVtranqs
p4066
F0.0
sVdont
p4067
F0.00021114571864236893
sVpop
p4068
F6.334371559271068e-05
sVvibrate
p4069
F0.0
sV40mg
p4070
F0.0
sVwager
p4071
F3.44363834873067e-05
sVdivorce
p4072
F3.44363834873067e-05
sV5th
p4073
F3.44363834873067e-05
sVleast
p4074
F0.0
sVpaint
p4075
F1.332181162306981e-05
sVregulation
p4076
F0.0
sVstatement
p4077
F4.222914372847378e-05
sV188
p4078
F0.0
sVlease
p4079
F3.44363834873067e-05
sVpara
p4080
F0.0
sVneedle
p4081
F8.445828745694756e-05
sVpark
p4082
F0.00017218191743653352
sVpart
p4083
F0.00036625973133485283
sVdifferentiate
p4084
F0.0
sVbelieve
p4085
F0.00038184525181718696
sVpercentage
p4086
F6.88727669746134e-05
sV600mg
p4087
F0.0
sVb
p4088
F8.572036265283788e-05
sVcyclic
p4089
F0.0
sVlargely
p4090
F0.0
sVyoutu
p4091
F0.0
sV2024
p4092
F0.0
sVsedate
p4093
F8.445828745694756e-05
sVmountain
p4094
F0.0
sVlisdexamfetamine
p4095
F0.0
sVcardigan
p4096
F0.0
sVonset
p4097
F0.0
sVmajority
p4098
F4.222914372847378e-05
sVbuild
p4099
F6.234208192933664e-05
sVsalmon
p4100
F0.0
sVchart
p4101
F2.111457186423689e-05
sVcharm
p4102
F6.88727669746134e-05
sVsignificant
p4103
F0.0002754910678984536
sVextremely
p4104
F0.00038006229355626406
sV45mg
p4105
F0.0
sV180lbs
p4106
F0.0
sVorganise
p4107
F0.0
sVweigh
p4108
F0.00012668743118542135
sVparticularly
p4109
F0.0002322602905066058
sVrelation
p4110
F6.88727669746134e-05
sVcarefully
p4111
F3.44363834873067e-05
sVmarinol
p4112
F0.0
sVfine
p4113
F0.0
sVfind
p4114
F0.0
sVunhelpful
p4115
F2.111457186423689e-05
sVgiant
p4116
F4.222914372847378e-05
sVnervous
p4117
F4.222914372847378e-05
sVruin
p4118
F0.0001033091504619201
sVunhappy
p4119
F3.44363834873067e-05
sV8
p4120
F0.00010862693895202076
sVdevastate
p4121
F0.0
sVpermission
p4122
F6.334371559271068e-05
sVexpress
p4123
F0.00017218191743653352
sVwonky
p4124
F0.0
sVcheaper
p4125
F0.00016891657491389513
sVferret
p4126
F0.0
sVcourage
p4127
F3.44363834873067e-05
sVbreast
p4128
F0.00017218191743653352
sVtheft
p4129
F0.0
sVpellet
p4130
F0.0
sVrestart
p4131
F2.111457186423689e-05
sVresolve
p4132
F6.660905811534905e-05
sVcontracturada
p4133
F0.0
sVremove
p4134
F6.660905811534905e-05
sVcommon
p4135
F0.0004129761603151641
sVcynical
p4136
F0.0
sVindividual
p4137
F9.325268136148868e-05
sVovereat
p4138
F0.0
sVtender
p4139
F0.0
sV11th
p4140
F3.44363834873067e-05
sVexpert
p4141
F0.0001033091504619201
sVplease
p4142
F9.461055973240518e-05
sVepididimytis
p4143
F0.0
sVsmallest
p4144
F6.88727669746134e-05
sVmyriad
p4145
F0.0
sVprescribe
p4146
F0.003202583664319523
sVcomplement
p4147
F0.0
sVfoothill
p4148
F0.0
sVpepsi
p4149
F0.0
sVclueless
p4150
F0.0
sVreverse
p4151
F3.996543486920943e-05
sVforeign
p4152
F2.111457186423689e-05
sVkratombrainzapwd
p4153
F0.0
sValot
p4154
F6.88727669746134e-05
sVocurre
p4155
F0.0
sVconsume
p4156
F2.111457186423689e-05
sVpoint
p4157
F0.00031536853244135056
sVsimple
p4158
F1.4016379219615581e-05
sVnewborn
p4159
F0.0
sVdietary
p4160
F0.0
sVsimply
p4161
F0.00018650536272297736
sVthroughout
p4162
F7.993086973841886e-05
sVexpensive
p4163
F0.00017318355109990753
sV30mg
p4164
F0.0
sVraise
p4165
F0.0001332181162306981
sVcreate
p4166
F0.00014780200304965826
sVsecret
p4167
F2.111457186423689e-05
sVintrusive
p4168
F0.0001377455339492268
sVamitriptiline
p4169
F0.0
sVgas
p4170
F6.88727669746134e-05
sVgap
p4171
F0.0002066183009238402
sVamlodipine
p4172
F0.0
sVpricey
p4173
F3.44363834873067e-05
sVunderstand
p4174
F0.000168196550635387
sVwedding
p4175
F1.332181162306981e-05
sVgad
p4176
F0.0
sVgab
p4177
F0.0
sVpierce
p4178
F3.44363834873067e-05
sVpolitician
p4179
F3.44363834873067e-05
sVsolid
p4180
F0.00016891657491389513
sVbill
p4181
F0.00010557285932118447
sVtolerate
p4182
F0.0
sVcrutch
p4183
F0.0
sVcluster
p4184
F0.0
sVfue
p4185
F0.0
sVfun
p4186
F0.00012468416385867328
sVlull
p4187
F0.0
sVderalin
p4188
F0.0
sVcentury
p4189
F2.111457186423689e-05
sVviolently
p4190
F3.44363834873067e-05
sVfakebake
p4191
F0.0
sVunaffected
p4192
F0.0
sVmigraine
p4193
F0.0
sVconcoction
p4194
F0.0
sVwherein
p4195
F3.44363834873067e-05
sVbenign
p4196
F6.88727669746134e-05
sVrigamaro
p4197
F0.0
sVtulpa
p4198
F0.0
sVdevelopment
p4199
F0.00012668743118542135
sVitch
p4200
F0.0001033091504619201
sVyesterday
p4201
F0.0003099274513857603
sVmovimientos
p4202
F0.0
sVosteoarthritis
p4203
F0.0
sVamiodarone
p4204
F0.0
sVpurpose
p4205
F3.896380120583541e-05
sVtask
p4206
F3.996543486920943e-05
sVhalve
p4207
F0.0
sVcouncelor
p4208
F0.0
sVcodeine
p4209
F0.0
sVwithdraw
p4210
F0.00017218191743653352
sVy
p4211
F9.351312289400497e-05
sVtraffic
p4212
F3.44363834873067e-05
sVolanzapine
p4213
F0.0
sVspend
p4214
F0.00017318355109990753
sVprevention
p4215
F0.0
sVpreference
p4216
F3.44363834873067e-05
sVlds
p4217
F0.0
sVshape
p4218
F8.445828745694756e-05
sVirritable
p4219
F6.88727669746134e-05
sValternative
p4220
F0.0002744894342350796
sVcut
p4221
F8.05941805127896e-05
sVcup
p4222
F0.0001033091504619201
sValternate
p4223
F4.222914372847378e-05
sVcuz
p4224
F3.44363834873067e-05
sVsource
p4225
F0.00019982717434604714
sVsnap
p4226
F3.996543486920943e-05
sVcum
p4227
F6.88727669746134e-05
sVbin
p4228
F2.664362324613962e-05
sVwil
p4229
F0.0
sVbig
p4230
F7.358599090298181e-05
sVrebound
p4231
F0.0
sVadrafinil
p4232
F0.0
sVjudgement
p4233
F0.0001033091504619201
sVknock
p4234
F0.00021114571864236893
sVcognitive
p4235
F0.0
sVsemi
p4236
F2.664362324613962e-05
sVlipitor
p4237
F0.0
sVglove
p4238
F3.44363834873067e-05
sVmindfully
p4239
F0.0
sVzoloft
p4240
F0.0
sVindication
p4241
F6.334371559271068e-05
sVrheumatoid
p4242
F0.0
sVptsd
p4243
F0.0
sVscrip
p4244
F0.0
sVgoogle
p4245
F0.0002322602905066058
sVoften
p4246
F0.0005861597114150717
sVmetabolic
p4247
F0.0
sVabsolutely
p4248
F0.00026495384819968075
sVrheumatology
p4249
F0.0
sVback
p4250
F0.0005151019363208726
sVcandle
p4251
F3.44363834873067e-05
sVgastroparesis
p4252
F0.0
sVontop
p4253
F0.0
sVscale
p4254
F0.00016891657491389513
sVpet
p4255
F6.88727669746134e-05
sVdecision
p4256
F0.00010657449298455848
sVper
p4257
F0.0003589477216920272
sVbogus
p4258
F3.44363834873067e-05
sVpee
p4259
F0.00017218191743653352
sVpeg
p4260
F2.111457186423689e-05
sVnose
p4261
F7.79276024116708e-06
sVpatient
p4262
F0.0018940010918018686
sV300
p4263
F0.00010557285932118447
sVbuccal
p4264
F0.0
sVacclimation
p4265
F0.0
sVusa
p4266
F3.44363834873067e-05
sVconstraint
p4267
F0.0
sVpfizer
p4268
F0.0
sVgoody
p4269
F0.0
sVoatmeal
p4270
F3.44363834873067e-05
sVounce
p4271
F0.0001033091504619201
sVsteven
p4272
F0.0
sVlesson
p4273
F3.44363834873067e-05
sVontario
p4274
F0.0
sVoverpower
p4275
F0.0
sVhomemade
p4276
F3.44363834873067e-05
sVforward
p4277
F0.0
sVthiazolidinediones
p4278
F0.0
sVsideshow
p4279
F3.44363834873067e-05
sVsubjectively
p4280
F0.0
sVtricylcic
p4281
F0.0
sVnutshell
p4282
F0.0
sVblockage
p4283
F0.0
sVpercocet
p4284
F0.0
sVplanet
p4285
F6.88727669746134e-05
sVsort
p4286
F5.6065516878462326e-05
sVludiomil
p4287
F0.0
sVconstant
p4288
F0.0003589477216920272
sVdeprive
p4289
F0.0
sVsingle
p4290
F4.905732726865454e-05
sVcure
p4291
F0.0004476729853349871
sVcurb
p4292
F0.0001033091504619201
sVeller
p4293
F0.0
sVpreguntaste
p4294
F0.0
sVb12
p4295
F0.0
sVconfine
p4296
F0.0
sVunderweight
p4297
F0.0
sVlend
p4298
F0.0
sVfavourite
p4299
F2.111457186423689e-05
sVutterly
p4300
F6.88727669746134e-05
sVfisher
p4301
F0.0
sVconfirm
p4302
F8.445828745694756e-05
sV2000
p4303
F4.222914372847378e-05
sV2006
p4304
F3.44363834873067e-05
sV2007
p4305
F0.0
sVbloodwork
p4306
F0.0
sVuterus
p4307
F3.44363834873067e-05
sV2008
p4308
F0.0
sV2009
p4309
F0.0
sVjason
p4310
F0.0
sVsideeffects
p4311
F0.0
sVpsilocybin
p4312
F0.0
sVstrep
p4313
F0.0
sVreposted
p4314
F0.0
sVprodrug
p4315
F0.0
sVspringboardwebapp
p4316
F0.0
sVintensive
p4317
F3.44363834873067e-05
sVav
p4318
F0.0
sVlilly
p4319
F0.0
sVingredient
p4320
F0.0001033091504619201
sVcortisone
p4321
F0.0
sVdessert
p4322
F4.222914372847378e-05
sVaccuse
p4323
F0.0
sVsurgeon
p4324
F0.0
sVarrange
p4325
F3.44363834873067e-05
sVmolar
p4326
F0.0
sVseverely
p4327
F0.0001377455339492268
sVlopressor
p4328
F0.0
sVresurface
p4329
F0.0
sVshock
p4330
F0.0002956040060993165
sVimgur
p4331
F0.0
sVhavent
p4332
F0.0
sVsavella
p4333
F0.0
sVcptsd
p4334
F0.0
sVchomp
p4335
F0.0
sVuncomfortable
p4336
F6.88727669746134e-05
sVsubtle
p4337
F3.44363834873067e-05
sVdepression
p4338
F6.88727669746134e-05
sV3x
p4339
F0.0
sVaccess
p4340
F4.222914372847378e-05
sVpayday
p4341
F6.88727669746134e-05
sVexercise
p4342
F0.0014118917229795748
sVbody
p4343
F0.00034690538568548566
sVexchange
p4344
F4.222914372847378e-05
sVjointly
p4345
F0.0
sVsino
p4346
F0.0
sVsink
p4347
F1.332181162306981e-05
sVothers
p4348
F0.00046756561447002486
sVsing
p4349
F2.111457186423689e-05
sVsafer
p4350
F0.0
sVmindset
p4351
F0.0
sVremark
p4352
F0.0
sVnumbness
p4353
F0.0
sV33
p4354
F0.0
sV32
p4355
F2.664362324613962e-05
sV31
p4356
F4.222914372847378e-05
sV30
p4357
F0.00025716108795851363
sV37
p4358
F4.222914372847378e-05
sV36
p4359
F8.445828745694756e-05
sV35
p4360
F2.111457186423689e-05
sV34
p4361
F1.332181162306981e-05
sVclimb
p4362
F4.222914372847378e-05
sVdepressant
p4363
F0.0
sVprivate
p4364
F1.332181162306981e-05
sVocd
p4365
F0.0
sVdecrease
p4366
F0.0007920368202080541
sVlamcital
p4367
F0.0
sVviibryd
p4368
F0.0
sVchi
p4369
F0.0
sVreadable
p4370
F3.44363834873067e-05
sVoverbear
p4371
F0.0
sVupcoming
p4372
F0.0
sVaca
p4373
F0.0
sVtrail
p4374
F6.88727669746134e-05
sVhabitually
p4375
F0.0
sVashamed
p4376
F6.88727669746134e-05
sVamygdala
p4377
F0.0
sVaccount
p4378
F6.334371559271068e-05
sVf
p4379
F6.334371559271068e-05
sVtunnel
p4380
F4.222914372847378e-05
sVceliac
p4381
F0.0
sVobvious
p4382
F6.660905811534905e-05
sVpraise
p4383
F0.0
sVdidnt
p4384
F6.88727669746134e-05
sVquesaritas
p4385
F0.0
sVfavorite
p4386
F3.996543486920943e-05
sVthinkign
p4387
F0.0
sVniaaa
p4388
F0.0
sVeffectively
p4389
F0.0
sVmjne
p4390
F0.0
sVpsyched
p4391
F6.88727669746134e-05
sVlame
p4392
F3.44363834873067e-05
sVtrazadone
p4393
F0.0
sVdilator
p4394
F0.0
sVhyperbaric
p4395
F0.0
sVstock
p4396
F6.660905811534905e-05
sVprofile
p4397
F0.00012668743118542135
sVbyetta
p4398
F0.0
sVcollection
p4399
F4.222914372847378e-05
sVnullify
p4400
F0.0
sVphysio
p4401
F0.0
sVsaught
p4402
F0.0
sVdescansen
p4403
F0.0
sVbind
p4404
F0.0
sV9am
p4405
F0.0
sVsearchterm
p4406
F0.0
sVaddiction
p4407
F0.0
sVcrosstalk
p4408
F0.0
sVmeter
p4409
F3.44363834873067e-05
sVemsam
p4410
F0.0
sVunofficially
p4411
F0.0
sVnasty
p4412
F0.00044340600914897474
sVbunch
p4413
F0.00019982717434604714
sVtso
p4414
F0.0
sVle
p4415
F0.0024449832275987757
sVlb
p4416
F0.0
sVantipsychotic
p4417
F0.0
sVtsh
p4418
F0.0
sVla
p4419
F4.555323246375064e-05
sVlo
p4420
F0.0
sVll
p4421
F0.00037493814412471683
sVlabor
p4422
F0.0
sVage
p4423
F7.792760241167081e-05
sVcriminal
p4424
F3.44363834873067e-05
sVimage
p4425
F2.111457186423689e-05
sVtsp
p4426
F0.0
sVdad
p4427
F5.328724649227924e-05
sVgreater
p4428
F0.00010557285932118447
sVlater
p4429
F0.0004529415951843736
sVspell
p4430
F8.445828745694756e-05
sVdat
p4431
F1.332181162306981e-05
sVmention
p4432
F0.0006128033346612113
sVsonata
p4433
F0.0
sVday
p4434
F0.0
sVpsc_overview_page
p4435
F0.0
sVfebruary
p4436
F0.0
sVthrill
p4437
F0.0
sVpracticioner
p4438
F0.0
sVlamictal
p4439
F0.0
sVflair
p4440
F0.0
sVactivate
p4441
F0.0002533748623708427
sVcelexa
p4442
F0.0
sVlesion
p4443
F0.0
sVsexual
p4444
F0.0010675278881065078
sVapparrently
p4445
F0.0
sVrev
p4446
F0.0
sVmate
p4447
F1.332181162306981e-05
sVsituational
p4448
F0.0
sVrem
p4449
F0.0
sVlecture
p4450
F0.0
sVref
p4451
F3.44363834873067e-05
sVred
p4452
F7.008189609807791e-06
sVfrank
p4453
F0.0
sVamitriptylline
p4454
F0.0
sVclarify
p4455
F0.0
sVque
p4456
F0.0
sVbleed
p4457
F1.332181162306981e-05
sVquo
p4458
F0.0
sVsustena
p4459
F0.0
sVinteraction
p4460
F0.00034436383487306704
sVyard
p4461
F0.0
sVpeeve
p4462
F0.0
sVdrugabuse
p4463
F0.0
sVqualification
p4464
F0.0
sVcrestor
p4465
F0.0
sVretail
p4466
F0.0
sVsouth
p4467
F2.664362324613962e-05
sVfinest
p4468
F1.332181162306981e-05
sVsuffix
p4469
F3.44363834873067e-05
sVprobado
p4470
F0.0
sVantidepresants
p4471
F0.0
sVsack
p4472
F3.44363834873067e-05
sVhurdle
p4473
F0.0
sVunsexual
p4474
F0.0
sVfacil
p4475
F0.0
sVsadly
p4476
F0.0
sVrealistically
p4477
F0.0
sVvagina
p4478
F6.88727669746134e-05
sVchaser
p4479
F0.0
sVnitro
p4480
F0.0
sVexplanation
p4481
F0.00024105468441114694
sVnobody
p4482
F0.00010557285932118447
sVenvironmental
p4483
F0.0
sVskyrim
p4484
F0.0
sVgoku
p4485
F0.0
sVslack
p4486
F0.0
sVshampoo
p4487
F3.44363834873067e-05
sVclazapam
p4488
F0.0
sVlover
p4489
F2.111457186423689e-05
sVsevilla
p4490
F0.0
sVcomfortable
p4491
F8.445828745694756e-05
sVunlikely
p4492
F0.0
sVthroat
p4493
F7.79276024116708e-06
sVapparently
p4494
F0.00018650536272297736
sVcongrats
p4495
F0.0
sVmid
p4496
F6.660905811534905e-05
sVmix
p4497
F0.0002664362324613962
sVerosive
p4498
F0.0
sVunless
p4499
F0.0002397926092152566
sVprednisone
p4500
F0.0
sVeight
p4501
F5.328724649227924e-05
sVrequest
p4502
F5.328724649227924e-05
sVdisease
p4503
F0.0002744894342350796
sVabsurd
p4504
F3.44363834873067e-05
sVoccasion
p4505
F6.334371559271068e-05
sVskinny
p4506
F3.44363834873067e-05
sVmonotherapy
p4507
F0.0
sVnormally
p4508
F0.0002744894342350796
sV6000mg
p4509
F0.0
sVkite
p4510
F0.0
sVtext
p4511
F2.111457186423689e-05
sVtriiodothyronine
p4512
F0.0
sVvistaril
p4513
F0.0
sVsupporter
p4514
F0.0
sVstaff
p4515
F6.88727669746134e-05
sVknowledge
p4516
F0.00019003114677813203
sV400mgs
p4517
F0.0
sVcolbert
p4518
F0.0
sVprolong
p4519
F0.0
sVregularly
p4520
F0.0004821093688222939
sVpharmacology
p4521
F0.0
sVbeat
p4522
F9.325268136148868e-05
sVnoped
p4523
F0.0
sVrush
p4524
F9.325268136148868e-05
sVbear
p4525
F8.445828745694756e-05
sVwhat_supplementsnootropics_have_you_experienced
p4526
F0.0
sVaforementioned
p4527
F0.0
sVbead
p4528
F0.0
sVunjustified
p4529
F0.0
sVkardashians
p4530
F0.0
sVcyclen
p4531
F0.0
sVgabapentic
p4532
F0.0
sV200mg
p4533
F0.0
sVmascara
p4534
F0.0
sVgabapentin
p4535
F0.0
sVenhancer
p4536
F0.0
sVfarthest
p4537
F0.0
sVintensity
p4538
F0.0001377455339492268
sVaustistic
p4539
F0.0
sVfetanyl
p4540
F0.0
sVinterview
p4541
F0.0001033091504619201
sVreform
p4542
F0.0
sVpattern
p4543
F0.0
sVconfusion
p4544
F6.88727669746134e-05
sVprogress
p4545
F1.558552048233416e-05
sVboundary
p4546
F3.44363834873067e-05
sVsorrow
p4547
F3.44363834873067e-05
sVdeliver
p4548
F2.111457186423689e-05
sVno
p4549
F0.0
sVinorgasmia
p4550
F0.0
sVlegit
p4551
F0.0001033091504619201
sVempathy
p4552
F0.0
sVinstant
p4553
F2.111457186423689e-05
sVakathisia
p4554
F0.0
sVjoke
p4555
F0.00019003114677813203
sVequal
p4556
F6.88727669746134e-05
sVgabapentine
p4557
F0.0
sVinsidious
p4558
F0.0
sVswallow
p4559
F2.111457186423689e-05
sVplacebo
p4560
F0.0
sVglorious
p4561
F2.111457186423689e-05
sVgel
p4562
F3.44363834873067e-05
sVcomment
p4563
F0.00033783314982779026
sVvent
p4564
F0.0
sVrelevant
p4565
F0.0
sVlaugh
p4566
F7.993086973841886e-05
sVad
p4567
F8.445828745694756e-05
sVianad
p4568
F0.0
sVtremendous
p4569
F3.44363834873067e-05
sVgaze
p4570
F0.0
sVhellish
p4571
F0.0
sVah
p4572
F0.0
sVproposal
p4573
F3.44363834873067e-05
sVdefine
p4574
F6.88727669746134e-05
sVnorephinephrine
p4575
F0.0
sVessentially
p4576
F0.0
sVbulk
p4577
F0.0
sVtense
p4578
F0.0
sVmundo
p4579
F0.0
sVfellow
p4580
F6.88727669746134e-05
sVvolunteer
p4581
F0.0001033091504619201
sVmulti
p4582
F3.996543486920943e-05
sVhypotension
p4583
F0.0
sVplain
p4584
F5.328724649227924e-05
sVappearance
p4585
F1.332181162306981e-05
sVvalue
p4586
F1.558552048233416e-05
sVmanually
p4587
F3.44363834873067e-05
sValmost
p4588
F0.00021024568829423375
sVdelusion
p4589
F0.0
sVpartner
p4590
F2.111457186423689e-05
sVdeed
p4591
F0.0
sVwhirl
p4592
F0.0
sVproductivity
p4593
F0.0
sVremoran
p4594
F0.0
sVfinite
p4595
F0.0
sVtiempo
p4596
F0.0
sVmaterial
p4597
F6.334371559271068e-05
sVquad
p4598
F0.0
sVsunburn
p4599
F0.0
sVcenter
p4600
F1.332181162306981e-05
sVthought
p4601
F0.00015585520482334163
sVoops
p4602
F3.44363834873067e-05
sVposition
p4603
F1.558552048233416e-05
sVmuscle
p4604
F0.0011708370385684278
sVlatest
p4605
F2.111457186423689e-05
sVcoaster
p4606
F3.44363834873067e-05
sVclinic
p4607
F0.0
sVtone
p4608
F2.111457186423689e-05
sV750mg
p4609
F0.0
sVabsorption
p4610
F0.0
sVlake
p4611
F3.44363834873067e-05
sVadd
p4612
F0.0007593432625149792
sVvoila
p4613
F3.44363834873067e-05
sV280
p4614
F0.0
sVought
p4615
F3.44363834873067e-05
sVfyi
p4616
F0.0
sVdeployment
p4617
F0.0
sVlike
p4618
F0.0
sVsuccess
p4619
F0.00021114571864236893
sV24362450
p4620
F0.0
sVtram
p4621
F0.0
sVchick
p4622
F3.44363834873067e-05
sVozono
p4623
F0.0
sVsoft
p4624
F1.558552048233416e-05
sVaccessible
p4625
F6.88727669746134e-05
sValivi
p4626
F0.0
sValive
p4627
F2.3378280723501244e-05
sVhair
p4628
F0.0001332181162306981
sVconvey
p4629
F0.0
sVrecommendation
p4630
F0.00017218191743653352
sVproper
p4631
F4.675656144700249e-05
sVtecta
p4632
F0.0
sVest
p4633
F2.111457186423689e-05
sVxanax
p4634
F0.0
sVexisitng
p4635
F0.0
sVeso
p4636
F0.0
sVregain
p4637
F2.111457186423689e-05
sVpepper
p4638
F3.44363834873067e-05
sVnoise
p4639
F4.675656144700249e-05
sVslight
p4640
F0.00010557285932118447
sVstellar
p4641
F0.0
sVhost
p4642
F6.660905811534905e-05
sVexpire
p4643
F0.0001033091504619201
sValthough
p4644
F0.00030391764940551614
sVworthy
p4645
F2.111457186423689e-05
sVpreventative
p4646
F0.0
sVactual
p4647
F0.0002754910678984536
sVtendonitis
p4648
F0.0
sVdiscard
p4649
F0.0
sVfunctional
p4650
F0.0003099274513857603
sVchronic
p4651
F0.0018940010918018686
sVdoesnt
p4652
F4.222914372847378e-05
sVesteem
p4653
F3.44363834873067e-05
sVfemale
p4654
F7.993086973841886e-05
sVadolescent
p4655
F0.0
sVintrovert
p4656
F0.0
sVbiggest
p4657
F0.0003589477216920272
sVonlabel
p4658
F0.0
sVbuy
p4659
F0.00018650536272297736
sVdextroamphetamine
p4660
F0.0
sVbus
p4661
F3.44363834873067e-05
sVcoke
p4662
F6.88727669746134e-05
sVbuu
p4663
F0.0
sVplague
p4664
F3.44363834873067e-05
sVbum
p4665
F1.332181162306981e-05
sVkraft
p4666
F0.0
sVbug
p4667
F4.222914372847378e-05
sVbud
p4668
F0.0
sVpartially
p4669
F0.00010557285932118447
sVwise
p4670
F6.88727669746134e-05
sVdangerous
p4671
F0.00017318355109990753
sVflip
p4672
F6.88727669746134e-05
sVpin
p4673
F0.0001033091504619201
sVpig
p4674
F2.111457186423689e-05
sVtabletop
p4675
F0.0
sVpit
p4676
F3.44363834873067e-05
sVpiv
p4677
F0.0
sV48
p4678
F4.222914372847378e-05
sV45
p4679
F2.664362324613962e-05
sVoak
p4680
F3.44363834873067e-05
sVdetail
p4681
F0.0002533748623708427
sV40
p4682
F7.993086973841886e-05
sV41
p4683
F3.44363834873067e-05
sVspecial
p4684
F2.452866363432727e-05
sVruptake
p4685
F0.0
sVstimulant
p4686
F0.0
sVirritability
p4687
F0.0
sVearplug
p4688
F0.0
sVwallow
p4689
F3.44363834873067e-05
sVaugmentation
p4690
F0.0
sVnuvaring
p4691
F0.0
sVgodsend
p4692
F0.0
sVramble
p4693
F0.0
sVlactose
p4694
F3.44363834873067e-05
sVcommorbidities
p4695
F0.0
sVfucker
p4696
F6.88727669746134e-05
sVyell
p4697
F6.88727669746134e-05
sV8th
p4698
F6.88727669746134e-05
sVsleep
p4699
F0.0017451573226221451
sVappetite
p4700
F0.0010330915046192011
sVhate
p4701
F0.0009642187376445877
sVpoorly
p4702
F6.88727669746134e-05
sVparis
p4703
F0.0
sVtweet
p4704
F0.0
sVwhatsoever
p4705
F2.111457186423689e-05
sVtenacity
p4706
F0.0
sV50mg
p4707
F0.0
sVrisk
p4708
F0.0004129761603151641
sV3tnzzk
p4709
F0.0
sVcitalopram
p4710
F0.0
sVdispense
p4711
F0.0
sVrise
p4712
F4.222914372847378e-05
sVlurk
p4713
F0.0
sVevery
p4714
F0.0003398971960756779
sVjack
p4715
F0.00024105468441114694
sVvastly
p4716
F0.0
sVencounter
p4717
F3.44363834873067e-05
sVschool
p4718
F0.0010330915046192011
sVconceive
p4719
F3.44363834873067e-05
sVenjoy
p4720
F0.0002397926092152566
sVfentora
p4721
F0.0
sVoverdo
p4722
F0.0
sVpharmaceauticals
p4723
F0.0
sVlessen
p4724
F0.0
sVconsistent
p4725
F6.88727669746134e-05
sValmond
p4726
F2.111457186423689e-05
sVdirect
p4727
F6.88727669746134e-05
sVstreet
p4728
F0.0001033091504619201
sVkratom
p4729
F0.0
sVexpressive
p4730
F3.44363834873067e-05
sVblue
p4731
F0.0001465399278537679
sVhide
p4732
F6.660905811534905e-05
sVchrist
p4733
F0.0
sVworsen
p4734
F0.0
sVpoison
p4735
F6.88727669746134e-05
sVblur
p4736
F3.44363834873067e-05
sVpata
p4737
F0.0
sVpath
p4738
F1.558552048233416e-05
sVvoice
p4739
F0.00016891657491389513
sVforum
p4740
F0.0002754910678984536
sVchanger
p4741
F0.0
sVpatience
p4742
F6.88727669746134e-05
sVdiabetes
p4743
F0.0006542912862588273
sVwould
p4744
F0.0
sVhospital
p4745
F0.0002533748623708427
sVtail
p4746
F1.332181162306981e-05
sVmenopausal
p4747
F0.0
sVassessment
p4748
F3.44363834873067e-05
sVbreathe
p4749
F0.0002066183009238402
sVfosamax
p4750
F0.0
sVnaive
p4751
F0.0
sVphony
p4752
F0.0
sVphone
p4753
F8.445828745694756e-05
sVclonazolam
p4754
F0.0
sVexcellent
p4755
F0.0002066183009238402
sVmouthbreathy
p4756
F0.0
sVmust
p4757
F0.0
sVcerebellum
p4758
F3.44363834873067e-05
sVmd
p4759
F0.0
sVmg
p4760
F0.0
sVjoin
p4761
F1.558552048233416e-05
sVcheapest
p4762
F3.44363834873067e-05
sVmo
p4763
F3.44363834873067e-05
sVmn
p4764
F0.0
sVmi
p4765
F0.0
sVmj
p4766
F0.0
sVdizzy
p4767
F0.0
sVexistant
p4768
F3.44363834873067e-05
sVmp
p4769
F0.0
sVmr
p4770
F0.0
sVsalvage
p4771
F0.0
sVaddictive
p4772
F0.0
sVloosen
p4773
F0.0
sVdebone
p4774
F0.0
sVjoyous
p4775
F0.0
sVpyschiatrist
p4776
F0.0
sVkickassedness
p4777
F0.0
sVlexapro
p4778
F0.0
sVguarantee
p4779
F0.0001377455339492268
sVend
p4780
F0.0002522948259530805
sVndris
p4781
F0.0
sVtoxic
p4782
F0.0
sVgate
p4783
F6.88727669746134e-05
sVwidespread
p4784
F0.0
sVcyberspace
p4785
F0.0
sVmispronounce
p4786
F0.0
sVmess
p4787
F0.0005067497247416854
sVarthritis
p4788
F0.0
sVlump
p4789
F0.0
sVcarefree
p4790
F0.0
sVpreconception
p4791
F0.0
sVparallel
p4792
F0.0
sVcopay
p4793
F0.0
sVaaaaaannnnnyway
p4794
F0.0
sVtetracyclic
p4795
F0.0
sVpatent
p4796
F0.0
sVpoppyseed
p4797
F3.44363834873067e-05
sVupside
p4798
F6.334371559271068e-05
sVenter
p4799
F3.896380120583541e-05
sVfall
p4800
F0.0003589477216920272
sVsociability
p4801
F0.0
sVdigest
p4802
F3.44363834873067e-05
sVncbi
p4803
F0.0
sVimo
p4804
F0.0
sVdrawback
p4805
F0.0
sVfade
p4806
F0.00012668743118542135
sV400
p4807
F6.334371559271068e-05
sVurination
p4808
F3.44363834873067e-05
sVpropanalol
p4809
F0.0
sVabsolutism
p4810
F0.0
sVconfuse
p4811
F0.00012668743118542135
sVpotentater
p4812
F0.0
sVdiseased
p4813
F0.0
sVlento
p4814
F0.0
sVnumebrs
p4815
F0.0
sVgloom
p4816
F0.0
sVlithium
p4817
F0.0
sVexplode
p4818
F0.0
sVvictory
p4819
F0.0
sVfitness
p4820
F3.44363834873067e-05
sVconstipation
p4821
F6.88727669746134e-05
sVdiane
p4822
F0.0
sVsaturday
p4823
F0.0
sVclothe
p4824
F0.0
sVdepress
p4825
F6.88727669746134e-05
sVgon
p4826
F3.44363834873067e-05
sVgod
p4827
F0.0003589477216920272
sVsane
p4828
F6.88727669746134e-05
sVnewly
p4829
F3.44363834873067e-05
sVgov
p4830
F0.0003099274513857603
sVperception
p4831
F3.44363834873067e-05
sVassociate
p4832
F0.0005278642966059223
sVfree
p4833
F0.00022599004699384536
sVcirrhosis
p4834
F0.0
sVmanagement
p4835
F0.0008953459706699742
sVicky
p4836
F3.44363834873067e-05
sVdamper
p4837
F0.0
sVfret
p4838
F0.0
sVtolerant
p4839
F0.0
sVhopeless
p4840
F0.0001033091504619201
sVonto
p4841
F5.328724649227924e-05
sValready
p4842
F0.00012965150778144414
sVprimary
p4843
F0.0003589477216920272
sVrestrict
p4844
F0.0
sVrant
p4845
F0.0
sVinsulation
p4846
F0.0
sVcategorize
p4847
F0.0
sVcalorie
p4848
F0.0006887276697461341
sVsharpest
p4849
F0.0
sVlaserbeam
p4850
F0.0
sVdysfunction
p4851
F0.0
sVsarcasm
p4852
F0.0
sVtop
p4853
F0.00015585520482334163
sVeuphoria
p4854
F0.0
sVkinder
p4855
F0.0
sVton
p4856
F0.0008953459706699742
sVinconvenient
p4857
F0.0
sVsubmersion
p4858
F0.0
sVduress
p4859
F0.0
sVglucose
p4860
F0.0
sVmurder
p4861
F0.0001377455339492268
sVantihypertensive
p4862
F0.0
sVreframing
p4863
F0.0
sVtool
p4864
F0.0001377455339492268
sVserve
p4865
F0.00012668743118542135
sVcolitis
p4866
F0.0
sV150mg
p4867
F0.0
sVepisodic
p4868
F0.0
sVrampage
p4869
F0.0
sV10th
p4870
F1.332181162306981e-05
sVbridge
p4871
F2.664362324613962e-05
sVfashion
p4872
F6.88727669746134e-05
sVraw
p4873
F2.664362324613962e-05
sVrat
p4874
F0.00012668743118542135
sVefecto
p4875
F0.0
sVlunchtime
p4876
F3.44363834873067e-05
sVadhd
p4877
F0.0
sVregulate
p4878
F0.0
sVleafy
p4879
F3.44363834873067e-05
sVspade
p4880
F0.0
sVrelatively
p4881
F0.00017218191743653352
sVpaliar
p4882
F0.0
sVrelapse
p4883
F0.0
sVclient
p4884
F4.222914372847378e-05
sVeffectiveness
p4885
F0.0
sVplenty
p4886
F0.00019003114677813203
sVcoin
p4887
F3.44363834873067e-05
sVpotency
p4888
F0.0
sVlifesaver
p4889
F0.0
sVinterject
p4890
F3.44363834873067e-05
sVreputation
p4891
F4.222914372847378e-05
sVnorepenephrine
p4892
F0.0
sVrandom
p4893
F0.00014780200304965826
sVsynergistic
p4894
F0.0
sVearth
p4895
F1.558552048233416e-05
sVbail
p4896
F3.44363834873067e-05
sVminnesota
p4897
F0.0
sVdisgust
p4898
F0.0
sVwatch
p4899
F0.0
sVfluid
p4900
F6.88727669746134e-05
sVamazon
p4901
F6.88727669746134e-05
sVdespite
p4902
F8.572036265283788e-05
sVreport
p4903
F0.00019003114677813203
sVtoolbox
p4904
F0.0
sVhospitalize
p4905
F0.0
sVtwice
p4906
F0.0002930798557075358
sVhippocratical
p4907
F0.0
sVcataplexy
p4908
F0.0
sVhabit
p4909
F0.0
sVnut
p4910
F3.44363834873067e-05
sVbeg
p4911
F0.0
sVresist
p4912
F3.44363834873067e-05
sVdepressive
p4913
F0.0
sVcapacity
p4914
F0.0
sVgrandmother
p4915
F3.44363834873067e-05
sVfinger
p4916
F7.993086973841886e-05
sVhopefully
p4917
F0.0
sVmum
p4918
F2.111457186423689e-05
sVapproach
p4919
F6.334371559271068e-05
sVwean
p4920
F0.0
sVweak
p4921
F0.0001033091504619201
sVhowever
p4922
F0.001140186880668792
sVadage
p4923
F0.0
sVwear
p4924
F0.00014780200304965826
sVnews
p4925
F0.0001198963046076283
sVoxidase
p4926
F0.0
sVdrowsy
p4927
F0.0
sVimprove
p4928
F0.00040117686542050094
sVprotect
p4929
F3.44363834873067e-05
sVfault
p4930
F7.79276024116708e-06
sVmildly
p4931
F0.0
sVconfide
p4932
F0.0
sVcypralex
p4933
F0.0
sVinactivate
p4934
F0.0
sVtrust
p4935
F0.00042229143728473787
sVbathroom
p4936
F0.00017218191743653352
sVformulary
p4937
F0.0
sV7ish
p4938
F0.0
sVbinge
p4939
F0.0
sVquickly
p4940
F0.00018702624578800995
sVconfident
p4941
F0.0
sVbeer
p4942
F0.0001033091504619201
sVbp2
p4943
F0.0
sVbladder
p4944
F6.88727669746134e-05
sVuncommon
p4945
F2.111457186423689e-05
sVcraft
p4946
F0.0
sVneurontin
p4947
F0.0
sVcatch
p4948
F0.00012668743118542135
sVseriacyl
p4949
F0.0
sVapprehension
p4950
F0.0
sVdepo
p4951
F0.0
sVcracker
p4952
F3.44363834873067e-05
sVbuproprion
p4953
F0.0
sVn
p4954
F2.1024568829423374e-05
sVweren
p4955
F0.0001198963046076283
sVprecede
p4956
F0.0
sVprocedure
p4957
F3.44363834873067e-05
sVciprilix
p4958
F0.0
sVexperience
p4959
F0.003019383776585876
sVpathology
p4960
F0.0
sVsuggest
p4961
F0.0009297823541572808
sVcomplex
p4962
F9.325268136148868e-05
sVfructise
p4963
F0.0
sVseveral
p4964
F0.0009079265901621864
sVdiazepam
p4965
F0.0
sVsocial
p4966
F7.792760241167081e-05
sVaction
p4967
F0.00021114571864236893
sVwhenver
p4968
F0.0
sVcycle
p4969
F0.00038006229355626406
sVspecialize
p4970
F0.0
sVshortly
p4971
F0.0001033091504619201
sVprioritize
p4972
F3.44363834873067e-05
sVdarnet
p4973
F0.0
sVmother
p4974
F3.5040948049038955e-05
sVtldr
p4975
F0.0
sVseasonal
p4976
F0.0
sVlaptop
p4977
F2.111457186423689e-05
sVbruise
p4978
F0.0
sVinflammatories
p4979
F0.0
sVdopamine
p4980
F0.0
sVmodulate
p4981
F0.0
sVenlighten
p4982
F0.0
sVpharmacy
p4983
F0.0013085825725176546
sVteenager
p4984
F3.44363834873067e-05
sVtolerable
p4985
F0.0
sVjudge
p4986
F6.334371559271068e-05
sVapart
p4987
F7.993086973841886e-05
sVditto
p4988
F0.0
sVgift
p4989
F6.88727669746134e-05
sV50
p4990
F0.00012468416385867328
sVspecific
p4991
F0.0004129761603151641
sVdissociative
p4992
F0.0
sVarbitrary
p4993
F3.44363834873067e-05
sVhunchback
p4994
F3.44363834873067e-05
sVsuccessfully
p4995
F0.00017218191743653352
sVselectivity
p4996
F0.0
sVelection
p4997
F0.0
sVescape
p4998
F2.3378280723501244e-05
sVadvertise
p4999
F8.445828745694756e-05
sVguess
p5000
F0.0005861597114150717
sVincontinence
p5001
F0.0001033091504619201
sVice
p5002
F0.00012668743118542135
sVicd
p5003
F0.0
sVeverything
p5004
F0.00020323749868442594
sVatenolol
p5005
F0.0
sVintolerant
p5006
F6.88727669746134e-05
sVchristmas
p5007
F0.0
sVcord
p5008
F0.0
sVcore
p5009
F2.664362324613962e-05
sVesophagitis
p5010
F0.0
sVdiscount
p5011
F3.44363834873067e-05
sVpathic
p5012
F0.0
sVchapter
p5013
F0.00017218191743653352
sVlimitation
p5014
F0.0
sVsurround
p5015
F0.0
sVdinner
p5016
F6.660905811534905e-05
sVplus
p5017
F0.00021314898596911695
sValgo
p5018
F0.0
sVrefuerza
p5019
F0.0
sVmismo
p5020
F0.0
sVtwitch
p5021
F0.0001033091504619201
sVaha
p5022
F0.0
sVppd
p5023
F0.0
sVobscene
p5024
F0.0
sVbath
p5025
F0.00017218191743653352
sVaccommodate
p5026
F3.44363834873067e-05
sVppt
p5027
F0.0
sVrely
p5028
F4.222914372847378e-05
sVsunlight
p5029
F0.0
sVseeker
p5030
F0.0
sVhumalog
p5031
F0.0
sVgin
p5032
F3.44363834873067e-05
sVmetabolism
p5033
F0.00034436383487306704
sVpurposely
p5034
F0.0
sVquestionable
p5035
F3.44363834873067e-05
sVintolerance
p5036
F0.0
sVhead
p5037
F0.00013315560258634802
sVmedium
p5038
F1.332181162306981e-05
sVhangover
p5039
F3.44363834873067e-05
sVheal
p5040
F0.0
sVdeny
p5041
F0.00034436383487306704
sVheat
p5042
F0.00016891657491389513
sVhear
p5043
F0.00043639457350535654
sVhistory_adhd_2
p5044
F0.0
sVdeltasone
p5045
F0.0
sVcounsel
p5046
F0.0
sVbargain
p5047
F3.44363834873067e-05
sVlimbic
p5048
F0.0
sVtrip
p5049
F0.0002533748623708427
sVregime
p5050
F0.0
sVnh
p5051
F0.0
sVradically
p5052
F0.0
sVwhee
p5053
F0.0
sVwhereas
p5054
F0.0001377455339492268
sVnc
p5055
F3.44363834873067e-05
sVtip
p5056
F5.328724649227924e-05
sVtil
p5057
F1.332181162306981e-05
sVtin
p5058
F4.222914372847378e-05
sVvicodin
p5059
F0.0
sVsoundly
p5060
F0.0
sVnp
p5061
F0.0
sVtie
p5062
F4.222914372847378e-05
sVimplant
p5063
F0.0
sVcompany
p5064
F6.307370648827012e-05
sVtic
p5065
F0.0
sVnode
p5066
F0.0
sVpicture
p5067
F9.325268136148868e-05
sVnuance
p5068
F0.0
sVuniformly
p5069
F0.0
sVmiscellaneous
p5070
F3.44363834873067e-05
sVyounger
p5071
F3.996543486920943e-05
sVlonger
p5072
F0.00013665969739125192
sVbullet
p5073
F2.111457186423689e-05
sVvietnam
p5074
F0.0
sVserious
p5075
F0.00034636710219981506
sVnortryptyline
p5076
F0.0
sVaffair
p5077
F2.111457186423689e-05
sVrob
p5078
F2.111457186423689e-05
sVfocus
p5079
F0.0013774553394922682
sVmodafinil
p5080
F0.0
sVremarkably
p5081
F0.0
sVempathize
p5082
F0.0
sVrow
p5083
F2.664362324613962e-05
sVclarification
p5084
F0.0
sVenvironment
p5085
F6.334371559271068e-05
sVcharge
p5086
F8.445828745694756e-05
sVneckbeards
p5087
F0.0
sVpropanonol
p5088
F0.0
sVadvantage
p5089
F6.334371559271068e-05
sVimpend
p5090
F0.0
sVunfamiliar
p5091
F6.88727669746134e-05
sVsloppy
p5092
F3.44363834873067e-05
sVmasturbate
p5093
F0.0001033091504619201
sVcook
p5094
F0.00016891657491389513
sVcannabinoid
p5095
F0.0
sVcool
p5096
F6.88727669746134e-05
sVextreamly
p5097
F0.0
sVhour
p5098
F0.0005728378997920018
sVlevel
p5099
F9.110646492750127e-05
sVhawaii
p5100
F0.0
sVcloudy
p5101
F4.222914372847378e-05
sVquick
p5102
F2.1024568829423374e-05
sVwellbutrin
p5103
F0.0
sVslower
p5104
F0.00012668743118542135
sVtougher
p5105
F0.0
sVdorothy
p5106
F0.0
sVinyecta
p5107
F0.0
sVprefrontal
p5108
F0.0
sVpedo
p5109
F0.0
sVbake
p5110
F0.0
sVfear
p5111
F0.0001332181162306981
sVsubstitute
p5112
F0.0
sVstressful
p5113
F0.00017218191743653352
sV25mg
p5114
F0.0
sVreply
p5115
F0.00016891657491389513
sVwithdrawls
p5116
F0.0
sVwater
p5117
F0.00019982717434604714
sVthirty
p5118
F4.222914372847378e-05
sVhealthy
p5119
F0.00019982717434604714
sVweird
p5120
F0.0004129761603151641
sVstsrted
p5121
F0.0
sVemerge
p5122
F2.111457186423689e-05
sVtweak
p5123
F0.0
sV1st
p5124
F6.334371559271068e-05
sVcrisis
p5125
F0.0
sVsledgehammer
p5126
F3.44363834873067e-05
sVando
p5127
F0.0
sVvivid
p5128
F0.0
sVmst
p5129
F0.0
sVmsp
p5130
F0.0
sVprey
p5131
F3.44363834873067e-05
sVmemory
p5132
F0.0002930798557075358
sVpregabalin
p5133
F0.0
sVtoday
p5134
F0.00021040452651151117
sVsrni
p5135
F0.0
sVferraris
p5136
F0.0
sVchocolate
p5137
F2.111457186423689e-05
sVfuel
p5138
F0.0
sVedible
p5139
F0.0001033091504619201
sVelectroconvulsive
p5140
F0.0
sVreflux
p5141
F0.0
sVslightest
p5142
F0.0
sVtrump
p5143
F0.0
sVfigure
p5144
F0.0006545517277913436
sVnexus
p5145
F0.0
sVtdj6xlsnn9s
p5146
F0.0
sVsnris
p5147
F0.0
sV1
p5148
F0.00020323749868442594
sVvital
p5149
F6.88727669746134e-05
sVfourth
p5150
F2.111457186423689e-05
sVensure
p5151
F0.00017218191743653352
sVcocktail
p5152
F0.00034436383487306704
sVinformation
p5153
F0.00016891657491389513
sVscoff
p5154
F3.44363834873067e-05
sVservira
p5155
F0.0
sVbirthday
p5156
F6.334371559271068e-05
sVdexedrine
p5157
F0.0
sVmisdiagnosed
p5158
F0.0
sVeighth
p5159
F3.44363834873067e-05
sVunbelievably
p5160
F0.0
sVjoint
p5161
F0.0008953459706699742
sVstupidly
p5162
F0.0
sVinform
p5163
F0.0003099274513857603
sV1ohm
p5164
F0.0
sVlegitimate
p5165
F0.0
sVrefund
p5166
F0.0
sVexclusive
p5167
F3.44363834873067e-05
sVblocker
p5168
F0.0005854185192842139
sVmainly
p5169
F0.00016891657491389513
sVymmv
p5170
F0.0
sVmoducare
p5171
F0.0
sVgoverement
p5172
F0.0
sVideation
p5173
F0.0
sVamelioration
p5174
F0.0
sVtramacet
p5175
F0.0
sVlonely
p5176
F2.111457186423689e-05
sVpartiuclar
p5177
F0.0
sVwagon
p5178
F3.44363834873067e-05
sVterm
p5179
F0.0006261251462842811
sVname
p5180
F8.760237012259739e-05
sVstabilize
p5181
F0.0
sVstahl
p5182
F0.0
sVnami
p5183
F0.0
sVrealistic
p5184
F0.0
sVftjvekw
p5185
F0.0
sVrealise
p5186
F0.0
sVshy
p5187
F1.332181162306981e-05
sVindividually
p5188
F2.111457186423689e-05
sVailment
p5189
F0.0
sVdistributor
p5190
F0.0
sVultimately
p5191
F0.00017218191743653352
sVconcur
p5192
F0.0
sVprofit
p5193
F0.00017218191743653352
sVmiddleman
p5194
F0.0
sVsomeplace
p5195
F3.44363834873067e-05
sVsweet
p5196
F3.996543486920943e-05
sVtheory
p5197
F0.0002066183009238402
sVclozaril
p5198
F0.0
sVescitralopram
p5199
F0.0
sVcompression
p5200
F0.0
sVflare
p5201
F0.0
sVgranule
p5202
F0.0
sV10mg
p5203
F0.0
sVmotion
p5204
F2.111457186423689e-05
sVturn
p5205
F0.00031171040964668326
sVplace
p5206
F0.0001506760766108675
sVswing
p5207
F0.0004821093688222939
sVchildhood
p5208
F0.0
sV1000
p5209
F4.222914372847378e-05
sVorigin
p5210
F6.88727669746134e-05
sVrevenue
p5211
F0.0
sVawfully
p5212
F2.111457186423689e-05
sVhypothyroid
p5213
F0.0
sVnecessarily
p5214
F0.00019003114677813203
sVcarbonate
p5215
F0.0
sVoids
p5216
F0.0
sVstimulation
p5217
F6.88727669746134e-05
sVwelfare
p5218
F3.44363834873067e-05
sVlegally
p5219
F0.0001033091504619201
sVwhite
p5220
F7.013484217050373e-05
sVfexofenadine
p5221
F0.0
sVhug
p5222
F0.00024105468441114694
sVbeyondmeds
p5223
F0.0
sVcope
p5224
F0.0001377455339492268
sVseason
p5225
F3.44363834873067e-05
sVhun
p5226
F0.0
sVholder
p5227
F3.44363834873067e-05
sVspecify
p5228
F3.44363834873067e-05
sVpopulation
p5229
F2.111457186423689e-05
sVwide
p5230
F3.896380120583541e-05
sVunfortunately
p5231
F0.0010330915046192011
sVrequire
p5232
F0.0003099274513857603
sVoutcome
p5233
F0.0
sVoath
p5234
F3.44363834873067e-05
sVpre
p5235
F0.00010557285932118447
sVdecemberists
p5236
F0.0
sVpro
p5237
F0.0
sVprn
p5238
F0.0
sVant
p5239
F0.0
sVrent
p5240
F6.88727669746134e-05
sVtylenol
p5241
F0.0
sVmarathon
p5242
F0.0
sVsumatriptan
p5243
F0.0
sVexploratory
p5244
F0.0
sVacclimatize
p5245
F0.0
sVideal
p5246
F6.334371559271068e-05
sVfracture
p5247
F0.0
sVcrimini
p5248
F0.0
sVblunt
p5249
F6.88727669746134e-05
sVurge
p5250
F0.0
sVsure
p5251
F0.0008494108662872119
sVmultiple
p5252
F0.00044340600914897474
sVimpulsively
p5253
F0.0
sVtendon
p5254
F0.0
sVneuro
p5255
F0.0
sVcortef
p5256
F0.0
sVhungry
p5257
F8.445828745694756e-05
sVcortex
p5258
F0.0
sVreadjust
p5259
F0.0
sVuncle
p5260
F3.44363834873067e-05
sVsenior
p5261
F3.44363834873067e-05
sVquantity
p5262
F0.0
sVwebmd
p5263
F0.0
sVdrastically
p5264
F0.0
sVset
p5265
F5.956961168336623e-05
sVcheat
p5266
F6.88727669746134e-05
sVrecipe
p5267
F0.0
sVtizanidine
p5268
F0.0
sVhack
p5269
F3.44363834873067e-05
sVvenlafaxin
p5270
F0.0
sVspacey
p5271
F0.0
sVpercs
p5272
F0.0
sVnlm
p5273
F0.0
sVlopram
p5274
F0.0
sVpartake
p5275
F3.44363834873067e-05
sVvyvanse
p5276
F0.0
sVnootropics
p5277
F0.0
sVtinnitus
p5278
F0.0
sVhorrible
p5279
F0.0006967808715198174
sVexpectation
p5280
F0.0
sVtailor
p5281
F0.0
sVssi
p5282
F0.0
sVssd
p5283
F0.0
sVreveal
p5284
F2.111457186423689e-05
sVattentiveness
p5285
F0.0
sVendorphin
p5286
F0.0
sVpicnic
p5287
F0.0
sVcollege
p5288
F0.0005165457523096006
sVability
p5289
F0.0005067497247416854
sVdetect
p5290
F3.44363834873067e-05
sVinhibitory
p5291
F0.0
sVreview
p5292
F0.0
sVoutside
p5293
F3.5040948049038955e-05
sVstims
p5294
F0.0
sVcomp
p5295
F3.44363834873067e-05
sVcomo
p5296
F0.0
sVvenlafaxine
p5297
F0.0
sVrapidly
p5298
F2.664362324613962e-05
sVcomb
p5299
F2.111457186423689e-05
sVcome
p5300
F0.00043450775580808305
sVreaction
p5301
F0.0006334371559271068
sVtopamax
p5302
F0.0
sVwhatevers
p5303
F0.0
sVregion
p5304
F0.00010557285932118447
sV23
p5305
F2.664362324613962e-05
sVquiet
p5306
F7.79276024116708e-06
sVcontract
p5307
F4.222914372847378e-05
sVduty
p5308
F4.222914372847378e-05
sVafterwards
p5309
F3.996543486920943e-05
sVhepatotoxicity
p5310
F0.0
sVcolor
p5311
F5.328724649227924e-05
sVpot
p5312
F0.00016891657491389513
sVpor
p5313
F3.44363834873067e-05
sVperiod
p5314
F0.00014026968434100747
sVinsist
p5315
F0.0001033091504619201
sVmessin
p5316
F0.0
sVsatisfaction
p5317
F6.88727669746134e-05
sVthegov
p5318
F0.0
sVpole
p5319
F2.111457186423689e-05
sV66
p5320
F0.0001033091504619201
sVapproval
p5321
F0.0
sVbizarre
p5322
F3.44363834873067e-05
sVdorsolateral
p5323
F0.0
sVturkey
p5324
F0.0015840736404161082
sVpeaceful
p5325
F3.44363834873067e-05
sVhardly
p5326
F8.445828745694756e-05
sV500
p5327
F0.00017218191743653352
sVdoluxetine
p5328
F0.0
sVdirection
p5329
F3.5040948049038954e-06
sVpioglitazone
p5330
F0.0
sVreimburse
p5331
F0.0
sVtiger
p5332
F0.0
sVmuscular
p5333
F2.111457186423689e-05
sVcareful
p5334
F0.00038006229355626406
sVspirit
p5335
F2.664362324613962e-05
sVcase
p5336
F0.00042080905302302235
sVcash
p5337
F6.334371559271068e-05
sVpremature
p5338
F3.44363834873067e-05
sVcast
p5339
F7.79276024116708e-06
sVvest
p5340
F4.222914372847378e-05
sVside_effect
p5341
F0.0
sVsomeone
p5342
F0.0
sVmentalhealthdaily
p5343
F0.0
sV23440848
p5344
F0.0
sVresentful
p5345
F0.0
sVrheumatologist
p5346
F0.0
sVbowl
p5347
F3.44363834873067e-05
sVrelaxant
p5348
F0.0
sVcheck
p5349
F0.0006967808715198174
sVhtml
p5350
F0.00017218191743653352
sVmacaroni
p5351
F3.44363834873067e-05
sVsuboxone
p5352
F0.0
sVreminder
p5353
F0.0001377455339492268
sVweek
p5354
F0.0010923885530917245
sVween
p5355
F0.0
sVrefusal
p5356
F0.0
sVdriver
p5357
F8.445828745694756e-05
sVness
p5358
F3.44363834873067e-05
sVweed
p5359
F0.0009297823541572808
sVoxycontin
p5360
F0.0
sVdelicate
p5361
F3.44363834873067e-05
sVminimize
p5362
F6.88727669746134e-05
sVranch
p5363
F3.44363834873067e-05
sVwithout
p5364
F0.0
sVrelief
p5365
F0.0
sVinability
p5366
F0.0001033091504619201
sVmodel
p5367
F2.664362324613962e-05
sVreward
p5368
F4.222914372847378e-05
sVjustify
p5369
F0.0
sVninth
p5370
F0.0
sVdysautonomia
p5371
F0.0
sVclot
p5372
F0.0
sVviolent
p5373
F6.88727669746134e-05
sVunclear
p5374
F2.111457186423689e-05
sVcease
p5375
F3.44363834873067e-05
sVnaproate
p5376
F0.0
sVhalfway
p5377
F6.88727669746134e-05
sVblow
p5378
F3.117104096466832e-05
sVexcept
p5379
F0.00019481900602917701
sVcomplain
p5380
F0.00021114571864236893
sVdisrupt
p5381
F0.0
sVanchovy
p5382
F0.0
sVfridge
p5383
F3.44363834873067e-05
sVtanto
p5384
F0.0
sVhydros
p5385
F0.0
sVfurniture
p5386
F6.88727669746134e-05
sVacute
p5387
F0.0
sVfibromyalgia
p5388
F0.0
sVsanity
p5389
F0.0
sVneuralgia
p5390
F0.0
sVibuprofen
p5391
F0.0
sVslice
p5392
F0.00017218191743653352
sVmood
p5393
F0.0015413637460892932
sVrenounce
p5394
F0.0
sVlegal
p5395
F0.0003788002183603737
sV2g
p5396
F0.0
sVprovider
p5397
F0.0
sVcompulsion
p5398
F0.0
sVkilter
p5399
F0.0
sVpolite
p5400
F0.0
sVinhale
p5401
F6.88727669746134e-05
sVfantasize
p5402
F0.0
sVcalmer
p5403
F0.0
sVyay
p5404
F0.0
sVol
p5405
F2.111457186423689e-05
sVok
p5406
F0.00021314898596911695
sVoh
p5407
F0.0008234683027052387
sVketoprofen
p5408
F0.0
sVod
p5409
F0.0
sVob
p5410
F0.0
sVmutually
p5411
F3.44363834873067e-05
sVstand
p5412
F7.792760241167081e-05
sVdoze
p5413
F0.0
sVspondyloarthropathy
p5414
F0.0
sVot
p5415
F0.0
sVop
p5416
F0.0005165457523096006
sVamber
p5417
F0.0001377455339492268
sVtribe
p5418
F3.44363834873067e-05
sVcambridge
p5419
F0.0
sVlantus
p5420
F0.0
sVcommunication
p5421
F0.0
sVgarner
p5422
F0.0
sVspinal
p5423
F0.0
sVdetermine
p5424
F0.00024105468441114694
sVjanuvia
p5425
F0.0
sVtheoretically
p5426
F0.0
sVstrictly
p5427
F4.222914372847378e-05
sVthere
p5428
F0.0
sVracism
p5429
F0.0001033091504619201
sVstrict
p5430
F3.44363834873067e-05
sVvalley
p5431
F3.44363834873067e-05
sVenergy
p5432
F0.0016873827908780283
sV750
p5433
F3.44363834873067e-05
sVregard
p5434
F0.0
sVaniracetam
p5435
F0.0
sVstrenuous
p5436
F0.0
sVpromote
p5437
F3.44363834873067e-05
sVfaster
p5438
F3.996543486920943e-05
sVwholesale
p5439
F0.0
sVexcruciate
p5440
F0.0
sVmedrol
p5441
F0.0
sVnootropic
p5442
F0.0
sVgrasp
p5443
F0.0
sVennui
p5444
F0.0
sVgrass
p5445
F1.332181162306981e-05
sVstrongly
p5446
F0.0
sVtoilet
p5447
F3.44363834873067e-05
sVautoimmune
p5448
F0.0
sVtaste
p5449
F0.0001465399278537679
sVssri
p5450
F0.0
sVtasty
p5451
F0.0
sVcbt
p5452
F0.0
sVincorrect
p5453
F6.88727669746134e-05
sVtasing
p5454
F0.0
sVpuberty
p5455
F0.0
sVbiochemistry
p5456
F0.0
sVdeserve
p5457
F0.00024105468441114694
sVdiarrhea
p5458
F0.00017218191743653352
sV5
p5459
F0.00018922111946481036
sVbesos
p5460
F0.0
sVbriefly
p5461
F0.0002066183009238402
sVseparate
p5462
F6.334371559271068e-05
sVtaperig
p5463
F0.0
sVspouse
p5464
F3.44363834873067e-05
sVcarbs
p5465
F6.88727669746134e-05
sVclinically
p5466
F0.0
sVwife
p5467
F0.00033783314982779026
sVcurve
p5468
F4.222914372847378e-05
sVfizzle
p5469
F0.0
sVcatapres
p5470
F0.0
sVlace
p5471
F0.0
sVlack
p5472
F0.00014806244458217453
sVala
p5473
F2.111457186423689e-05
sVsulfonylurea
p5474
F0.0
sVdisc
p5475
F0.0
sVgeneralize
p5476
F0.0
sVfollow
p5477
F0.00014806244458217453
sVmeditation
p5478
F0.0
sVsynthetic
p5479
F3.44363834873067e-05
sVapartment
p5480
F0.00017218191743653352
sValbenza
p5481
F0.0
sVprogram
p5482
F0.0003167185779635534
sVdairy
p5483
F0.0
sVpresentation
p5484
F3.44363834873067e-05
sVtraditionally
p5485
F0.0
sVuptick
p5486
F0.0
sVwoman
p5487
F4.675656144700249e-05
sVworse
p5488
F0.0007169339421873715
sVsong
p5489
F7.79276024116708e-06
sVfar
p5490
F0.00026631120517269603
sVfat
p5491
F0.0003167185779635534
sVpsychologist
p5492
F0.0
sVworst
p5493
F0.0010768431650760816
sVpcos
p5494
F0.0
sVawful
p5495
F0.0003863325370690245
sVticket
p5496
F6.88727669746134e-05
sVchronic_painc05_fig
p5497
F0.0
sVstimulus
p5498
F0.0
sVlist
p5499
F0.0005328724649227924
sVoveruse
p5500
F0.0
sVpsycadelics
p5501
F0.0
sVremeron
p5502
F0.0
sVten
p5503
F8.572036265283788e-05
sVtea
p5504
F3.996543486920943e-05
sVrate
p5505
F0.0002744894342350796
sVdesign
p5506
F6.334371559271068e-05
sVaropax
p5507
F0.0
sVsue
p5508
F3.44363834873067e-05
sVsub
p5509
F5.328724649227924e-05
sVdeeply
p5510
F2.111457186423689e-05
sVbrief
p5511
F6.88727669746134e-05
sVoverload
p5512
F0.0
sVcrush
p5513
F6.88727669746134e-05
sVversion
p5514
F0.0002533748623708427
sVnoraml
p5515
F0.0
sVsupposedly
p5516
F6.88727669746134e-05
sVshouldn
p5517
F0.00015986173947683772
sVmethyphendiate
p5518
F0.0
sVhopelessness
p5519
F0.0
sVgabaa
p5520
F0.0
sVgabab
p5521
F0.0
sVrelaxation
p5522
F0.0
sVepitome
p5523
F0.0
sVtragedy
p5524
F0.0
sVmisinterpret
p5525
F0.0
sVverry
p5526
F0.0
sVtightness
p5527
F0.0
sVthankfully
p5528
F0.0
sVsuddenly
p5529
F0.00010130588313517204
sVsolitude
p5530
F0.0
sVmunchies
p5531
F6.88727669746134e-05
sVproceed
p5532
F3.996543486920943e-05
sVfaint
p5533
F0.0001033091504619201
sVinterception
p5534
F0.0
sVirritate
p5535
F0.0
sVminor
p5536
F0.0001465399278537679
sVflat
p5537
F2.3378280723501244e-05
sVflag
p5538
F5.328724649227924e-05
sVoxymorphone
p5539
F0.0
sVbasically
p5540
F0.0007576004367207474
sV20000
p5541
F0.0
sVmellow
p5542
F3.44363834873067e-05
sVglad
p5543
F0.00018702624578800995
sVactua
p5544
F0.0
sVorignarly
p5545
F0.0
sVv
p5546
F0.0003099274513857603
sVatrocious
p5547
F3.44363834873067e-05
sVabandonment
p5548
F0.0
sVconspire
p5549
F0.0
sVarise
p5550
F0.0
sVpond
p5551
F3.44363834873067e-05
sVcourt
p5552
F4.222914372847378e-05
sVgoal
p5553
F0.00034436383487306704
sVrather
p5554
F0.00021040452651151117
sVoccasionally
p5555
F0.0001332181162306981
sVactivator
p5556
F0.0
sVlns0pfnyj4u
p5557
F0.0
sVsandwich
p5558
F0.0001033091504619201
sVubiquitous
p5559
F0.0
sVfungus
p5560
F0.0
sVmaprotiline
p5561
F0.0
sVadventure
p5562
F3.44363834873067e-05
sVnumb
p5563
F0.0
sVahhhem
p5564
F0.0
sVshort
p5565
F7.358599090298181e-05
sVshady
p5566
F0.0
sVsupervision
p5567
F0.0
sVdentro
p5568
F0.0
sVmultivitamin
p5569
F0.0
sVseptember
p5570
F0.0
sVscientist
p5571
F0.0
sVstyle
p5572
F7.79276024116708e-06
sV2leqii
p5573
F0.0
sVpray
p5574
F1.332181162306981e-05
sVsale
p5575
F3.44363834873067e-05
sVmattress
p5576
F6.88727669746134e-05
sVresort
p5577
F0.0
sVstephen
p5578
F0.0
sVbout
p5579
F0.0001377455339492268
sVsoccer
p5580
F0.0
sVpram
p5581
F3.44363834873067e-05
sVpolypharmacy
p5582
F0.0
sVwouldn
p5583
F0.00024936832771734656
sVreturn
p5584
F9.351312289400497e-05
sVnumber
p5585
F0.0002264707975921868
sVframework
p5586
F3.44363834873067e-05
sVbelittle
p5587
F0.0
sVbigger
p5588
F7.993086973841886e-05
sV400mg
p5589
F0.0
sVinequality
p5590
F0.0
sVinherent
p5591
F3.44363834873067e-05
sVklean
p5592
F0.0
sVnicotine
p5593
F0.0
sVweight
p5594
F0.0010442298723163889
sVgeneration
p5595
F0.0
sVbrother
p5596
F0.00010557285932118447
sVexpect
p5597
F9.461055973240518e-05
sVinflict
p5598
F0.0
sValcohol
p5599
F0.0005489788684701592
sVadhere
p5600
F0.0
sVhealth
p5601
F0.0013430189560049613
sVshipment
p5602
F0.0
sVfiber
p5603
F0.0
sVhydroxyzine
p5604
F0.0
sVfriday
p5605
F0.0
sVforgive
p5606
F4.222914372847378e-05
sVteach
p5607
F3.44363834873067e-05
sVgenerate
p5608
F3.44363834873067e-05
sVthread
p5609
F0.0002066183009238402
sVthreat
p5610
F0.0
sVtwenty
p5611
F1.332181162306981e-05
sVconsequence
p5612
F0.0
sVrecolocando
p5613
F0.0
sVding
p5614
F0.0
sVunhealthy
p5615
F6.88727669746134e-05
sVfeel
p5616
F0.0013665969739125193
sVrelate
p5617
F0.0
sVsympathy
p5618
F0.0002066183009238402
sVblank
p5619
F1.332181162306981e-05
sVadderal
p5620
F0.0
sVstory
p5621
F0.0005489788684701592
sVtemperature
p5622
F4.222914372847378e-05
sVscript
p5623
F0.00034436383487306704
sVinteract
p5624
F0.0004821093688222939
sVporn
p5625
F3.44363834873067e-05
sVantiseizure
p5626
F0.0
sVstort
p5627
F0.0
sVstorm
p5628
F4.222914372847378e-05
sVsyrup
p5629
F0.0
sVstore
p5630
F6.334371559271068e-05
sVheadache
p5631
F0.0017906919413399483
sV12yrs
p5632
F0.0
sVoption
p5633
F0.0016873827908780283
sVpump
p5634
F0.0001377455339492268
sVhotel
p5635
F2.111457186423689e-05
sVserotonin
p5636
F0.0
sVluckily
p5637
F0.0
sVhorrifically
p5638
F0.0
sVreliever
p5639
F0.0
sVneuropathic
p5640
F0.0
sVking
p5641
F6.334371559271068e-05
sVkind
p5642
F0.0
sVvial
p5643
F0.0
sVdouble
p5644
F0.00010557285932118447
sVinstruction
p5645
F0.0001033091504619201
sVoutrageous
p5646
F4.222914372847378e-05
sVmedicate
p5647
F0.0
sVdank
p5648
F0.0
sV1800mgs
p5649
F0.0
sV800mg
p5650
F0.0
sVrestful
p5651
F0.0
sVrisky
p5652
F3.44363834873067e-05
sVmotivation
p5653
F0.0
sVstorytelling
p5654
F0.0
sVexert
p5655
F0.0
sVstrengthen
p5656
F0.0
sVcognizant
p5657
F0.0
sVetizolam
p5658
F0.0
sVgall
p5659
F0.0
sVrochester
p5660
F0.0
sVlardass
p5661
F0.0
sVeffexor
p5662
F0.0
sVeff
p5663
F0.0
sVbuff
p5664
F0.0
sVjsf
p5665
F0.0
sVelectric
p5666
F8.445828745694756e-05
sVcustomize
p5667
F3.44363834873067e-05
sVreach
p5668
F0.0001198963046076283
sVreact
p5669
F0.0003167185779635534
sVcigarette
p5670
F6.334371559271068e-05
sV75
p5671
F0.0001033091504619201
sVjsp
p5672
F3.44363834873067e-05
sVantihistaminic
p5673
F0.0
sV70
p5674
F2.664362324613962e-05
sVnothing
p5675
F0.0002908398688070233
sVsatanmd
p5676
F0.0
sVmineral
p5677
F3.44363834873067e-05
sVkapvay
p5678
F0.0
sVnefazodone
p5679
F0.0
sVtraditional
p5680
F6.334371559271068e-05
sVnotch
p5681
F3.44363834873067e-05
sVindomethacin
p5682
F0.0
sVwayside
p5683
F0.0
sVroutinely
p5684
F0.0
sVpostsynaptic
p5685
F0.0
sVaggravate
p5686
F0.0
sVpradaxa
p5687
F0.0
sVhip
p5688
F0.00024105468441114694
sVhit
p5689
F0.00025716108795851363
sVbabble
p5690
F0.0
sVlongest
p5691
F3.44363834873067e-05
sVdeaden
p5692
F0.0
sVdose
p5693
F0.005682003275405606
sVtratamiento
p5694
F0.0
sVxopenex
p5695
F0.0
sVclonic
p5696
F0.0
sVinvestigate
p5697
F8.445828745694756e-05
sVactivity
p5698
F0.0006542912862588273
sVdizziness
p5699
F0.0005854185192842139
sVfireteam
p5700
F0.0
sVvulva
p5701
F0.0
sVart
p5702
F1.332181162306981e-05
sVdump
p5703
F0.00016891657491389513
sVintelligence
p5704
F0.0
sVpvc
p5705
F0.0
sVdumb
p5706
F0.00010557285932118447
sVthistle
p5707
F0.0
sVarm
p5708
F3.996543486920943e-05
sVvarious
p5709
F0.00031972347895367544
sVnumerous
p5710
F8.445828745694756e-05
sVrecently
p5711
F0.00024936832771734656
sVinitially
p5712
F0.00014780200304965826
sVattention
p5713
F0.00011689140361750621
sVulcerative
p5714
F0.0
sVsucceed
p5715
F0.0
sVsolu
p5716
F0.0
sVc
p5717
F2.8032758439231163e-05
sVprescription
p5718
F0.0
sVcontext
p5719
F2.111457186423689e-05
sValbeit
p5720
F0.0
sVdistress
p5721
F3.44363834873067e-05
sVsepsis
p5722
F0.0
sVwhelp
p5723
F0.0
sVdecline
p5724
F0.0001377455339492268
sVseratraline
p5725
F0.0
sVpt
p5726
F0.0001033091504619201
sVduo
p5727
F3.44363834873067e-05
sVdud
p5728
F0.0
sVdue
p5729
F0.001161301452533029
sVchronic_painc02_fig
p5730
F0.0
sVstrategy
p5731
F0.0001033091504619201
sVpc
p5732
F3.44363834873067e-05
sVreduction
p5733
F6.88727669746134e-05
sVpa
p5734
F0.0
sVresultat
p5735
F0.0
sVpm
p5736
F0.0
sVflight
p5737
F1.332181162306981e-05
sVvaguely
p5738
F3.44363834873067e-05
sVdemand
p5739
F5.328724649227924e-05
sVgeorgia
p5740
F0.0
sVnoticeable
p5741
F6.88727669746134e-05
sVbatch
p5742
F0.0
sVkick
p5743
F0.00021314898596911695
sVbehavior
p5744
F8.445828745694756e-05
sVconcurrently
p5745
F0.0
sVrit
p5746
F0.0
sVdemon
p5747
F0.0001033091504619201
sVrip
p5748
F3.44363834873067e-05
sVrid
p5749
F0.0002744894342350796
sVlengthy
p5750
F3.44363834873067e-05
sVdelicious
p5751
F7.79276024116708e-06
sVwidely
p5752
F0.0
sV9
p5753
F8.572036265283788e-05
sVitchy
p5754
F0.0
sVhigher
p5755
F0.00021819728675267827
sVliterature
p5756
F0.0001033091504619201
sVrecalibrate
p5757
F0.0
sVrobust
p5758
F2.111457186423689e-05
sVlower
p5759
F0.00017144072530567576
sVnoodle
p5760
F3.44363834873067e-05
sVcingulate
p5761
F0.0
sVanybody
p5762
F6.88727669746134e-05
sVcheer
p5763
F0.0
sVedge
p5764
F7.792760241167081e-05
sVgaveanxiety
p5765
F0.0
sVcompetitive
p5766
F0.0
sVvigilant
p5767
F0.0
sVprofitable
p5768
F0.0
sVtablet
p5769
F0.00024105468441114694
sVk2
p5770
F0.0
sVinternal
p5771
F4.222914372847378e-05
sVproblematic
p5772
F0.0001033091504619201
sVcomplaint
p5773
F0.0
sVapnea
p5774
F0.0
sVzofran
p5775
F0.0
sVadvocate
p5776
F0.0
sVunlimited
p5777
F0.0
sVahem
p5778
F0.0
sVskeptical
p5779
F6.88727669746134e-05
sVconfront
p5780
F6.88727669746134e-05
sVseparately
p5781
F3.44363834873067e-05
sVdistrust
p5782
F0.0
sVmitrazapine
p5783
F0.0
sVunstable
p5784
F3.44363834873067e-05
sVessential
p5785
F0.0
sVecology
p5786
F0.0
sVpaxil
p5787
F0.0
sVdiclofenac
p5788
F0.0
sVgradually
p5789
F0.0
sVprop
p5790
F0.0
sVtendr
p5791
F0.0
sVapathetic
p5792
F0.0
sVzzz
p5793
F0.0
sVlose
p5794
F0.00026631120517269603
sVzombie
p5795
F0.0008264732036953608
sVintense
p5796
F0.0002533748623708427
sVcautious
p5797
F3.44363834873067e-05
sVordeal
p5798
F0.0
sVrange
p5799
F3.896380120583541e-05
sVhatred
p5800
F0.0
sVwanna
p5801
F4.222914372847378e-05
sVnortriptyline
p5802
F0.0
sVmomma
p5803
F3.44363834873067e-05
sVwaklert
p5804
F0.0
sVentitlement
p5805
F3.44363834873067e-05
sVquestion
p5806
F0.00020261176627034408
sVfast
p5807
F0.00014806244458217453
sVanalyze
p5808
F0.0
sVplunge
p5809
F0.0
sVreassurance
p5810
F0.0
sVfamilia
p5811
F0.0
sVjunior
p5812
F0.0
sVeclampsia
p5813
F0.0
sVmalate
p5814
F0.0
sV6lbs
p5815
F0.0
sVhighlight
p5816
F3.44363834873067e-05
sVfreak
p5817
F0.0003099274513857603
sVworthwhile
p5818
F6.88727669746134e-05
sVamitryptyline
p5819
F0.0
sVsuggestible
p5820
F0.0
sVantidysrhythmic
p5821
F0.0
sVlemon
p5822
F4.222914372847378e-05
sVstraterra
p5823
F0.0
sVendurance
p5824
F0.0
sVpeace
p5825
F0.0001377455339492268
sVnico
p5826
F0.0
sVincome
p5827
F0.0
sVmock
p5828
F0.0
sVnice
p5829
F0.0
sVamphetamine
p5830
F0.0
sV2d6
p5831
F0.0
sVhappier
p5832
F0.0001033091504619201
sVvice
p5833
F0.0001033091504619201
sV25lbs
p5834
F0.0
sVintentional
p5835
F0.0
sVcomingling
p5836
F0.0
sVresistance
p5837
F0.0001033091504619201
sVneigborhood
p5838
F0.0
sVadjustment
p5839
F0.0
sVshowthread
p5840
F0.0
sVitll
p5841
F0.0
sVrepackage
p5842
F0.0
sVstable
p5843
F0.0005165457523096006
sVinclude
p5844
F0.001161301452533029
sVdramatically
p5845
F0.0001033091504619201
sVrag
p5846
F0.0002066183009238402
sVfwiw
p5847
F0.0
sVmainstream
p5848
F3.44363834873067e-05
sVfluoxetine
p5849
F0.0
sVoutdoorsy
p5850
F3.44363834873067e-05
sVdisclaimer
p5851
F6.88727669746134e-05
sVsomeday
p5852
F3.44363834873067e-05
sVsmaller
p5853
F9.325268136148868e-05
sVsensation
p5854
F0.0
sVfold
p5855
F4.222914372847378e-05
sVsciatica
p5856
F0.0
sVacid
p5857
F0.0002322602905066058
sVfolk
p5858
F0.0002066183009238402
sVcopays
p5859
F0.0
sVdegree
p5860
F0.00016891657491389513
sVtopomax
p5861
F0.0
sVbulimia
p5862
F0.0
sVexplore
p5863
F0.0001377455339492268
sVseparation
p5864
F0.0
sVibs
p5865
F0.0
sVrobaxin
p5866
F0.0
sVlarger
p5867
F5.328724649227924e-05
sVopiate
p5868
F0.0
sVinatentive
p5869
F0.0
sVapple
p5870
F2.3378280723501244e-05
sVforbid
p5871
F3.44363834873067e-05
sVaps
p5872
F0.0
sVapt
p5873
F0.0
sVduck
p5874
F2.111457186423689e-05
sVapply
p5875
F6.334371559271068e-05
sVuse
p5876
F0.0008094458999327999
sVfee
p5877
F0.0
sVlottery
p5878
F3.44363834873067e-05
sVhippie
p5879
F6.88727669746134e-05
sVconsumption
p5880
F3.44363834873067e-05
sVfem
p5881
F6.88727669746134e-05
sVscariest
p5882
F0.0
sVattribute
p5883
F6.334371559271068e-05
sVfrot
p5884
F0.0
sVpsoriasis
p5885
F0.0
sVclever
p5886
F1.332181162306981e-05
sVosteo
p5887
F0.0
sVcpy2d6
p5888
F0.0
sVmusician
p5889
F0.0
sVinfection
p5890
F6.88727669746134e-05
sVsore
p5891
F6.88727669746134e-05
sVrabbit
p5892
F2.111457186423689e-05
sVpenis
p5893
F3.44363834873067e-05
sVannoy
p5894
F0.00024105468441114694
sVgeodon
p5895
F0.0
sVaugment
p5896
F0.0
sVcolumn
p5897
F3.44363834873067e-05
sVanywhere
p5898
F6.234208192933664e-05
sVstabilizer
p5899
F0.0
sVproof
p5900
F0.0
sVtomarlo
p5901
F0.0
sVthirsty
p5902
F3.44363834873067e-05
sVhypersomnia
p5903
F0.0
sVtax
p5904
F0.0001377455339492268
sVcarrot
p5905
F3.44363834873067e-05
sVsomething
p5906
F0.0005431346947601039
sVtab
p5907
F2.111457186423689e-05
sVtai
p5908
F0.0
sVsyndrome
p5909
F0.000781239158976765
sVsit
p5910
F0.00017318355109990753
sVtamper
p5911
F0.0
sVsix
p5912
F0.00033783314982779026
sVfortunate
p5913
F0.0
sVbrian
p5914
F0.0
sVaurorix
p5915
F0.0
sVinstead
p5916
F0.0005062288416766528
sVpanic
p5917
F0.0
sVsin
p5918
F6.88727669746134e-05
sVsil
p5919
F0.0
sVtension
p5920
F0.0
sVmaternal
p5921
F0.0
sVattend
p5922
F6.334371559271068e-05
sV6mg
p5923
F0.0
sVnormalcy
p5924
F0.0
sVdiscomfort
p5925
F0.0
sVabuse
p5926
F0.0003099274513857603
sVwrist
p5927
F6.88727669746134e-05
sVhahahaha
p5928
F0.0
sVlight
p5929
F0.00013247692409984037
sVneuroimaging
p5930
F0.0
sVhonestly
p5931
F0.0007601245871125281
sVmeager
p5932
F0.0
sVwhilst
p5933
F2.111457186423689e-05
sV130
p5934
F2.111457186423689e-05
sV134
p5935
F0.0
sVsuperior
p5936
F0.0
sVcomplicate
p5937
F0.0
sVpermanent
p5938
F9.325268136148868e-05
sVrestrain
p5939
F0.0
sVchoose
p5940
F0.0001465399278537679
sVorange
p5941
F4.222914372847378e-05
sVricotta
p5942
F0.0
sVholiday
p5943
F0.00010557285932118447
sVpending
p5944
F0.0
sVcrash
p5945
F2.664362324613962e-05
sVproair
p5946
F0.0
sVflour
p5947
F0.0
sVpractice
p5948
F0.0
sVnegligent
p5949
F0.0
sVeli5
p5950
F0.0
sVrepublican
p5951
F0.0
sVprofound
p5952
F3.44363834873067e-05
sVedit
p5953
F0.0009297823541572808
sVunpredictable
p5954
F0.0001377455339492268
sVtrap
p5955
F0.0
sVchamp
p5956
F0.0
sV180
p5957
F0.0
sVconvulsant
p5958
F0.0
sVmyelin
p5959
F0.0
sVweening
p5960
F0.0
sV80
p5961
F0.0
sVout
p5962
F0.0
sVcategory
p5963
F0.00012668743118542135
sVobvs
p5964
F0.0
sVyup
p5965
F0.0
sVplural
p5966
F3.44363834873067e-05
sVdisclose
p5967
F3.44363834873067e-05
sVmolly
p5968
F0.0
sVovertake
p5969
F0.0
sVorganic
p5970
F0.0
sVg
p5971
F2.664362324613962e-05
sVmusculatura
p5972
F0.0
sVconversation
p5973
F5.454932168816957e-05
sVhence
p5974
F6.88727669746134e-05
sVhypomanic
p5975
F0.0
sVhealither
p5976
F0.0
sVpublication
p5977
F0.0
sVunknown
p5978
F2.111457186423689e-05
sVpriority
p5979
F0.0
sV1500
p5980
F0.0
sVanaemia
p5981
F0.0
sVshell
p5982
F2.111457186423689e-05
sVshelf
p5983
F0.0
sVropiniorole
p5984
F0.0
sVdiminish
p5985
F0.0
sVjuly
p5986
F3.44363834873067e-05
sVinstitution
p5987
F3.44363834873067e-05
sVcongenital
p5988
F0.0
sVisolation
p5989
F0.0
sVinfectious
p5990
F3.44363834873067e-05
sVrarity
p5991
F0.0
sVarouse
p5992
F0.0
sVelongate
p5993
F0.0
sVclit
p5994
F6.88727669746134e-05
sVsidewalk
p5995
F3.44363834873067e-05
sVunbearable
p5996
F0.0
sVafraid
p5997
F0.00011689140361750621
sVcspine
p5998
F0.0
sVsevela
p5999
F0.0
sVrout
p6000
F0.0
sVasshole
p6001
F6.88727669746134e-05
sVpharmacist
p6002
F0.0
sVcombat
p6003
F0.0
sVcentre
p6004
F0.0001033091504619201
sVharmful
p6005
F0.0
sVdigestive
p6006
F3.44363834873067e-05
sVlidocaine
p6007
F0.0
sVdelve
p6008
F0.0
sVhighschool
p6009
F3.44363834873067e-05
sVclass
p6010
F0.00039743077229952115
sVvortioxetine
p6011
F0.0
sVdiscourage
p6012
F0.0
sVatypical
p6013
F0.0004132366018476804
sV_is
p6014
F0.0
sVidiosyncratic
p6015
F0.0
sVgain
p6016
F0.002153686330152163
sVcheezit
p6017
F0.0
sVtrimester
p6018
F0.0
sVneurotoxic
p6019
F0.0
sVchicken
p6020
F0.00012668743118542135
sVear
p6021
F6.88727669746134e-05
sVmanacle
p6022
F0.0
sV60mg
p6023
F0.0
sVcombo
p6024
F0.0007576004367207474
sVcontortionist
p6025
F0.0
sVlocal
p6026
F0.00012668743118542135
sVphenylpiracetam
p6027
F0.0
sVcuba
p6028
F0.0
sVmidnight
p6029
F4.222914372847378e-05
sVdope
p6030
F0.0001033091504619201
sVdissolvable
p6031
F0.0
sVpenetrate
p6032
F0.0
sVqt
p6033
F6.88727669746134e-05
sV15th
p6034
F3.44363834873067e-05
sVview
p6035
F3.896380120583541e-05
sVeurope
p6036
F0.0
sVexpel
p6037
F0.0
sVmethylprednisolone
p6038
F0.0
sVcloser
p6039
F0.00016891657491389513
sVglucophage
p6040
F0.0
sVarguably
p6041
F0.0
sVreishi
p6042
F0.0
sVxray
p6043
F0.0
sVfavor
p6044
F4.222914372847378e-05
sVdoxepin
p6045
F0.0
sVjot
p6046
F0.0
sVexam
p6047
F3.44363834873067e-05
sVjoy
p6048
F2.111457186423689e-05
sVjob
p6049
F0.0004795852184305132
sVhypothesis
p6050
F3.44363834873067e-05
sVjoe
p6051
F0.0
sVprofanity
p6052
F0.0
sVapril
p6053
F0.0
sVgrain
p6054
F0.0
sVatleast
p6055
F0.0
sVtiffany
p6056
F0.0
sVsafely
p6057
F0.0001033091504619201
sVhehehe
p6058
F0.0
sVwall
p6059
F8.445828745694756e-05
sVwalk
p6060
F0.0004262979719382339
sVrph
p6061
F0.0
sVrosiglitazone
p6062
F0.0
sVwithdrawl
p6063
F0.0
sVdecent
p6064
F7.993086973841886e-05
sVproudest
p6065
F0.0
sVharshest
p6066
F0.0
sVsufficient
p6067
F0.0
sVcrappy
p6068
F6.334371559271068e-05
sVhmm
p6069
F5.328724649227924e-05
sVpresent
p6070
F1.4016379219615581e-05
sVdangit
p6071
F0.0
sVunlike
p6072
F7.993086973841886e-05
sVwilt
p6073
F0.0
sVoding
p6074
F0.0
sVwill
p6075
F7.008189609807791e-05
sVwild
p6076
F1.332181162306981e-05
sVmedicinal
p6077
F6.88727669746134e-05
sVlayer
p6078
F8.445828745694756e-05
sVthus
p6079
F0.00038006229355626406
sVencouragement
p6080
F0.0
sVdual
p6081
F4.222914372847378e-05
sVave
p6082
F3.44363834873067e-05
sVrestrict_sr
p6083
F0.0
sVwhore
p6084
F3.44363834873067e-05
sVperhaps
p6085
F0.0003167185779635534
sVcross
p6086
F3.153685324413506e-05
sVmember
p6087
F0.0002066183009238402
sVadverse
p6088
F0.0
sVbuddhism
p6089
F0.0
sVdisorient
p6090
F0.0
sVdifficult
p6091
F0.0003996543486920943
sVbcps
p6092
F0.0
sVdefinately
p6093
F0.0
sVdisagree
p6094
F0.0
sVbeast
p6095
F1.332181162306981e-05
sVstudent
p6096
F8.445828745694756e-05
sVpdf
p6097
F0.0001033091504619201
sVnonpainful
p6098
F0.0
sVwhole
p6099
F0.0003596889138228848
sVbrintilinex
p6100
F0.0
sV2lqzsb
p6101
F0.0
sVenglish
p6102
F3.44363834873067e-05
sVexcessive
p6103
F2.664362324613962e-05
sVrocket
p6104
F0.0
sVheavily
p6105
F6.334371559271068e-05
sVpercent
p6106
F2.111457186423689e-05
sVwealthy
p6107
F0.0
sVobtain
p6108
F0.0
sVmfp
p6109
F0.0
sVrecollection
p6110
F3.44363834873067e-05
sVminiscule
p6111
F0.0
sVhappiness
p6112
F0.0002066183009238402
sVtca
p6113
F0.0
sVrapid
p6114
F0.0003099274513857603
sVsupply
p6115
F0.0003099274513857603
sVsky
p6116
F6.334371559271068e-05
sVadoption
p6117
F6.88727669746134e-05
sVusage
p6118
F6.334371559271068e-05
sVsmart
p6119
F4.222914372847378e-05
sVtizzy
p6120
F0.0
sVmyth
p6121
F3.44363834873067e-05
sVknow
p6122
F0.001145839001203574
sVknot
p6123
F6.88727669746134e-05
sVpress
p6124
F3.996543486920943e-05
sVhelpful
p6125
F0.0009986551211318944
sVsafest
p6126
F0.0
sVsophomore
p6127
F0.0
sValpha2a
p6128
F0.0
sVexceed
p6129
F3.44363834873067e-05
sVsmoothly
p6130
F0.0
sVcx82q1f
p6131
F0.0
sVchurch
p6132
F2.111457186423689e-05
sVmelee
p6133
F0.0
sVgrowth
p6134
F3.44363834873067e-05
sVnsaid
p6135
F0.0
sVpsychoanalyst
p6136
F0.0
sVlead
p6137
F0.00021819728675267827
sVlean
p6138
F3.44363834873067e-05
sVlocate
p6139
F6.88727669746134e-05
sVslur
p6140
F0.0
sVdrol
p6141
F0.0
sVrare
p6142
F0.0002754910678984536
sVincline
p6143
F0.0
sVhookup
p6144
F0.0
sVndc
p6145
F0.0
sVdependence
p6146
F0.0
sVdependency
p6147
F0.0001377455339492268
sVepiphany
p6148
F0.0
sVswear
p6149
F6.88727669746134e-05
sVsweat
p6150
F0.0005509821357969072
sVresentida
p6151
F0.0
sVkinda
p6152
F0.0006542912862588273
sVsugary
p6153
F3.44363834873067e-05
sVtag
p6154
F2.111457186423689e-05
sVmras
p6155
F0.0
sVweather
p6156
F3.996543486920943e-05
sVpromise
p6157
F6.334371559271068e-05
sVbrush
p6158
F1.332181162306981e-05
sVnegate
p6159
F0.0
sVeh
p6160
F1.332181162306981e-05
sVuncontrollably
p6161
F0.0
sVnuke
p6162
F0.0
sVvag
p6163
F3.44363834873067e-05
sVuncontrollable
p6164
F0.0
sVvolume
p6165
F3.44363834873067e-05
sVphenelzineu
p6166
F0.0
sVsqueeze
p6167
F6.88727669746134e-05
sVtemp
p6168
F6.88727669746134e-05
sVwhether
p6169
F8.40982753176935e-05
sVdistract
p6170
F0.0
sVrecord
p6171
F0.00010557285932118447
sVcake
p6172
F6.334371559271068e-05
sVdemonstrate
p6173
F6.88727669746134e-05
sVhorrific
p6174
F0.0
sVcarbohydrate
p6175
F0.0
sVcounteract
p6176
F0.0
sVlobotomy
p6177
F3.44363834873067e-05
sVincredible
p6178
F0.0001377455339492268
sVboot
p6179
F0.0001033091504619201
sVbook
p6180
F0.00021114571864236893
sVsick
p6181
F0.0009297823541572808
sVincredibly
p6182
F0.00040117686542050094
sVsica
p6183
F0.0
sVconclusion
p6184
F4.222914372847378e-05
sVjunk
p6185
F2.111457186423689e-05
sVjune
p6186
F0.0
sVfrustrate
p6187
F0.0
sVpreform
p6188
F0.0
sVmetabolizer
p6189
F0.0
sVcliff
p6190
F2.111457186423689e-05
sVnexplanon
p6191
F0.0
sVhypervigilance
p6192
F0.0
sVintentionally
p6193
F6.88727669746134e-05
sVwellburtin
p6194
F0.0
s.